
c:/src/battlebots-sumo/v3/fuzzy/target/fuzzy.elf:     file format elf32-littlearm

Sections:
Idx Name          Size      VMA       LMA       File off  Algn
  0 .module_info  00000018  080a0000  080a0000  00010000  2**2
                  CONTENTS, ALLOC, LOAD, READONLY, DATA
  1 .text         00005278  080a0018  080a0018  00010018  2**3
                  CONTENTS, ALLOC, LOAD, READONLY, CODE
  2 .backup       00000004  40024000  080a5290  00024000  2**2
                  CONTENTS, ALLOC, LOAD, DATA
  3 .data         00000038  20000300  080a5294  00030300  2**2
                  CONTENTS, ALLOC, LOAD, DATA
  4 .bss          00000634  20000338  20000338  00040338  2**2
                  ALLOC
  5 .module_info_suffix 00000028  080a52cc  080a52cc  000352cc  2**0
                  CONTENTS, ALLOC, LOAD, READONLY, DATA
  6 .module_info_crc 00000004  080a52f4  080a52f4  000352f4  2**0
                  CONTENTS, ALLOC, LOAD, READONLY, DATA
  7 .debug_info   00098701  00000000  00000000  000352f8  2**0
                  CONTENTS, READONLY, DEBUGGING
  8 .debug_abbrev 00010693  00000000  00000000  000cd9f9  2**0
                  CONTENTS, READONLY, DEBUGGING
  9 .debug_loc    00014c0c  00000000  00000000  000de08c  2**0
                  CONTENTS, READONLY, DEBUGGING
 10 .debug_aranges 00002140  00000000  00000000  000f2c98  2**0
                  CONTENTS, READONLY, DEBUGGING
 11 .debug_ranges 00002f10  00000000  00000000  000f4dd8  2**0
                  CONTENTS, READONLY, DEBUGGING
 12 .debug_macro  00025165  00000000  00000000  000f7ce8  2**0
                  CONTENTS, READONLY, DEBUGGING
 13 .debug_line   00024990  00000000  00000000  0011ce4d  2**0
                  CONTENTS, READONLY, DEBUGGING
 14 .debug_str    0008741e  00000000  00000000  001417dd  2**0
                  CONTENTS, READONLY, DEBUGGING
 15 .debug_frame  0000bae8  00000000  00000000  001c8bfc  2**2
                  CONTENTS, READONLY, DEBUGGING

Disassembly of section .text:

080a0018 <user_part_module>:
 80a0018:	08 50 0a 08                                         .P..

080a001c <module_user_pre_init>:
/**
 * Initializes this user module. Returns the start of the heap.
 */
void* module_user_pre_init() {

    if ( (&link_global_data_start!=&link_global_data_initial_values) && (link_global_data_size != 0))
 80a001c:	4809      	ldr	r0, [pc, #36]	; (80a0044 <module_user_pre_init+0x28>)
 80a001e:	490a      	ldr	r1, [pc, #40]	; (80a0048 <module_user_pre_init+0x2c>)
extern constructor_ptr_t link_constructors_end;

/**
 * Initializes this user module. Returns the start of the heap.
 */
void* module_user_pre_init() {
 80a0020:	b508      	push	{r3, lr}

    if ( (&link_global_data_start!=&link_global_data_initial_values) && (link_global_data_size != 0))
 80a0022:	4288      	cmp	r0, r1
 80a0024:	d005      	beq.n	80a0032 <module_user_pre_init+0x16>
 80a0026:	4a09      	ldr	r2, [pc, #36]	; (80a004c <module_user_pre_init+0x30>)
 80a0028:	4282      	cmp	r2, r0
 80a002a:	d002      	beq.n	80a0032 <module_user_pre_init+0x16>
    {
        memcpy(&link_global_data_start, &link_global_data_initial_values, link_global_data_size);
 80a002c:	1a12      	subs	r2, r2, r0
 80a002e:	f004 ffcf 	bl	80a4fd0 <memcpy>
    }

    memset(&link_bss_location, 0, link_bss_size );
 80a0032:	4807      	ldr	r0, [pc, #28]	; (80a0050 <module_user_pre_init+0x34>)
 80a0034:	4a07      	ldr	r2, [pc, #28]	; (80a0054 <module_user_pre_init+0x38>)
 80a0036:	2100      	movs	r1, #0
 80a0038:	1a12      	subs	r2, r2, r0
 80a003a:	f004 ffd4 	bl	80a4fe6 <memset>
    return &link_heap_start;
}
 80a003e:	4806      	ldr	r0, [pc, #24]	; (80a0058 <module_user_pre_init+0x3c>)
 80a0040:	bd08      	pop	{r3, pc}
 80a0042:	bf00      	nop
 80a0044:	20000300 	.word	0x20000300
 80a0048:	080a5294 	.word	0x080a5294
 80a004c:	20000338 	.word	0x20000338
 80a0050:	20000338 	.word	0x20000338
 80a0054:	2000096c 	.word	0x2000096c
 80a0058:	2000096c 	.word	0x2000096c

080a005c <module_user_init>:
extern constructor_ptr_t link_constructors_location[];
extern constructor_ptr_t link_constructors_end;
#define link_constructors_size   ((unsigned long)&link_constructors_end  -  (unsigned long)&link_constructors_location )

void module_user_init()
{
 80a005c:	b570      	push	{r4, r5, r6, lr}
    module_user_init_hook();
 80a005e:	f003 fbe5 	bl	80a382c <module_user_init_hook>
 80a0062:	4b07      	ldr	r3, [pc, #28]	; (80a0080 <module_user_init+0x24>)
 80a0064:	4c07      	ldr	r4, [pc, #28]	; (80a0084 <module_user_init+0x28>)
 80a0066:	461e      	mov	r6, r3
 80a0068:	1ae4      	subs	r4, r4, r3
 80a006a:	08a4      	lsrs	r4, r4, #2

    // invoke constructors
    int ctor_num;
    for (ctor_num=0; ctor_num < link_constructors_size/sizeof(constructor_ptr_t); ctor_num++ )
 80a006c:	2500      	movs	r5, #0
 80a006e:	42a5      	cmp	r5, r4
 80a0070:	d004      	beq.n	80a007c <module_user_init+0x20>
    {
        link_constructors_location[ctor_num]();
 80a0072:	f856 3025 	ldr.w	r3, [r6, r5, lsl #2]
 80a0076:	4798      	blx	r3
{
    module_user_init_hook();

    // invoke constructors
    int ctor_num;
    for (ctor_num=0; ctor_num < link_constructors_size/sizeof(constructor_ptr_t); ctor_num++ )
 80a0078:	3501      	adds	r5, #1
 80a007a:	e7f8      	b.n	80a006e <module_user_init+0x12>
    {
        link_constructors_location[ctor_num]();
    }
}
 80a007c:	bd70      	pop	{r4, r5, r6, pc}
 80a007e:	bf00      	nop
 80a0080:	080a525c 	.word	0x080a525c
 80a0084:	080a5290 	.word	0x080a5290

080a0088 <module_user_setup>:

/**
 * Export these functions with a fuller name so they don't clash with the setup/loop wrappers in the system module.
 */
void module_user_setup() {
    setup();
 80a0088:	f001 b840 	b.w	80a110c <setup>

080a008c <module_user_loop>:
}

void module_user_loop() {
 80a008c:	b508      	push	{r3, lr}
    loop();
 80a008e:	f001 fa17 	bl	80a14c0 <loop>
    _post_loop();
}
 80a0092:	e8bd 4008 	ldmia.w	sp!, {r3, lr}
    setup();
}

void module_user_loop() {
    loop();
    _post_loop();
 80a0096:	f003 bb87 	b.w	80a37a8 <_post_loop>

080a009a <_Znwj>:
 80a009a:	f003 b9ab 	b.w	80a33f4 <malloc>

080a009e <_ZdlPv>:
 80a009e:	f003 b9b1 	b.w	80a3404 <free>

080a00a2 <__cxa_guard_acquire>:

/* Provide default implemenation for __cxa_guard_acquire() and
 * __cxa_guard_release(). Note: these must be revisited if a multitasking
 * OS is ported to this platform. */
__extension__ typedef int __guard __attribute__((mode (__DI__)));
int __cxa_guard_acquire(__guard *g) {return !*(char *)(g);};
 80a00a2:	7800      	ldrb	r0, [r0, #0]
 80a00a4:	fab0 f080 	clz	r0, r0
 80a00a8:	0940      	lsrs	r0, r0, #5
 80a00aa:	4770      	bx	lr

080a00ac <__cxa_guard_release>:
void __cxa_guard_release (__guard *g) {*(char *)g = 1;};
 80a00ac:	2301      	movs	r3, #1
 80a00ae:	7003      	strb	r3, [r0, #0]
 80a00b0:	4770      	bx	lr
	...

080a00b4 <_Z5FLISRv>:

// Particle Photon settings
SYSTEM_THREAD(ENABLED);
SYSTEM_MODE(MANUAL);

void FLISR() {
 80a00b4:	b508      	push	{r3, lr}
    FLflag = digitalRead(FL);
 80a00b6:	4b05      	ldr	r3, [pc, #20]	; (80a00cc <_Z5FLISRv+0x18>)
 80a00b8:	8818      	ldrh	r0, [r3, #0]
 80a00ba:	f003 fe29 	bl	80a3d10 <digitalRead>
 80a00be:	4b04      	ldr	r3, [pc, #16]	; (80a00d0 <_Z5FLISRv+0x1c>)
 80a00c0:	3000      	adds	r0, #0
 80a00c2:	bf18      	it	ne
 80a00c4:	2001      	movne	r0, #1
 80a00c6:	7018      	strb	r0, [r3, #0]
 80a00c8:	bd08      	pop	{r3, pc}
 80a00ca:	bf00      	nop
 80a00cc:	2000031c 	.word	0x2000031c
 80a00d0:	20000328 	.word	0x20000328

080a00d4 <_Z5FRISRv>:
}

void FRISR() {
 80a00d4:	b508      	push	{r3, lr}
    FRflag = digitalRead(FR);
 80a00d6:	4b05      	ldr	r3, [pc, #20]	; (80a00ec <_Z5FRISRv+0x18>)
 80a00d8:	8818      	ldrh	r0, [r3, #0]
 80a00da:	f003 fe19 	bl	80a3d10 <digitalRead>
 80a00de:	4b04      	ldr	r3, [pc, #16]	; (80a00f0 <_Z5FRISRv+0x1c>)
 80a00e0:	3000      	adds	r0, #0
 80a00e2:	bf18      	it	ne
 80a00e4:	2001      	movne	r0, #1
 80a00e6:	7018      	strb	r0, [r3, #0]
 80a00e8:	bd08      	pop	{r3, pc}
 80a00ea:	bf00      	nop
 80a00ec:	2000030c 	.word	0x2000030c
 80a00f0:	20000329 	.word	0x20000329

080a00f4 <_Z5BLISRv>:
}

void BLISR() {
 80a00f4:	b508      	push	{r3, lr}
    BLflag = digitalRead(BL);
 80a00f6:	4b05      	ldr	r3, [pc, #20]	; (80a010c <_Z5BLISRv+0x18>)
 80a00f8:	8818      	ldrh	r0, [r3, #0]
 80a00fa:	f003 fe09 	bl	80a3d10 <digitalRead>
 80a00fe:	4b04      	ldr	r3, [pc, #16]	; (80a0110 <_Z5BLISRv+0x1c>)
 80a0100:	3000      	adds	r0, #0
 80a0102:	bf18      	it	ne
 80a0104:	2001      	movne	r0, #1
 80a0106:	7018      	strb	r0, [r3, #0]
 80a0108:	bd08      	pop	{r3, pc}
 80a010a:	bf00      	nop
 80a010c:	20000314 	.word	0x20000314
 80a0110:	20000308 	.word	0x20000308

080a0114 <_Z5BRISRv>:
}

void BRISR() {
 80a0114:	b508      	push	{r3, lr}
    BRflag = digitalRead(BR);
 80a0116:	4b05      	ldr	r3, [pc, #20]	; (80a012c <_Z5BRISRv+0x18>)
 80a0118:	8818      	ldrh	r0, [r3, #0]
 80a011a:	f003 fdf9 	bl	80a3d10 <digitalRead>
 80a011e:	4b04      	ldr	r3, [pc, #16]	; (80a0130 <_Z5BRISRv+0x1c>)
 80a0120:	3000      	adds	r0, #0
 80a0122:	bf18      	it	ne
 80a0124:	2001      	movne	r0, #1
 80a0126:	7018      	strb	r0, [r3, #0]
 80a0128:	bd08      	pop	{r3, pc}
 80a012a:	bf00      	nop
 80a012c:	20000318 	.word	0x20000318
 80a0130:	20000330 	.word	0x20000330

080a0134 <_Z5RSISRv>:
}

void RSISR() {
 80a0134:	b508      	push	{r3, lr}
    RSflag = digitalRead(RS);
 80a0136:	4b05      	ldr	r3, [pc, #20]	; (80a014c <_Z5RSISRv+0x18>)
 80a0138:	8818      	ldrh	r0, [r3, #0]
 80a013a:	f003 fde9 	bl	80a3d10 <digitalRead>
 80a013e:	4b04      	ldr	r3, [pc, #16]	; (80a0150 <_Z5RSISRv+0x1c>)
 80a0140:	3000      	adds	r0, #0
 80a0142:	bf18      	it	ne
 80a0144:	2001      	movne	r0, #1
 80a0146:	7018      	strb	r0, [r3, #0]
 80a0148:	bd08      	pop	{r3, pc}
 80a014a:	bf00      	nop
 80a014c:	20000300 	.word	0x20000300
 80a0150:	2000033c 	.word	0x2000033c

080a0154 <_Z8movementi.part.1>:
      // Serial.print("start done");
      start = false;
      prevFlagSet = false;
    }
  } else if (state == 10) {
	    if (cur - prevFlag < nudge) {			// go backwards a 'nudge'
 80a0154:	4b18      	ldr	r3, [pc, #96]	; (80a01b8 <_Z8movementi.part.1+0x64>)
 80a0156:	4a19      	ldr	r2, [pc, #100]	; (80a01bc <_Z8movementi.part.1+0x68>)
 80a0158:	681b      	ldr	r3, [r3, #0]
 80a015a:	6812      	ldr	r2, [r2, #0]
 80a015c:	1a9b      	subs	r3, r3, r2
 80a015e:	f240 22ed 	movw	r2, #749	; 0x2ed
 80a0162:	4293      	cmp	r3, r2
 80a0164:	dc0a      	bgt.n	80a017c <_Z8movementi.part.1+0x28>
	  		L_command = line_rev;
 80a0166:	4a16      	ldr	r2, [pc, #88]	; (80a01c0 <_Z8movementi.part.1+0x6c>)
 80a0168:	234b      	movs	r3, #75	; 0x4b
 80a016a:	6013      	str	r3, [r2, #0]
	  		R_command = line_rev;
 80a016c:	4a15      	ldr	r2, [pc, #84]	; (80a01c4 <_Z8movementi.part.1+0x70>)
 80a016e:	6013      	str	r3, [r2, #0]
	  		L_dir = 0;
 80a0170:	4a15      	ldr	r2, [pc, #84]	; (80a01c8 <_Z8movementi.part.1+0x74>)
 80a0172:	2300      	movs	r3, #0
 80a0174:	6013      	str	r3, [r2, #0]
	  		R_dir = 0;
 80a0176:	4a15      	ldr	r2, [pc, #84]	; (80a01cc <_Z8movementi.part.1+0x78>)
 80a0178:	6013      	str	r3, [r2, #0]
 80a017a:	4770      	bx	lr
        // Serial.println("Moving backwards a nudge");
	    }
	    else if (cur - prevFlag < degrees180) {	// turn cw 180
 80a017c:	f240 52db 	movw	r2, #1499	; 0x5db
 80a0180:	4293      	cmp	r3, r2
 80a0182:	dc0b      	bgt.n	80a019c <_Z8movementi.part.1+0x48>
	  		L_command = line_180;
 80a0184:	4a0e      	ldr	r2, [pc, #56]	; (80a01c0 <_Z8movementi.part.1+0x6c>)
 80a0186:	234b      	movs	r3, #75	; 0x4b
 80a0188:	6013      	str	r3, [r2, #0]
	  		R_command = line_180;
 80a018a:	4a0e      	ldr	r2, [pc, #56]	; (80a01c4 <_Z8movementi.part.1+0x70>)
 80a018c:	6013      	str	r3, [r2, #0]
	  		R_dir = 0;
 80a018e:	4b0f      	ldr	r3, [pc, #60]	; (80a01cc <_Z8movementi.part.1+0x78>)
 80a0190:	2200      	movs	r2, #0
 80a0192:	601a      	str	r2, [r3, #0]
	  		L_dir = 1;
 80a0194:	4b0c      	ldr	r3, [pc, #48]	; (80a01c8 <_Z8movementi.part.1+0x74>)
 80a0196:	2201      	movs	r2, #1
 80a0198:	601a      	str	r2, [r3, #0]
 80a019a:	4770      	bx	lr
        // Serial.println("Turning 180");
	    }
	    else {									// reset line flags & detection flag
        FLflag = true;						// only when movement is FINISHED
 80a019c:	4a0c      	ldr	r2, [pc, #48]	; (80a01d0 <_Z8movementi.part.1+0x7c>)
 80a019e:	2301      	movs	r3, #1
 80a01a0:	7013      	strb	r3, [r2, #0]
        FRflag = true;
 80a01a2:	4a0c      	ldr	r2, [pc, #48]	; (80a01d4 <_Z8movementi.part.1+0x80>)
 80a01a4:	7013      	strb	r3, [r2, #0]
	      BLflag = true;
 80a01a6:	4a0c      	ldr	r2, [pc, #48]	; (80a01d8 <_Z8movementi.part.1+0x84>)
 80a01a8:	7013      	strb	r3, [r2, #0]
	      BRflag = true;
 80a01aa:	4a0c      	ldr	r2, [pc, #48]	; (80a01dc <_Z8movementi.part.1+0x88>)
 80a01ac:	7013      	strb	r3, [r2, #0]
	      prevFlagSet = false;
 80a01ae:	4b0c      	ldr	r3, [pc, #48]	; (80a01e0 <_Z8movementi.part.1+0x8c>)
 80a01b0:	2200      	movs	r2, #0
 80a01b2:	701a      	strb	r2, [r3, #0]
 80a01b4:	4770      	bx	lr
 80a01b6:	bf00      	nop
 80a01b8:	200003c4 	.word	0x200003c4
 80a01bc:	200003b0 	.word	0x200003b0
 80a01c0:	200003cc 	.word	0x200003cc
 80a01c4:	20000404 	.word	0x20000404
 80a01c8:	20000320 	.word	0x20000320
 80a01cc:	20000304 	.word	0x20000304
 80a01d0:	20000328 	.word	0x20000328
 80a01d4:	20000329 	.word	0x20000329
 80a01d8:	20000308 	.word	0x20000308
 80a01dc:	20000330 	.word	0x20000330
 80a01e0:	200003c8 	.word	0x200003c8

080a01e4 <_Z8tof_initv>:

void RSISR() {
    RSflag = digitalRead(RS);
}

void tof_init() {
 80a01e4:	e92d 41f0 	stmdb	sp!, {r4, r5, r6, r7, r8, lr}
    pinMode(A0, OUTPUT);
 80a01e8:	2101      	movs	r1, #1
 80a01ea:	200a      	movs	r0, #10
 80a01ec:	f003 fd66 	bl	80a3cbc <pinMode>
    pinMode(A1, OUTPUT);
 80a01f0:	2101      	movs	r1, #1
 80a01f2:	200b      	movs	r0, #11
 80a01f4:	f003 fd62 	bl	80a3cbc <pinMode>
    pinMode(A2, OUTPUT);
 80a01f8:	2101      	movs	r1, #1
 80a01fa:	200c      	movs	r0, #12
 80a01fc:	f003 fd5e 	bl	80a3cbc <pinMode>
    pinMode(A3, OUTPUT);
 80a0200:	2101      	movs	r1, #1
 80a0202:	200d      	movs	r0, #13
 80a0204:	f003 fd5a 	bl	80a3cbc <pinMode>
    digitalWrite(A0, LOW);
 80a0208:	2100      	movs	r1, #0
 80a020a:	200a      	movs	r0, #10
 80a020c:	f003 fd67 	bl	80a3cde <digitalWrite>
    digitalWrite(A1, LOW);
 80a0210:	2100      	movs	r1, #0
 80a0212:	200b      	movs	r0, #11
 80a0214:	f003 fd63 	bl	80a3cde <digitalWrite>
    digitalWrite(A2, LOW);
 80a0218:	2100      	movs	r1, #0
 80a021a:	200c      	movs	r0, #12
 80a021c:	f003 fd5f 	bl	80a3cde <digitalWrite>
    digitalWrite(A3, LOW);
 80a0220:	2100      	movs	r1, #0
 80a0222:	200d      	movs	r0, #13
 80a0224:	f003 fd5b 	bl	80a3cde <digitalWrite>
    delay(500);
 80a0228:	f44f 70fa 	mov.w	r0, #500	; 0x1f4
 80a022c:	f003 fa64 	bl	80a36f8 <delay>

    Wire.setSpeed(CLOCK_SPEED_100KHZ);  // need to initialize i2c protocol after driving shdn pins low
 80a0230:	f003 fdbc 	bl	80a3dac <_Z19__fetch_global_Wirev>
 80a0234:	4940      	ldr	r1, [pc, #256]	; (80a0338 <_Z8tof_initv+0x154>)
 80a0236:	f003 fcdd 	bl	80a3bf4 <_ZN7TwoWire8setSpeedEm>
    Wire.begin();
 80a023a:	f003 fdb7 	bl	80a3dac <_Z19__fetch_global_Wirev>
 80a023e:	f003 fcdd 	bl	80a3bfc <_ZN7TwoWire5beginEv>

    delay(10);
 80a0242:	200a      	movs	r0, #10
 80a0244:	f003 fa58 	bl	80a36f8 <delay>
    digitalWrite(A0, HIGH);
 80a0248:	2101      	movs	r1, #1
 80a024a:	200a      	movs	r0, #10
 80a024c:	f003 fd47 	bl	80a3cde <digitalWrite>
    digitalWrite(A1, HIGH);
 80a0250:	2101      	movs	r1, #1
 80a0252:	200b      	movs	r0, #11
 80a0254:	f003 fd43 	bl	80a3cde <digitalWrite>
    digitalWrite(A2, HIGH);
 80a0258:	2101      	movs	r1, #1
 80a025a:	200c      	movs	r0, #12
 80a025c:	f003 fd3f 	bl	80a3cde <digitalWrite>
    digitalWrite(A3, HIGH);
 80a0260:	2101      	movs	r1, #1
 80a0262:	200d      	movs	r0, #13
 80a0264:	f003 fd3b 	bl	80a3cde <digitalWrite>
    delay(10);
 80a0268:	200a      	movs	r0, #10
 80a026a:	f003 fa45 	bl	80a36f8 <delay>
    digitalWrite(A1, LOW);
 80a026e:	2100      	movs	r1, #0
 80a0270:	200b      	movs	r0, #11
 80a0272:	f003 fd34 	bl	80a3cde <digitalWrite>
    digitalWrite(A2, LOW);
    digitalWrite(A3, LOW);
    sensor0.init();
 80a0276:	4f31      	ldr	r7, [pc, #196]	; (80a033c <_Z8tof_initv+0x158>)
    digitalWrite(A1, HIGH);
    digitalWrite(A2, HIGH);
    digitalWrite(A3, HIGH);
    delay(10);
    digitalWrite(A1, LOW);
    digitalWrite(A2, LOW);
 80a0278:	2100      	movs	r1, #0
 80a027a:	200c      	movs	r0, #12
 80a027c:	f003 fd2f 	bl	80a3cde <digitalWrite>
    digitalWrite(A3, LOW);
 80a0280:	2100      	movs	r1, #0
 80a0282:	200d      	movs	r0, #13
 80a0284:	f003 fd2b 	bl	80a3cde <digitalWrite>
    sensor0.init();
 80a0288:	2101      	movs	r1, #1
 80a028a:	4638      	mov	r0, r7
 80a028c:	f001 fd18 	bl	80a1cc0 <_ZN7VL53L0X4initEb>
    void startContinuous(uint32_t period_ms = 0);
    void stopContinuous(void);
    uint16_t readRangeContinuousMillimeters(void);
    uint16_t readRangeSingleMillimeters(void);

    inline void setTimeout(uint16_t timeout) { io_timeout = timeout; }
 80a0290:	f44f 787a 	mov.w	r8, #1000	; 0x3e8
    sensor0.setAddress(0x30);
 80a0294:	2130      	movs	r1, #48	; 0x30
 80a0296:	4638      	mov	r0, r7
 80a0298:	f001 f9c9 	bl	80a162e <_ZN7VL53L0X10setAddressEh>
    sensor0.setTimeout(1000);
    delay(10);
    digitalWrite(A1, HIGH);
    sensor1.init();
 80a029c:	4e28      	ldr	r6, [pc, #160]	; (80a0340 <_Z8tof_initv+0x15c>)
 80a029e:	f8c7 8004 	str.w	r8, [r7, #4]
    digitalWrite(A2, LOW);
    digitalWrite(A3, LOW);
    sensor0.init();
    sensor0.setAddress(0x30);
    sensor0.setTimeout(1000);
    delay(10);
 80a02a2:	200a      	movs	r0, #10
 80a02a4:	f003 fa28 	bl	80a36f8 <delay>
    digitalWrite(A1, HIGH);
 80a02a8:	2101      	movs	r1, #1
 80a02aa:	200b      	movs	r0, #11
 80a02ac:	f003 fd17 	bl	80a3cde <digitalWrite>
    sensor1.init();
 80a02b0:	2101      	movs	r1, #1
 80a02b2:	4630      	mov	r0, r6
 80a02b4:	f001 fd04 	bl	80a1cc0 <_ZN7VL53L0X4initEb>
    sensor1.setAddress(0x31);
 80a02b8:	2131      	movs	r1, #49	; 0x31
 80a02ba:	4630      	mov	r0, r6
 80a02bc:	f001 f9b7 	bl	80a162e <_ZN7VL53L0X10setAddressEh>
    sensor1.setTimeout(1000);
    delay(10);
    digitalWrite(A2, HIGH);
    sensor2.init();
 80a02c0:	4d20      	ldr	r5, [pc, #128]	; (80a0344 <_Z8tof_initv+0x160>)
    delay(10);
    digitalWrite(A1, HIGH);
    sensor1.init();
    sensor1.setAddress(0x31);
    sensor1.setTimeout(1000);
    delay(10);
 80a02c2:	200a      	movs	r0, #10
 80a02c4:	f8c6 8004 	str.w	r8, [r6, #4]
 80a02c8:	f003 fa16 	bl	80a36f8 <delay>
    digitalWrite(A2, HIGH);
 80a02cc:	2101      	movs	r1, #1
 80a02ce:	200c      	movs	r0, #12
 80a02d0:	f003 fd05 	bl	80a3cde <digitalWrite>
    sensor2.init();
 80a02d4:	2101      	movs	r1, #1
 80a02d6:	4628      	mov	r0, r5
 80a02d8:	f001 fcf2 	bl	80a1cc0 <_ZN7VL53L0X4initEb>
    sensor2.setAddress(0x32);
 80a02dc:	2132      	movs	r1, #50	; 0x32
 80a02de:	4628      	mov	r0, r5
 80a02e0:	f001 f9a5 	bl	80a162e <_ZN7VL53L0X10setAddressEh>
    sensor2.setTimeout(1000);
    delay(10);
    digitalWrite(A3, HIGH);
    sensor3.init();
 80a02e4:	4c18      	ldr	r4, [pc, #96]	; (80a0348 <_Z8tof_initv+0x164>)
    delay(10);
    digitalWrite(A2, HIGH);
    sensor2.init();
    sensor2.setAddress(0x32);
    sensor2.setTimeout(1000);
    delay(10);
 80a02e6:	200a      	movs	r0, #10
 80a02e8:	f8c5 8004 	str.w	r8, [r5, #4]
 80a02ec:	f003 fa04 	bl	80a36f8 <delay>
    digitalWrite(A3, HIGH);
 80a02f0:	2101      	movs	r1, #1
 80a02f2:	200d      	movs	r0, #13
 80a02f4:	f003 fcf3 	bl	80a3cde <digitalWrite>
    sensor3.init();
 80a02f8:	2101      	movs	r1, #1
 80a02fa:	4620      	mov	r0, r4
 80a02fc:	f001 fce0 	bl	80a1cc0 <_ZN7VL53L0X4initEb>
    sensor3.setAddress(0x33);
 80a0300:	2133      	movs	r1, #51	; 0x33
 80a0302:	4620      	mov	r0, r4
 80a0304:	f001 f993 	bl	80a162e <_ZN7VL53L0X10setAddressEh>
    sensor3.setTimeout(1000);
    delay(10);
 80a0308:	200a      	movs	r0, #10
 80a030a:	f8c4 8004 	str.w	r8, [r4, #4]
 80a030e:	f003 f9f3 	bl	80a36f8 <delay>

    // Start continuous back-to-back mode (take readings as
    // fast as possible).  To use continuous timed mode
    // instead, provide a desired inter-measurement period in
    // ms (e.g. sensor.startContinuous(100)).
    sensor0.startContinuous(10);
 80a0312:	4638      	mov	r0, r7
 80a0314:	210a      	movs	r1, #10
 80a0316:	f001 faa6 	bl	80a1866 <_ZN7VL53L0X15startContinuousEm>
    sensor1.startContinuous(10);
 80a031a:	4630      	mov	r0, r6
 80a031c:	210a      	movs	r1, #10
 80a031e:	f001 faa2 	bl	80a1866 <_ZN7VL53L0X15startContinuousEm>
    sensor2.startContinuous(10);
 80a0322:	4628      	mov	r0, r5
 80a0324:	210a      	movs	r1, #10
 80a0326:	f001 fa9e 	bl	80a1866 <_ZN7VL53L0X15startContinuousEm>
    sensor3.startContinuous(10);
 80a032a:	4620      	mov	r0, r4
}
 80a032c:	e8bd 41f0 	ldmia.w	sp!, {r4, r5, r6, r7, r8, lr}
    // instead, provide a desired inter-measurement period in
    // ms (e.g. sensor.startContinuous(100)).
    sensor0.startContinuous(10);
    sensor1.startContinuous(10);
    sensor2.startContinuous(10);
    sensor3.startContinuous(10);
 80a0330:	210a      	movs	r1, #10
 80a0332:	f001 ba98 	b.w	80a1866 <_ZN7VL53L0X15startContinuousEm>
 80a0336:	bf00      	nop
 80a0338:	000186a0 	.word	0x000186a0
 80a033c:	20000368 	.word	0x20000368
 80a0340:	200003e4 	.word	0x200003e4
 80a0344:	20000380 	.word	0x20000380
 80a0348:	20000398 	.word	0x20000398

080a034c <_Z11others_initv>:
  LIS3DHConfig config;
  config.setAccelMode(LIS3DH::RATE_400_HZ);
  accel.setup(config);
}

void others_init() {
 80a034c:	b508      	push	{r3, lr}
	// Line sensors
  	pinMode(FL, INPUT);
 80a034e:	4b12      	ldr	r3, [pc, #72]	; (80a0398 <_Z11others_initv+0x4c>)
 80a0350:	2100      	movs	r1, #0
 80a0352:	8818      	ldrh	r0, [r3, #0]
 80a0354:	f003 fcb2 	bl	80a3cbc <pinMode>
  	pinMode(FR, INPUT);
 80a0358:	4b10      	ldr	r3, [pc, #64]	; (80a039c <_Z11others_initv+0x50>)
 80a035a:	2100      	movs	r1, #0
 80a035c:	8818      	ldrh	r0, [r3, #0]
 80a035e:	f003 fcad 	bl	80a3cbc <pinMode>
  	pinMode(BL, INPUT);
 80a0362:	4b0f      	ldr	r3, [pc, #60]	; (80a03a0 <_Z11others_initv+0x54>)
 80a0364:	2100      	movs	r1, #0
 80a0366:	8818      	ldrh	r0, [r3, #0]
 80a0368:	f003 fca8 	bl	80a3cbc <pinMode>
  	pinMode(BR, INPUT);
 80a036c:	4b0d      	ldr	r3, [pc, #52]	; (80a03a4 <_Z11others_initv+0x58>)
 80a036e:	2100      	movs	r1, #0
 80a0370:	8818      	ldrh	r0, [r3, #0]
 80a0372:	f003 fca3 	bl	80a3cbc <pinMode>
  	// Remote switch
  	pinMode(RS, INPUT);
 80a0376:	4b0c      	ldr	r3, [pc, #48]	; (80a03a8 <_Z11others_initv+0x5c>)
 80a0378:	2100      	movs	r1, #0
 80a037a:	8818      	ldrh	r0, [r3, #0]
 80a037c:	f003 fc9e 	bl	80a3cbc <pinMode>
  	// Car ESCs
  	pinMode(Lmotor, OUTPUT);
 80a0380:	4b0a      	ldr	r3, [pc, #40]	; (80a03ac <_Z11others_initv+0x60>)
 80a0382:	2101      	movs	r1, #1
 80a0384:	8818      	ldrh	r0, [r3, #0]
 80a0386:	f003 fc99 	bl	80a3cbc <pinMode>
  	pinMode(Rmotor, OUTPUT);
 80a038a:	4b09      	ldr	r3, [pc, #36]	; (80a03b0 <_Z11others_initv+0x64>)
 80a038c:	2101      	movs	r1, #1
 80a038e:	8818      	ldrh	r0, [r3, #0]

  	// ***Remove for competition***
  	// ***Serial monitor***
  	// Serial.begin(9600);	// *** need to modify before comp ***
}
 80a0390:	e8bd 4008 	ldmia.w	sp!, {r3, lr}
  	pinMode(BR, INPUT);
  	// Remote switch
  	pinMode(RS, INPUT);
  	// Car ESCs
  	pinMode(Lmotor, OUTPUT);
  	pinMode(Rmotor, OUTPUT);
 80a0394:	f003 bc92 	b.w	80a3cbc <pinMode>
 80a0398:	2000031c 	.word	0x2000031c
 80a039c:	2000030c 	.word	0x2000030c
 80a03a0:	20000314 	.word	0x20000314
 80a03a4:	20000318 	.word	0x20000318
 80a03a8:	20000300 	.word	0x20000300
 80a03ac:	2000032c 	.word	0x2000032c
 80a03b0:	20000324 	.word	0x20000324

080a03b4 <_Z14interrupt_initv>:
  	// ***Remove for competition***
  	// ***Serial monitor***
  	// Serial.begin(9600);	// *** need to modify before comp ***
}

void interrupt_init() {
 80a03b4:	b513      	push	{r0, r1, r4, lr}
	// Line sensors
  	attachInterrupt(FL, FLISR, CHANGE);
 80a03b6:	4b18      	ldr	r3, [pc, #96]	; (80a0418 <_Z14interrupt_initv+0x64>)
 80a03b8:	2400      	movs	r4, #0
 80a03ba:	8818      	ldrh	r0, [r3, #0]
 80a03bc:	4622      	mov	r2, r4
 80a03be:	9400      	str	r4, [sp, #0]
 80a03c0:	f04f 33ff 	mov.w	r3, #4294967295
 80a03c4:	4915      	ldr	r1, [pc, #84]	; (80a041c <_Z14interrupt_initv+0x68>)
 80a03c6:	f003 fb47 	bl	80a3a58 <_Z15attachInterrupttPFvvE13InterruptModeah>
  	attachInterrupt(FR, FRISR, CHANGE);
 80a03ca:	4b15      	ldr	r3, [pc, #84]	; (80a0420 <_Z14interrupt_initv+0x6c>)
 80a03cc:	4622      	mov	r2, r4
 80a03ce:	8818      	ldrh	r0, [r3, #0]
 80a03d0:	4914      	ldr	r1, [pc, #80]	; (80a0424 <_Z14interrupt_initv+0x70>)
 80a03d2:	9400      	str	r4, [sp, #0]
 80a03d4:	f04f 33ff 	mov.w	r3, #4294967295
 80a03d8:	f003 fb3e 	bl	80a3a58 <_Z15attachInterrupttPFvvE13InterruptModeah>
  	attachInterrupt(BL, BLISR, CHANGE);
 80a03dc:	4b12      	ldr	r3, [pc, #72]	; (80a0428 <_Z14interrupt_initv+0x74>)
 80a03de:	4622      	mov	r2, r4
 80a03e0:	8818      	ldrh	r0, [r3, #0]
 80a03e2:	4912      	ldr	r1, [pc, #72]	; (80a042c <_Z14interrupt_initv+0x78>)
 80a03e4:	9400      	str	r4, [sp, #0]
 80a03e6:	f04f 33ff 	mov.w	r3, #4294967295
 80a03ea:	f003 fb35 	bl	80a3a58 <_Z15attachInterrupttPFvvE13InterruptModeah>
  	attachInterrupt(BR, BRISR, CHANGE);
 80a03ee:	4b10      	ldr	r3, [pc, #64]	; (80a0430 <_Z14interrupt_initv+0x7c>)
 80a03f0:	4622      	mov	r2, r4
 80a03f2:	8818      	ldrh	r0, [r3, #0]
 80a03f4:	490f      	ldr	r1, [pc, #60]	; (80a0434 <_Z14interrupt_initv+0x80>)
 80a03f6:	9400      	str	r4, [sp, #0]
 80a03f8:	f04f 33ff 	mov.w	r3, #4294967295
 80a03fc:	f003 fb2c 	bl	80a3a58 <_Z15attachInterrupttPFvvE13InterruptModeah>
  	// Remote switch
  	attachInterrupt(RS, RSISR, CHANGE);
 80a0400:	4b0d      	ldr	r3, [pc, #52]	; (80a0438 <_Z14interrupt_initv+0x84>)
 80a0402:	4622      	mov	r2, r4
 80a0404:	8818      	ldrh	r0, [r3, #0]
 80a0406:	490d      	ldr	r1, [pc, #52]	; (80a043c <_Z14interrupt_initv+0x88>)
 80a0408:	9400      	str	r4, [sp, #0]
 80a040a:	f04f 33ff 	mov.w	r3, #4294967295
 80a040e:	f003 fb23 	bl	80a3a58 <_Z15attachInterrupttPFvvE13InterruptModeah>

    // NOT USED
  	// Accel software timer
  	// Timer accelTimer(PRINT_SAMPLE_PERIOD, getAccel);
  	// accelTimer.start();
}
 80a0412:	b002      	add	sp, #8
 80a0414:	bd10      	pop	{r4, pc}
 80a0416:	bf00      	nop
 80a0418:	2000031c 	.word	0x2000031c
 80a041c:	080a00b5 	.word	0x080a00b5
 80a0420:	2000030c 	.word	0x2000030c
 80a0424:	080a00d5 	.word	0x080a00d5
 80a0428:	20000314 	.word	0x20000314
 80a042c:	080a00f5 	.word	0x080a00f5
 80a0430:	20000318 	.word	0x20000318
 80a0434:	080a0115 	.word	0x080a0115
 80a0438:	20000300 	.word	0x20000300
 80a043c:	080a0135 	.word	0x080a0135

080a0440 <_Z8ESC_initv>:

void ESC_init() {
 80a0440:	b5f7      	push	{r0, r1, r2, r4, r5, r6, r7, lr}
  	// Necessary for Servo objects
  	LESC.attach(Lmotor);
 80a0442:	4b13      	ldr	r3, [pc, #76]	; (80a0490 <_Z8ESC_initv+0x50>)
 80a0444:	4d13      	ldr	r5, [pc, #76]	; (80a0494 <_Z8ESC_initv+0x54>)
 80a0446:	2600      	movs	r6, #0
 80a0448:	27b4      	movs	r7, #180	; 0xb4
 80a044a:	8819      	ldrh	r1, [r3, #0]
 80a044c:	f44f 7208 	mov.w	r2, #544	; 0x220
 80a0450:	e88d 00c0 	stmia.w	sp, {r6, r7}
 80a0454:	f44f 6316 	mov.w	r3, #2400	; 0x960
 80a0458:	4628      	mov	r0, r5
 80a045a:	f003 f836 	bl	80a34ca <_ZN5Servo6attachEtttss>
  	RESC.attach(Rmotor);
 80a045e:	4c0e      	ldr	r4, [pc, #56]	; (80a0498 <_Z8ESC_initv+0x58>)
 80a0460:	4b0e      	ldr	r3, [pc, #56]	; (80a049c <_Z8ESC_initv+0x5c>)
 80a0462:	f44f 7208 	mov.w	r2, #544	; 0x220
 80a0466:	8819      	ldrh	r1, [r3, #0]
 80a0468:	4620      	mov	r0, r4
 80a046a:	f44f 6316 	mov.w	r3, #2400	; 0x960
 80a046e:	e88d 00c0 	stmia.w	sp, {r6, r7}
 80a0472:	f003 f82a 	bl	80a34ca <_ZN5Servo6attachEtttss>
  	// Write stop command
  	LESC.writeMicroseconds(1500);
 80a0476:	4628      	mov	r0, r5
 80a0478:	f240 51dc 	movw	r1, #1500	; 0x5dc
 80a047c:	f002 fff1 	bl	80a3462 <_ZN5Servo17writeMicrosecondsEt>
  	RESC.writeMicroseconds(1500);
 80a0480:	f240 51dc 	movw	r1, #1500	; 0x5dc
 80a0484:	4620      	mov	r0, r4
}
 80a0486:	b003      	add	sp, #12
 80a0488:	e8bd 40f0 	ldmia.w	sp!, {r4, r5, r6, r7, lr}
  	// Necessary for Servo objects
  	LESC.attach(Lmotor);
  	RESC.attach(Rmotor);
  	// Write stop command
  	LESC.writeMicroseconds(1500);
  	RESC.writeMicroseconds(1500);
 80a048c:	f002 bfe9 	b.w	80a3462 <_ZN5Servo17writeMicrosecondsEt>
 80a0490:	2000032c 	.word	0x2000032c
 80a0494:	20000340 	.word	0x20000340
 80a0498:	200003b4 	.word	0x200003b4
 80a049c:	20000324 	.word	0x20000324

080a04a0 <_Z9line_initv>:
}

void line_init() {
 80a04a0:	b508      	push	{r3, lr}
#endif

#include "timer_hal.h"
#include "delay_hal.h"

inline system_tick_t millis(void) { return HAL_Timer_Get_Milli_Seconds(); }
 80a04a2:	f002 fe55 	bl	80a3150 <HAL_Timer_Get_Milli_Seconds>
	// moving = true;
	prevFlag = millis();
 80a04a6:	4b01      	ldr	r3, [pc, #4]	; (80a04ac <_Z9line_initv+0xc>)
 80a04a8:	6018      	str	r0, [r3, #0]
 80a04aa:	bd08      	pop	{r3, pc}
 80a04ac:	200003b0 	.word	0x200003b0

080a04b0 <_Z10robot_initv>:
}

void robot_init() {
 80a04b0:	b510      	push	{r4, lr}
  while(RSflag == LOW) {    // initial LOW
 80a04b2:	4c0a      	ldr	r4, [pc, #40]	; (80a04dc <_Z10robot_initv+0x2c>)
 80a04b4:	7823      	ldrb	r3, [r4, #0]
 80a04b6:	b92b      	cbnz	r3, 80a04c4 <_Z10robot_initv+0x14>
    Serial.println("Waiting for Start");
 80a04b8:	f003 fa6a 	bl	80a3990 <_Z16_fetch_usbserialv>
 80a04bc:	4908      	ldr	r1, [pc, #32]	; (80a04e0 <_Z10robot_initv+0x30>)
 80a04be:	f003 f8d2 	bl	80a3666 <_ZN5Print7printlnEPKc>
	// moving = true;
	prevFlag = millis();
}

void robot_init() {
  while(RSflag == LOW) {    // initial LOW
 80a04c2:	e7f7      	b.n	80a04b4 <_Z10robot_initv+0x4>
    Serial.println("Waiting for Start");
  }
  Serial.println("Starting in 5 seconds...");
 80a04c4:	f003 fa64 	bl	80a3990 <_Z16_fetch_usbserialv>
 80a04c8:	4906      	ldr	r1, [pc, #24]	; (80a04e4 <_Z10robot_initv+0x34>)
 80a04ca:	f003 f8cc 	bl	80a3666 <_ZN5Print7printlnEPKc>
  delay(5000);
  // Serial.println("GO!");
}
 80a04ce:	e8bd 4010 	ldmia.w	sp!, {r4, lr}
void robot_init() {
  while(RSflag == LOW) {    // initial LOW
    Serial.println("Waiting for Start");
  }
  Serial.println("Starting in 5 seconds...");
  delay(5000);
 80a04d2:	f241 3088 	movw	r0, #5000	; 0x1388
 80a04d6:	f003 b90f 	b.w	80a36f8 <delay>
 80a04da:	bf00      	nop
 80a04dc:	2000033c 	.word	0x2000033c
 80a04e0:	080a501c 	.word	0x080a501c
 80a04e4:	080a502e 	.word	0x080a502e

080a04e8 <_Z10fuzzy_initv>:
  // Serial.println("GO!");
}

void fuzzy_init() {
 80a04e8:	e92d 4ff0 	stmdb	sp!, {r4, r5, r6, r7, r8, r9, sl, fp, lr}
  // low = far, high = close

  // INPUT: 1 of 4
  FuzzyInput* LL_input = new FuzzyInput(1);
 80a04ec:	2010      	movs	r0, #16
  Serial.println("Starting in 5 seconds...");
  delay(5000);
  // Serial.println("GO!");
}

void fuzzy_init() {
 80a04ee:	b099      	sub	sp, #100	; 0x64
  // low = far, high = close

  // INPUT: 1 of 4
  FuzzyInput* LL_input = new FuzzyInput(1);
 80a04f0:	f7ff fdd3 	bl	80a009a <_Znwj>
 80a04f4:	4605      	mov	r5, r0
 80a04f6:	b110      	cbz	r0, 80a04fe <_Z10fuzzy_initv+0x16>
 80a04f8:	2101      	movs	r1, #1
 80a04fa:	f002 f8f8 	bl	80a26ee <_ZN10FuzzyInputC1Ei>
  FuzzySet* LL_low = new FuzzySet(low1, low2, low3, low4);
 80a04fe:	2014      	movs	r0, #20
 80a0500:	f7ff fdcb 	bl	80a009a <_Znwj>
 80a0504:	4606      	mov	r6, r0
 80a0506:	b138      	cbz	r0, 80a0518 <_Z10fuzzy_initv+0x30>
 80a0508:	f04f 438c 	mov.w	r3, #1174405120	; 0x46000000
 80a050c:	9300      	str	r3, [sp, #0]
 80a050e:	4aa6      	ldr	r2, [pc, #664]	; (80a07a8 <_Z10fuzzy_initv+0x2c0>)
 80a0510:	4ba6      	ldr	r3, [pc, #664]	; (80a07ac <_Z10fuzzy_initv+0x2c4>)
 80a0512:	49a7      	ldr	r1, [pc, #668]	; (80a07b0 <_Z10fuzzy_initv+0x2c8>)
 80a0514:	f002 fb67 	bl	80a2be6 <_ZN8FuzzySetC1Effff>
  FuzzySet* LL_med = new FuzzySet(med1, med2, med3, med4);
 80a0518:	2014      	movs	r0, #20
 80a051a:	f7ff fdbe 	bl	80a009a <_Znwj>
 80a051e:	4681      	mov	r9, r0
 80a0520:	b130      	cbz	r0, 80a0530 <_Z10fuzzy_initv+0x48>
 80a0522:	4ba4      	ldr	r3, [pc, #656]	; (80a07b4 <_Z10fuzzy_initv+0x2cc>)
 80a0524:	4aa4      	ldr	r2, [pc, #656]	; (80a07b8 <_Z10fuzzy_initv+0x2d0>)
 80a0526:	9300      	str	r3, [sp, #0]
 80a0528:	49a4      	ldr	r1, [pc, #656]	; (80a07bc <_Z10fuzzy_initv+0x2d4>)
 80a052a:	4ba5      	ldr	r3, [pc, #660]	; (80a07c0 <_Z10fuzzy_initv+0x2d8>)
 80a052c:	f002 fb5b 	bl	80a2be6 <_ZN8FuzzySetC1Effff>
  FuzzySet* LL_high = new FuzzySet(high1, high2, high3, high4);
 80a0530:	2014      	movs	r0, #20
 80a0532:	f7ff fdb2 	bl	80a009a <_Znwj>
 80a0536:	4680      	mov	r8, r0
 80a0538:	b130      	cbz	r0, 80a0548 <_Z10fuzzy_initv+0x60>
 80a053a:	4ba2      	ldr	r3, [pc, #648]	; (80a07c4 <_Z10fuzzy_initv+0x2dc>)
 80a053c:	4aa2      	ldr	r2, [pc, #648]	; (80a07c8 <_Z10fuzzy_initv+0x2e0>)
 80a053e:	9300      	str	r3, [sp, #0]
 80a0540:	2100      	movs	r1, #0
 80a0542:	4ba2      	ldr	r3, [pc, #648]	; (80a07cc <_Z10fuzzy_initv+0x2e4>)
 80a0544:	f002 fb4f 	bl	80a2be6 <_ZN8FuzzySetC1Effff>
  LL_input->addFuzzySet(LL_low);
 80a0548:	4631      	mov	r1, r6
 80a054a:	4628      	mov	r0, r5
 80a054c:	f002 f8eb 	bl	80a2726 <_ZN7FuzzyIO11addFuzzySetEP8FuzzySet>
  LL_input->addFuzzySet(LL_med);
  LL_input->addFuzzySet(LL_high);
  fuzzy->addFuzzyInput(LL_input);
 80a0550:	4c9f      	ldr	r4, [pc, #636]	; (80a07d0 <_Z10fuzzy_initv+0x2e8>)
  FuzzyInput* LL_input = new FuzzyInput(1);
  FuzzySet* LL_low = new FuzzySet(low1, low2, low3, low4);
  FuzzySet* LL_med = new FuzzySet(med1, med2, med3, med4);
  FuzzySet* LL_high = new FuzzySet(high1, high2, high3, high4);
  LL_input->addFuzzySet(LL_low);
  LL_input->addFuzzySet(LL_med);
 80a0552:	4649      	mov	r1, r9
 80a0554:	4628      	mov	r0, r5
 80a0556:	f002 f8e6 	bl	80a2726 <_ZN7FuzzyIO11addFuzzySetEP8FuzzySet>
  LL_input->addFuzzySet(LL_high);
 80a055a:	4641      	mov	r1, r8
 80a055c:	4628      	mov	r0, r5
 80a055e:	f002 f8e2 	bl	80a2726 <_ZN7FuzzyIO11addFuzzySetEP8FuzzySet>
  fuzzy->addFuzzyInput(LL_input);
 80a0562:	4629      	mov	r1, r5
 80a0564:	6820      	ldr	r0, [r4, #0]
 80a0566:	f002 fc12 	bl	80a2d8e <_ZN5Fuzzy13addFuzzyInputEP10FuzzyInput>

  // INPUT: 2 of 4
  FuzzyInput* LM_input = new FuzzyInput(2);
 80a056a:	2010      	movs	r0, #16
 80a056c:	f7ff fd95 	bl	80a009a <_Znwj>
 80a0570:	4605      	mov	r5, r0
 80a0572:	b110      	cbz	r0, 80a057a <_Z10fuzzy_initv+0x92>
 80a0574:	2102      	movs	r1, #2
 80a0576:	f002 f8ba 	bl	80a26ee <_ZN10FuzzyInputC1Ei>
  FuzzySet* LM_low = new FuzzySet(low1, low2, low3, low4);
 80a057a:	2014      	movs	r0, #20
 80a057c:	f7ff fd8d 	bl	80a009a <_Znwj>
 80a0580:	4607      	mov	r7, r0
 80a0582:	b138      	cbz	r0, 80a0594 <_Z10fuzzy_initv+0xac>
 80a0584:	f04f 438c 	mov.w	r3, #1174405120	; 0x46000000
 80a0588:	9300      	str	r3, [sp, #0]
 80a058a:	4a87      	ldr	r2, [pc, #540]	; (80a07a8 <_Z10fuzzy_initv+0x2c0>)
 80a058c:	4b87      	ldr	r3, [pc, #540]	; (80a07ac <_Z10fuzzy_initv+0x2c4>)
 80a058e:	4988      	ldr	r1, [pc, #544]	; (80a07b0 <_Z10fuzzy_initv+0x2c8>)
 80a0590:	f002 fb29 	bl	80a2be6 <_ZN8FuzzySetC1Effff>
  FuzzySet* LM_med = new FuzzySet(med1, med2, med3, med4);
 80a0594:	2014      	movs	r0, #20
 80a0596:	f7ff fd80 	bl	80a009a <_Znwj>
 80a059a:	4682      	mov	sl, r0
 80a059c:	b130      	cbz	r0, 80a05ac <_Z10fuzzy_initv+0xc4>
 80a059e:	4b85      	ldr	r3, [pc, #532]	; (80a07b4 <_Z10fuzzy_initv+0x2cc>)
 80a05a0:	4a85      	ldr	r2, [pc, #532]	; (80a07b8 <_Z10fuzzy_initv+0x2d0>)
 80a05a2:	9300      	str	r3, [sp, #0]
 80a05a4:	4985      	ldr	r1, [pc, #532]	; (80a07bc <_Z10fuzzy_initv+0x2d4>)
 80a05a6:	4b86      	ldr	r3, [pc, #536]	; (80a07c0 <_Z10fuzzy_initv+0x2d8>)
 80a05a8:	f002 fb1d 	bl	80a2be6 <_ZN8FuzzySetC1Effff>
  FuzzySet* LM_high = new FuzzySet(high1, high2, high3, high4);
 80a05ac:	2014      	movs	r0, #20
 80a05ae:	f7ff fd74 	bl	80a009a <_Znwj>
 80a05b2:	4683      	mov	fp, r0
 80a05b4:	b130      	cbz	r0, 80a05c4 <_Z10fuzzy_initv+0xdc>
 80a05b6:	4b83      	ldr	r3, [pc, #524]	; (80a07c4 <_Z10fuzzy_initv+0x2dc>)
 80a05b8:	4a83      	ldr	r2, [pc, #524]	; (80a07c8 <_Z10fuzzy_initv+0x2e0>)
 80a05ba:	9300      	str	r3, [sp, #0]
 80a05bc:	2100      	movs	r1, #0
 80a05be:	4b83      	ldr	r3, [pc, #524]	; (80a07cc <_Z10fuzzy_initv+0x2e4>)
 80a05c0:	f002 fb11 	bl	80a2be6 <_ZN8FuzzySetC1Effff>
  LM_input->addFuzzySet(LM_low);
 80a05c4:	4639      	mov	r1, r7
 80a05c6:	4628      	mov	r0, r5
 80a05c8:	f002 f8ad 	bl	80a2726 <_ZN7FuzzyIO11addFuzzySetEP8FuzzySet>
  LM_input->addFuzzySet(LM_med);
 80a05cc:	4651      	mov	r1, sl
 80a05ce:	4628      	mov	r0, r5
 80a05d0:	f002 f8a9 	bl	80a2726 <_ZN7FuzzyIO11addFuzzySetEP8FuzzySet>
  LM_input->addFuzzySet(LM_high);
 80a05d4:	4659      	mov	r1, fp
 80a05d6:	4628      	mov	r0, r5
 80a05d8:	f002 f8a5 	bl	80a2726 <_ZN7FuzzyIO11addFuzzySetEP8FuzzySet>
  fuzzy->addFuzzyInput(LM_input);
 80a05dc:	4629      	mov	r1, r5
 80a05de:	6820      	ldr	r0, [r4, #0]
 80a05e0:	f002 fbd5 	bl	80a2d8e <_ZN5Fuzzy13addFuzzyInputEP10FuzzyInput>

  // INPUT: 3 of 4
  FuzzyInput* RM_input = new FuzzyInput(3);
 80a05e4:	2010      	movs	r0, #16
 80a05e6:	f7ff fd58 	bl	80a009a <_Znwj>
 80a05ea:	4605      	mov	r5, r0
 80a05ec:	b110      	cbz	r0, 80a05f4 <_Z10fuzzy_initv+0x10c>
 80a05ee:	2103      	movs	r1, #3
 80a05f0:	f002 f87d 	bl	80a26ee <_ZN10FuzzyInputC1Ei>
  FuzzySet* RM_low = new FuzzySet(low1, low2, low3, low4);
 80a05f4:	2014      	movs	r0, #20
 80a05f6:	f7ff fd50 	bl	80a009a <_Znwj>
 80a05fa:	9007      	str	r0, [sp, #28]
 80a05fc:	b138      	cbz	r0, 80a060e <_Z10fuzzy_initv+0x126>
 80a05fe:	f04f 438c 	mov.w	r3, #1174405120	; 0x46000000
 80a0602:	9300      	str	r3, [sp, #0]
 80a0604:	4a68      	ldr	r2, [pc, #416]	; (80a07a8 <_Z10fuzzy_initv+0x2c0>)
 80a0606:	4b69      	ldr	r3, [pc, #420]	; (80a07ac <_Z10fuzzy_initv+0x2c4>)
 80a0608:	4969      	ldr	r1, [pc, #420]	; (80a07b0 <_Z10fuzzy_initv+0x2c8>)
 80a060a:	f002 faec 	bl	80a2be6 <_ZN8FuzzySetC1Effff>
  FuzzySet* RM_med = new FuzzySet(med1, med2, med3, med4);
 80a060e:	2014      	movs	r0, #20
 80a0610:	f7ff fd43 	bl	80a009a <_Znwj>
 80a0614:	9008      	str	r0, [sp, #32]
 80a0616:	b130      	cbz	r0, 80a0626 <_Z10fuzzy_initv+0x13e>
 80a0618:	4b66      	ldr	r3, [pc, #408]	; (80a07b4 <_Z10fuzzy_initv+0x2cc>)
 80a061a:	4a67      	ldr	r2, [pc, #412]	; (80a07b8 <_Z10fuzzy_initv+0x2d0>)
 80a061c:	9300      	str	r3, [sp, #0]
 80a061e:	4967      	ldr	r1, [pc, #412]	; (80a07bc <_Z10fuzzy_initv+0x2d4>)
 80a0620:	4b67      	ldr	r3, [pc, #412]	; (80a07c0 <_Z10fuzzy_initv+0x2d8>)
 80a0622:	f002 fae0 	bl	80a2be6 <_ZN8FuzzySetC1Effff>
  FuzzySet* RM_high = new FuzzySet(high1, high2, high3, high4);
 80a0626:	2014      	movs	r0, #20
 80a0628:	f7ff fd37 	bl	80a009a <_Znwj>
 80a062c:	9009      	str	r0, [sp, #36]	; 0x24
 80a062e:	b130      	cbz	r0, 80a063e <_Z10fuzzy_initv+0x156>
 80a0630:	4b64      	ldr	r3, [pc, #400]	; (80a07c4 <_Z10fuzzy_initv+0x2dc>)
 80a0632:	4a65      	ldr	r2, [pc, #404]	; (80a07c8 <_Z10fuzzy_initv+0x2e0>)
 80a0634:	9300      	str	r3, [sp, #0]
 80a0636:	2100      	movs	r1, #0
 80a0638:	4b64      	ldr	r3, [pc, #400]	; (80a07cc <_Z10fuzzy_initv+0x2e4>)
 80a063a:	f002 fad4 	bl	80a2be6 <_ZN8FuzzySetC1Effff>
  RM_input->addFuzzySet(RM_low);
 80a063e:	9907      	ldr	r1, [sp, #28]
 80a0640:	4628      	mov	r0, r5
 80a0642:	f002 f870 	bl	80a2726 <_ZN7FuzzyIO11addFuzzySetEP8FuzzySet>
  RM_input->addFuzzySet(RM_med);
 80a0646:	9908      	ldr	r1, [sp, #32]
 80a0648:	4628      	mov	r0, r5
 80a064a:	f002 f86c 	bl	80a2726 <_ZN7FuzzyIO11addFuzzySetEP8FuzzySet>
  RM_input->addFuzzySet(RM_high);
 80a064e:	9909      	ldr	r1, [sp, #36]	; 0x24
 80a0650:	4628      	mov	r0, r5
 80a0652:	f002 f868 	bl	80a2726 <_ZN7FuzzyIO11addFuzzySetEP8FuzzySet>
  fuzzy->addFuzzyInput(RM_input);
 80a0656:	4629      	mov	r1, r5
 80a0658:	6820      	ldr	r0, [r4, #0]
 80a065a:	f002 fb98 	bl	80a2d8e <_ZN5Fuzzy13addFuzzyInputEP10FuzzyInput>

  // INPUT: 4 of 4
  FuzzyInput* RR_input = new FuzzyInput(4);
 80a065e:	2010      	movs	r0, #16
 80a0660:	f7ff fd1b 	bl	80a009a <_Znwj>
 80a0664:	4604      	mov	r4, r0
 80a0666:	b110      	cbz	r0, 80a066e <_Z10fuzzy_initv+0x186>
 80a0668:	2104      	movs	r1, #4
 80a066a:	f002 f840 	bl	80a26ee <_ZN10FuzzyInputC1Ei>
  FuzzySet* RR_low = new FuzzySet(low1, low2, low3, low4);
 80a066e:	2014      	movs	r0, #20
 80a0670:	f7ff fd13 	bl	80a009a <_Znwj>
 80a0674:	4605      	mov	r5, r0
 80a0676:	b138      	cbz	r0, 80a0688 <_Z10fuzzy_initv+0x1a0>
 80a0678:	f04f 438c 	mov.w	r3, #1174405120	; 0x46000000
 80a067c:	9300      	str	r3, [sp, #0]
 80a067e:	4a4a      	ldr	r2, [pc, #296]	; (80a07a8 <_Z10fuzzy_initv+0x2c0>)
 80a0680:	4b4a      	ldr	r3, [pc, #296]	; (80a07ac <_Z10fuzzy_initv+0x2c4>)
 80a0682:	494b      	ldr	r1, [pc, #300]	; (80a07b0 <_Z10fuzzy_initv+0x2c8>)
 80a0684:	f002 faaf 	bl	80a2be6 <_ZN8FuzzySetC1Effff>
  FuzzySet* RR_med = new FuzzySet(med1, med2, med3, med4);
 80a0688:	2014      	movs	r0, #20
 80a068a:	f7ff fd06 	bl	80a009a <_Znwj>
 80a068e:	900a      	str	r0, [sp, #40]	; 0x28
 80a0690:	b130      	cbz	r0, 80a06a0 <_Z10fuzzy_initv+0x1b8>
 80a0692:	4b48      	ldr	r3, [pc, #288]	; (80a07b4 <_Z10fuzzy_initv+0x2cc>)
 80a0694:	4a48      	ldr	r2, [pc, #288]	; (80a07b8 <_Z10fuzzy_initv+0x2d0>)
 80a0696:	9300      	str	r3, [sp, #0]
 80a0698:	4948      	ldr	r1, [pc, #288]	; (80a07bc <_Z10fuzzy_initv+0x2d4>)
 80a069a:	4b49      	ldr	r3, [pc, #292]	; (80a07c0 <_Z10fuzzy_initv+0x2d8>)
 80a069c:	f002 faa3 	bl	80a2be6 <_ZN8FuzzySetC1Effff>
  FuzzySet* RR_high = new FuzzySet(high1, high2, high3, high4);
 80a06a0:	2014      	movs	r0, #20
 80a06a2:	f7ff fcfa 	bl	80a009a <_Znwj>
 80a06a6:	900b      	str	r0, [sp, #44]	; 0x2c
 80a06a8:	b130      	cbz	r0, 80a06b8 <_Z10fuzzy_initv+0x1d0>
 80a06aa:	4b46      	ldr	r3, [pc, #280]	; (80a07c4 <_Z10fuzzy_initv+0x2dc>)
 80a06ac:	4a46      	ldr	r2, [pc, #280]	; (80a07c8 <_Z10fuzzy_initv+0x2e0>)
 80a06ae:	9300      	str	r3, [sp, #0]
 80a06b0:	2100      	movs	r1, #0
 80a06b2:	4b46      	ldr	r3, [pc, #280]	; (80a07cc <_Z10fuzzy_initv+0x2e4>)
 80a06b4:	f002 fa97 	bl	80a2be6 <_ZN8FuzzySetC1Effff>
  RR_input->addFuzzySet(RR_low);
 80a06b8:	4629      	mov	r1, r5
 80a06ba:	4620      	mov	r0, r4
 80a06bc:	f002 f833 	bl	80a2726 <_ZN7FuzzyIO11addFuzzySetEP8FuzzySet>
  RR_input->addFuzzySet(RR_med);
 80a06c0:	990a      	ldr	r1, [sp, #40]	; 0x28
 80a06c2:	4620      	mov	r0, r4
 80a06c4:	f002 f82f 	bl	80a2726 <_ZN7FuzzyIO11addFuzzySetEP8FuzzySet>
  RR_input->addFuzzySet(RR_high);
 80a06c8:	990b      	ldr	r1, [sp, #44]	; 0x2c
 80a06ca:	4620      	mov	r0, r4
 80a06cc:	f002 f82b 	bl	80a2726 <_ZN7FuzzyIO11addFuzzySetEP8FuzzySet>
  fuzzy->addFuzzyInput(RR_input);
 80a06d0:	4b3f      	ldr	r3, [pc, #252]	; (80a07d0 <_Z10fuzzy_initv+0x2e8>)
 80a06d2:	4621      	mov	r1, r4
 80a06d4:	6818      	ldr	r0, [r3, #0]
 80a06d6:	f002 fb5a 	bl	80a2d8e <_ZN5Fuzzy13addFuzzyInputEP10FuzzyInput>

  // OUTPUT: 1 of 1 (Test 1 *********************************)
  FuzzyOutput* drive_state = new FuzzyOutput(1);
 80a06da:	2018      	movs	r0, #24
 80a06dc:	f7ff fcdd 	bl	80a009a <_Znwj>
 80a06e0:	4604      	mov	r4, r0
 80a06e2:	b110      	cbz	r0, 80a06ea <_Z10fuzzy_initv+0x202>
 80a06e4:	2101      	movs	r1, #1
 80a06e6:	f002 f83a 	bl	80a275e <_ZN11FuzzyOutputC1Ei>
  FuzzySet* full_left = new FuzzySet(0, 5, 15, 20);
 80a06ea:	2014      	movs	r0, #20
 80a06ec:	f7ff fcd5 	bl	80a009a <_Znwj>
 80a06f0:	900f      	str	r0, [sp, #60]	; 0x3c
 80a06f2:	b130      	cbz	r0, 80a0702 <_Z10fuzzy_initv+0x21a>
 80a06f4:	4b37      	ldr	r3, [pc, #220]	; (80a07d4 <_Z10fuzzy_initv+0x2ec>)
 80a06f6:	4a38      	ldr	r2, [pc, #224]	; (80a07d8 <_Z10fuzzy_initv+0x2f0>)
 80a06f8:	9300      	str	r3, [sp, #0]
 80a06fa:	2100      	movs	r1, #0
 80a06fc:	4b37      	ldr	r3, [pc, #220]	; (80a07dc <_Z10fuzzy_initv+0x2f4>)
 80a06fe:	f002 fa72 	bl	80a2be6 <_ZN8FuzzySetC1Effff>
  FuzzySet* small_left = new FuzzySet(25, 30, 35, 40);
 80a0702:	2014      	movs	r0, #20
 80a0704:	f7ff fcc9 	bl	80a009a <_Znwj>
 80a0708:	9010      	str	r0, [sp, #64]	; 0x40
 80a070a:	b130      	cbz	r0, 80a071a <_Z10fuzzy_initv+0x232>
 80a070c:	4b34      	ldr	r3, [pc, #208]	; (80a07e0 <_Z10fuzzy_initv+0x2f8>)
 80a070e:	4a35      	ldr	r2, [pc, #212]	; (80a07e4 <_Z10fuzzy_initv+0x2fc>)
 80a0710:	9300      	str	r3, [sp, #0]
 80a0712:	4935      	ldr	r1, [pc, #212]	; (80a07e8 <_Z10fuzzy_initv+0x300>)
 80a0714:	4b35      	ldr	r3, [pc, #212]	; (80a07ec <_Z10fuzzy_initv+0x304>)
 80a0716:	f002 fa66 	bl	80a2be6 <_ZN8FuzzySetC1Effff>
  FuzzySet* center = new FuzzySet(45, 50, 55, 60);
 80a071a:	2014      	movs	r0, #20
 80a071c:	f7ff fcbd 	bl	80a009a <_Znwj>
 80a0720:	9011      	str	r0, [sp, #68]	; 0x44
 80a0722:	b130      	cbz	r0, 80a0732 <_Z10fuzzy_initv+0x24a>
 80a0724:	4b32      	ldr	r3, [pc, #200]	; (80a07f0 <_Z10fuzzy_initv+0x308>)
 80a0726:	4a33      	ldr	r2, [pc, #204]	; (80a07f4 <_Z10fuzzy_initv+0x30c>)
 80a0728:	9300      	str	r3, [sp, #0]
 80a072a:	4933      	ldr	r1, [pc, #204]	; (80a07f8 <_Z10fuzzy_initv+0x310>)
 80a072c:	4b33      	ldr	r3, [pc, #204]	; (80a07fc <_Z10fuzzy_initv+0x314>)
 80a072e:	f002 fa5a 	bl	80a2be6 <_ZN8FuzzySetC1Effff>
  FuzzySet* small_right = new FuzzySet(65, 70, 75, 80);
 80a0732:	2014      	movs	r0, #20
 80a0734:	f7ff fcb1 	bl	80a009a <_Znwj>
 80a0738:	9012      	str	r0, [sp, #72]	; 0x48
 80a073a:	b130      	cbz	r0, 80a074a <_Z10fuzzy_initv+0x262>
 80a073c:	4b30      	ldr	r3, [pc, #192]	; (80a0800 <_Z10fuzzy_initv+0x318>)
 80a073e:	4a31      	ldr	r2, [pc, #196]	; (80a0804 <_Z10fuzzy_initv+0x31c>)
 80a0740:	9300      	str	r3, [sp, #0]
 80a0742:	4931      	ldr	r1, [pc, #196]	; (80a0808 <_Z10fuzzy_initv+0x320>)
 80a0744:	4b31      	ldr	r3, [pc, #196]	; (80a080c <_Z10fuzzy_initv+0x324>)
 80a0746:	f002 fa4e 	bl	80a2be6 <_ZN8FuzzySetC1Effff>
  FuzzySet* full_right = new FuzzySet(85, 90, 95, 100);
 80a074a:	2014      	movs	r0, #20
 80a074c:	f7ff fca5 	bl	80a009a <_Znwj>
 80a0750:	9013      	str	r0, [sp, #76]	; 0x4c
 80a0752:	b130      	cbz	r0, 80a0762 <_Z10fuzzy_initv+0x27a>
 80a0754:	4b2e      	ldr	r3, [pc, #184]	; (80a0810 <_Z10fuzzy_initv+0x328>)
 80a0756:	4a2f      	ldr	r2, [pc, #188]	; (80a0814 <_Z10fuzzy_initv+0x32c>)
 80a0758:	9300      	str	r3, [sp, #0]
 80a075a:	492f      	ldr	r1, [pc, #188]	; (80a0818 <_Z10fuzzy_initv+0x330>)
 80a075c:	4b2f      	ldr	r3, [pc, #188]	; (80a081c <_Z10fuzzy_initv+0x334>)
 80a075e:	f002 fa42 	bl	80a2be6 <_ZN8FuzzySetC1Effff>
  drive_state->addFuzzySet(full_left);
 80a0762:	990f      	ldr	r1, [sp, #60]	; 0x3c
 80a0764:	4620      	mov	r0, r4
 80a0766:	f001 ffde 	bl	80a2726 <_ZN7FuzzyIO11addFuzzySetEP8FuzzySet>
  drive_state->addFuzzySet(small_left);
 80a076a:	9910      	ldr	r1, [sp, #64]	; 0x40
 80a076c:	4620      	mov	r0, r4
 80a076e:	f001 ffda 	bl	80a2726 <_ZN7FuzzyIO11addFuzzySetEP8FuzzySet>
  drive_state->addFuzzySet(center);
 80a0772:	9911      	ldr	r1, [sp, #68]	; 0x44
 80a0774:	4620      	mov	r0, r4
 80a0776:	f001 ffd6 	bl	80a2726 <_ZN7FuzzyIO11addFuzzySetEP8FuzzySet>
  drive_state->addFuzzySet(small_right);
 80a077a:	9912      	ldr	r1, [sp, #72]	; 0x48
 80a077c:	4620      	mov	r0, r4
 80a077e:	f001 ffd2 	bl	80a2726 <_ZN7FuzzyIO11addFuzzySetEP8FuzzySet>
  drive_state->addFuzzySet(full_right);
 80a0782:	9913      	ldr	r1, [sp, #76]	; 0x4c
 80a0784:	4620      	mov	r0, r4
 80a0786:	f001 ffce 	bl	80a2726 <_ZN7FuzzyIO11addFuzzySetEP8FuzzySet>
  fuzzy->addFuzzyOutput(drive_state);
 80a078a:	4b11      	ldr	r3, [pc, #68]	; (80a07d0 <_Z10fuzzy_initv+0x2e8>)
 80a078c:	4621      	mov	r1, r4
 80a078e:	6818      	ldr	r0, [r3, #0]
 80a0790:	f002 fb10 	bl	80a2db4 <_ZN5Fuzzy14addFuzzyOutputEP11FuzzyOutput>

  // Building Left FuzzyRuleAntecedents (ALL COMBINATIONS)
  FuzzyRuleAntecedent* left_low_high = new FuzzyRuleAntecedent();
 80a0794:	2018      	movs	r0, #24
 80a0796:	f7ff fc80 	bl	80a009a <_Znwj>
 80a079a:	900c      	str	r0, [sp, #48]	; 0x30
 80a079c:	2800      	cmp	r0, #0
 80a079e:	d03f      	beq.n	80a0820 <_Z10fuzzy_initv+0x338>
 80a07a0:	f002 fb80 	bl	80a2ea4 <_ZN19FuzzyRuleAntecedentC1Ev>
 80a07a4:	e03c      	b.n	80a0820 <_Z10fuzzy_initv+0x338>
 80a07a6:	bf00      	nop
 80a07a8:	447a0000 	.word	0x447a0000
 80a07ac:	448e8000 	.word	0x448e8000
 80a07b0:	44570000 	.word	0x44570000
 80a07b4:	44548000 	.word	0x44548000
 80a07b8:	440e8000 	.word	0x440e8000
 80a07bc:	43d70000 	.word	0x43d70000
 80a07c0:	44318000 	.word	0x44318000
 80a07c4:	43d20000 	.word	0x43d20000
 80a07c8:	430c0000 	.word	0x430c0000
 80a07cc:	438c0000 	.word	0x438c0000
 80a07d0:	20000364 	.word	0x20000364
 80a07d4:	41a00000 	.word	0x41a00000
 80a07d8:	40a00000 	.word	0x40a00000
 80a07dc:	41700000 	.word	0x41700000
 80a07e0:	42200000 	.word	0x42200000
 80a07e4:	41f00000 	.word	0x41f00000
 80a07e8:	41c80000 	.word	0x41c80000
 80a07ec:	420c0000 	.word	0x420c0000
 80a07f0:	42700000 	.word	0x42700000
 80a07f4:	42480000 	.word	0x42480000
 80a07f8:	42340000 	.word	0x42340000
 80a07fc:	425c0000 	.word	0x425c0000
 80a0800:	42a00000 	.word	0x42a00000
 80a0804:	428c0000 	.word	0x428c0000
 80a0808:	42820000 	.word	0x42820000
 80a080c:	42960000 	.word	0x42960000
 80a0810:	42c80000 	.word	0x42c80000
 80a0814:	42b40000 	.word	0x42b40000
 80a0818:	42aa0000 	.word	0x42aa0000
 80a081c:	42be0000 	.word	0x42be0000
  left_low_high->joinWithAND(LL_low, LM_high);
 80a0820:	465a      	mov	r2, fp
 80a0822:	4631      	mov	r1, r6
 80a0824:	980c      	ldr	r0, [sp, #48]	; 0x30
 80a0826:	f002 fb45 	bl	80a2eb4 <_ZN19FuzzyRuleAntecedent11joinWithANDEP8FuzzySetS1_>
  FuzzyRuleAntecedent* left_med_high = new FuzzyRuleAntecedent();
 80a082a:	2018      	movs	r0, #24
 80a082c:	f7ff fc35 	bl	80a009a <_Znwj>
 80a0830:	9005      	str	r0, [sp, #20]
 80a0832:	b108      	cbz	r0, 80a0838 <_Z10fuzzy_initv+0x350>
 80a0834:	f002 fb36 	bl	80a2ea4 <_ZN19FuzzyRuleAntecedentC1Ev>
  left_med_high->joinWithAND(LL_med, LM_high);
 80a0838:	465a      	mov	r2, fp
 80a083a:	4649      	mov	r1, r9
 80a083c:	9805      	ldr	r0, [sp, #20]
 80a083e:	f002 fb39 	bl	80a2eb4 <_ZN19FuzzyRuleAntecedent11joinWithANDEP8FuzzySetS1_>
  FuzzyRuleAntecedent* left_low_med = new FuzzyRuleAntecedent();
 80a0842:	2018      	movs	r0, #24
 80a0844:	f7ff fc29 	bl	80a009a <_Znwj>
 80a0848:	9002      	str	r0, [sp, #8]
 80a084a:	b108      	cbz	r0, 80a0850 <_Z10fuzzy_initv+0x368>
 80a084c:	f002 fb2a 	bl	80a2ea4 <_ZN19FuzzyRuleAntecedentC1Ev>
  left_low_med->joinWithAND(LL_low, LM_med);
 80a0850:	4652      	mov	r2, sl
 80a0852:	4631      	mov	r1, r6
 80a0854:	9802      	ldr	r0, [sp, #8]
 80a0856:	f002 fb2d 	bl	80a2eb4 <_ZN19FuzzyRuleAntecedent11joinWithANDEP8FuzzySetS1_>
  FuzzyRuleAntecedent* left_med_med = new FuzzyRuleAntecedent();
 80a085a:	2018      	movs	r0, #24
 80a085c:	f7ff fc1d 	bl	80a009a <_Znwj>
 80a0860:	9003      	str	r0, [sp, #12]
 80a0862:	b108      	cbz	r0, 80a0868 <_Z10fuzzy_initv+0x380>
 80a0864:	f002 fb1e 	bl	80a2ea4 <_ZN19FuzzyRuleAntecedentC1Ev>
  left_med_med->joinWithAND(LL_med, LM_med);
 80a0868:	4652      	mov	r2, sl
 80a086a:	4649      	mov	r1, r9
 80a086c:	9803      	ldr	r0, [sp, #12]
 80a086e:	f002 fb21 	bl	80a2eb4 <_ZN19FuzzyRuleAntecedent11joinWithANDEP8FuzzySetS1_>
  FuzzyRuleAntecedent* left_high_high = new FuzzyRuleAntecedent();
 80a0872:	2018      	movs	r0, #24
 80a0874:	f7ff fc11 	bl	80a009a <_Znwj>
 80a0878:	900d      	str	r0, [sp, #52]	; 0x34
 80a087a:	b108      	cbz	r0, 80a0880 <_Z10fuzzy_initv+0x398>
 80a087c:	f002 fb12 	bl	80a2ea4 <_ZN19FuzzyRuleAntecedentC1Ev>
  left_high_high->joinWithAND(LL_high, LM_high);
 80a0880:	465a      	mov	r2, fp
 80a0882:	4641      	mov	r1, r8
 80a0884:	980d      	ldr	r0, [sp, #52]	; 0x34
 80a0886:	f002 fb15 	bl	80a2eb4 <_ZN19FuzzyRuleAntecedent11joinWithANDEP8FuzzySetS1_>
  FuzzyRuleAntecedent* left_high_med = new FuzzyRuleAntecedent();
 80a088a:	2018      	movs	r0, #24
 80a088c:	f7ff fc05 	bl	80a009a <_Znwj>
 80a0890:	9014      	str	r0, [sp, #80]	; 0x50
 80a0892:	b108      	cbz	r0, 80a0898 <_Z10fuzzy_initv+0x3b0>
 80a0894:	f002 fb06 	bl	80a2ea4 <_ZN19FuzzyRuleAntecedentC1Ev>
  left_high_med->joinWithAND(LL_high, LM_med);
 80a0898:	4652      	mov	r2, sl
 80a089a:	4641      	mov	r1, r8
 80a089c:	9814      	ldr	r0, [sp, #80]	; 0x50
 80a089e:	f002 fb09 	bl	80a2eb4 <_ZN19FuzzyRuleAntecedent11joinWithANDEP8FuzzySetS1_>
  FuzzyRuleAntecedent* left_med_low = new FuzzyRuleAntecedent();
 80a08a2:	2018      	movs	r0, #24
 80a08a4:	f7ff fbf9 	bl	80a009a <_Znwj>
 80a08a8:	9015      	str	r0, [sp, #84]	; 0x54
 80a08aa:	b108      	cbz	r0, 80a08b0 <_Z10fuzzy_initv+0x3c8>
 80a08ac:	f002 fafa 	bl	80a2ea4 <_ZN19FuzzyRuleAntecedentC1Ev>
  left_med_low->joinWithAND(LL_med, LM_low);
 80a08b0:	463a      	mov	r2, r7
 80a08b2:	4649      	mov	r1, r9
 80a08b4:	9815      	ldr	r0, [sp, #84]	; 0x54
 80a08b6:	f002 fafd 	bl	80a2eb4 <_ZN19FuzzyRuleAntecedent11joinWithANDEP8FuzzySetS1_>
  FuzzyRuleAntecedent* left_high_low = new FuzzyRuleAntecedent();
 80a08ba:	2018      	movs	r0, #24
 80a08bc:	f7ff fbed 	bl	80a009a <_Znwj>
 80a08c0:	9016      	str	r0, [sp, #88]	; 0x58
 80a08c2:	b108      	cbz	r0, 80a08c8 <_Z10fuzzy_initv+0x3e0>
 80a08c4:	f002 faee 	bl	80a2ea4 <_ZN19FuzzyRuleAntecedentC1Ev>
  left_high_low->joinWithAND(LL_high, LM_low);
 80a08c8:	463a      	mov	r2, r7
 80a08ca:	4641      	mov	r1, r8
 80a08cc:	9816      	ldr	r0, [sp, #88]	; 0x58
 80a08ce:	f002 faf1 	bl	80a2eb4 <_ZN19FuzzyRuleAntecedent11joinWithANDEP8FuzzySetS1_>
  FuzzyRuleAntecedent* left_low_low = new FuzzyRuleAntecedent();
 80a08d2:	2018      	movs	r0, #24
 80a08d4:	f7ff fbe1 	bl	80a009a <_Znwj>
 80a08d8:	4604      	mov	r4, r0
 80a08da:	b108      	cbz	r0, 80a08e0 <_Z10fuzzy_initv+0x3f8>
 80a08dc:	f002 fae2 	bl	80a2ea4 <_ZN19FuzzyRuleAntecedentC1Ev>
  left_low_low->joinWithAND(LL_low, LM_low);
 80a08e0:	463a      	mov	r2, r7
 80a08e2:	4631      	mov	r1, r6
 80a08e4:	4620      	mov	r0, r4
 80a08e6:	f002 fae5 	bl	80a2eb4 <_ZN19FuzzyRuleAntecedent11joinWithANDEP8FuzzySetS1_>

  // Building Right FuzzyRuleAntecedents
  FuzzyRuleAntecedent* right_high_low = new FuzzyRuleAntecedent();
 80a08ea:	2018      	movs	r0, #24
 80a08ec:	f7ff fbd5 	bl	80a009a <_Znwj>
 80a08f0:	900e      	str	r0, [sp, #56]	; 0x38
 80a08f2:	b108      	cbz	r0, 80a08f8 <_Z10fuzzy_initv+0x410>
 80a08f4:	f002 fad6 	bl	80a2ea4 <_ZN19FuzzyRuleAntecedentC1Ev>
  right_high_low->joinWithAND(RM_high, RR_low);
 80a08f8:	462a      	mov	r2, r5
 80a08fa:	9909      	ldr	r1, [sp, #36]	; 0x24
 80a08fc:	980e      	ldr	r0, [sp, #56]	; 0x38
 80a08fe:	f002 fad9 	bl	80a2eb4 <_ZN19FuzzyRuleAntecedent11joinWithANDEP8FuzzySetS1_>
  FuzzyRuleAntecedent* right_high_med = new FuzzyRuleAntecedent();
 80a0902:	2018      	movs	r0, #24
 80a0904:	f7ff fbc9 	bl	80a009a <_Znwj>
 80a0908:	9006      	str	r0, [sp, #24]
 80a090a:	b108      	cbz	r0, 80a0910 <_Z10fuzzy_initv+0x428>
 80a090c:	f002 faca 	bl	80a2ea4 <_ZN19FuzzyRuleAntecedentC1Ev>
  right_high_med->joinWithAND(RM_high, RR_med);
 80a0910:	9a0a      	ldr	r2, [sp, #40]	; 0x28
 80a0912:	9909      	ldr	r1, [sp, #36]	; 0x24
 80a0914:	9806      	ldr	r0, [sp, #24]
 80a0916:	f002 facd 	bl	80a2eb4 <_ZN19FuzzyRuleAntecedent11joinWithANDEP8FuzzySetS1_>
  FuzzyRuleAntecedent* right_med_low = new FuzzyRuleAntecedent();
 80a091a:	2018      	movs	r0, #24
 80a091c:	f7ff fbbd 	bl	80a009a <_Znwj>
 80a0920:	9004      	str	r0, [sp, #16]
 80a0922:	b108      	cbz	r0, 80a0928 <_Z10fuzzy_initv+0x440>
 80a0924:	f002 fabe 	bl	80a2ea4 <_ZN19FuzzyRuleAntecedentC1Ev>
  right_med_low->joinWithAND(RM_med, RR_low);
 80a0928:	462a      	mov	r2, r5
 80a092a:	9908      	ldr	r1, [sp, #32]
 80a092c:	9804      	ldr	r0, [sp, #16]
 80a092e:	f002 fac1 	bl	80a2eb4 <_ZN19FuzzyRuleAntecedent11joinWithANDEP8FuzzySetS1_>
  FuzzyRuleAntecedent* right_low_med = new FuzzyRuleAntecedent();
 80a0932:	2018      	movs	r0, #24
 80a0934:	f7ff fbb1 	bl	80a009a <_Znwj>
 80a0938:	9017      	str	r0, [sp, #92]	; 0x5c
 80a093a:	b108      	cbz	r0, 80a0940 <_Z10fuzzy_initv+0x458>
 80a093c:	f002 fab2 	bl	80a2ea4 <_ZN19FuzzyRuleAntecedentC1Ev>
  right_low_med->joinWithAND(RM_low, RR_med);
 80a0940:	9a0a      	ldr	r2, [sp, #40]	; 0x28
 80a0942:	9907      	ldr	r1, [sp, #28]
 80a0944:	9817      	ldr	r0, [sp, #92]	; 0x5c
 80a0946:	f002 fab5 	bl	80a2eb4 <_ZN19FuzzyRuleAntecedent11joinWithANDEP8FuzzySetS1_>
  FuzzyRuleAntecedent* right_low_low = new FuzzyRuleAntecedent();
 80a094a:	2018      	movs	r0, #24
 80a094c:	f7ff fba5 	bl	80a009a <_Znwj>
 80a0950:	4606      	mov	r6, r0
 80a0952:	b108      	cbz	r0, 80a0958 <_Z10fuzzy_initv+0x470>
 80a0954:	f002 faa6 	bl	80a2ea4 <_ZN19FuzzyRuleAntecedentC1Ev>
  right_low_low->joinWithAND(RM_low, RR_low);
 80a0958:	462a      	mov	r2, r5
 80a095a:	9907      	ldr	r1, [sp, #28]
 80a095c:	4630      	mov	r0, r6
 80a095e:	f002 faa9 	bl	80a2eb4 <_ZN19FuzzyRuleAntecedent11joinWithANDEP8FuzzySetS1_>
  FuzzyRuleAntecedent* right_med_med = new FuzzyRuleAntecedent();
 80a0962:	2018      	movs	r0, #24
 80a0964:	f7ff fb99 	bl	80a009a <_Znwj>
 80a0968:	4683      	mov	fp, r0
 80a096a:	b108      	cbz	r0, 80a0970 <_Z10fuzzy_initv+0x488>
 80a096c:	f002 fa9a 	bl	80a2ea4 <_ZN19FuzzyRuleAntecedentC1Ev>
  right_med_med->joinWithAND(RM_med, RR_med);
 80a0970:	9a0a      	ldr	r2, [sp, #40]	; 0x28
 80a0972:	9908      	ldr	r1, [sp, #32]
 80a0974:	4658      	mov	r0, fp
 80a0976:	f002 fa9d 	bl	80a2eb4 <_ZN19FuzzyRuleAntecedent11joinWithANDEP8FuzzySetS1_>
  FuzzyRuleAntecedent* right_low_high = new FuzzyRuleAntecedent();
 80a097a:	2018      	movs	r0, #24
 80a097c:	f7ff fb8d 	bl	80a009a <_Znwj>
 80a0980:	900a      	str	r0, [sp, #40]	; 0x28
 80a0982:	b108      	cbz	r0, 80a0988 <_Z10fuzzy_initv+0x4a0>
 80a0984:	f002 fa8e 	bl	80a2ea4 <_ZN19FuzzyRuleAntecedentC1Ev>
  right_low_high->joinWithAND(RM_low, RR_high);
 80a0988:	9a0b      	ldr	r2, [sp, #44]	; 0x2c
 80a098a:	9907      	ldr	r1, [sp, #28]
 80a098c:	980a      	ldr	r0, [sp, #40]	; 0x28
 80a098e:	f002 fa91 	bl	80a2eb4 <_ZN19FuzzyRuleAntecedent11joinWithANDEP8FuzzySetS1_>
  FuzzyRuleAntecedent* right_high_high = new FuzzyRuleAntecedent();
 80a0992:	2018      	movs	r0, #24
 80a0994:	f7ff fb81 	bl	80a009a <_Znwj>
 80a0998:	9007      	str	r0, [sp, #28]
 80a099a:	b108      	cbz	r0, 80a09a0 <_Z10fuzzy_initv+0x4b8>
 80a099c:	f002 fa82 	bl	80a2ea4 <_ZN19FuzzyRuleAntecedentC1Ev>
  right_high_high->joinWithAND(RM_high, RR_high);
 80a09a0:	9a0b      	ldr	r2, [sp, #44]	; 0x2c
 80a09a2:	9909      	ldr	r1, [sp, #36]	; 0x24
 80a09a4:	9807      	ldr	r0, [sp, #28]
 80a09a6:	f002 fa85 	bl	80a2eb4 <_ZN19FuzzyRuleAntecedent11joinWithANDEP8FuzzySetS1_>
  FuzzyRuleAntecedent* right_med_high = new FuzzyRuleAntecedent();
 80a09aa:	2018      	movs	r0, #24
 80a09ac:	f7ff fb75 	bl	80a009a <_Znwj>
 80a09b0:	9009      	str	r0, [sp, #36]	; 0x24
 80a09b2:	b108      	cbz	r0, 80a09b8 <_Z10fuzzy_initv+0x4d0>
 80a09b4:	f002 fa76 	bl	80a2ea4 <_ZN19FuzzyRuleAntecedentC1Ev>
  right_med_high->joinWithAND(RM_med, RR_high);
 80a09b8:	9a0b      	ldr	r2, [sp, #44]	; 0x2c
 80a09ba:	9908      	ldr	r1, [sp, #32]
 80a09bc:	9809      	ldr	r0, [sp, #36]	; 0x24
 80a09be:	f002 fa79 	bl	80a2eb4 <_ZN19FuzzyRuleAntecedent11joinWithANDEP8FuzzySetS1_>

  // Building drive FuzzyRuleConsequents (Test 1 *********************************)
  // NOTE: you can add multiple outputs to 1 consequent
  FuzzyRuleConsequent* drive_center = new FuzzyRuleConsequent();
 80a09c2:	2008      	movs	r0, #8
 80a09c4:	f7ff fb69 	bl	80a009a <_Znwj>
 80a09c8:	4680      	mov	r8, r0
 80a09ca:	b108      	cbz	r0, 80a09d0 <_Z10fuzzy_initv+0x4e8>
 80a09cc:	f002 f9b4 	bl	80a2d38 <_ZN19FuzzyRuleConsequentC1Ev>
  drive_center->addOutput(center);
 80a09d0:	9911      	ldr	r1, [sp, #68]	; 0x44
 80a09d2:	4640      	mov	r0, r8
 80a09d4:	f002 f9b4 	bl	80a2d40 <_ZN19FuzzyRuleConsequent9addOutputEP8FuzzySet>
  FuzzyRuleConsequent* drive_small_left = new FuzzyRuleConsequent();
 80a09d8:	2008      	movs	r0, #8
 80a09da:	f7ff fb5e 	bl	80a009a <_Znwj>
 80a09de:	4607      	mov	r7, r0
 80a09e0:	b108      	cbz	r0, 80a09e6 <_Z10fuzzy_initv+0x4fe>
 80a09e2:	f002 f9a9 	bl	80a2d38 <_ZN19FuzzyRuleConsequentC1Ev>
  drive_small_left->addOutput(small_left);
 80a09e6:	9910      	ldr	r1, [sp, #64]	; 0x40
 80a09e8:	4638      	mov	r0, r7
 80a09ea:	f002 f9a9 	bl	80a2d40 <_ZN19FuzzyRuleConsequent9addOutputEP8FuzzySet>
  FuzzyRuleConsequent* drive_full_left = new FuzzyRuleConsequent();
 80a09ee:	2008      	movs	r0, #8
 80a09f0:	f7ff fb53 	bl	80a009a <_Znwj>
 80a09f4:	9008      	str	r0, [sp, #32]
 80a09f6:	b108      	cbz	r0, 80a09fc <_Z10fuzzy_initv+0x514>
 80a09f8:	f002 f99e 	bl	80a2d38 <_ZN19FuzzyRuleConsequentC1Ev>
  drive_full_left->addOutput(full_left);
 80a09fc:	990f      	ldr	r1, [sp, #60]	; 0x3c
 80a09fe:	9808      	ldr	r0, [sp, #32]
 80a0a00:	f002 f99e 	bl	80a2d40 <_ZN19FuzzyRuleConsequent9addOutputEP8FuzzySet>
  FuzzyRuleConsequent* drive_full_right = new FuzzyRuleConsequent();
 80a0a04:	2008      	movs	r0, #8
 80a0a06:	f7ff fb48 	bl	80a009a <_Znwj>
 80a0a0a:	900b      	str	r0, [sp, #44]	; 0x2c
 80a0a0c:	b108      	cbz	r0, 80a0a12 <_Z10fuzzy_initv+0x52a>
 80a0a0e:	f002 f993 	bl	80a2d38 <_ZN19FuzzyRuleConsequentC1Ev>
  drive_full_right->addOutput(full_right);
 80a0a12:	9913      	ldr	r1, [sp, #76]	; 0x4c
 80a0a14:	980b      	ldr	r0, [sp, #44]	; 0x2c
 80a0a16:	f002 f993 	bl	80a2d40 <_ZN19FuzzyRuleConsequent9addOutputEP8FuzzySet>
  FuzzyRuleConsequent* drive_small_right = new FuzzyRuleConsequent();
 80a0a1a:	2008      	movs	r0, #8
 80a0a1c:	f7ff fb3d 	bl	80a009a <_Znwj>
 80a0a20:	4605      	mov	r5, r0
 80a0a22:	b108      	cbz	r0, 80a0a28 <_Z10fuzzy_initv+0x540>
 80a0a24:	f002 f988 	bl	80a2d38 <_ZN19FuzzyRuleConsequentC1Ev>
  drive_small_right->addOutput(small_right);
 80a0a28:	9912      	ldr	r1, [sp, #72]	; 0x48
 80a0a2a:	4628      	mov	r0, r5
 80a0a2c:	f002 f988 	bl	80a2d40 <_ZN19FuzzyRuleConsequent9addOutputEP8FuzzySet>

  // Building Complete FuzzyRuleAntedecents (Test 1 *********************************)
  // Combining (2) Left and (2) Right antecedents, merging with (1) drive consequent
  // And adding the FuzzyRules
  FuzzyRuleAntecedent* LHHL = new FuzzyRuleAntecedent();
 80a0a30:	2018      	movs	r0, #24
 80a0a32:	f7ff fb32 	bl	80a009a <_Znwj>
 80a0a36:	4681      	mov	r9, r0
 80a0a38:	b108      	cbz	r0, 80a0a3e <_Z10fuzzy_initv+0x556>
 80a0a3a:	f002 fa33 	bl	80a2ea4 <_ZN19FuzzyRuleAntecedentC1Ev>
  LHHL->joinWithAND(left_low_high, right_high_low);
 80a0a3e:	9a0e      	ldr	r2, [sp, #56]	; 0x38
 80a0a40:	990c      	ldr	r1, [sp, #48]	; 0x30
 80a0a42:	4648      	mov	r0, r9
 80a0a44:	f002 fa45 	bl	80a2ed2 <_ZN19FuzzyRuleAntecedent11joinWithANDEPS_S0_>
  FuzzyRule* fr1 = new FuzzyRule(1, LHHL, drive_center);
 80a0a48:	2010      	movs	r0, #16
 80a0a4a:	f7ff fb26 	bl	80a009a <_Znwj>
 80a0a4e:	4682      	mov	sl, r0
 80a0a50:	b120      	cbz	r0, 80a0a5c <_Z10fuzzy_initv+0x574>
 80a0a52:	4643      	mov	r3, r8
 80a0a54:	464a      	mov	r2, r9
 80a0a56:	2101      	movs	r1, #1
 80a0a58:	f001 fc14 	bl	80a2284 <_ZN9FuzzyRuleC1EiP19FuzzyRuleAntecedentP19FuzzyRuleConsequent>
  fuzzy->addFuzzyRule(fr1);
 80a0a5c:	4bb5      	ldr	r3, [pc, #724]	; (80a0d34 <_Z10fuzzy_initv+0x84c>)
 80a0a5e:	4651      	mov	r1, sl
 80a0a60:	6818      	ldr	r0, [r3, #0]
 80a0a62:	f002 f9bf 	bl	80a2de4 <_ZN5Fuzzy12addFuzzyRuleEP9FuzzyRule>

  FuzzyRuleAntecedent* MHHL = new FuzzyRuleAntecedent();
 80a0a66:	2018      	movs	r0, #24
 80a0a68:	f7ff fb17 	bl	80a009a <_Znwj>
 80a0a6c:	4681      	mov	r9, r0
 80a0a6e:	b108      	cbz	r0, 80a0a74 <_Z10fuzzy_initv+0x58c>
 80a0a70:	f002 fa18 	bl	80a2ea4 <_ZN19FuzzyRuleAntecedentC1Ev>
  MHHL->joinWithAND(left_med_high, right_high_low);
 80a0a74:	9a0e      	ldr	r2, [sp, #56]	; 0x38
 80a0a76:	9905      	ldr	r1, [sp, #20]
 80a0a78:	4648      	mov	r0, r9
 80a0a7a:	f002 fa2a 	bl	80a2ed2 <_ZN19FuzzyRuleAntecedent11joinWithANDEPS_S0_>
  FuzzyRule* fr2 = new FuzzyRule(2, MHHL, drive_center);
 80a0a7e:	2010      	movs	r0, #16
 80a0a80:	f7ff fb0b 	bl	80a009a <_Znwj>
 80a0a84:	4682      	mov	sl, r0
 80a0a86:	b120      	cbz	r0, 80a0a92 <_Z10fuzzy_initv+0x5aa>
 80a0a88:	4643      	mov	r3, r8
 80a0a8a:	464a      	mov	r2, r9
 80a0a8c:	2102      	movs	r1, #2
 80a0a8e:	f001 fbf9 	bl	80a2284 <_ZN9FuzzyRuleC1EiP19FuzzyRuleAntecedentP19FuzzyRuleConsequent>
  fuzzy->addFuzzyRule(fr2);
 80a0a92:	4ba8      	ldr	r3, [pc, #672]	; (80a0d34 <_Z10fuzzy_initv+0x84c>)
 80a0a94:	4651      	mov	r1, sl
 80a0a96:	6818      	ldr	r0, [r3, #0]
 80a0a98:	f002 f9a4 	bl	80a2de4 <_ZN5Fuzzy12addFuzzyRuleEP9FuzzyRule>

  FuzzyRuleAntecedent* LHHM = new FuzzyRuleAntecedent();
 80a0a9c:	2018      	movs	r0, #24
 80a0a9e:	f7ff fafc 	bl	80a009a <_Znwj>
 80a0aa2:	4681      	mov	r9, r0
 80a0aa4:	b108      	cbz	r0, 80a0aaa <_Z10fuzzy_initv+0x5c2>
 80a0aa6:	f002 f9fd 	bl	80a2ea4 <_ZN19FuzzyRuleAntecedentC1Ev>
  LHHM->joinWithAND(left_low_high, right_high_med);
 80a0aaa:	9a06      	ldr	r2, [sp, #24]
 80a0aac:	990c      	ldr	r1, [sp, #48]	; 0x30
 80a0aae:	4648      	mov	r0, r9
 80a0ab0:	f002 fa0f 	bl	80a2ed2 <_ZN19FuzzyRuleAntecedent11joinWithANDEPS_S0_>
  FuzzyRule* fr3 = new FuzzyRule(3, LHHM, drive_center);
 80a0ab4:	2010      	movs	r0, #16
 80a0ab6:	f7ff faf0 	bl	80a009a <_Znwj>
 80a0aba:	4682      	mov	sl, r0
 80a0abc:	b120      	cbz	r0, 80a0ac8 <_Z10fuzzy_initv+0x5e0>
 80a0abe:	4643      	mov	r3, r8
 80a0ac0:	464a      	mov	r2, r9
 80a0ac2:	2103      	movs	r1, #3
 80a0ac4:	f001 fbde 	bl	80a2284 <_ZN9FuzzyRuleC1EiP19FuzzyRuleAntecedentP19FuzzyRuleConsequent>
  fuzzy->addFuzzyRule(fr3);
 80a0ac8:	4b9a      	ldr	r3, [pc, #616]	; (80a0d34 <_Z10fuzzy_initv+0x84c>)
 80a0aca:	4651      	mov	r1, sl
 80a0acc:	6818      	ldr	r0, [r3, #0]
 80a0ace:	f002 f989 	bl	80a2de4 <_ZN5Fuzzy12addFuzzyRuleEP9FuzzyRule>

  FuzzyRuleAntecedent* LMML = new FuzzyRuleAntecedent();
 80a0ad2:	2018      	movs	r0, #24
 80a0ad4:	f7ff fae1 	bl	80a009a <_Znwj>
 80a0ad8:	4681      	mov	r9, r0
 80a0ada:	b108      	cbz	r0, 80a0ae0 <_Z10fuzzy_initv+0x5f8>
 80a0adc:	f002 f9e2 	bl	80a2ea4 <_ZN19FuzzyRuleAntecedentC1Ev>
  LMML->joinWithAND(left_low_med, right_med_low);
 80a0ae0:	9a04      	ldr	r2, [sp, #16]
 80a0ae2:	9902      	ldr	r1, [sp, #8]
 80a0ae4:	4648      	mov	r0, r9
 80a0ae6:	f002 f9f4 	bl	80a2ed2 <_ZN19FuzzyRuleAntecedent11joinWithANDEPS_S0_>
  FuzzyRule* fr4 = new FuzzyRule(4, LMML, drive_center);
 80a0aea:	2010      	movs	r0, #16
 80a0aec:	f7ff fad5 	bl	80a009a <_Znwj>
 80a0af0:	4682      	mov	sl, r0
 80a0af2:	b120      	cbz	r0, 80a0afe <_Z10fuzzy_initv+0x616>
 80a0af4:	4643      	mov	r3, r8
 80a0af6:	464a      	mov	r2, r9
 80a0af8:	2104      	movs	r1, #4
 80a0afa:	f001 fbc3 	bl	80a2284 <_ZN9FuzzyRuleC1EiP19FuzzyRuleAntecedentP19FuzzyRuleConsequent>
  fuzzy->addFuzzyRule(fr4);
 80a0afe:	4b8d      	ldr	r3, [pc, #564]	; (80a0d34 <_Z10fuzzy_initv+0x84c>)
 80a0b00:	4651      	mov	r1, sl
 80a0b02:	6818      	ldr	r0, [r3, #0]
 80a0b04:	f002 f96e 	bl	80a2de4 <_ZN5Fuzzy12addFuzzyRuleEP9FuzzyRule>

  FuzzyRuleAntecedent* MMMM = new FuzzyRuleAntecedent();
 80a0b08:	2018      	movs	r0, #24
 80a0b0a:	f7ff fac6 	bl	80a009a <_Znwj>
 80a0b0e:	4681      	mov	r9, r0
 80a0b10:	b108      	cbz	r0, 80a0b16 <_Z10fuzzy_initv+0x62e>
 80a0b12:	f002 f9c7 	bl	80a2ea4 <_ZN19FuzzyRuleAntecedentC1Ev>
  MMMM->joinWithAND(left_med_med, right_med_med);
 80a0b16:	465a      	mov	r2, fp
 80a0b18:	9903      	ldr	r1, [sp, #12]
 80a0b1a:	4648      	mov	r0, r9
 80a0b1c:	f002 f9d9 	bl	80a2ed2 <_ZN19FuzzyRuleAntecedent11joinWithANDEPS_S0_>
  FuzzyRule* fr5 = new FuzzyRule(5, MMMM, drive_center);
 80a0b20:	2010      	movs	r0, #16
 80a0b22:	f7ff faba 	bl	80a009a <_Znwj>
 80a0b26:	4682      	mov	sl, r0
 80a0b28:	b120      	cbz	r0, 80a0b34 <_Z10fuzzy_initv+0x64c>
 80a0b2a:	4643      	mov	r3, r8
 80a0b2c:	464a      	mov	r2, r9
 80a0b2e:	2105      	movs	r1, #5
 80a0b30:	f001 fba8 	bl	80a2284 <_ZN9FuzzyRuleC1EiP19FuzzyRuleAntecedentP19FuzzyRuleConsequent>
  fuzzy->addFuzzyRule(fr5);
 80a0b34:	4b7f      	ldr	r3, [pc, #508]	; (80a0d34 <_Z10fuzzy_initv+0x84c>)
 80a0b36:	4651      	mov	r1, sl
 80a0b38:	6818      	ldr	r0, [r3, #0]
 80a0b3a:	f002 f953 	bl	80a2de4 <_ZN5Fuzzy12addFuzzyRuleEP9FuzzyRule>

  FuzzyRuleAntecedent* HHLL = new FuzzyRuleAntecedent();
 80a0b3e:	2018      	movs	r0, #24
 80a0b40:	f7ff faab 	bl	80a009a <_Znwj>
 80a0b44:	4681      	mov	r9, r0
 80a0b46:	b108      	cbz	r0, 80a0b4c <_Z10fuzzy_initv+0x664>
 80a0b48:	f002 f9ac 	bl	80a2ea4 <_ZN19FuzzyRuleAntecedentC1Ev>
  HHLL->joinWithAND(left_high_high, right_low_low);
 80a0b4c:	4632      	mov	r2, r6
 80a0b4e:	990d      	ldr	r1, [sp, #52]	; 0x34
 80a0b50:	4648      	mov	r0, r9
 80a0b52:	f002 f9be 	bl	80a2ed2 <_ZN19FuzzyRuleAntecedent11joinWithANDEPS_S0_>
  FuzzyRule* fr6 = new FuzzyRule(6, HHLL, drive_small_left);
 80a0b56:	2010      	movs	r0, #16
 80a0b58:	f7ff fa9f 	bl	80a009a <_Znwj>
 80a0b5c:	4682      	mov	sl, r0
 80a0b5e:	b120      	cbz	r0, 80a0b6a <_Z10fuzzy_initv+0x682>
 80a0b60:	463b      	mov	r3, r7
 80a0b62:	464a      	mov	r2, r9
 80a0b64:	2106      	movs	r1, #6
 80a0b66:	f001 fb8d 	bl	80a2284 <_ZN9FuzzyRuleC1EiP19FuzzyRuleAntecedentP19FuzzyRuleConsequent>
  fuzzy->addFuzzyRule(fr6);
 80a0b6a:	4b72      	ldr	r3, [pc, #456]	; (80a0d34 <_Z10fuzzy_initv+0x84c>)
 80a0b6c:	4651      	mov	r1, sl
 80a0b6e:	6818      	ldr	r0, [r3, #0]
 80a0b70:	f002 f938 	bl	80a2de4 <_ZN5Fuzzy12addFuzzyRuleEP9FuzzyRule>

  FuzzyRuleAntecedent* HHML = new FuzzyRuleAntecedent();
 80a0b74:	2018      	movs	r0, #24
 80a0b76:	f7ff fa90 	bl	80a009a <_Znwj>
 80a0b7a:	4681      	mov	r9, r0
 80a0b7c:	b108      	cbz	r0, 80a0b82 <_Z10fuzzy_initv+0x69a>
 80a0b7e:	f002 f991 	bl	80a2ea4 <_ZN19FuzzyRuleAntecedentC1Ev>
  HHML->joinWithAND(left_high_high, right_med_low);
 80a0b82:	9a04      	ldr	r2, [sp, #16]
 80a0b84:	990d      	ldr	r1, [sp, #52]	; 0x34
 80a0b86:	4648      	mov	r0, r9
 80a0b88:	f002 f9a3 	bl	80a2ed2 <_ZN19FuzzyRuleAntecedent11joinWithANDEPS_S0_>
  FuzzyRule* fr7 = new FuzzyRule(6, HHML, drive_small_left);
 80a0b8c:	2010      	movs	r0, #16
 80a0b8e:	f7ff fa84 	bl	80a009a <_Znwj>
 80a0b92:	4682      	mov	sl, r0
 80a0b94:	b120      	cbz	r0, 80a0ba0 <_Z10fuzzy_initv+0x6b8>
 80a0b96:	463b      	mov	r3, r7
 80a0b98:	464a      	mov	r2, r9
 80a0b9a:	2106      	movs	r1, #6
 80a0b9c:	f001 fb72 	bl	80a2284 <_ZN9FuzzyRuleC1EiP19FuzzyRuleAntecedentP19FuzzyRuleConsequent>
  fuzzy->addFuzzyRule(fr7);
 80a0ba0:	4b64      	ldr	r3, [pc, #400]	; (80a0d34 <_Z10fuzzy_initv+0x84c>)
 80a0ba2:	4651      	mov	r1, sl
 80a0ba4:	6818      	ldr	r0, [r3, #0]
 80a0ba6:	f002 f91d 	bl	80a2de4 <_ZN5Fuzzy12addFuzzyRuleEP9FuzzyRule>

  FuzzyRuleAntecedent* HHMM = new FuzzyRuleAntecedent();
 80a0baa:	2018      	movs	r0, #24
 80a0bac:	f7ff fa75 	bl	80a009a <_Znwj>
 80a0bb0:	4681      	mov	r9, r0
 80a0bb2:	b108      	cbz	r0, 80a0bb8 <_Z10fuzzy_initv+0x6d0>
 80a0bb4:	f002 f976 	bl	80a2ea4 <_ZN19FuzzyRuleAntecedentC1Ev>
  HHMM->joinWithAND(left_high_high, right_med_med);
 80a0bb8:	465a      	mov	r2, fp
 80a0bba:	990d      	ldr	r1, [sp, #52]	; 0x34
 80a0bbc:	4648      	mov	r0, r9
 80a0bbe:	f002 f988 	bl	80a2ed2 <_ZN19FuzzyRuleAntecedent11joinWithANDEPS_S0_>
  FuzzyRule* fr8 = new FuzzyRule(8, HHMM, drive_small_left);
 80a0bc2:	2010      	movs	r0, #16
 80a0bc4:	f7ff fa69 	bl	80a009a <_Znwj>
 80a0bc8:	4682      	mov	sl, r0
 80a0bca:	b120      	cbz	r0, 80a0bd6 <_Z10fuzzy_initv+0x6ee>
 80a0bcc:	463b      	mov	r3, r7
 80a0bce:	464a      	mov	r2, r9
 80a0bd0:	2108      	movs	r1, #8
 80a0bd2:	f001 fb57 	bl	80a2284 <_ZN9FuzzyRuleC1EiP19FuzzyRuleAntecedentP19FuzzyRuleConsequent>
  fuzzy->addFuzzyRule(fr8);
 80a0bd6:	4b57      	ldr	r3, [pc, #348]	; (80a0d34 <_Z10fuzzy_initv+0x84c>)
 80a0bd8:	4651      	mov	r1, sl
 80a0bda:	6818      	ldr	r0, [r3, #0]
 80a0bdc:	f002 f902 	bl	80a2de4 <_ZN5Fuzzy12addFuzzyRuleEP9FuzzyRule>

  FuzzyRuleAntecedent* MHMM = new FuzzyRuleAntecedent();
 80a0be0:	2018      	movs	r0, #24
 80a0be2:	f7ff fa5a 	bl	80a009a <_Znwj>
 80a0be6:	4681      	mov	r9, r0
 80a0be8:	b108      	cbz	r0, 80a0bee <_Z10fuzzy_initv+0x706>
 80a0bea:	f002 f95b 	bl	80a2ea4 <_ZN19FuzzyRuleAntecedentC1Ev>
  MHMM->joinWithAND(left_med_high, right_med_med);
 80a0bee:	465a      	mov	r2, fp
 80a0bf0:	9905      	ldr	r1, [sp, #20]
 80a0bf2:	4648      	mov	r0, r9
 80a0bf4:	f002 f96d 	bl	80a2ed2 <_ZN19FuzzyRuleAntecedent11joinWithANDEPS_S0_>
  FuzzyRule* fr9 = new FuzzyRule(9, MHMM, drive_small_left);
 80a0bf8:	2010      	movs	r0, #16
 80a0bfa:	f7ff fa4e 	bl	80a009a <_Znwj>
 80a0bfe:	4682      	mov	sl, r0
 80a0c00:	b120      	cbz	r0, 80a0c0c <_Z10fuzzy_initv+0x724>
 80a0c02:	463b      	mov	r3, r7
 80a0c04:	464a      	mov	r2, r9
 80a0c06:	2109      	movs	r1, #9
 80a0c08:	f001 fb3c 	bl	80a2284 <_ZN9FuzzyRuleC1EiP19FuzzyRuleAntecedentP19FuzzyRuleConsequent>
  fuzzy->addFuzzyRule(fr9);
 80a0c0c:	4b49      	ldr	r3, [pc, #292]	; (80a0d34 <_Z10fuzzy_initv+0x84c>)
 80a0c0e:	4651      	mov	r1, sl
 80a0c10:	6818      	ldr	r0, [r3, #0]
 80a0c12:	f002 f8e7 	bl	80a2de4 <_ZN5Fuzzy12addFuzzyRuleEP9FuzzyRule>

  FuzzyRuleAntecedent* MHML = new FuzzyRuleAntecedent();
 80a0c16:	2018      	movs	r0, #24
 80a0c18:	f7ff fa3f 	bl	80a009a <_Znwj>
 80a0c1c:	4681      	mov	r9, r0
 80a0c1e:	b108      	cbz	r0, 80a0c24 <_Z10fuzzy_initv+0x73c>
 80a0c20:	f002 f940 	bl	80a2ea4 <_ZN19FuzzyRuleAntecedentC1Ev>
  MHML->joinWithAND(left_med_high, right_med_low);
 80a0c24:	9a04      	ldr	r2, [sp, #16]
 80a0c26:	9905      	ldr	r1, [sp, #20]
 80a0c28:	4648      	mov	r0, r9
 80a0c2a:	f002 f952 	bl	80a2ed2 <_ZN19FuzzyRuleAntecedent11joinWithANDEPS_S0_>
  FuzzyRule* fr10 = new FuzzyRule(10, MHML, drive_small_left);
 80a0c2e:	2010      	movs	r0, #16
 80a0c30:	f7ff fa33 	bl	80a009a <_Znwj>
 80a0c34:	4682      	mov	sl, r0
 80a0c36:	b120      	cbz	r0, 80a0c42 <_Z10fuzzy_initv+0x75a>
 80a0c38:	463b      	mov	r3, r7
 80a0c3a:	464a      	mov	r2, r9
 80a0c3c:	210a      	movs	r1, #10
 80a0c3e:	f001 fb21 	bl	80a2284 <_ZN9FuzzyRuleC1EiP19FuzzyRuleAntecedentP19FuzzyRuleConsequent>
  fuzzy->addFuzzyRule(fr10);
 80a0c42:	4b3c      	ldr	r3, [pc, #240]	; (80a0d34 <_Z10fuzzy_initv+0x84c>)
 80a0c44:	4651      	mov	r1, sl
 80a0c46:	6818      	ldr	r0, [r3, #0]
 80a0c48:	f002 f8cc 	bl	80a2de4 <_ZN5Fuzzy12addFuzzyRuleEP9FuzzyRule>

  FuzzyRuleAntecedent* MHLL = new FuzzyRuleAntecedent();
 80a0c4c:	2018      	movs	r0, #24
 80a0c4e:	f7ff fa24 	bl	80a009a <_Znwj>
 80a0c52:	4681      	mov	r9, r0
 80a0c54:	b108      	cbz	r0, 80a0c5a <_Z10fuzzy_initv+0x772>
 80a0c56:	f002 f925 	bl	80a2ea4 <_ZN19FuzzyRuleAntecedentC1Ev>
  MHLL->joinWithAND(left_med_high, right_low_low);
 80a0c5a:	4632      	mov	r2, r6
 80a0c5c:	9905      	ldr	r1, [sp, #20]
 80a0c5e:	4648      	mov	r0, r9
 80a0c60:	f002 f937 	bl	80a2ed2 <_ZN19FuzzyRuleAntecedent11joinWithANDEPS_S0_>
  FuzzyRule* fr11 = new FuzzyRule(11, MHLL, drive_small_left);
 80a0c64:	2010      	movs	r0, #16
 80a0c66:	f7ff fa18 	bl	80a009a <_Znwj>
 80a0c6a:	4682      	mov	sl, r0
 80a0c6c:	b120      	cbz	r0, 80a0c78 <_Z10fuzzy_initv+0x790>
 80a0c6e:	463b      	mov	r3, r7
 80a0c70:	464a      	mov	r2, r9
 80a0c72:	210b      	movs	r1, #11
 80a0c74:	f001 fb06 	bl	80a2284 <_ZN9FuzzyRuleC1EiP19FuzzyRuleAntecedentP19FuzzyRuleConsequent>
  fuzzy->addFuzzyRule(fr11);
 80a0c78:	4b2e      	ldr	r3, [pc, #184]	; (80a0d34 <_Z10fuzzy_initv+0x84c>)
 80a0c7a:	4651      	mov	r1, sl
 80a0c7c:	6818      	ldr	r0, [r3, #0]
 80a0c7e:	f002 f8b1 	bl	80a2de4 <_ZN5Fuzzy12addFuzzyRuleEP9FuzzyRule>

  FuzzyRuleAntecedent* MMML = new FuzzyRuleAntecedent();
 80a0c82:	2018      	movs	r0, #24
 80a0c84:	f7ff fa09 	bl	80a009a <_Znwj>
 80a0c88:	4681      	mov	r9, r0
 80a0c8a:	b108      	cbz	r0, 80a0c90 <_Z10fuzzy_initv+0x7a8>
 80a0c8c:	f002 f90a 	bl	80a2ea4 <_ZN19FuzzyRuleAntecedentC1Ev>
  MMML->joinWithAND(left_med_med, right_med_low);
 80a0c90:	9a04      	ldr	r2, [sp, #16]
 80a0c92:	9903      	ldr	r1, [sp, #12]
 80a0c94:	4648      	mov	r0, r9
 80a0c96:	f002 f91c 	bl	80a2ed2 <_ZN19FuzzyRuleAntecedent11joinWithANDEPS_S0_>
  FuzzyRule* fr12 = new FuzzyRule(12, MMML, drive_small_left);
 80a0c9a:	2010      	movs	r0, #16
 80a0c9c:	f7ff f9fd 	bl	80a009a <_Znwj>
 80a0ca0:	4682      	mov	sl, r0
 80a0ca2:	b120      	cbz	r0, 80a0cae <_Z10fuzzy_initv+0x7c6>
 80a0ca4:	463b      	mov	r3, r7
 80a0ca6:	464a      	mov	r2, r9
 80a0ca8:	210c      	movs	r1, #12
 80a0caa:	f001 faeb 	bl	80a2284 <_ZN9FuzzyRuleC1EiP19FuzzyRuleAntecedentP19FuzzyRuleConsequent>
  fuzzy->addFuzzyRule(fr12);
 80a0cae:	4b21      	ldr	r3, [pc, #132]	; (80a0d34 <_Z10fuzzy_initv+0x84c>)
 80a0cb0:	4651      	mov	r1, sl
 80a0cb2:	6818      	ldr	r0, [r3, #0]
 80a0cb4:	f002 f896 	bl	80a2de4 <_ZN5Fuzzy12addFuzzyRuleEP9FuzzyRule>

  FuzzyRuleAntecedent* MMLL = new FuzzyRuleAntecedent();
 80a0cb8:	2018      	movs	r0, #24
 80a0cba:	f7ff f9ee 	bl	80a009a <_Znwj>
 80a0cbe:	4681      	mov	r9, r0
 80a0cc0:	b108      	cbz	r0, 80a0cc6 <_Z10fuzzy_initv+0x7de>
 80a0cc2:	f002 f8ef 	bl	80a2ea4 <_ZN19FuzzyRuleAntecedentC1Ev>
  MMLL->joinWithAND(left_med_med, right_low_low);
 80a0cc6:	4632      	mov	r2, r6
 80a0cc8:	9903      	ldr	r1, [sp, #12]
 80a0cca:	4648      	mov	r0, r9
 80a0ccc:	f002 f901 	bl	80a2ed2 <_ZN19FuzzyRuleAntecedent11joinWithANDEPS_S0_>
  FuzzyRule* fr13 = new FuzzyRule(13, MMLL, drive_small_left);
 80a0cd0:	2010      	movs	r0, #16
 80a0cd2:	f7ff f9e2 	bl	80a009a <_Znwj>
 80a0cd6:	4682      	mov	sl, r0
 80a0cd8:	b120      	cbz	r0, 80a0ce4 <_Z10fuzzy_initv+0x7fc>
 80a0cda:	463b      	mov	r3, r7
 80a0cdc:	464a      	mov	r2, r9
 80a0cde:	210d      	movs	r1, #13
 80a0ce0:	f001 fad0 	bl	80a2284 <_ZN9FuzzyRuleC1EiP19FuzzyRuleAntecedentP19FuzzyRuleConsequent>
  fuzzy->addFuzzyRule(fr13);
 80a0ce4:	4b13      	ldr	r3, [pc, #76]	; (80a0d34 <_Z10fuzzy_initv+0x84c>)
 80a0ce6:	4651      	mov	r1, sl
 80a0ce8:	6818      	ldr	r0, [r3, #0]
 80a0cea:	f002 f87b 	bl	80a2de4 <_ZN5Fuzzy12addFuzzyRuleEP9FuzzyRule>

  FuzzyRuleAntecedent* HMLL = new FuzzyRuleAntecedent();
 80a0cee:	2018      	movs	r0, #24
 80a0cf0:	f7ff f9d3 	bl	80a009a <_Znwj>
 80a0cf4:	4681      	mov	r9, r0
 80a0cf6:	b108      	cbz	r0, 80a0cfc <_Z10fuzzy_initv+0x814>
 80a0cf8:	f002 f8d4 	bl	80a2ea4 <_ZN19FuzzyRuleAntecedentC1Ev>
  HMLL->joinWithAND(left_high_med, right_low_low);
 80a0cfc:	4632      	mov	r2, r6
 80a0cfe:	9914      	ldr	r1, [sp, #80]	; 0x50
 80a0d00:	4648      	mov	r0, r9
 80a0d02:	f002 f8e6 	bl	80a2ed2 <_ZN19FuzzyRuleAntecedent11joinWithANDEPS_S0_>
  FuzzyRule* fr14 = new FuzzyRule(14, HMLL, drive_small_left);
 80a0d06:	2010      	movs	r0, #16
 80a0d08:	f7ff f9c7 	bl	80a009a <_Znwj>
 80a0d0c:	4682      	mov	sl, r0
 80a0d0e:	b120      	cbz	r0, 80a0d1a <_Z10fuzzy_initv+0x832>
 80a0d10:	463b      	mov	r3, r7
 80a0d12:	464a      	mov	r2, r9
 80a0d14:	210e      	movs	r1, #14
 80a0d16:	f001 fab5 	bl	80a2284 <_ZN9FuzzyRuleC1EiP19FuzzyRuleAntecedentP19FuzzyRuleConsequent>
  fuzzy->addFuzzyRule(fr14);
 80a0d1a:	4b06      	ldr	r3, [pc, #24]	; (80a0d34 <_Z10fuzzy_initv+0x84c>)
 80a0d1c:	4651      	mov	r1, sl
 80a0d1e:	6818      	ldr	r0, [r3, #0]
 80a0d20:	f002 f860 	bl	80a2de4 <_ZN5Fuzzy12addFuzzyRuleEP9FuzzyRule>

  FuzzyRuleAntecedent* MLLL = new FuzzyRuleAntecedent();
 80a0d24:	2018      	movs	r0, #24
 80a0d26:	f7ff f9b8 	bl	80a009a <_Znwj>
 80a0d2a:	4681      	mov	r9, r0
 80a0d2c:	b120      	cbz	r0, 80a0d38 <_Z10fuzzy_initv+0x850>
 80a0d2e:	f002 f8b9 	bl	80a2ea4 <_ZN19FuzzyRuleAntecedentC1Ev>
 80a0d32:	e001      	b.n	80a0d38 <_Z10fuzzy_initv+0x850>
 80a0d34:	20000364 	.word	0x20000364
  MLLL->joinWithAND(left_med_low, right_low_low);
 80a0d38:	4632      	mov	r2, r6
 80a0d3a:	9915      	ldr	r1, [sp, #84]	; 0x54
 80a0d3c:	4648      	mov	r0, r9
 80a0d3e:	f002 f8c8 	bl	80a2ed2 <_ZN19FuzzyRuleAntecedent11joinWithANDEPS_S0_>
  FuzzyRule* fr15 = new FuzzyRule(15, MLLL, drive_small_left);
 80a0d42:	2010      	movs	r0, #16
 80a0d44:	f7ff f9a9 	bl	80a009a <_Znwj>
 80a0d48:	4682      	mov	sl, r0
 80a0d4a:	b120      	cbz	r0, 80a0d56 <_Z10fuzzy_initv+0x86e>
 80a0d4c:	463b      	mov	r3, r7
 80a0d4e:	464a      	mov	r2, r9
 80a0d50:	210f      	movs	r1, #15
 80a0d52:	f001 fa97 	bl	80a2284 <_ZN9FuzzyRuleC1EiP19FuzzyRuleAntecedentP19FuzzyRuleConsequent>
  fuzzy->addFuzzyRule(fr15);
 80a0d56:	4bbf      	ldr	r3, [pc, #764]	; (80a1054 <_Z10fuzzy_initv+0xb6c>)
 80a0d58:	4651      	mov	r1, sl
 80a0d5a:	6818      	ldr	r0, [r3, #0]
 80a0d5c:	f002 f842 	bl	80a2de4 <_ZN5Fuzzy12addFuzzyRuleEP9FuzzyRule>

  FuzzyRuleAntecedent* HLLL = new FuzzyRuleAntecedent();
 80a0d60:	2018      	movs	r0, #24
 80a0d62:	f7ff f99a 	bl	80a009a <_Znwj>
 80a0d66:	4681      	mov	r9, r0
 80a0d68:	b108      	cbz	r0, 80a0d6e <_Z10fuzzy_initv+0x886>
 80a0d6a:	f002 f89b 	bl	80a2ea4 <_ZN19FuzzyRuleAntecedentC1Ev>
  HLLL->joinWithAND(left_high_low, right_low_low);
 80a0d6e:	4632      	mov	r2, r6
 80a0d70:	9916      	ldr	r1, [sp, #88]	; 0x58
 80a0d72:	4648      	mov	r0, r9
 80a0d74:	f002 f8ad 	bl	80a2ed2 <_ZN19FuzzyRuleAntecedent11joinWithANDEPS_S0_>
  FuzzyRule* fr16 = new FuzzyRule(16, HLLL, drive_full_left);
 80a0d78:	2010      	movs	r0, #16
 80a0d7a:	f7ff f98e 	bl	80a009a <_Znwj>
 80a0d7e:	4682      	mov	sl, r0
 80a0d80:	b120      	cbz	r0, 80a0d8c <_Z10fuzzy_initv+0x8a4>
 80a0d82:	9b08      	ldr	r3, [sp, #32]
 80a0d84:	464a      	mov	r2, r9
 80a0d86:	2110      	movs	r1, #16
 80a0d88:	f001 fa7c 	bl	80a2284 <_ZN9FuzzyRuleC1EiP19FuzzyRuleAntecedentP19FuzzyRuleConsequent>
  fuzzy->addFuzzyRule(fr16);
 80a0d8c:	4bb1      	ldr	r3, [pc, #708]	; (80a1054 <_Z10fuzzy_initv+0xb6c>)
 80a0d8e:	4651      	mov	r1, sl
 80a0d90:	6818      	ldr	r0, [r3, #0]
 80a0d92:	f002 f827 	bl	80a2de4 <_ZN5Fuzzy12addFuzzyRuleEP9FuzzyRule>

  FuzzyRuleAntecedent* LLLH = new FuzzyRuleAntecedent();
 80a0d96:	2018      	movs	r0, #24
 80a0d98:	f7ff f97f 	bl	80a009a <_Znwj>
 80a0d9c:	4681      	mov	r9, r0
 80a0d9e:	b108      	cbz	r0, 80a0da4 <_Z10fuzzy_initv+0x8bc>
 80a0da0:	f002 f880 	bl	80a2ea4 <_ZN19FuzzyRuleAntecedentC1Ev>
  LLLH->joinWithAND(left_low_low, right_low_high);
 80a0da4:	9a0a      	ldr	r2, [sp, #40]	; 0x28
 80a0da6:	4621      	mov	r1, r4
 80a0da8:	4648      	mov	r0, r9
 80a0daa:	f002 f892 	bl	80a2ed2 <_ZN19FuzzyRuleAntecedent11joinWithANDEPS_S0_>
  FuzzyRule* fr17 = new FuzzyRule(17, LLLH, drive_full_right);
 80a0dae:	2010      	movs	r0, #16
 80a0db0:	f7ff f973 	bl	80a009a <_Znwj>
 80a0db4:	4682      	mov	sl, r0
 80a0db6:	b120      	cbz	r0, 80a0dc2 <_Z10fuzzy_initv+0x8da>
 80a0db8:	9b0b      	ldr	r3, [sp, #44]	; 0x2c
 80a0dba:	464a      	mov	r2, r9
 80a0dbc:	2111      	movs	r1, #17
 80a0dbe:	f001 fa61 	bl	80a2284 <_ZN9FuzzyRuleC1EiP19FuzzyRuleAntecedentP19FuzzyRuleConsequent>
  fuzzy->addFuzzyRule(fr17);
 80a0dc2:	4ba4      	ldr	r3, [pc, #656]	; (80a1054 <_Z10fuzzy_initv+0xb6c>)
 80a0dc4:	4651      	mov	r1, sl
 80a0dc6:	6818      	ldr	r0, [r3, #0]
 80a0dc8:	f002 f80c 	bl	80a2de4 <_ZN5Fuzzy12addFuzzyRuleEP9FuzzyRule>

  FuzzyRuleAntecedent* LLHH = new FuzzyRuleAntecedent();
 80a0dcc:	2018      	movs	r0, #24
 80a0dce:	f7ff f964 	bl	80a009a <_Znwj>
 80a0dd2:	4681      	mov	r9, r0
 80a0dd4:	b108      	cbz	r0, 80a0dda <_Z10fuzzy_initv+0x8f2>
 80a0dd6:	f002 f865 	bl	80a2ea4 <_ZN19FuzzyRuleAntecedentC1Ev>
  LLHH->joinWithAND(left_low_low, right_high_high);
 80a0dda:	9a07      	ldr	r2, [sp, #28]
 80a0ddc:	4621      	mov	r1, r4
 80a0dde:	4648      	mov	r0, r9
 80a0de0:	f002 f877 	bl	80a2ed2 <_ZN19FuzzyRuleAntecedent11joinWithANDEPS_S0_>
  FuzzyRule* fr18 = new FuzzyRule(18, LLHH, drive_small_right);
 80a0de4:	2010      	movs	r0, #16
 80a0de6:	f7ff f958 	bl	80a009a <_Znwj>
 80a0dea:	4682      	mov	sl, r0
 80a0dec:	b120      	cbz	r0, 80a0df8 <_Z10fuzzy_initv+0x910>
 80a0dee:	462b      	mov	r3, r5
 80a0df0:	464a      	mov	r2, r9
 80a0df2:	2112      	movs	r1, #18
 80a0df4:	f001 fa46 	bl	80a2284 <_ZN9FuzzyRuleC1EiP19FuzzyRuleAntecedentP19FuzzyRuleConsequent>
  fuzzy->addFuzzyRule(fr18);
 80a0df8:	4b96      	ldr	r3, [pc, #600]	; (80a1054 <_Z10fuzzy_initv+0xb6c>)
 80a0dfa:	4651      	mov	r1, sl
 80a0dfc:	6818      	ldr	r0, [r3, #0]
 80a0dfe:	f001 fff1 	bl	80a2de4 <_ZN5Fuzzy12addFuzzyRuleEP9FuzzyRule>

  FuzzyRuleAntecedent* LMHH = new FuzzyRuleAntecedent();
 80a0e02:	2018      	movs	r0, #24
 80a0e04:	f7ff f949 	bl	80a009a <_Znwj>
 80a0e08:	4681      	mov	r9, r0
 80a0e0a:	b108      	cbz	r0, 80a0e10 <_Z10fuzzy_initv+0x928>
 80a0e0c:	f002 f84a 	bl	80a2ea4 <_ZN19FuzzyRuleAntecedentC1Ev>
  LMHH->joinWithAND(left_low_med, right_high_high);
 80a0e10:	9a07      	ldr	r2, [sp, #28]
 80a0e12:	9902      	ldr	r1, [sp, #8]
 80a0e14:	4648      	mov	r0, r9
 80a0e16:	f002 f85c 	bl	80a2ed2 <_ZN19FuzzyRuleAntecedent11joinWithANDEPS_S0_>
  FuzzyRule* fr19 = new FuzzyRule(19, LMHH, drive_small_right);
 80a0e1a:	2010      	movs	r0, #16
 80a0e1c:	f7ff f93d 	bl	80a009a <_Znwj>
 80a0e20:	4682      	mov	sl, r0
 80a0e22:	b120      	cbz	r0, 80a0e2e <_Z10fuzzy_initv+0x946>
 80a0e24:	462b      	mov	r3, r5
 80a0e26:	464a      	mov	r2, r9
 80a0e28:	2113      	movs	r1, #19
 80a0e2a:	f001 fa2b 	bl	80a2284 <_ZN9FuzzyRuleC1EiP19FuzzyRuleAntecedentP19FuzzyRuleConsequent>
  fuzzy->addFuzzyRule(fr19);
 80a0e2e:	4b89      	ldr	r3, [pc, #548]	; (80a1054 <_Z10fuzzy_initv+0xb6c>)
 80a0e30:	4651      	mov	r1, sl
 80a0e32:	6818      	ldr	r0, [r3, #0]
 80a0e34:	f001 ffd6 	bl	80a2de4 <_ZN5Fuzzy12addFuzzyRuleEP9FuzzyRule>

  FuzzyRuleAntecedent* MMHH = new FuzzyRuleAntecedent();
 80a0e38:	2018      	movs	r0, #24
 80a0e3a:	f7ff f92e 	bl	80a009a <_Znwj>
 80a0e3e:	4681      	mov	r9, r0
 80a0e40:	b108      	cbz	r0, 80a0e46 <_Z10fuzzy_initv+0x95e>
 80a0e42:	f002 f82f 	bl	80a2ea4 <_ZN19FuzzyRuleAntecedentC1Ev>
  MMHH->joinWithAND(left_med_med, right_high_high);
 80a0e46:	9a07      	ldr	r2, [sp, #28]
 80a0e48:	9903      	ldr	r1, [sp, #12]
 80a0e4a:	4648      	mov	r0, r9
 80a0e4c:	f002 f841 	bl	80a2ed2 <_ZN19FuzzyRuleAntecedent11joinWithANDEPS_S0_>
  FuzzyRule* fr20 = new FuzzyRule(20, MMHH, drive_small_right);
 80a0e50:	2010      	movs	r0, #16
 80a0e52:	f7ff f922 	bl	80a009a <_Znwj>
 80a0e56:	4682      	mov	sl, r0
 80a0e58:	b120      	cbz	r0, 80a0e64 <_Z10fuzzy_initv+0x97c>
 80a0e5a:	462b      	mov	r3, r5
 80a0e5c:	464a      	mov	r2, r9
 80a0e5e:	2114      	movs	r1, #20
 80a0e60:	f001 fa10 	bl	80a2284 <_ZN9FuzzyRuleC1EiP19FuzzyRuleAntecedentP19FuzzyRuleConsequent>
  fuzzy->addFuzzyRule(fr20);
 80a0e64:	4b7b      	ldr	r3, [pc, #492]	; (80a1054 <_Z10fuzzy_initv+0xb6c>)
 80a0e66:	4651      	mov	r1, sl
 80a0e68:	6818      	ldr	r0, [r3, #0]
 80a0e6a:	f001 ffbb 	bl	80a2de4 <_ZN5Fuzzy12addFuzzyRuleEP9FuzzyRule>

  FuzzyRuleAntecedent* MMHM = new FuzzyRuleAntecedent();
 80a0e6e:	2018      	movs	r0, #24
 80a0e70:	f7ff f913 	bl	80a009a <_Znwj>
 80a0e74:	4681      	mov	r9, r0
 80a0e76:	b108      	cbz	r0, 80a0e7c <_Z10fuzzy_initv+0x994>
 80a0e78:	f002 f814 	bl	80a2ea4 <_ZN19FuzzyRuleAntecedentC1Ev>
  MMHM->joinWithAND(left_med_med, right_high_med);
 80a0e7c:	9a06      	ldr	r2, [sp, #24]
 80a0e7e:	9903      	ldr	r1, [sp, #12]
 80a0e80:	4648      	mov	r0, r9
 80a0e82:	f002 f826 	bl	80a2ed2 <_ZN19FuzzyRuleAntecedent11joinWithANDEPS_S0_>
  FuzzyRule* fr21 = new FuzzyRule(21, MMHM, drive_small_right);
 80a0e86:	2010      	movs	r0, #16
 80a0e88:	f7ff f907 	bl	80a009a <_Znwj>
 80a0e8c:	4682      	mov	sl, r0
 80a0e8e:	b120      	cbz	r0, 80a0e9a <_Z10fuzzy_initv+0x9b2>
 80a0e90:	462b      	mov	r3, r5
 80a0e92:	464a      	mov	r2, r9
 80a0e94:	2115      	movs	r1, #21
 80a0e96:	f001 f9f5 	bl	80a2284 <_ZN9FuzzyRuleC1EiP19FuzzyRuleAntecedentP19FuzzyRuleConsequent>
  fuzzy->addFuzzyRule(fr21);
 80a0e9a:	4b6e      	ldr	r3, [pc, #440]	; (80a1054 <_Z10fuzzy_initv+0xb6c>)
 80a0e9c:	4651      	mov	r1, sl
 80a0e9e:	6818      	ldr	r0, [r3, #0]
 80a0ea0:	f001 ffa0 	bl	80a2de4 <_ZN5Fuzzy12addFuzzyRuleEP9FuzzyRule>

  FuzzyRuleAntecedent* LMHM = new FuzzyRuleAntecedent();
 80a0ea4:	2018      	movs	r0, #24
 80a0ea6:	f7ff f8f8 	bl	80a009a <_Znwj>
 80a0eaa:	4681      	mov	r9, r0
 80a0eac:	b108      	cbz	r0, 80a0eb2 <_Z10fuzzy_initv+0x9ca>
 80a0eae:	f001 fff9 	bl	80a2ea4 <_ZN19FuzzyRuleAntecedentC1Ev>
  LMHM->joinWithAND(left_low_med, right_high_med);
 80a0eb2:	9a06      	ldr	r2, [sp, #24]
 80a0eb4:	9902      	ldr	r1, [sp, #8]
 80a0eb6:	4648      	mov	r0, r9
 80a0eb8:	f002 f80b 	bl	80a2ed2 <_ZN19FuzzyRuleAntecedent11joinWithANDEPS_S0_>
  FuzzyRule* fr22 = new FuzzyRule(22, LMHM, drive_small_right);
 80a0ebc:	2010      	movs	r0, #16
 80a0ebe:	f7ff f8ec 	bl	80a009a <_Znwj>
 80a0ec2:	4682      	mov	sl, r0
 80a0ec4:	b120      	cbz	r0, 80a0ed0 <_Z10fuzzy_initv+0x9e8>
 80a0ec6:	462b      	mov	r3, r5
 80a0ec8:	464a      	mov	r2, r9
 80a0eca:	2116      	movs	r1, #22
 80a0ecc:	f001 f9da 	bl	80a2284 <_ZN9FuzzyRuleC1EiP19FuzzyRuleAntecedentP19FuzzyRuleConsequent>
  fuzzy->addFuzzyRule(fr22);
 80a0ed0:	4b60      	ldr	r3, [pc, #384]	; (80a1054 <_Z10fuzzy_initv+0xb6c>)
 80a0ed2:	4651      	mov	r1, sl
 80a0ed4:	6818      	ldr	r0, [r3, #0]
 80a0ed6:	f001 ff85 	bl	80a2de4 <_ZN5Fuzzy12addFuzzyRuleEP9FuzzyRule>

  FuzzyRuleAntecedent* LLHM = new FuzzyRuleAntecedent();
 80a0eda:	2018      	movs	r0, #24
 80a0edc:	f7ff f8dd 	bl	80a009a <_Znwj>
 80a0ee0:	4681      	mov	r9, r0
 80a0ee2:	b108      	cbz	r0, 80a0ee8 <_Z10fuzzy_initv+0xa00>
 80a0ee4:	f001 ffde 	bl	80a2ea4 <_ZN19FuzzyRuleAntecedentC1Ev>
  LLHM->joinWithAND(left_low_low, right_high_med);
 80a0ee8:	9a06      	ldr	r2, [sp, #24]
 80a0eea:	4621      	mov	r1, r4
 80a0eec:	4648      	mov	r0, r9
 80a0eee:	f001 fff0 	bl	80a2ed2 <_ZN19FuzzyRuleAntecedent11joinWithANDEPS_S0_>
  FuzzyRule* fr23 = new FuzzyRule(23, LLHM, drive_small_right);
 80a0ef2:	2010      	movs	r0, #16
 80a0ef4:	f7ff f8d1 	bl	80a009a <_Znwj>
 80a0ef8:	4682      	mov	sl, r0
 80a0efa:	b120      	cbz	r0, 80a0f06 <_Z10fuzzy_initv+0xa1e>
 80a0efc:	462b      	mov	r3, r5
 80a0efe:	464a      	mov	r2, r9
 80a0f00:	2117      	movs	r1, #23
 80a0f02:	f001 f9bf 	bl	80a2284 <_ZN9FuzzyRuleC1EiP19FuzzyRuleAntecedentP19FuzzyRuleConsequent>
  fuzzy->addFuzzyRule(fr23);
 80a0f06:	4b53      	ldr	r3, [pc, #332]	; (80a1054 <_Z10fuzzy_initv+0xb6c>)
 80a0f08:	4651      	mov	r1, sl
 80a0f0a:	6818      	ldr	r0, [r3, #0]
 80a0f0c:	f001 ff6a 	bl	80a2de4 <_ZN5Fuzzy12addFuzzyRuleEP9FuzzyRule>

  FuzzyRuleAntecedent* LMMM = new FuzzyRuleAntecedent();
 80a0f10:	2018      	movs	r0, #24
 80a0f12:	f7ff f8c2 	bl	80a009a <_Znwj>
 80a0f16:	4681      	mov	r9, r0
 80a0f18:	b108      	cbz	r0, 80a0f1e <_Z10fuzzy_initv+0xa36>
 80a0f1a:	f001 ffc3 	bl	80a2ea4 <_ZN19FuzzyRuleAntecedentC1Ev>
  LMMM->joinWithAND(left_low_med, right_med_med);
 80a0f1e:	465a      	mov	r2, fp
 80a0f20:	9902      	ldr	r1, [sp, #8]
 80a0f22:	4648      	mov	r0, r9
 80a0f24:	f001 ffd5 	bl	80a2ed2 <_ZN19FuzzyRuleAntecedent11joinWithANDEPS_S0_>
  FuzzyRule* fr24 = new FuzzyRule(24, LMMM, drive_small_right);
 80a0f28:	2010      	movs	r0, #16
 80a0f2a:	f7ff f8b6 	bl	80a009a <_Znwj>
 80a0f2e:	4682      	mov	sl, r0
 80a0f30:	b120      	cbz	r0, 80a0f3c <_Z10fuzzy_initv+0xa54>
 80a0f32:	462b      	mov	r3, r5
 80a0f34:	464a      	mov	r2, r9
 80a0f36:	2118      	movs	r1, #24
 80a0f38:	f001 f9a4 	bl	80a2284 <_ZN9FuzzyRuleC1EiP19FuzzyRuleAntecedentP19FuzzyRuleConsequent>
  fuzzy->addFuzzyRule(fr24);
 80a0f3c:	f8df 9114 	ldr.w	r9, [pc, #276]	; 80a1054 <_Z10fuzzy_initv+0xb6c>
 80a0f40:	4651      	mov	r1, sl
 80a0f42:	f8d9 0000 	ldr.w	r0, [r9]
 80a0f46:	f001 ff4d 	bl	80a2de4 <_ZN5Fuzzy12addFuzzyRuleEP9FuzzyRule>

  FuzzyRuleAntecedent* LLMM = new FuzzyRuleAntecedent();
 80a0f4a:	2018      	movs	r0, #24
 80a0f4c:	f7ff f8a5 	bl	80a009a <_Znwj>
 80a0f50:	4682      	mov	sl, r0
 80a0f52:	b108      	cbz	r0, 80a0f58 <_Z10fuzzy_initv+0xa70>
 80a0f54:	f001 ffa6 	bl	80a2ea4 <_ZN19FuzzyRuleAntecedentC1Ev>
  LLMM->joinWithAND(left_low_low, right_med_med);
 80a0f58:	465a      	mov	r2, fp
 80a0f5a:	4621      	mov	r1, r4
 80a0f5c:	4650      	mov	r0, sl
 80a0f5e:	f001 ffb8 	bl	80a2ed2 <_ZN19FuzzyRuleAntecedent11joinWithANDEPS_S0_>
  FuzzyRule* fr25 = new FuzzyRule(25, LLMM, drive_small_right);
 80a0f62:	2010      	movs	r0, #16
 80a0f64:	f7ff f899 	bl	80a009a <_Znwj>
 80a0f68:	4683      	mov	fp, r0
 80a0f6a:	b120      	cbz	r0, 80a0f76 <_Z10fuzzy_initv+0xa8e>
 80a0f6c:	462b      	mov	r3, r5
 80a0f6e:	4652      	mov	r2, sl
 80a0f70:	2119      	movs	r1, #25
 80a0f72:	f001 f987 	bl	80a2284 <_ZN9FuzzyRuleC1EiP19FuzzyRuleAntecedentP19FuzzyRuleConsequent>
  fuzzy->addFuzzyRule(fr25);
 80a0f76:	4659      	mov	r1, fp
 80a0f78:	f8d9 0000 	ldr.w	r0, [r9]
 80a0f7c:	f001 ff32 	bl	80a2de4 <_ZN5Fuzzy12addFuzzyRuleEP9FuzzyRule>

  FuzzyRuleAntecedent* LLMH = new FuzzyRuleAntecedent();
 80a0f80:	2018      	movs	r0, #24
 80a0f82:	f7ff f88a 	bl	80a009a <_Znwj>
 80a0f86:	4681      	mov	r9, r0
 80a0f88:	b108      	cbz	r0, 80a0f8e <_Z10fuzzy_initv+0xaa6>
 80a0f8a:	f001 ff8b 	bl	80a2ea4 <_ZN19FuzzyRuleAntecedentC1Ev>
  LLMH->joinWithAND(left_low_low, right_med_high);
 80a0f8e:	9a09      	ldr	r2, [sp, #36]	; 0x24
 80a0f90:	4621      	mov	r1, r4
 80a0f92:	4648      	mov	r0, r9
 80a0f94:	f001 ff9d 	bl	80a2ed2 <_ZN19FuzzyRuleAntecedent11joinWithANDEPS_S0_>
  FuzzyRule* fr26 = new FuzzyRule(26, LLMH, drive_small_right);
 80a0f98:	2010      	movs	r0, #16
 80a0f9a:	f7ff f87e 	bl	80a009a <_Znwj>
 80a0f9e:	4682      	mov	sl, r0
 80a0fa0:	b120      	cbz	r0, 80a0fac <_Z10fuzzy_initv+0xac4>
 80a0fa2:	462b      	mov	r3, r5
 80a0fa4:	464a      	mov	r2, r9
 80a0fa6:	211a      	movs	r1, #26
 80a0fa8:	f001 f96c 	bl	80a2284 <_ZN9FuzzyRuleC1EiP19FuzzyRuleAntecedentP19FuzzyRuleConsequent>
  fuzzy->addFuzzyRule(fr26);
 80a0fac:	f8df 90a4 	ldr.w	r9, [pc, #164]	; 80a1054 <_Z10fuzzy_initv+0xb6c>
 80a0fb0:	4651      	mov	r1, sl
 80a0fb2:	f8d9 0000 	ldr.w	r0, [r9]
 80a0fb6:	f001 ff15 	bl	80a2de4 <_ZN5Fuzzy12addFuzzyRuleEP9FuzzyRule>

  FuzzyRuleAntecedent* LLLM = new FuzzyRuleAntecedent();
 80a0fba:	2018      	movs	r0, #24
 80a0fbc:	f7ff f86d 	bl	80a009a <_Znwj>
 80a0fc0:	4682      	mov	sl, r0
 80a0fc2:	b108      	cbz	r0, 80a0fc8 <_Z10fuzzy_initv+0xae0>
 80a0fc4:	f001 ff6e 	bl	80a2ea4 <_ZN19FuzzyRuleAntecedentC1Ev>
  LLLM->joinWithAND(left_low_low, right_low_med);
 80a0fc8:	9a17      	ldr	r2, [sp, #92]	; 0x5c
 80a0fca:	4621      	mov	r1, r4
 80a0fcc:	4650      	mov	r0, sl
 80a0fce:	f001 ff80 	bl	80a2ed2 <_ZN19FuzzyRuleAntecedent11joinWithANDEPS_S0_>
  FuzzyRule* fr27 = new FuzzyRule(27, LLLM, drive_small_right);
 80a0fd2:	2010      	movs	r0, #16
 80a0fd4:	f7ff f861 	bl	80a009a <_Znwj>
 80a0fd8:	4683      	mov	fp, r0
 80a0fda:	b120      	cbz	r0, 80a0fe6 <_Z10fuzzy_initv+0xafe>
 80a0fdc:	462b      	mov	r3, r5
 80a0fde:	4652      	mov	r2, sl
 80a0fe0:	211b      	movs	r1, #27
 80a0fe2:	f001 f94f 	bl	80a2284 <_ZN9FuzzyRuleC1EiP19FuzzyRuleAntecedentP19FuzzyRuleConsequent>
  fuzzy->addFuzzyRule(fr27);
 80a0fe6:	4659      	mov	r1, fp
 80a0fe8:	f8d9 0000 	ldr.w	r0, [r9]
 80a0fec:	f001 fefa 	bl	80a2de4 <_ZN5Fuzzy12addFuzzyRuleEP9FuzzyRule>

  FuzzyRuleAntecedent* LLLL = new FuzzyRuleAntecedent();
 80a0ff0:	2018      	movs	r0, #24
 80a0ff2:	f7ff f852 	bl	80a009a <_Znwj>
 80a0ff6:	4682      	mov	sl, r0
 80a0ff8:	b108      	cbz	r0, 80a0ffe <_Z10fuzzy_initv+0xb16>
 80a0ffa:	f001 ff53 	bl	80a2ea4 <_ZN19FuzzyRuleAntecedentC1Ev>
  LLLL->joinWithAND(left_low_low, right_low_low);
 80a0ffe:	4632      	mov	r2, r6
 80a1000:	4621      	mov	r1, r4
 80a1002:	4650      	mov	r0, sl
 80a1004:	f001 ff65 	bl	80a2ed2 <_ZN19FuzzyRuleAntecedent11joinWithANDEPS_S0_>
  FuzzyRule* fr28 = new FuzzyRule(28, LLLL, drive_center);	// should it be search?
 80a1008:	2010      	movs	r0, #16
 80a100a:	f7ff f846 	bl	80a009a <_Znwj>
 80a100e:	4683      	mov	fp, r0
 80a1010:	b120      	cbz	r0, 80a101c <_Z10fuzzy_initv+0xb34>
 80a1012:	4643      	mov	r3, r8
 80a1014:	4652      	mov	r2, sl
 80a1016:	211c      	movs	r1, #28
 80a1018:	f001 f934 	bl	80a2284 <_ZN9FuzzyRuleC1EiP19FuzzyRuleAntecedentP19FuzzyRuleConsequent>
  fuzzy->addFuzzyRule(fr28);
 80a101c:	4659      	mov	r1, fp
 80a101e:	f8d9 0000 	ldr.w	r0, [r9]
 80a1022:	f001 fedf 	bl	80a2de4 <_ZN5Fuzzy12addFuzzyRuleEP9FuzzyRule>

  // Revisions
  FuzzyRuleAntecedent* LHLL = new FuzzyRuleAntecedent();
 80a1026:	2018      	movs	r0, #24
 80a1028:	f7ff f837 	bl	80a009a <_Znwj>
 80a102c:	4680      	mov	r8, r0
 80a102e:	b108      	cbz	r0, 80a1034 <_Z10fuzzy_initv+0xb4c>
 80a1030:	f001 ff38 	bl	80a2ea4 <_ZN19FuzzyRuleAntecedentC1Ev>
  LHLL->joinWithAND(left_low_high, right_low_low);
 80a1034:	4632      	mov	r2, r6
 80a1036:	990c      	ldr	r1, [sp, #48]	; 0x30
 80a1038:	4640      	mov	r0, r8
 80a103a:	f001 ff4a 	bl	80a2ed2 <_ZN19FuzzyRuleAntecedent11joinWithANDEPS_S0_>
  FuzzyRule* fr29 = new FuzzyRule(29, LHLL, drive_small_left);
 80a103e:	2010      	movs	r0, #16
 80a1040:	f7ff f82b 	bl	80a009a <_Znwj>
 80a1044:	4682      	mov	sl, r0
 80a1046:	b138      	cbz	r0, 80a1058 <_Z10fuzzy_initv+0xb70>
 80a1048:	463b      	mov	r3, r7
 80a104a:	4642      	mov	r2, r8
 80a104c:	211d      	movs	r1, #29
 80a104e:	f001 f919 	bl	80a2284 <_ZN9FuzzyRuleC1EiP19FuzzyRuleAntecedentP19FuzzyRuleConsequent>
 80a1052:	e001      	b.n	80a1058 <_Z10fuzzy_initv+0xb70>
 80a1054:	20000364 	.word	0x20000364
  fuzzy->addFuzzyRule(fr29);
 80a1058:	4651      	mov	r1, sl
 80a105a:	f8d9 0000 	ldr.w	r0, [r9]
 80a105e:	f001 fec1 	bl	80a2de4 <_ZN5Fuzzy12addFuzzyRuleEP9FuzzyRule>

  FuzzyRuleAntecedent* LMLL = new FuzzyRuleAntecedent();
 80a1062:	2018      	movs	r0, #24
 80a1064:	f7ff f819 	bl	80a009a <_Znwj>
 80a1068:	4680      	mov	r8, r0
 80a106a:	b108      	cbz	r0, 80a1070 <_Z10fuzzy_initv+0xb88>
 80a106c:	f001 ff1a 	bl	80a2ea4 <_ZN19FuzzyRuleAntecedentC1Ev>
  LMLL->joinWithAND(left_low_med, right_low_low);
 80a1070:	4632      	mov	r2, r6
 80a1072:	9902      	ldr	r1, [sp, #8]
 80a1074:	4640      	mov	r0, r8
 80a1076:	f001 ff2c 	bl	80a2ed2 <_ZN19FuzzyRuleAntecedent11joinWithANDEPS_S0_>
  FuzzyRule* fr30 = new FuzzyRule(30, LMLL, drive_small_left);
 80a107a:	2010      	movs	r0, #16
 80a107c:	f7ff f80d 	bl	80a009a <_Znwj>
 80a1080:	4606      	mov	r6, r0
 80a1082:	b120      	cbz	r0, 80a108e <_Z10fuzzy_initv+0xba6>
 80a1084:	463b      	mov	r3, r7
 80a1086:	4642      	mov	r2, r8
 80a1088:	211e      	movs	r1, #30
 80a108a:	f001 f8fb 	bl	80a2284 <_ZN9FuzzyRuleC1EiP19FuzzyRuleAntecedentP19FuzzyRuleConsequent>
  fuzzy->addFuzzyRule(fr30);
 80a108e:	4631      	mov	r1, r6
 80a1090:	f8d9 0000 	ldr.w	r0, [r9]
 80a1094:	f001 fea6 	bl	80a2de4 <_ZN5Fuzzy12addFuzzyRuleEP9FuzzyRule>

  FuzzyRuleAntecedent* LLML = new FuzzyRuleAntecedent();
 80a1098:	2018      	movs	r0, #24
 80a109a:	f7fe fffe 	bl	80a009a <_Znwj>
 80a109e:	4606      	mov	r6, r0
 80a10a0:	b108      	cbz	r0, 80a10a6 <_Z10fuzzy_initv+0xbbe>
 80a10a2:	f001 feff 	bl	80a2ea4 <_ZN19FuzzyRuleAntecedentC1Ev>
  LLML->joinWithAND(left_low_low, right_med_low);
 80a10a6:	9a04      	ldr	r2, [sp, #16]
 80a10a8:	4621      	mov	r1, r4
 80a10aa:	4630      	mov	r0, r6
 80a10ac:	f001 ff11 	bl	80a2ed2 <_ZN19FuzzyRuleAntecedent11joinWithANDEPS_S0_>
  FuzzyRule* fr31 = new FuzzyRule(31, LLML, drive_small_right);
 80a10b0:	2010      	movs	r0, #16
 80a10b2:	f7fe fff2 	bl	80a009a <_Znwj>
 80a10b6:	4607      	mov	r7, r0
 80a10b8:	b120      	cbz	r0, 80a10c4 <_Z10fuzzy_initv+0xbdc>
 80a10ba:	462b      	mov	r3, r5
 80a10bc:	4632      	mov	r2, r6
 80a10be:	211f      	movs	r1, #31
 80a10c0:	f001 f8e0 	bl	80a2284 <_ZN9FuzzyRuleC1EiP19FuzzyRuleAntecedentP19FuzzyRuleConsequent>
  fuzzy->addFuzzyRule(fr31);
 80a10c4:	4639      	mov	r1, r7
 80a10c6:	f8d9 0000 	ldr.w	r0, [r9]
 80a10ca:	f001 fe8b 	bl	80a2de4 <_ZN5Fuzzy12addFuzzyRuleEP9FuzzyRule>

  FuzzyRuleAntecedent* LLHL = new FuzzyRuleAntecedent();
 80a10ce:	2018      	movs	r0, #24
 80a10d0:	f7fe ffe3 	bl	80a009a <_Znwj>
 80a10d4:	4606      	mov	r6, r0
 80a10d6:	b108      	cbz	r0, 80a10dc <_Z10fuzzy_initv+0xbf4>
 80a10d8:	f001 fee4 	bl	80a2ea4 <_ZN19FuzzyRuleAntecedentC1Ev>
  LLHL->joinWithAND(left_low_low, right_high_low);
 80a10dc:	4621      	mov	r1, r4
 80a10de:	9a0e      	ldr	r2, [sp, #56]	; 0x38
 80a10e0:	4630      	mov	r0, r6
 80a10e2:	f001 fef6 	bl	80a2ed2 <_ZN19FuzzyRuleAntecedent11joinWithANDEPS_S0_>
  FuzzyRule* fr32 = new FuzzyRule(32, LLHL, drive_small_right);
 80a10e6:	2010      	movs	r0, #16
 80a10e8:	f7fe ffd7 	bl	80a009a <_Znwj>
 80a10ec:	4604      	mov	r4, r0
 80a10ee:	b120      	cbz	r0, 80a10fa <_Z10fuzzy_initv+0xc12>
 80a10f0:	462b      	mov	r3, r5
 80a10f2:	4632      	mov	r2, r6
 80a10f4:	2120      	movs	r1, #32
 80a10f6:	f001 f8c5 	bl	80a2284 <_ZN9FuzzyRuleC1EiP19FuzzyRuleAntecedentP19FuzzyRuleConsequent>
  fuzzy->addFuzzyRule(fr32);
 80a10fa:	4621      	mov	r1, r4
 80a10fc:	f8d9 0000 	ldr.w	r0, [r9]
}
 80a1100:	b019      	add	sp, #100	; 0x64
 80a1102:	e8bd 4ff0 	ldmia.w	sp!, {r4, r5, r6, r7, r8, r9, sl, fp, lr}
  fuzzy->addFuzzyRule(fr31);

  FuzzyRuleAntecedent* LLHL = new FuzzyRuleAntecedent();
  LLHL->joinWithAND(left_low_low, right_high_low);
  FuzzyRule* fr32 = new FuzzyRule(32, LLHL, drive_small_right);
  fuzzy->addFuzzyRule(fr32);
 80a1106:	f001 be6d 	b.w	80a2de4 <_ZN5Fuzzy12addFuzzyRuleEP9FuzzyRule>
 80a110a:	bf00      	nop

080a110c <setup>:
}

void setup() {
 80a110c:	b508      	push	{r3, lr}
	tof_init();			// ToF and I2C
 80a110e:	f7ff f869 	bl	80a01e4 <_Z8tof_initv>

	// accel_init();		// accelerometer NOT USED

	others_init();		// line, remote, esc, ***printing***
 80a1112:	f7ff f91b 	bl	80a034c <_Z11others_initv>
	interrupt_init();	// interrupts for lines and remote
 80a1116:	f7ff f94d 	bl	80a03b4 <_Z14interrupt_initv>
	ESC_init();			// Car ESCs
 80a111a:	f7ff f991 	bl	80a0440 <_Z8ESC_initv>
	fuzzy_init();		// Fuzzy library************
 80a111e:	f7ff f9e3 	bl	80a04e8 <_Z10fuzzy_initv>

	RGB.control(true); 	// take control of the on-board LED for debugging
 80a1122:	2001      	movs	r0, #1
 80a1124:	f002 faeb 	bl	80a36fe <_ZN8RGBClass7controlEb>

	robot_init();
 80a1128:	f7ff f9c2 	bl	80a04b0 <_Z10robot_initv>
	line_init();		// initialize line variables
}
 80a112c:	e8bd 4008 	ldmia.w	sp!, {r3, lr}
	fuzzy_init();		// Fuzzy library************

	RGB.control(true); 	// take control of the on-board LED for debugging

	robot_init();
	line_init();		// initialize line variables
 80a1130:	f7ff b9b6 	b.w	80a04a0 <_Z9line_initv>

080a1134 <_Z4stopv>:

// -----------------------------------------------------------
// ------------------Runtime functions------------------------
// -----------------------------------------------------------

void stop() {
 80a1134:	b508      	push	{r3, lr}
  	LESC.writeMicroseconds(1500);
 80a1136:	f240 51dc 	movw	r1, #1500	; 0x5dc
 80a113a:	4805      	ldr	r0, [pc, #20]	; (80a1150 <_Z4stopv+0x1c>)
 80a113c:	f002 f991 	bl	80a3462 <_ZN5Servo17writeMicrosecondsEt>
  	RESC.writeMicroseconds(1500);
}
 80a1140:	e8bd 4008 	ldmia.w	sp!, {r3, lr}
// ------------------Runtime functions------------------------
// -----------------------------------------------------------

void stop() {
  	LESC.writeMicroseconds(1500);
  	RESC.writeMicroseconds(1500);
 80a1144:	f240 51dc 	movw	r1, #1500	; 0x5dc
 80a1148:	4802      	ldr	r0, [pc, #8]	; (80a1154 <_Z4stopv+0x20>)
 80a114a:	f002 b98a 	b.w	80a3462 <_ZN5Servo17writeMicrosecondsEt>
 80a114e:	bf00      	nop
 80a1150:	20000340 	.word	0x20000340
 80a1154:	200003b4 	.word	0x200003b4

080a1158 <_Z6getToFv>:
void getAccel() {
  accel.getSample(sample);
  curAccel = sample.x;
}

void getToF() {
 80a1158:	b508      	push	{r3, lr}
	RR_distance = sensor0.readRangeContinuousMillimeters();
 80a115a:	480a      	ldr	r0, [pc, #40]	; (80a1184 <_Z6getToFv+0x2c>)
 80a115c:	f000 fbbe 	bl	80a18dc <_ZN7VL53L0X30readRangeContinuousMillimetersEv>
 80a1160:	4b09      	ldr	r3, [pc, #36]	; (80a1188 <_Z6getToFv+0x30>)
 80a1162:	8018      	strh	r0, [r3, #0]
	RM_distance = sensor1.readRangeContinuousMillimeters();
 80a1164:	4809      	ldr	r0, [pc, #36]	; (80a118c <_Z6getToFv+0x34>)
 80a1166:	f000 fbb9 	bl	80a18dc <_ZN7VL53L0X30readRangeContinuousMillimetersEv>
 80a116a:	4b09      	ldr	r3, [pc, #36]	; (80a1190 <_Z6getToFv+0x38>)
 80a116c:	8018      	strh	r0, [r3, #0]
	LM_distance = sensor2.readRangeContinuousMillimeters();
 80a116e:	4809      	ldr	r0, [pc, #36]	; (80a1194 <_Z6getToFv+0x3c>)
 80a1170:	f000 fbb4 	bl	80a18dc <_ZN7VL53L0X30readRangeContinuousMillimetersEv>
 80a1174:	4b08      	ldr	r3, [pc, #32]	; (80a1198 <_Z6getToFv+0x40>)
 80a1176:	8018      	strh	r0, [r3, #0]
	LL_distance = sensor3.readRangeContinuousMillimeters();
 80a1178:	4808      	ldr	r0, [pc, #32]	; (80a119c <_Z6getToFv+0x44>)
 80a117a:	f000 fbaf 	bl	80a18dc <_ZN7VL53L0X30readRangeContinuousMillimetersEv>
 80a117e:	4b08      	ldr	r3, [pc, #32]	; (80a11a0 <_Z6getToFv+0x48>)
 80a1180:	8018      	strh	r0, [r3, #0]
 80a1182:	bd08      	pop	{r3, pc}
 80a1184:	20000368 	.word	0x20000368
 80a1188:	2000033e 	.word	0x2000033e
 80a118c:	200003e4 	.word	0x200003e4
 80a1190:	200003fc 	.word	0x200003fc
 80a1194:	20000380 	.word	0x20000380
 80a1198:	200003d0 	.word	0x200003d0
 80a119c:	20000398 	.word	0x20000398
 80a11a0:	200003fe 	.word	0x200003fe

080a11a4 <_Z7doFuzzyv>:
	// if (sensor0.timeoutOccurred() || sensor1.timeoutOccurred() || sensor2.timeoutOccurred() || sensor3.timeoutOccurred()) { Serial.print(" SENSOR TIMEOUT"); }
}

void doFuzzy() {
 80a11a4:	b510      	push	{r4, lr}
  fuzzy->setInput(1, LL_distance);
 80a11a6:	4b57      	ldr	r3, [pc, #348]	; (80a1304 <_Z7doFuzzyv+0x160>)
 80a11a8:	4c57      	ldr	r4, [pc, #348]	; (80a1308 <_Z7doFuzzyv+0x164>)
 80a11aa:	8818      	ldrh	r0, [r3, #0]
 80a11ac:	f003 fcc4 	bl	80a4b38 <__aeabi_ui2f>
 80a11b0:	2101      	movs	r1, #1
 80a11b2:	4602      	mov	r2, r0
 80a11b4:	6820      	ldr	r0, [r4, #0]
 80a11b6:	f001 fe28 	bl	80a2e0a <_ZN5Fuzzy8setInputEif>
  fuzzy->setInput(2, LM_distance);
 80a11ba:	4b54      	ldr	r3, [pc, #336]	; (80a130c <_Z7doFuzzyv+0x168>)
 80a11bc:	8818      	ldrh	r0, [r3, #0]
 80a11be:	f003 fcbb 	bl	80a4b38 <__aeabi_ui2f>
 80a11c2:	2102      	movs	r1, #2
 80a11c4:	4602      	mov	r2, r0
 80a11c6:	6820      	ldr	r0, [r4, #0]
 80a11c8:	f001 fe1f 	bl	80a2e0a <_ZN5Fuzzy8setInputEif>
  fuzzy->setInput(3, RM_distance);
 80a11cc:	4b50      	ldr	r3, [pc, #320]	; (80a1310 <_Z7doFuzzyv+0x16c>)
 80a11ce:	8818      	ldrh	r0, [r3, #0]
 80a11d0:	f003 fcb2 	bl	80a4b38 <__aeabi_ui2f>
 80a11d4:	2103      	movs	r1, #3
 80a11d6:	4602      	mov	r2, r0
 80a11d8:	6820      	ldr	r0, [r4, #0]
 80a11da:	f001 fe16 	bl	80a2e0a <_ZN5Fuzzy8setInputEif>
  fuzzy->setInput(4, RR_distance);
 80a11de:	4b4d      	ldr	r3, [pc, #308]	; (80a1314 <_Z7doFuzzyv+0x170>)
 80a11e0:	8818      	ldrh	r0, [r3, #0]
 80a11e2:	f003 fca9 	bl	80a4b38 <__aeabi_ui2f>
 80a11e6:	2104      	movs	r1, #4
 80a11e8:	4602      	mov	r2, r0
 80a11ea:	6820      	ldr	r0, [r4, #0]
 80a11ec:	f001 fe0d 	bl	80a2e0a <_ZN5Fuzzy8setInputEif>
  fuzzy->fuzzify();
 80a11f0:	6820      	ldr	r0, [r4, #0]
 80a11f2:	f001 fe1e 	bl	80a2e32 <_ZN5Fuzzy7fuzzifyEv>
  output = fuzzy->defuzzify(1);
 80a11f6:	2101      	movs	r1, #1
 80a11f8:	6820      	ldr	r0, [r4, #0]
 80a11fa:	f001 fe41 	bl	80a2e80 <_ZN5Fuzzy9defuzzifyEi>
 80a11fe:	4b46      	ldr	r3, [pc, #280]	; (80a1318 <_Z7doFuzzyv+0x174>)

	if((output >= 0) && (output < 20)) {
 80a1200:	2100      	movs	r1, #0
  fuzzy->setInput(1, LL_distance);
  fuzzy->setInput(2, LM_distance);
  fuzzy->setInput(3, RM_distance);
  fuzzy->setInput(4, RR_distance);
  fuzzy->fuzzify();
  output = fuzzy->defuzzify(1);
 80a1202:	6018      	str	r0, [r3, #0]
 80a1204:	4604      	mov	r4, r0

	if((output >= 0) && (output < 20)) {
 80a1206:	f003 fea1 	bl	80a4f4c <__aeabi_fcmpge>
 80a120a:	b190      	cbz	r0, 80a1232 <_Z7doFuzzyv+0x8e>
 80a120c:	4943      	ldr	r1, [pc, #268]	; (80a131c <_Z7doFuzzyv+0x178>)
 80a120e:	4620      	mov	r0, r4
 80a1210:	f003 fe88 	bl	80a4f24 <__aeabi_fcmplt>
 80a1214:	b168      	cbz	r0, 80a1232 <_Z7doFuzzyv+0x8e>
		decision = "Full Left";
 80a1216:	4942      	ldr	r1, [pc, #264]	; (80a1320 <_Z7doFuzzyv+0x17c>)
 80a1218:	4842      	ldr	r0, [pc, #264]	; (80a1324 <_Z7doFuzzyv+0x180>)
 80a121a:	f002 f9de 	bl	80a35da <_ZN6StringaSEPKc>
		RGB.color(0, 0, 255);
 80a121e:	2100      	movs	r1, #0
 80a1220:	22ff      	movs	r2, #255	; 0xff
 80a1222:	4608      	mov	r0, r1
 80a1224:	f002 fa7b 	bl	80a371e <_ZN8RGBClass5colorEiii>

		L_command = v_full_slow;
 80a1228:	4b3f      	ldr	r3, [pc, #252]	; (80a1328 <_Z7doFuzzyv+0x184>)
 80a122a:	2232      	movs	r2, #50	; 0x32
 80a122c:	601a      	str	r2, [r3, #0]
		R_command = v_full_fast;
 80a122e:	225a      	movs	r2, #90	; 0x5a
 80a1230:	e05f      	b.n	80a12f2 <_Z7doFuzzyv+0x14e>
		L_dir = 1;
		R_dir = 1;
	} else if((output >= 20) && (output < 40)) {
 80a1232:	493a      	ldr	r1, [pc, #232]	; (80a131c <_Z7doFuzzyv+0x178>)
 80a1234:	4620      	mov	r0, r4
 80a1236:	f003 fe89 	bl	80a4f4c <__aeabi_fcmpge>
 80a123a:	b190      	cbz	r0, 80a1262 <_Z7doFuzzyv+0xbe>
 80a123c:	493b      	ldr	r1, [pc, #236]	; (80a132c <_Z7doFuzzyv+0x188>)
 80a123e:	4620      	mov	r0, r4
 80a1240:	f003 fe70 	bl	80a4f24 <__aeabi_fcmplt>
 80a1244:	b168      	cbz	r0, 80a1262 <_Z7doFuzzyv+0xbe>
		decision = "Small Left";
 80a1246:	493a      	ldr	r1, [pc, #232]	; (80a1330 <_Z7doFuzzyv+0x18c>)
 80a1248:	4836      	ldr	r0, [pc, #216]	; (80a1324 <_Z7doFuzzyv+0x180>)
 80a124a:	f002 f9c6 	bl	80a35da <_ZN6StringaSEPKc>
		RGB.color(0, 128, 128);
 80a124e:	2280      	movs	r2, #128	; 0x80
 80a1250:	4611      	mov	r1, r2
 80a1252:	2000      	movs	r0, #0
 80a1254:	f002 fa63 	bl	80a371e <_ZN8RGBClass5colorEiii>

 		L_command = v_small_slow;
 80a1258:	4b33      	ldr	r3, [pc, #204]	; (80a1328 <_Z7doFuzzyv+0x184>)
 80a125a:	223c      	movs	r2, #60	; 0x3c
 80a125c:	601a      	str	r2, [r3, #0]
		R_command = v_small_fast;
 80a125e:	2250      	movs	r2, #80	; 0x50
 80a1260:	e047      	b.n	80a12f2 <_Z7doFuzzyv+0x14e>
		L_dir = 1;
		R_dir = 1;
  } else if((output >= 40) && (output < 60)) {
 80a1262:	4932      	ldr	r1, [pc, #200]	; (80a132c <_Z7doFuzzyv+0x188>)
 80a1264:	4620      	mov	r0, r4
 80a1266:	f003 fe71 	bl	80a4f4c <__aeabi_fcmpge>
 80a126a:	b198      	cbz	r0, 80a1294 <_Z7doFuzzyv+0xf0>
 80a126c:	4931      	ldr	r1, [pc, #196]	; (80a1334 <_Z7doFuzzyv+0x190>)
 80a126e:	4620      	mov	r0, r4
 80a1270:	f003 fe58 	bl	80a4f24 <__aeabi_fcmplt>
 80a1274:	b170      	cbz	r0, 80a1294 <_Z7doFuzzyv+0xf0>
	  decision = "Center";
 80a1276:	4930      	ldr	r1, [pc, #192]	; (80a1338 <_Z7doFuzzyv+0x194>)
 80a1278:	482a      	ldr	r0, [pc, #168]	; (80a1324 <_Z7doFuzzyv+0x180>)
 80a127a:	f002 f9ae 	bl	80a35da <_ZN6StringaSEPKc>
	  RGB.color(0, 255, 0);
 80a127e:	2200      	movs	r2, #0
 80a1280:	4610      	mov	r0, r2
 80a1282:	21ff      	movs	r1, #255	; 0xff
 80a1284:	f002 fa4b 	bl	80a371e <_ZN8RGBClass5colorEiii>

		L_command = v_center;
 80a1288:	4a27      	ldr	r2, [pc, #156]	; (80a1328 <_Z7doFuzzyv+0x184>)
 80a128a:	2346      	movs	r3, #70	; 0x46
 80a128c:	6013      	str	r3, [r2, #0]
		R_command = v_center;
 80a128e:	4a2b      	ldr	r2, [pc, #172]	; (80a133c <_Z7doFuzzyv+0x198>)
 80a1290:	6013      	str	r3, [r2, #0]
 80a1292:	e030      	b.n	80a12f6 <_Z7doFuzzyv+0x152>
		L_dir = 1;
		R_dir = 1;
  } else if((output >= 60) && (output < 80)) {
 80a1294:	4927      	ldr	r1, [pc, #156]	; (80a1334 <_Z7doFuzzyv+0x190>)
 80a1296:	4620      	mov	r0, r4
 80a1298:	f003 fe58 	bl	80a4f4c <__aeabi_fcmpge>
 80a129c:	b190      	cbz	r0, 80a12c4 <_Z7doFuzzyv+0x120>
 80a129e:	4928      	ldr	r1, [pc, #160]	; (80a1340 <_Z7doFuzzyv+0x19c>)
 80a12a0:	4620      	mov	r0, r4
 80a12a2:	f003 fe3f 	bl	80a4f24 <__aeabi_fcmplt>
 80a12a6:	b168      	cbz	r0, 80a12c4 <_Z7doFuzzyv+0x120>
	  decision = "Small Right";
 80a12a8:	4926      	ldr	r1, [pc, #152]	; (80a1344 <_Z7doFuzzyv+0x1a0>)
 80a12aa:	481e      	ldr	r0, [pc, #120]	; (80a1324 <_Z7doFuzzyv+0x180>)
 80a12ac:	f002 f995 	bl	80a35da <_ZN6StringaSEPKc>
	  RGB.color(128, 128, 0);
 80a12b0:	2180      	movs	r1, #128	; 0x80
 80a12b2:	2200      	movs	r2, #0
 80a12b4:	4608      	mov	r0, r1
 80a12b6:	f002 fa32 	bl	80a371e <_ZN8RGBClass5colorEiii>

		L_command = v_small_fast;
 80a12ba:	4b1b      	ldr	r3, [pc, #108]	; (80a1328 <_Z7doFuzzyv+0x184>)
 80a12bc:	2250      	movs	r2, #80	; 0x50
 80a12be:	601a      	str	r2, [r3, #0]
		R_command = v_small_slow;
 80a12c0:	223c      	movs	r2, #60	; 0x3c
 80a12c2:	e016      	b.n	80a12f2 <_Z7doFuzzyv+0x14e>
		L_dir = 1;
		R_dir = 1;
  } else if((output >= 80) && (output < 100)) {
 80a12c4:	491e      	ldr	r1, [pc, #120]	; (80a1340 <_Z7doFuzzyv+0x19c>)
 80a12c6:	4620      	mov	r0, r4
 80a12c8:	f003 fe40 	bl	80a4f4c <__aeabi_fcmpge>
 80a12cc:	b1c0      	cbz	r0, 80a1300 <_Z7doFuzzyv+0x15c>
 80a12ce:	491e      	ldr	r1, [pc, #120]	; (80a1348 <_Z7doFuzzyv+0x1a4>)
 80a12d0:	4620      	mov	r0, r4
 80a12d2:	f003 fe27 	bl	80a4f24 <__aeabi_fcmplt>
 80a12d6:	b198      	cbz	r0, 80a1300 <_Z7doFuzzyv+0x15c>
	  decision = "Full Right";
 80a12d8:	491c      	ldr	r1, [pc, #112]	; (80a134c <_Z7doFuzzyv+0x1a8>)
 80a12da:	4812      	ldr	r0, [pc, #72]	; (80a1324 <_Z7doFuzzyv+0x180>)
 80a12dc:	f002 f97d 	bl	80a35da <_ZN6StringaSEPKc>
	  RGB.color(255, 0, 0);
 80a12e0:	2200      	movs	r2, #0
 80a12e2:	4611      	mov	r1, r2
 80a12e4:	20ff      	movs	r0, #255	; 0xff
 80a12e6:	f002 fa1a 	bl	80a371e <_ZN8RGBClass5colorEiii>

		L_command = v_full_fast;
 80a12ea:	4b0f      	ldr	r3, [pc, #60]	; (80a1328 <_Z7doFuzzyv+0x184>)
 80a12ec:	225a      	movs	r2, #90	; 0x5a
 80a12ee:	601a      	str	r2, [r3, #0]
		R_command = v_full_slow;
 80a12f0:	2232      	movs	r2, #50	; 0x32
 80a12f2:	4b12      	ldr	r3, [pc, #72]	; (80a133c <_Z7doFuzzyv+0x198>)
 80a12f4:	601a      	str	r2, [r3, #0]
		L_dir = 1;
 80a12f6:	4a16      	ldr	r2, [pc, #88]	; (80a1350 <_Z7doFuzzyv+0x1ac>)
 80a12f8:	2301      	movs	r3, #1
 80a12fa:	6013      	str	r3, [r2, #0]
		R_dir = 1;
 80a12fc:	4a15      	ldr	r2, [pc, #84]	; (80a1354 <_Z7doFuzzyv+0x1b0>)
 80a12fe:	6013      	str	r3, [r2, #0]
 80a1300:	bd10      	pop	{r4, pc}
 80a1302:	bf00      	nop
 80a1304:	200003fe 	.word	0x200003fe
 80a1308:	20000364 	.word	0x20000364
 80a130c:	200003d0 	.word	0x200003d0
 80a1310:	200003fc 	.word	0x200003fc
 80a1314:	2000033e 	.word	0x2000033e
 80a1318:	20000400 	.word	0x20000400
 80a131c:	41a00000 	.word	0x41a00000
 80a1320:	080a5047 	.word	0x080a5047
 80a1324:	200003d4 	.word	0x200003d4
 80a1328:	200003cc 	.word	0x200003cc
 80a132c:	42200000 	.word	0x42200000
 80a1330:	080a5051 	.word	0x080a5051
 80a1334:	42700000 	.word	0x42700000
 80a1338:	080a505c 	.word	0x080a505c
 80a133c:	20000404 	.word	0x20000404
 80a1340:	42a00000 	.word	0x42a00000
 80a1344:	080a5063 	.word	0x080a5063
 80a1348:	42c80000 	.word	0x42c80000
 80a134c:	080a506f 	.word	0x080a506f
 80a1350:	20000320 	.word	0x20000320
 80a1354:	20000304 	.word	0x20000304

080a1358 <_Z11checkSwitchv>:
  }
}

void checkSwitch() {
 80a1358:	b508      	push	{r3, lr}
  	if(RSflag == LOW) {
 80a135a:	4b03      	ldr	r3, [pc, #12]	; (80a1368 <_Z11checkSwitchv+0x10>)
 80a135c:	781b      	ldrb	r3, [r3, #0]
 80a135e:	b913      	cbnz	r3, 80a1366 <_Z11checkSwitchv+0xe>
  		stop();
 80a1360:	f7ff fee8 	bl	80a1134 <_Z4stopv>
 80a1364:	e7fe      	b.n	80a1364 <_Z11checkSwitchv+0xc>
 80a1366:	bd08      	pop	{r3, pc}
 80a1368:	2000033c 	.word	0x2000033c

080a136c <_Z4moveiii>:
  // 1100 for maximum reverse, 1800 for maximum forward
  // 30% throttle is 1500 +/- 300*0.3 = 1500 +/- 90

  int pwm = 1500;       // default is ESC stopped

  if(direction == 1) {  // forward
 80a136c:	2a01      	cmp	r2, #1
    pwm = 1500 + speed;
  } else {              // reverse
    pwm = 1500 - speed;
 80a136e:	bf16      	itet	ne
 80a1370:	f5c1 61bb 	rsbne	r1, r1, #1496	; 0x5d8
  // 30% throttle is 1500 +/- 300*0.3 = 1500 +/- 90

  int pwm = 1500;       // default is ESC stopped

  if(direction == 1) {  // forward
    pwm = 1500 + speed;
 80a1374:	f201 51dc 	addweq	r1, r1, #1500	; 0x5dc
  } else {              // reverse
    pwm = 1500 - speed;
 80a1378:	3104      	addne	r1, #4
  }
  if(motor == 1) {      // RIGHT ESC
 80a137a:	2801      	cmp	r0, #1
 80a137c:	b289      	uxth	r1, r1
    RESC.writeMicroseconds(pwm);
 80a137e:	bf0c      	ite	eq
 80a1380:	4801      	ldreq	r0, [pc, #4]	; (80a1388 <_Z4moveiii+0x1c>)
  } else {              // LEFT ESC
    LESC.writeMicroseconds(pwm);
 80a1382:	4802      	ldrne	r0, [pc, #8]	; (80a138c <_Z4moveiii+0x20>)
 80a1384:	f002 b86d 	b.w	80a3462 <_ZN5Servo17writeMicrosecondsEt>
 80a1388:	200003b4 	.word	0x200003b4
 80a138c:	20000340 	.word	0x20000340

080a1390 <_Z8movementi>:
  }
}

void movement(int state) {
	// right now, there are only states 0, 1, and 10***
	if(state == 0) {			// move forward
 80a1390:	b948      	cbnz	r0, 80a13a6 <_Z8movementi+0x16>
  		L_command = line_fwd;
 80a1392:	4a1a      	ldr	r2, [pc, #104]	; (80a13fc <_Z8movementi+0x6c>)
 80a1394:	234b      	movs	r3, #75	; 0x4b
 80a1396:	6013      	str	r3, [r2, #0]
  		R_command = line_fwd;
 80a1398:	4a19      	ldr	r2, [pc, #100]	; (80a1400 <_Z8movementi+0x70>)
 80a139a:	6013      	str	r3, [r2, #0]
  		L_dir = 1;
 80a139c:	4a19      	ldr	r2, [pc, #100]	; (80a1404 <_Z8movementi+0x74>)
 80a139e:	2301      	movs	r3, #1
 80a13a0:	6013      	str	r3, [r2, #0]
  		R_dir = 1;
 80a13a2:	4a19      	ldr	r2, [pc, #100]	; (80a1408 <_Z8movementi+0x78>)
 80a13a4:	e028      	b.n	80a13f8 <_Z8movementi+0x68>
      // Serial.println("Back triggered, moving forward");
	} else if (state == 2) {
 80a13a6:	2802      	cmp	r0, #2
 80a13a8:	d119      	bne.n	80a13de <_Z8movementi+0x4e>
    if (cur - prevFlag < degrees45) {
 80a13aa:	4b18      	ldr	r3, [pc, #96]	; (80a140c <_Z8movementi+0x7c>)
 80a13ac:	4a18      	ldr	r2, [pc, #96]	; (80a1410 <_Z8movementi+0x80>)
 80a13ae:	681b      	ldr	r3, [r3, #0]
 80a13b0:	6812      	ldr	r2, [r2, #0]
 80a13b2:	1a9b      	subs	r3, r3, r2
 80a13b4:	f5b3 7faf 	cmp.w	r3, #350	; 0x15e
 80a13b8:	da0b      	bge.n	80a13d2 <_Z8movementi+0x42>
      L_command = line_180;
 80a13ba:	4a10      	ldr	r2, [pc, #64]	; (80a13fc <_Z8movementi+0x6c>)
 80a13bc:	234b      	movs	r3, #75	; 0x4b
 80a13be:	6013      	str	r3, [r2, #0]
      R_command = line_180;
 80a13c0:	4a0f      	ldr	r2, [pc, #60]	; (80a1400 <_Z8movementi+0x70>)
 80a13c2:	6013      	str	r3, [r2, #0]
      L_dir = 0;
 80a13c4:	4b0f      	ldr	r3, [pc, #60]	; (80a1404 <_Z8movementi+0x74>)
 80a13c6:	2200      	movs	r2, #0
 80a13c8:	601a      	str	r2, [r3, #0]
      R_dir = 1;
 80a13ca:	4b0f      	ldr	r3, [pc, #60]	; (80a1408 <_Z8movementi+0x78>)
 80a13cc:	2201      	movs	r2, #1
 80a13ce:	601a      	str	r2, [r3, #0]
 80a13d0:	4770      	bx	lr
    } else {
      // Serial.print("start done");
      start = false;
 80a13d2:	4a10      	ldr	r2, [pc, #64]	; (80a1414 <_Z8movementi+0x84>)
 80a13d4:	2300      	movs	r3, #0
 80a13d6:	7013      	strb	r3, [r2, #0]
      prevFlagSet = false;
 80a13d8:	4a0f      	ldr	r2, [pc, #60]	; (80a1418 <_Z8movementi+0x88>)
 80a13da:	7013      	strb	r3, [r2, #0]
 80a13dc:	4770      	bx	lr
    }
  } else if (state == 10) {
 80a13de:	280a      	cmp	r0, #10
 80a13e0:	d101      	bne.n	80a13e6 <_Z8movementi+0x56>
 80a13e2:	f7fe beb7 	b.w	80a0154 <_Z8movementi.part.1>
	      prevFlagSet = false;
        // Serial.println("FINISHED DEALING WITH THE LINE");
	    }
	    // moving = true;
	} else {					// stop
  		L_command = 0;
 80a13e6:	4a05      	ldr	r2, [pc, #20]	; (80a13fc <_Z8movementi+0x6c>)
 80a13e8:	2300      	movs	r3, #0
 80a13ea:	6013      	str	r3, [r2, #0]
  		R_command = 0;
 80a13ec:	4a04      	ldr	r2, [pc, #16]	; (80a1400 <_Z8movementi+0x70>)
 80a13ee:	6013      	str	r3, [r2, #0]
  		R_dir = 1;
 80a13f0:	4a05      	ldr	r2, [pc, #20]	; (80a1408 <_Z8movementi+0x78>)
 80a13f2:	2301      	movs	r3, #1
 80a13f4:	6013      	str	r3, [r2, #0]
  		L_dir = 1;
 80a13f6:	4a03      	ldr	r2, [pc, #12]	; (80a1404 <_Z8movementi+0x74>)
 80a13f8:	6013      	str	r3, [r2, #0]
 80a13fa:	4770      	bx	lr
 80a13fc:	200003cc 	.word	0x200003cc
 80a1400:	20000404 	.word	0x20000404
 80a1404:	20000320 	.word	0x20000320
 80a1408:	20000304 	.word	0x20000304
 80a140c:	200003c4 	.word	0x200003c4
 80a1410:	200003b0 	.word	0x200003b0
 80a1414:	20000310 	.word	0x20000310
 80a1418:	200003c8 	.word	0x200003c8

080a141c <_Z7startUpv>:
      // Serial.println("Stopped before death");
	}
}

void startUp() {
  if (!prevFlagSet) {
 80a141c:	4b06      	ldr	r3, [pc, #24]	; (80a1438 <_Z7startUpv+0x1c>)
 80a141e:	781a      	ldrb	r2, [r3, #0]
 80a1420:	b932      	cbnz	r2, 80a1430 <_Z7startUpv+0x14>
    prevFlag = cur;
 80a1422:	4a06      	ldr	r2, [pc, #24]	; (80a143c <_Z7startUpv+0x20>)
 80a1424:	6811      	ldr	r1, [r2, #0]
 80a1426:	4a06      	ldr	r2, [pc, #24]	; (80a1440 <_Z7startUpv+0x24>)
 80a1428:	6011      	str	r1, [r2, #0]
    prevFlagSet = true;
 80a142a:	2201      	movs	r2, #1
 80a142c:	701a      	strb	r2, [r3, #0]
 80a142e:	4770      	bx	lr
  } else {
    movement(2);
 80a1430:	2002      	movs	r0, #2
 80a1432:	f7ff bfad 	b.w	80a1390 <_Z8movementi>
 80a1436:	bf00      	nop
 80a1438:	200003c8 	.word	0x200003c8
 80a143c:	200003c4 	.word	0x200003c4
 80a1440:	200003b0 	.word	0x200003b0

080a1444 <_Z9checkLinev>:
  }
}

void checkLine() {
 80a1444:	b508      	push	{r3, lr}
  if (!FLflag || !FRflag || prevFlagSet) {				// if front line triggered
 80a1446:	4b17      	ldr	r3, [pc, #92]	; (80a14a4 <_Z9checkLinev+0x60>)
 80a1448:	781a      	ldrb	r2, [r3, #0]
 80a144a:	4b17      	ldr	r3, [pc, #92]	; (80a14a8 <_Z9checkLinev+0x64>)
 80a144c:	b122      	cbz	r2, 80a1458 <_Z9checkLinev+0x14>
 80a144e:	4a17      	ldr	r2, [pc, #92]	; (80a14ac <_Z9checkLinev+0x68>)
 80a1450:	7812      	ldrb	r2, [r2, #0]
 80a1452:	b10a      	cbz	r2, 80a1458 <_Z9checkLinev+0x14>
 80a1454:	781a      	ldrb	r2, [r3, #0]
 80a1456:	b19a      	cbz	r2, 80a1480 <_Z9checkLinev+0x3c>
    if (!prevFlagSet) {					// and if this is the FIRST detection of the line
 80a1458:	781b      	ldrb	r3, [r3, #0]
 80a145a:	b96b      	cbnz	r3, 80a1478 <_Z9checkLinev+0x34>
      RGB.color(255, 255, 255);
 80a145c:	22ff      	movs	r2, #255	; 0xff
 80a145e:	4610      	mov	r0, r2
 80a1460:	4611      	mov	r1, r2
 80a1462:	f002 f95c 	bl	80a371e <_ZN8RGBClass5colorEiii>
      prevFlag = cur;					// reset the turn timer
 80a1466:	4b12      	ldr	r3, [pc, #72]	; (80a14b0 <_Z9checkLinev+0x6c>)
      prevFlagSet = true;				// ensures timer is reset only ONCE
 80a1468:	2001      	movs	r0, #1

void checkLine() {
  if (!FLflag || !FRflag || prevFlagSet) {				// if front line triggered
    if (!prevFlagSet) {					// and if this is the FIRST detection of the line
      RGB.color(255, 255, 255);
      prevFlag = cur;					// reset the turn timer
 80a146a:	681a      	ldr	r2, [r3, #0]
 80a146c:	4b11      	ldr	r3, [pc, #68]	; (80a14b4 <_Z9checkLinev+0x70>)
 80a146e:	601a      	str	r2, [r3, #0]
      prevFlagSet = true;				// ensures timer is reset only ONCE
 80a1470:	4b0d      	ldr	r3, [pc, #52]	; (80a14a8 <_Z9checkLinev+0x64>)
 80a1472:	7018      	strb	r0, [r3, #0]
      movement(1);						// stop before you fall off
 80a1474:	f7ff ff8c 	bl	80a1390 <_Z8movementi>

  } else if(!prevFlagSet) {  // if a line hasn't been seen, continue fuzzy
    // Serial.println("Doing Fuzzy");
    // prevFlagSet = false;
  }
}
 80a1478:	e8bd 4008 	ldmia.w	sp!, {r3, lr}
 80a147c:	f7fe be6a 	b.w	80a0154 <_Z8movementi.part.1>
      prevFlag = cur;					// reset the turn timer
      prevFlagSet = true;				// ensures timer is reset only ONCE
      movement(1);						// stop before you fall off
    }
    movement(10);						// begin/continue the turn sequence
  } else if ((!BRflag || !BLflag) && !prevFlagSet) {		// if back line triggered, move forward
 80a1480:	4b0d      	ldr	r3, [pc, #52]	; (80a14b8 <_Z9checkLinev+0x74>)
 80a1482:	781b      	ldrb	r3, [r3, #0]
 80a1484:	b113      	cbz	r3, 80a148c <_Z9checkLinev+0x48>
 80a1486:	4b0d      	ldr	r3, [pc, #52]	; (80a14bc <_Z9checkLinev+0x78>)
 80a1488:	781b      	ldrb	r3, [r3, #0]
 80a148a:	b94b      	cbnz	r3, 80a14a0 <_Z9checkLinev+0x5c>
    RGB.color(255, 255, 255);
 80a148c:	22ff      	movs	r2, #255	; 0xff
 80a148e:	4610      	mov	r0, r2
 80a1490:	4611      	mov	r1, r2
 80a1492:	f002 f944 	bl	80a371e <_ZN8RGBClass5colorEiii>

  } else if(!prevFlagSet) {  // if a line hasn't been seen, continue fuzzy
    // Serial.println("Doing Fuzzy");
    // prevFlagSet = false;
  }
}
 80a1496:	e8bd 4008 	ldmia.w	sp!, {r3, lr}
      movement(1);						// stop before you fall off
    }
    movement(10);						// begin/continue the turn sequence
  } else if ((!BRflag || !BLflag) && !prevFlagSet) {		// if back line triggered, move forward
    RGB.color(255, 255, 255);
    movement(0);
 80a149a:	2000      	movs	r0, #0
 80a149c:	f7ff bf78 	b.w	80a1390 <_Z8movementi>
 80a14a0:	bd08      	pop	{r3, pc}
 80a14a2:	bf00      	nop
 80a14a4:	20000328 	.word	0x20000328
 80a14a8:	200003c8 	.word	0x200003c8
 80a14ac:	20000329 	.word	0x20000329
 80a14b0:	200003c4 	.word	0x200003c4
 80a14b4:	200003b0 	.word	0x200003b0
 80a14b8:	20000330 	.word	0x20000330
 80a14bc:	20000308 	.word	0x20000308

080a14c0 <loop>:
    // Serial.println("Doing Fuzzy");
    // prevFlagSet = false;
  }
}

void loop(){
 80a14c0:	b510      	push	{r4, lr}
 80a14c2:	f001 fe45 	bl	80a3150 <HAL_Timer_Get_Milli_Seconds>
  cur = millis();           // update timer
 80a14c6:	4b12      	ldr	r3, [pc, #72]	; (80a1510 <loop+0x50>)
 80a14c8:	6018      	str	r0, [r3, #0]

  if (start) {
 80a14ca:	4b12      	ldr	r3, [pc, #72]	; (80a1514 <loop+0x54>)
 80a14cc:	781a      	ldrb	r2, [r3, #0]
 80a14ce:	461c      	mov	r4, r3
 80a14d0:	b10a      	cbz	r2, 80a14d6 <loop+0x16>
    startUp();
 80a14d2:	f7ff ffa3 	bl	80a141c <_Z7startUpv>
  }

  if (!start) {
 80a14d6:	7823      	ldrb	r3, [r4, #0]
 80a14d8:	b943      	cbnz	r3, 80a14ec <loop+0x2c>
    checkLine();
 80a14da:	f7ff ffb3 	bl	80a1444 <_Z9checkLinev>
    // Serial.print(" | ");
    // Serial.print("LL: ");
    // Serial.print(LL_distance);


  	if (!prevFlagSet) {	// if dealing with line don't do fuzzy
 80a14de:	4b0e      	ldr	r3, [pc, #56]	; (80a1518 <loop+0x58>)
 80a14e0:	781b      	ldrb	r3, [r3, #0]
 80a14e2:	b91b      	cbnz	r3, 80a14ec <loop+0x2c>
  		getToF();
 80a14e4:	f7ff fe38 	bl	80a1158 <_Z6getToFv>
  		doFuzzy();
 80a14e8:	f7ff fe5c 	bl	80a11a4 <_Z7doFuzzyv>
  // Serial.println(cur);
  // Serial.print("prevFlag: ");
  // Serial.println(prevFlag);
  // Serial.println(start);

	checkSwitch();
 80a14ec:	f7ff ff34 	bl	80a1358 <_Z11checkSwitchv>

  move(1, R_command, R_dir);
 80a14f0:	4b0a      	ldr	r3, [pc, #40]	; (80a151c <loop+0x5c>)
 80a14f2:	2001      	movs	r0, #1
 80a14f4:	681a      	ldr	r2, [r3, #0]
 80a14f6:	4b0a      	ldr	r3, [pc, #40]	; (80a1520 <loop+0x60>)
 80a14f8:	6819      	ldr	r1, [r3, #0]
 80a14fa:	f7ff ff37 	bl	80a136c <_Z4moveiii>
  move(2, L_command, L_dir);
}
 80a14fe:	e8bd 4010 	ldmia.w	sp!, {r4, lr}
  // Serial.println(start);

	checkSwitch();

  move(1, R_command, R_dir);
  move(2, L_command, L_dir);
 80a1502:	4b08      	ldr	r3, [pc, #32]	; (80a1524 <loop+0x64>)
 80a1504:	2002      	movs	r0, #2
 80a1506:	681a      	ldr	r2, [r3, #0]
 80a1508:	4b07      	ldr	r3, [pc, #28]	; (80a1528 <loop+0x68>)
 80a150a:	6819      	ldr	r1, [r3, #0]
 80a150c:	f7ff bf2e 	b.w	80a136c <_Z4moveiii>
 80a1510:	200003c4 	.word	0x200003c4
 80a1514:	20000310 	.word	0x20000310
 80a1518:	200003c8 	.word	0x200003c8
 80a151c:	20000304 	.word	0x20000304
 80a1520:	20000404 	.word	0x20000404
 80a1524:	20000320 	.word	0x20000320
 80a1528:	200003cc 	.word	0x200003cc

080a152c <_GLOBAL__sub_I_sensor0>:
}
 80a152c:	b510      	push	{r4, lr}
inline int32_t pinReadFast(pin_t _pin)
{
	return ((PIN_MAP[_pin].gpio_peripheral->IDR & PIN_MAP[_pin].gpio_pin) == 0 ? LOW : HIGH);
}
#elif defined(STM32F2XX)
static STM32_Pin_Info* PIN_MAP = HAL_Pin_Map();
 80a152e:	f001 fdb7 	bl	80a30a0 <HAL_Pin_Map>
#if !defined(PARTICLE)
#  include <Wire.h>
#endif

// Time of Flight sensors
VL53L0X sensor0;	// RR
 80a1532:	481d      	ldr	r0, [pc, #116]	; (80a15a8 <_GLOBAL__sub_I_sensor0+0x7c>)
 80a1534:	f000 f85a 	bl	80a15ec <_ZN7VL53L0XC1Ev>
VL53L0X sensor1;	// RM
 80a1538:	481c      	ldr	r0, [pc, #112]	; (80a15ac <_GLOBAL__sub_I_sensor0+0x80>)
 80a153a:	f000 f857 	bl	80a15ec <_ZN7VL53L0XC1Ev>
VL53L0X sensor2;	// LM
 80a153e:	481c      	ldr	r0, [pc, #112]	; (80a15b0 <_GLOBAL__sub_I_sensor0+0x84>)
 80a1540:	f000 f854 	bl	80a15ec <_ZN7VL53L0XC1Ev>
VL53L0X sensor3;	// LL
 80a1544:	481b      	ldr	r0, [pc, #108]	; (80a15b4 <_GLOBAL__sub_I_sensor0+0x88>)
 80a1546:	f000 f851 	bl	80a15ec <_ZN7VL53L0XC1Ev>
// Accelerometer
const unsigned long PRINT_SAMPLE_PERIOD = 100;
int curAccel = 0;
void getAccel();        // ISR prototype
LIS3DHSample sample;
LIS3DHI2C accel(Wire, 0, WKP);
 80a154a:	f002 fc2f 	bl	80a3dac <_Z19__fetch_global_Wirev>
 80a154e:	2311      	movs	r3, #17
 80a1550:	4601      	mov	r1, r0
 80a1552:	2200      	movs	r2, #0
 80a1554:	4818      	ldr	r0, [pc, #96]	; (80a15b8 <_GLOBAL__sub_I_sensor0+0x8c>)
 80a1556:	f000 fe89 	bl	80a226c <_ZN9LIS3DHI2CC1ER7TwoWirehi>
 80a155a:	4a18      	ldr	r2, [pc, #96]	; (80a15bc <_GLOBAL__sub_I_sensor0+0x90>)
 80a155c:	4918      	ldr	r1, [pc, #96]	; (80a15c0 <_GLOBAL__sub_I_sensor0+0x94>)
 80a155e:	4816      	ldr	r0, [pc, #88]	; (80a15b8 <_GLOBAL__sub_I_sensor0+0x8c>)
 80a1560:	f002 fc44 	bl	80a3dec <__aeabi_atexit>

// Car ESCs
Servo LESC;
 80a1564:	4817      	ldr	r0, [pc, #92]	; (80a15c4 <_GLOBAL__sub_I_sensor0+0x98>)
 80a1566:	f001 ff9c 	bl	80a34a2 <_ZN5ServoC1Ev>
Servo RESC;
 80a156a:	4817      	ldr	r0, [pc, #92]	; (80a15c8 <_GLOBAL__sub_I_sensor0+0x9c>)
 80a156c:	f001 ff99 	bl	80a34a2 <_ZN5ServoC1Ev>
int R_command = 0;
int L_dir = 1;
int R_dir = 1;

// Fuzzy logic
Fuzzy* fuzzy = new Fuzzy();
 80a1570:	2018      	movs	r0, #24
 80a1572:	f7fe fd92 	bl	80a009a <_Znwj>
 80a1576:	4604      	mov	r4, r0
 80a1578:	b108      	cbz	r0, 80a157e <_GLOBAL__sub_I_sensor0+0x52>
 80a157a:	f001 fc00 	bl	80a2d7e <_ZN5FuzzyC1Ev>
 80a157e:	4b13      	ldr	r3, [pc, #76]	; (80a15cc <_GLOBAL__sub_I_sensor0+0xa0>)
float output;
String decision;
 80a1580:	4913      	ldr	r1, [pc, #76]	; (80a15d0 <_GLOBAL__sub_I_sensor0+0xa4>)
 80a1582:	4814      	ldr	r0, [pc, #80]	; (80a15d4 <_GLOBAL__sub_I_sensor0+0xa8>)
int R_command = 0;
int L_dir = 1;
int R_dir = 1;

// Fuzzy logic
Fuzzy* fuzzy = new Fuzzy();
 80a1584:	601c      	str	r4, [r3, #0]
float output;
String decision;
 80a1586:	f002 f815 	bl	80a35b4 <_ZN6StringC1EPK19__FlashStringHelper>
 80a158a:	4a0c      	ldr	r2, [pc, #48]	; (80a15bc <_GLOBAL__sub_I_sensor0+0x90>)
 80a158c:	4912      	ldr	r1, [pc, #72]	; (80a15d8 <_GLOBAL__sub_I_sensor0+0xac>)
 80a158e:	4811      	ldr	r0, [pc, #68]	; (80a15d4 <_GLOBAL__sub_I_sensor0+0xa8>)
 80a1590:	f002 fc2c 	bl	80a3dec <__aeabi_atexit>

// Particle Photon settings
SYSTEM_THREAD(ENABLED);
 80a1594:	2001      	movs	r0, #1
 80a1596:	2100      	movs	r1, #0
 80a1598:	f001 ff0c 	bl	80a33b4 <system_thread_set_state>

	checkSwitch();

  move(1, R_command, R_dir);
  move(2, L_command, L_dir);
}
 80a159c:	e8bd 4010 	ldmia.w	sp!, {r4, lr}

class SystemClass {
public:

    SystemClass(System_Mode_TypeDef mode = DEFAULT) {
        set_system_mode(mode);
 80a15a0:	2003      	movs	r0, #3
 80a15a2:	f001 bef7 	b.w	80a3394 <set_system_mode>
 80a15a6:	bf00      	nop
 80a15a8:	20000368 	.word	0x20000368
 80a15ac:	200003e4 	.word	0x200003e4
 80a15b0:	20000380 	.word	0x20000380
 80a15b4:	20000398 	.word	0x20000398
 80a15b8:	20000350 	.word	0x20000350
 80a15bc:	20000338 	.word	0x20000338
 80a15c0:	080a21b1 	.word	0x080a21b1
 80a15c4:	20000340 	.word	0x20000340
 80a15c8:	200003b4 	.word	0x200003b4
 80a15cc:	20000364 	.word	0x20000364
 80a15d0:	080a50ba 	.word	0x080a50ba
 80a15d4:	200003d4 	.word	0x200003d4
 80a15d8:	080a3527 	.word	0x080a3527

080a15dc <_ZN7TwoWire5writeEm>:
  virtual int peek(void);
  virtual void flush(void);
  void onReceive(void (*)(int));
  void onRequest(void (*)(void));

  inline size_t write(unsigned long n) { return write((uint8_t)n); }
 80a15dc:	6803      	ldr	r3, [r0, #0]
 80a15de:	b2c9      	uxtb	r1, r1
 80a15e0:	689b      	ldr	r3, [r3, #8]
 80a15e2:	4718      	bx	r3

080a15e4 <_ZN7TwoWire5writeEi>:
  inline size_t write(long n) { return write((uint8_t)n); }
  inline size_t write(unsigned int n) { return write((uint8_t)n); }
  inline size_t write(int n) { return write((uint8_t)n); }
 80a15e4:	6803      	ldr	r3, [r0, #0]
 80a15e6:	b2c9      	uxtb	r1, r1
 80a15e8:	689b      	ldr	r3, [r3, #8]
 80a15ea:	4718      	bx	r3

080a15ec <_ZN7VL53L0XC1Ev>:
// Constructors ////////////////////////////////////////////////////////////////

VL53L0X::VL53L0X(void)
  : address(ADDRESS_DEFAULT)
  , io_timeout(0) // no timeout
  , did_timeout(false)
 80a15ec:	2229      	movs	r2, #41	; 0x29
 80a15ee:	7042      	strb	r2, [r0, #1]
 80a15f0:	2200      	movs	r2, #0
 80a15f2:	6042      	str	r2, [r0, #4]
 80a15f4:	7202      	strb	r2, [r0, #8]
{
}
 80a15f6:	4770      	bx	lr

080a15f8 <_ZN7VL53L0X8writeRegEhh>:
  return true;
}

// Write an 8-bit register
void VL53L0X::writeReg(uint8_t reg, uint8_t value)
{
 80a15f8:	b570      	push	{r4, r5, r6, lr}
 80a15fa:	4604      	mov	r4, r0
 80a15fc:	4615      	mov	r5, r2
 80a15fe:	460e      	mov	r6, r1
  Wire.beginTransmission(address);
 80a1600:	f002 fbd4 	bl	80a3dac <_Z19__fetch_global_Wirev>
 80a1604:	7861      	ldrb	r1, [r4, #1]
 80a1606:	f002 fb10 	bl	80a3c2a <_ZN7TwoWire17beginTransmissionEh>
  Wire.write(reg);
 80a160a:	f002 fbcf 	bl	80a3dac <_Z19__fetch_global_Wirev>
 80a160e:	6803      	ldr	r3, [r0, #0]
 80a1610:	4631      	mov	r1, r6
 80a1612:	689b      	ldr	r3, [r3, #8]
 80a1614:	4798      	blx	r3
  Wire.write(value);
 80a1616:	f002 fbc9 	bl	80a3dac <_Z19__fetch_global_Wirev>
 80a161a:	6803      	ldr	r3, [r0, #0]
 80a161c:	4629      	mov	r1, r5
 80a161e:	689b      	ldr	r3, [r3, #8]
 80a1620:	4798      	blx	r3
  last_status = Wire.endTransmission();
 80a1622:	f002 fbc3 	bl	80a3dac <_Z19__fetch_global_Wirev>
 80a1626:	f002 fb08 	bl	80a3c3a <_ZN7TwoWire15endTransmissionEv>
 80a162a:	7020      	strb	r0, [r4, #0]
 80a162c:	bd70      	pop	{r4, r5, r6, pc}

080a162e <_ZN7VL53L0X10setAddressEh>:
}

// Public Methods //////////////////////////////////////////////////////////////

void VL53L0X::setAddress(uint8_t new_addr)
{
 80a162e:	b538      	push	{r3, r4, r5, lr}
 80a1630:	4605      	mov	r5, r0
 80a1632:	460c      	mov	r4, r1
  writeReg(I2C_SLAVE_DEVICE_ADDRESS, new_addr & 0x7F);
 80a1634:	f001 027f 	and.w	r2, r1, #127	; 0x7f
 80a1638:	218a      	movs	r1, #138	; 0x8a
 80a163a:	f7ff ffdd 	bl	80a15f8 <_ZN7VL53L0X8writeRegEhh>
  address = new_addr;
 80a163e:	706c      	strb	r4, [r5, #1]
 80a1640:	bd38      	pop	{r3, r4, r5, pc}

080a1642 <_ZN7VL53L0X13writeReg16BitEht>:
  last_status = Wire.endTransmission();
}

// Write a 16-bit register
void VL53L0X::writeReg16Bit(uint8_t reg, uint16_t value)
{
 80a1642:	b570      	push	{r4, r5, r6, lr}
 80a1644:	4604      	mov	r4, r0
 80a1646:	4615      	mov	r5, r2
 80a1648:	460e      	mov	r6, r1
  Wire.beginTransmission(address);
 80a164a:	f002 fbaf 	bl	80a3dac <_Z19__fetch_global_Wirev>
 80a164e:	7861      	ldrb	r1, [r4, #1]
 80a1650:	f002 faeb 	bl	80a3c2a <_ZN7TwoWire17beginTransmissionEh>
  Wire.write(reg);
 80a1654:	f002 fbaa 	bl	80a3dac <_Z19__fetch_global_Wirev>
 80a1658:	6803      	ldr	r3, [r0, #0]
 80a165a:	4631      	mov	r1, r6
 80a165c:	689b      	ldr	r3, [r3, #8]
 80a165e:	4798      	blx	r3
  Wire.write((value >> 8) & 0xFF); // value high byte
 80a1660:	f002 fba4 	bl	80a3dac <_Z19__fetch_global_Wirev>
 80a1664:	0a29      	lsrs	r1, r5, #8
 80a1666:	f7ff ffbd 	bl	80a15e4 <_ZN7TwoWire5writeEi>
  Wire.write( value       & 0xFF); // value low byte
 80a166a:	f002 fb9f 	bl	80a3dac <_Z19__fetch_global_Wirev>
 80a166e:	b2e9      	uxtb	r1, r5
 80a1670:	f7ff ffb8 	bl	80a15e4 <_ZN7TwoWire5writeEi>
  last_status = Wire.endTransmission();
 80a1674:	f002 fb9a 	bl	80a3dac <_Z19__fetch_global_Wirev>
 80a1678:	f002 fadf 	bl	80a3c3a <_ZN7TwoWire15endTransmissionEv>
 80a167c:	7020      	strb	r0, [r4, #0]
 80a167e:	bd70      	pop	{r4, r5, r6, pc}

080a1680 <_ZN7VL53L0X13writeReg32BitEhm>:
}

// Write a 32-bit register
void VL53L0X::writeReg32Bit(uint8_t reg, uint32_t value)
{
 80a1680:	b570      	push	{r4, r5, r6, lr}
 80a1682:	4605      	mov	r5, r0
 80a1684:	4614      	mov	r4, r2
 80a1686:	460e      	mov	r6, r1
  Wire.beginTransmission(address);
 80a1688:	f002 fb90 	bl	80a3dac <_Z19__fetch_global_Wirev>
 80a168c:	7869      	ldrb	r1, [r5, #1]
 80a168e:	f002 facc 	bl	80a3c2a <_ZN7TwoWire17beginTransmissionEh>
  Wire.write(reg);
 80a1692:	f002 fb8b 	bl	80a3dac <_Z19__fetch_global_Wirev>
 80a1696:	6803      	ldr	r3, [r0, #0]
 80a1698:	4631      	mov	r1, r6
 80a169a:	689b      	ldr	r3, [r3, #8]
 80a169c:	4798      	blx	r3
  Wire.write((value >> 24) & 0xFF); // value highest byte
 80a169e:	f002 fb85 	bl	80a3dac <_Z19__fetch_global_Wirev>
 80a16a2:	0e21      	lsrs	r1, r4, #24
 80a16a4:	f7ff ff9a 	bl	80a15dc <_ZN7TwoWire5writeEm>
  Wire.write((value >> 16) & 0xFF);
 80a16a8:	f002 fb80 	bl	80a3dac <_Z19__fetch_global_Wirev>
 80a16ac:	f3c4 4107 	ubfx	r1, r4, #16, #8
 80a16b0:	f7ff ff94 	bl	80a15dc <_ZN7TwoWire5writeEm>
  Wire.write((value >>  8) & 0xFF);
 80a16b4:	f002 fb7a 	bl	80a3dac <_Z19__fetch_global_Wirev>
 80a16b8:	f3c4 2107 	ubfx	r1, r4, #8, #8
 80a16bc:	f7ff ff8e 	bl	80a15dc <_ZN7TwoWire5writeEm>
  Wire.write( value        & 0xFF); // value lowest byte
 80a16c0:	f002 fb74 	bl	80a3dac <_Z19__fetch_global_Wirev>
 80a16c4:	b2e1      	uxtb	r1, r4
 80a16c6:	f7ff ff89 	bl	80a15dc <_ZN7TwoWire5writeEm>
  last_status = Wire.endTransmission();
 80a16ca:	f002 fb6f 	bl	80a3dac <_Z19__fetch_global_Wirev>
 80a16ce:	f002 fab4 	bl	80a3c3a <_ZN7TwoWire15endTransmissionEv>
 80a16d2:	7028      	strb	r0, [r5, #0]
 80a16d4:	bd70      	pop	{r4, r5, r6, pc}

080a16d6 <_ZN7VL53L0X7readRegEh>:
}

// Read an 8-bit register
uint8_t VL53L0X::readReg(uint8_t reg)
{
 80a16d6:	b538      	push	{r3, r4, r5, lr}
 80a16d8:	4604      	mov	r4, r0
 80a16da:	460d      	mov	r5, r1
  uint8_t value;

  Wire.beginTransmission(address);
 80a16dc:	f002 fb66 	bl	80a3dac <_Z19__fetch_global_Wirev>
 80a16e0:	7861      	ldrb	r1, [r4, #1]
 80a16e2:	f002 faa2 	bl	80a3c2a <_ZN7TwoWire17beginTransmissionEh>
  Wire.write(reg);
 80a16e6:	f002 fb61 	bl	80a3dac <_Z19__fetch_global_Wirev>
 80a16ea:	6803      	ldr	r3, [r0, #0]
 80a16ec:	4629      	mov	r1, r5
 80a16ee:	689b      	ldr	r3, [r3, #8]
 80a16f0:	4798      	blx	r3
  last_status = Wire.endTransmission();
 80a16f2:	f002 fb5b 	bl	80a3dac <_Z19__fetch_global_Wirev>
 80a16f6:	f002 faa0 	bl	80a3c3a <_ZN7TwoWire15endTransmissionEv>
 80a16fa:	7020      	strb	r0, [r4, #0]

  Wire.requestFrom(address, (uint8_t)1);
 80a16fc:	f002 fb56 	bl	80a3dac <_Z19__fetch_global_Wirev>
 80a1700:	2201      	movs	r2, #1
 80a1702:	7861      	ldrb	r1, [r4, #1]
 80a1704:	f002 fa89 	bl	80a3c1a <_ZN7TwoWire11requestFromEhh>
  value = Wire.read();
 80a1708:	f002 fb50 	bl	80a3dac <_Z19__fetch_global_Wirev>
 80a170c:	6803      	ldr	r3, [r0, #0]
 80a170e:	695b      	ldr	r3, [r3, #20]
 80a1710:	4798      	blx	r3

  return value;
}
 80a1712:	b2c0      	uxtb	r0, r0
 80a1714:	bd38      	pop	{r3, r4, r5, pc}

080a1716 <_ZN7VL53L0X12readReg16BitEh>:

// Read a 16-bit register
uint16_t VL53L0X::readReg16Bit(uint8_t reg)
{
 80a1716:	b538      	push	{r3, r4, r5, lr}
 80a1718:	4604      	mov	r4, r0
 80a171a:	460d      	mov	r5, r1
  uint16_t value;

  Wire.beginTransmission(address);
 80a171c:	f002 fb46 	bl	80a3dac <_Z19__fetch_global_Wirev>
 80a1720:	7861      	ldrb	r1, [r4, #1]
 80a1722:	f002 fa82 	bl	80a3c2a <_ZN7TwoWire17beginTransmissionEh>
  Wire.write(reg);
 80a1726:	f002 fb41 	bl	80a3dac <_Z19__fetch_global_Wirev>
 80a172a:	6803      	ldr	r3, [r0, #0]
 80a172c:	4629      	mov	r1, r5
 80a172e:	689b      	ldr	r3, [r3, #8]
 80a1730:	4798      	blx	r3
  last_status = Wire.endTransmission();
 80a1732:	f002 fb3b 	bl	80a3dac <_Z19__fetch_global_Wirev>
 80a1736:	f002 fa80 	bl	80a3c3a <_ZN7TwoWire15endTransmissionEv>
 80a173a:	7020      	strb	r0, [r4, #0]

  Wire.requestFrom(address, (uint8_t)2);
 80a173c:	f002 fb36 	bl	80a3dac <_Z19__fetch_global_Wirev>
 80a1740:	7861      	ldrb	r1, [r4, #1]
 80a1742:	2202      	movs	r2, #2
 80a1744:	f002 fa69 	bl	80a3c1a <_ZN7TwoWire11requestFromEhh>
  value  = (uint16_t)Wire.read() << 8; // value high byte
 80a1748:	f002 fb30 	bl	80a3dac <_Z19__fetch_global_Wirev>
 80a174c:	6803      	ldr	r3, [r0, #0]
 80a174e:	695b      	ldr	r3, [r3, #20]
 80a1750:	4798      	blx	r3
 80a1752:	4604      	mov	r4, r0
  value |=           Wire.read();      // value low byte
 80a1754:	f002 fb2a 	bl	80a3dac <_Z19__fetch_global_Wirev>
 80a1758:	6803      	ldr	r3, [r0, #0]
 80a175a:	695b      	ldr	r3, [r3, #20]
 80a175c:	4798      	blx	r3
 80a175e:	ea40 2004 	orr.w	r0, r0, r4, lsl #8

  return value;
}
 80a1762:	b280      	uxth	r0, r0
 80a1764:	bd38      	pop	{r3, r4, r5, pc}

080a1766 <_ZN7VL53L0X10writeMultiEhPKhh>:
}

// Write an arbitrary number of bytes from the given array to the sensor,
// starting at the given register
void VL53L0X::writeMulti(uint8_t reg, uint8_t const * src, uint8_t count)
{
 80a1766:	b5f8      	push	{r3, r4, r5, r6, r7, lr}
 80a1768:	4606      	mov	r6, r0
 80a176a:	4614      	mov	r4, r2
 80a176c:	461d      	mov	r5, r3
 80a176e:	460f      	mov	r7, r1
  Wire.beginTransmission(address);
 80a1770:	f002 fb1c 	bl	80a3dac <_Z19__fetch_global_Wirev>
 80a1774:	7871      	ldrb	r1, [r6, #1]
 80a1776:	f002 fa58 	bl	80a3c2a <_ZN7TwoWire17beginTransmissionEh>
  Wire.write(reg);
 80a177a:	f002 fb17 	bl	80a3dac <_Z19__fetch_global_Wirev>
 80a177e:	6803      	ldr	r3, [r0, #0]
 80a1780:	4639      	mov	r1, r7
 80a1782:	689b      	ldr	r3, [r3, #8]
 80a1784:	4798      	blx	r3
 80a1786:	4425      	add	r5, r4

  while (count-- > 0)
 80a1788:	42ac      	cmp	r4, r5
 80a178a:	d007      	beq.n	80a179c <_ZN7VL53L0X10writeMultiEhPKhh+0x36>
  {
    Wire.write(*(src++));
 80a178c:	f002 fb0e 	bl	80a3dac <_Z19__fetch_global_Wirev>
 80a1790:	6803      	ldr	r3, [r0, #0]
 80a1792:	f814 1b01 	ldrb.w	r1, [r4], #1
 80a1796:	689b      	ldr	r3, [r3, #8]
 80a1798:	4798      	blx	r3
void VL53L0X::writeMulti(uint8_t reg, uint8_t const * src, uint8_t count)
{
  Wire.beginTransmission(address);
  Wire.write(reg);

  while (count-- > 0)
 80a179a:	e7f5      	b.n	80a1788 <_ZN7VL53L0X10writeMultiEhPKhh+0x22>
  {
    Wire.write(*(src++));
  }

  last_status = Wire.endTransmission();
 80a179c:	f002 fb06 	bl	80a3dac <_Z19__fetch_global_Wirev>
 80a17a0:	f002 fa4b 	bl	80a3c3a <_ZN7TwoWire15endTransmissionEv>
 80a17a4:	7030      	strb	r0, [r6, #0]
 80a17a6:	bdf8      	pop	{r3, r4, r5, r6, r7, pc}

080a17a8 <_ZN7VL53L0X9readMultiEhPhh>:
}

// Read an arbitrary number of bytes from the sensor, starting at the given
// register, into the given array
void VL53L0X::readMulti(uint8_t reg, uint8_t * dst, uint8_t count)
{
 80a17a8:	b5f8      	push	{r3, r4, r5, r6, r7, lr}
 80a17aa:	4606      	mov	r6, r0
 80a17ac:	4614      	mov	r4, r2
 80a17ae:	461d      	mov	r5, r3
 80a17b0:	460f      	mov	r7, r1
  Wire.beginTransmission(address);
 80a17b2:	f002 fafb 	bl	80a3dac <_Z19__fetch_global_Wirev>
 80a17b6:	7871      	ldrb	r1, [r6, #1]
 80a17b8:	f002 fa37 	bl	80a3c2a <_ZN7TwoWire17beginTransmissionEh>
  Wire.write(reg);
 80a17bc:	f002 faf6 	bl	80a3dac <_Z19__fetch_global_Wirev>
 80a17c0:	6803      	ldr	r3, [r0, #0]
 80a17c2:	4639      	mov	r1, r7
 80a17c4:	689b      	ldr	r3, [r3, #8]
 80a17c6:	4798      	blx	r3
  last_status = Wire.endTransmission();
 80a17c8:	f002 faf0 	bl	80a3dac <_Z19__fetch_global_Wirev>
 80a17cc:	f002 fa35 	bl	80a3c3a <_ZN7TwoWire15endTransmissionEv>
 80a17d0:	7030      	strb	r0, [r6, #0]

  Wire.requestFrom(address, count);
 80a17d2:	f002 faeb 	bl	80a3dac <_Z19__fetch_global_Wirev>
 80a17d6:	462a      	mov	r2, r5
 80a17d8:	7871      	ldrb	r1, [r6, #1]
 80a17da:	f002 fa1e 	bl	80a3c1a <_ZN7TwoWire11requestFromEhh>
 80a17de:	4425      	add	r5, r4

  while (count-- > 0)
 80a17e0:	42ac      	cmp	r4, r5
 80a17e2:	d007      	beq.n	80a17f4 <_ZN7VL53L0X9readMultiEhPhh+0x4c>
  {
    *(dst++) = Wire.read();
 80a17e4:	f002 fae2 	bl	80a3dac <_Z19__fetch_global_Wirev>
 80a17e8:	6803      	ldr	r3, [r0, #0]
 80a17ea:	695b      	ldr	r3, [r3, #20]
 80a17ec:	4798      	blx	r3
 80a17ee:	f804 0b01 	strb.w	r0, [r4], #1
  Wire.write(reg);
  last_status = Wire.endTransmission();

  Wire.requestFrom(address, count);

  while (count-- > 0)
 80a17f2:	e7f5      	b.n	80a17e0 <_ZN7VL53L0X9readMultiEhPhh+0x38>
 80a17f4:	bdf8      	pop	{r3, r4, r5, r6, r7, pc}
	...

080a17f8 <_ZN7VL53L0X18setSignalRateLimitEf>:
// Setting a lower limit increases the potential range of the sensor but also
// seems to increase the likelihood of getting an inaccurate reading because of
// unwanted reflections from objects other than the intended target.
// Defaults to 0.25 MCPS as initialized by the ST API and this library.
bool VL53L0X::setSignalRateLimit(float limit_Mcps)
{
 80a17f8:	b570      	push	{r4, r5, r6, lr}
 80a17fa:	460d      	mov	r5, r1
 80a17fc:	4606      	mov	r6, r0
  if (limit_Mcps < 0 || limit_Mcps > 511.99) { return false; }
 80a17fe:	2100      	movs	r1, #0
 80a1800:	4628      	mov	r0, r5
 80a1802:	f003 fb8f 	bl	80a4f24 <__aeabi_fcmplt>
 80a1806:	b9b0      	cbnz	r0, 80a1836 <_ZN7VL53L0X18setSignalRateLimitEf+0x3e>
 80a1808:	4628      	mov	r0, r5
 80a180a:	f002 fda1 	bl	80a4350 <__aeabi_f2d>
 80a180e:	a30c      	add	r3, pc, #48	; (adr r3, 80a1840 <_ZN7VL53L0X18setSignalRateLimitEf+0x48>)
 80a1810:	e9d3 2300 	ldrd	r2, r3, [r3]
 80a1814:	f003 f880 	bl	80a4918 <__aeabi_dcmpgt>
 80a1818:	b968      	cbnz	r0, 80a1836 <_ZN7VL53L0X18setSignalRateLimitEf+0x3e>

  // Q9.7 fixed point format (9 integer bits, 7 fractional bits)
  writeReg16Bit(FINAL_RANGE_CONFIG_MIN_COUNT_RATE_RTN_LIMIT, limit_Mcps * (1 << 7));
 80a181a:	f04f 4186 	mov.w	r1, #1124073472	; 0x43000000
 80a181e:	4628      	mov	r0, r5
 80a1820:	f003 f9e2 	bl	80a4be8 <__aeabi_fmul>
 80a1824:	f003 fba6 	bl	80a4f74 <__aeabi_f2uiz>
 80a1828:	2144      	movs	r1, #68	; 0x44
 80a182a:	b282      	uxth	r2, r0
 80a182c:	4630      	mov	r0, r6
 80a182e:	f7ff ff08 	bl	80a1642 <_ZN7VL53L0X13writeReg16BitEht>
 80a1832:	2001      	movs	r0, #1
 80a1834:	bd70      	pop	{r4, r5, r6, pc}
// seems to increase the likelihood of getting an inaccurate reading because of
// unwanted reflections from objects other than the intended target.
// Defaults to 0.25 MCPS as initialized by the ST API and this library.
bool VL53L0X::setSignalRateLimit(float limit_Mcps)
{
  if (limit_Mcps < 0 || limit_Mcps > 511.99) { return false; }
 80a1836:	2000      	movs	r0, #0
 80a1838:	bd70      	pop	{r4, r5, r6, pc}
 80a183a:	bf00      	nop
 80a183c:	f3af 8000 	nop.w
 80a1840:	0a3d70a4 	.word	0x0a3d70a4
 80a1844:	407fffd7 	.word	0x407fffd7

080a1848 <_ZN7VL53L0X19getVcselPulsePeriodENS_15vcselPeriodTypeE>:
}

// Get the VCSEL pulse period in PCLKs for the given period type.
// based on VL53L0X_get_vcsel_pulse_period()
uint8_t VL53L0X::getVcselPulsePeriod(vcselPeriodType type)
{
 80a1848:	b508      	push	{r3, lr}
  if (type == VcselPeriodPreRange)
 80a184a:	b909      	cbnz	r1, 80a1850 <_ZN7VL53L0X19getVcselPulsePeriodENS_15vcselPeriodTypeE+0x8>
  {
    return decodeVcselPeriod(readReg(PRE_RANGE_CONFIG_VCSEL_PERIOD));
 80a184c:	2150      	movs	r1, #80	; 0x50
 80a184e:	e002      	b.n	80a1856 <_ZN7VL53L0X19getVcselPulsePeriodENS_15vcselPeriodTypeE+0xe>
  }
  else if (type == VcselPeriodFinalRange)
 80a1850:	2901      	cmp	r1, #1
 80a1852:	d106      	bne.n	80a1862 <_ZN7VL53L0X19getVcselPulsePeriodENS_15vcselPeriodTypeE+0x1a>
  {
    return decodeVcselPeriod(readReg(FINAL_RANGE_CONFIG_VCSEL_PERIOD));
 80a1854:	2170      	movs	r1, #112	; 0x70
 80a1856:	f7ff ff3e 	bl	80a16d6 <_ZN7VL53L0X7readRegEh>
 80a185a:	3001      	adds	r0, #1
 80a185c:	0040      	lsls	r0, r0, #1
 80a185e:	b2c0      	uxtb	r0, r0
 80a1860:	bd08      	pop	{r3, pc}
  }
  else { return 255; }
 80a1862:	20ff      	movs	r0, #255	; 0xff
}
 80a1864:	bd08      	pop	{r3, pc}

080a1866 <_ZN7VL53L0X15startContinuousEm>:
// often as possible); otherwise, continuous timed mode is used, with the given
// inter-measurement period in milliseconds determining how often the sensor
// takes a measurement.
// based on VL53L0X_StartMeasurement()
void VL53L0X::startContinuous(uint32_t period_ms)
{
 80a1866:	b538      	push	{r3, r4, r5, lr}
 80a1868:	4604      	mov	r4, r0
 80a186a:	460d      	mov	r5, r1
  writeReg(0x80, 0x01);
 80a186c:	2201      	movs	r2, #1
 80a186e:	2180      	movs	r1, #128	; 0x80
 80a1870:	f7ff fec2 	bl	80a15f8 <_ZN7VL53L0X8writeRegEhh>
  writeReg(0xFF, 0x01);
 80a1874:	2201      	movs	r2, #1
 80a1876:	21ff      	movs	r1, #255	; 0xff
 80a1878:	4620      	mov	r0, r4
 80a187a:	f7ff febd 	bl	80a15f8 <_ZN7VL53L0X8writeRegEhh>
  writeReg(0x00, 0x00);
 80a187e:	2200      	movs	r2, #0
 80a1880:	4611      	mov	r1, r2
 80a1882:	4620      	mov	r0, r4
 80a1884:	f7ff feb8 	bl	80a15f8 <_ZN7VL53L0X8writeRegEhh>
  writeReg(0x91, stop_variable);
 80a1888:	7c22      	ldrb	r2, [r4, #16]
 80a188a:	2191      	movs	r1, #145	; 0x91
 80a188c:	4620      	mov	r0, r4
 80a188e:	f7ff feb3 	bl	80a15f8 <_ZN7VL53L0X8writeRegEhh>
  writeReg(0x00, 0x01);
 80a1892:	2201      	movs	r2, #1
 80a1894:	2100      	movs	r1, #0
 80a1896:	4620      	mov	r0, r4
 80a1898:	f7ff feae 	bl	80a15f8 <_ZN7VL53L0X8writeRegEhh>
  writeReg(0xFF, 0x00);
 80a189c:	2200      	movs	r2, #0
 80a189e:	21ff      	movs	r1, #255	; 0xff
 80a18a0:	4620      	mov	r0, r4
 80a18a2:	f7ff fea9 	bl	80a15f8 <_ZN7VL53L0X8writeRegEhh>
  writeReg(0x80, 0x00);
 80a18a6:	2200      	movs	r2, #0
 80a18a8:	2180      	movs	r1, #128	; 0x80
 80a18aa:	4620      	mov	r0, r4
 80a18ac:	f7ff fea4 	bl	80a15f8 <_ZN7VL53L0X8writeRegEhh>

  if (period_ms != 0)
 80a18b0:	b16d      	cbz	r5, 80a18ce <_ZN7VL53L0X15startContinuousEm+0x68>
  {
    // continuous timed mode

    // VL53L0X_SetInterMeasurementPeriodMilliSeconds() begin

    uint16_t osc_calibrate_val = readReg16Bit(OSC_CALIBRATE_VAL);
 80a18b2:	21f8      	movs	r1, #248	; 0xf8
 80a18b4:	4620      	mov	r0, r4
 80a18b6:	f7ff ff2e 	bl	80a1716 <_ZN7VL53L0X12readReg16BitEh>

    if (osc_calibrate_val != 0)
 80a18ba:	b100      	cbz	r0, 80a18be <_ZN7VL53L0X15startContinuousEm+0x58>
    {
      period_ms *= osc_calibrate_val;
 80a18bc:	4345      	muls	r5, r0
    }

    writeReg32Bit(SYSTEM_INTERMEASUREMENT_PERIOD, period_ms);
 80a18be:	462a      	mov	r2, r5
 80a18c0:	2104      	movs	r1, #4
 80a18c2:	4620      	mov	r0, r4
 80a18c4:	f7ff fedc 	bl	80a1680 <_ZN7VL53L0X13writeReg32BitEhm>

    // VL53L0X_SetInterMeasurementPeriodMilliSeconds() end

    writeReg(SYSRANGE_START, 0x04); // VL53L0X_REG_SYSRANGE_MODE_TIMED
 80a18c8:	2204      	movs	r2, #4
 80a18ca:	2100      	movs	r1, #0
 80a18cc:	e001      	b.n	80a18d2 <_ZN7VL53L0X15startContinuousEm+0x6c>
  }
  else
  {
    // continuous back-to-back mode
    writeReg(SYSRANGE_START, 0x02); // VL53L0X_REG_SYSRANGE_MODE_BACKTOBACK
 80a18ce:	4629      	mov	r1, r5
 80a18d0:	2202      	movs	r2, #2
 80a18d2:	4620      	mov	r0, r4
  }
}
 80a18d4:	e8bd 4038 	ldmia.w	sp!, {r3, r4, r5, lr}
    writeReg(SYSRANGE_START, 0x04); // VL53L0X_REG_SYSRANGE_MODE_TIMED
  }
  else
  {
    // continuous back-to-back mode
    writeReg(SYSRANGE_START, 0x02); // VL53L0X_REG_SYSRANGE_MODE_BACKTOBACK
 80a18d8:	f7ff be8e 	b.w	80a15f8 <_ZN7VL53L0X8writeRegEhh>

080a18dc <_ZN7VL53L0X30readRangeContinuousMillimetersEv>:

// Returns a range reading in millimeters when continuous mode is active
// (readRangeSingleMillimeters() also calls this function after starting a
// single-shot range measurement)
uint16_t VL53L0X::readRangeContinuousMillimeters(void)
{
 80a18dc:	b538      	push	{r3, r4, r5, lr}
 80a18de:	4604      	mov	r4, r0
 80a18e0:	f001 fc36 	bl	80a3150 <HAL_Timer_Get_Milli_Seconds>
  startTimeout();
 80a18e4:	60e0      	str	r0, [r4, #12]
  while ((readReg(RESULT_INTERRUPT_STATUS) & 0x07) == 0)
 80a18e6:	2113      	movs	r1, #19
 80a18e8:	4620      	mov	r0, r4
 80a18ea:	f7ff fef4 	bl	80a16d6 <_ZN7VL53L0X7readRegEh>
 80a18ee:	0743      	lsls	r3, r0, #29
 80a18f0:	d10e      	bne.n	80a1910 <_ZN7VL53L0X30readRangeContinuousMillimetersEv+0x34>
  {
    if (checkTimeoutExpired())
 80a18f2:	6863      	ldr	r3, [r4, #4]
 80a18f4:	2b00      	cmp	r3, #0
 80a18f6:	d0f6      	beq.n	80a18e6 <_ZN7VL53L0X30readRangeContinuousMillimetersEv+0xa>
 80a18f8:	f001 fc2a 	bl	80a3150 <HAL_Timer_Get_Milli_Seconds>
 80a18fc:	68e3      	ldr	r3, [r4, #12]
 80a18fe:	1ac0      	subs	r0, r0, r3
 80a1900:	6863      	ldr	r3, [r4, #4]
 80a1902:	4298      	cmp	r0, r3
 80a1904:	d9ef      	bls.n	80a18e6 <_ZN7VL53L0X30readRangeContinuousMillimetersEv+0xa>
    {
      did_timeout = true;
 80a1906:	2301      	movs	r3, #1
 80a1908:	7223      	strb	r3, [r4, #8]
      return 65535;
 80a190a:	f64f 70ff 	movw	r0, #65535	; 0xffff
  uint16_t range = readReg16Bit(RESULT_RANGE_STATUS + 10);

  writeReg(SYSTEM_INTERRUPT_CLEAR, 0x01);

  return range;
}
 80a190e:	bd38      	pop	{r3, r4, r5, pc}
    }
  }

  // assumptions: Linearity Corrective Gain is 1000 (default);
  // fractional ranging is not enabled
  uint16_t range = readReg16Bit(RESULT_RANGE_STATUS + 10);
 80a1910:	211e      	movs	r1, #30
 80a1912:	4620      	mov	r0, r4
 80a1914:	f7ff feff 	bl	80a1716 <_ZN7VL53L0X12readReg16BitEh>
 80a1918:	4605      	mov	r5, r0

  writeReg(SYSTEM_INTERRUPT_CLEAR, 0x01);
 80a191a:	2201      	movs	r2, #1
 80a191c:	4620      	mov	r0, r4
 80a191e:	210b      	movs	r1, #11
 80a1920:	f7ff fe6a 	bl	80a15f8 <_ZN7VL53L0X8writeRegEhh>
 80a1924:	4628      	mov	r0, r5
 80a1926:	bd38      	pop	{r3, r4, r5, pc}

080a1928 <_ZN7VL53L0X11getSpadInfoEPhPb>:

// Get reference SPAD (single photon avalanche diode) count and type
// based on VL53L0X_get_info_from_device(),
// but only gets reference SPAD count and type
bool VL53L0X::getSpadInfo(uint8_t * count, bool * type_is_aperture)
{
 80a1928:	b5f8      	push	{r3, r4, r5, r6, r7, lr}
 80a192a:	4604      	mov	r4, r0
 80a192c:	460f      	mov	r7, r1
 80a192e:	4616      	mov	r6, r2
  uint8_t tmp;

  writeReg(0x80, 0x01);
 80a1930:	2180      	movs	r1, #128	; 0x80
 80a1932:	2201      	movs	r2, #1
 80a1934:	f7ff fe60 	bl	80a15f8 <_ZN7VL53L0X8writeRegEhh>
  writeReg(0xFF, 0x01);
 80a1938:	2201      	movs	r2, #1
 80a193a:	21ff      	movs	r1, #255	; 0xff
 80a193c:	4620      	mov	r0, r4
 80a193e:	f7ff fe5b 	bl	80a15f8 <_ZN7VL53L0X8writeRegEhh>
  writeReg(0x00, 0x00);
 80a1942:	2200      	movs	r2, #0
 80a1944:	4611      	mov	r1, r2
 80a1946:	4620      	mov	r0, r4
 80a1948:	f7ff fe56 	bl	80a15f8 <_ZN7VL53L0X8writeRegEhh>

  writeReg(0xFF, 0x06);
 80a194c:	2206      	movs	r2, #6
 80a194e:	21ff      	movs	r1, #255	; 0xff
 80a1950:	4620      	mov	r0, r4
 80a1952:	f7ff fe51 	bl	80a15f8 <_ZN7VL53L0X8writeRegEhh>
  writeReg(0x83, readReg(0x83) | 0x04);
 80a1956:	2183      	movs	r1, #131	; 0x83
 80a1958:	4620      	mov	r0, r4
 80a195a:	f7ff febc 	bl	80a16d6 <_ZN7VL53L0X7readRegEh>
 80a195e:	f040 0204 	orr.w	r2, r0, #4
 80a1962:	b2d2      	uxtb	r2, r2
 80a1964:	2183      	movs	r1, #131	; 0x83
 80a1966:	4620      	mov	r0, r4
 80a1968:	f7ff fe46 	bl	80a15f8 <_ZN7VL53L0X8writeRegEhh>
  writeReg(0xFF, 0x07);
 80a196c:	2207      	movs	r2, #7
 80a196e:	21ff      	movs	r1, #255	; 0xff
 80a1970:	4620      	mov	r0, r4
 80a1972:	f7ff fe41 	bl	80a15f8 <_ZN7VL53L0X8writeRegEhh>
  writeReg(0x81, 0x01);
 80a1976:	2201      	movs	r2, #1
 80a1978:	2181      	movs	r1, #129	; 0x81
 80a197a:	4620      	mov	r0, r4
 80a197c:	f7ff fe3c 	bl	80a15f8 <_ZN7VL53L0X8writeRegEhh>

  writeReg(0x80, 0x01);
 80a1980:	2201      	movs	r2, #1
 80a1982:	2180      	movs	r1, #128	; 0x80
 80a1984:	4620      	mov	r0, r4
 80a1986:	f7ff fe37 	bl	80a15f8 <_ZN7VL53L0X8writeRegEhh>

  writeReg(0x94, 0x6b);
 80a198a:	226b      	movs	r2, #107	; 0x6b
 80a198c:	2194      	movs	r1, #148	; 0x94
 80a198e:	4620      	mov	r0, r4
 80a1990:	f7ff fe32 	bl	80a15f8 <_ZN7VL53L0X8writeRegEhh>
  writeReg(0x83, 0x00);
 80a1994:	2200      	movs	r2, #0
 80a1996:	2183      	movs	r1, #131	; 0x83
 80a1998:	4620      	mov	r0, r4
 80a199a:	f7ff fe2d 	bl	80a15f8 <_ZN7VL53L0X8writeRegEhh>
 80a199e:	f001 fbd7 	bl	80a3150 <HAL_Timer_Get_Milli_Seconds>
  startTimeout();
 80a19a2:	60e0      	str	r0, [r4, #12]
  while (readReg(0x83) == 0x00)
 80a19a4:	2183      	movs	r1, #131	; 0x83
 80a19a6:	4620      	mov	r0, r4
 80a19a8:	f7ff fe95 	bl	80a16d6 <_ZN7VL53L0X7readRegEh>
 80a19ac:	4605      	mov	r5, r0
 80a19ae:	b958      	cbnz	r0, 80a19c8 <_ZN7VL53L0X11getSpadInfoEPhPb+0xa0>
  {
    if (checkTimeoutExpired()) { return false; }
 80a19b0:	6863      	ldr	r3, [r4, #4]
 80a19b2:	2b00      	cmp	r3, #0
 80a19b4:	d0f6      	beq.n	80a19a4 <_ZN7VL53L0X11getSpadInfoEPhPb+0x7c>
 80a19b6:	f001 fbcb 	bl	80a3150 <HAL_Timer_Get_Milli_Seconds>
 80a19ba:	68e3      	ldr	r3, [r4, #12]
 80a19bc:	1ac0      	subs	r0, r0, r3
 80a19be:	6863      	ldr	r3, [r4, #4]
 80a19c0:	4298      	cmp	r0, r3
 80a19c2:	d9ef      	bls.n	80a19a4 <_ZN7VL53L0X11getSpadInfoEPhPb+0x7c>
 80a19c4:	4628      	mov	r0, r5

  writeReg(0xFF, 0x00);
  writeReg(0x80, 0x00);

  return true;
}
 80a19c6:	bdf8      	pop	{r3, r4, r5, r6, r7, pc}
  startTimeout();
  while (readReg(0x83) == 0x00)
  {
    if (checkTimeoutExpired()) { return false; }
  }
  writeReg(0x83, 0x01);
 80a19c8:	2201      	movs	r2, #1
 80a19ca:	4620      	mov	r0, r4
 80a19cc:	2183      	movs	r1, #131	; 0x83
 80a19ce:	f7ff fe13 	bl	80a15f8 <_ZN7VL53L0X8writeRegEhh>
  tmp = readReg(0x92);
 80a19d2:	2192      	movs	r1, #146	; 0x92
 80a19d4:	4620      	mov	r0, r4
 80a19d6:	f7ff fe7e 	bl	80a16d6 <_ZN7VL53L0X7readRegEh>

  *count = tmp & 0x7f;
 80a19da:	f000 037f 	and.w	r3, r0, #127	; 0x7f
  *type_is_aperture = (tmp >> 7) & 0x01;
 80a19de:	f3c0 10c0 	ubfx	r0, r0, #7, #1
    if (checkTimeoutExpired()) { return false; }
  }
  writeReg(0x83, 0x01);
  tmp = readReg(0x92);

  *count = tmp & 0x7f;
 80a19e2:	703b      	strb	r3, [r7, #0]
  *type_is_aperture = (tmp >> 7) & 0x01;

  writeReg(0x81, 0x00);
 80a19e4:	2200      	movs	r2, #0
  }
  writeReg(0x83, 0x01);
  tmp = readReg(0x92);

  *count = tmp & 0x7f;
  *type_is_aperture = (tmp >> 7) & 0x01;
 80a19e6:	7030      	strb	r0, [r6, #0]

  writeReg(0x81, 0x00);
 80a19e8:	2181      	movs	r1, #129	; 0x81
 80a19ea:	4620      	mov	r0, r4
 80a19ec:	f7ff fe04 	bl	80a15f8 <_ZN7VL53L0X8writeRegEhh>
  writeReg(0xFF, 0x06);
 80a19f0:	2206      	movs	r2, #6
 80a19f2:	4620      	mov	r0, r4
 80a19f4:	21ff      	movs	r1, #255	; 0xff
 80a19f6:	f7ff fdff 	bl	80a15f8 <_ZN7VL53L0X8writeRegEhh>
  writeReg(0x83, readReg( 0x83  & ~0x04));
 80a19fa:	2183      	movs	r1, #131	; 0x83
 80a19fc:	4620      	mov	r0, r4
 80a19fe:	f7ff fe6a 	bl	80a16d6 <_ZN7VL53L0X7readRegEh>
 80a1a02:	2183      	movs	r1, #131	; 0x83
 80a1a04:	4602      	mov	r2, r0
 80a1a06:	4620      	mov	r0, r4
 80a1a08:	f7ff fdf6 	bl	80a15f8 <_ZN7VL53L0X8writeRegEhh>
  writeReg(0xFF, 0x01);
 80a1a0c:	4620      	mov	r0, r4
 80a1a0e:	2201      	movs	r2, #1
 80a1a10:	21ff      	movs	r1, #255	; 0xff
 80a1a12:	f7ff fdf1 	bl	80a15f8 <_ZN7VL53L0X8writeRegEhh>
  writeReg(0x00, 0x01);
 80a1a16:	4620      	mov	r0, r4
 80a1a18:	2201      	movs	r2, #1
 80a1a1a:	2100      	movs	r1, #0
 80a1a1c:	f7ff fdec 	bl	80a15f8 <_ZN7VL53L0X8writeRegEhh>

  writeReg(0xFF, 0x00);
 80a1a20:	4620      	mov	r0, r4
 80a1a22:	2200      	movs	r2, #0
 80a1a24:	21ff      	movs	r1, #255	; 0xff
 80a1a26:	f7ff fde7 	bl	80a15f8 <_ZN7VL53L0X8writeRegEhh>
  writeReg(0x80, 0x00);
 80a1a2a:	4620      	mov	r0, r4
 80a1a2c:	2200      	movs	r2, #0
 80a1a2e:	2180      	movs	r1, #128	; 0x80
 80a1a30:	f7ff fde2 	bl	80a15f8 <_ZN7VL53L0X8writeRegEhh>

  return true;
 80a1a34:	2001      	movs	r0, #1
 80a1a36:	bdf8      	pop	{r3, r4, r5, r6, r7, pc}

080a1a38 <_ZN7VL53L0X22getSequenceStepEnablesEPNS_19SequenceStepEnablesE>:
}

// Get sequence step enables
// based on VL53L0X_GetSequenceStepEnables()
void VL53L0X::getSequenceStepEnables(SequenceStepEnables * enables)
{
 80a1a38:	b510      	push	{r4, lr}
 80a1a3a:	460c      	mov	r4, r1
  uint8_t sequence_config = readReg(SYSTEM_SEQUENCE_CONFIG);
 80a1a3c:	2101      	movs	r1, #1
 80a1a3e:	f7ff fe4a 	bl	80a16d6 <_ZN7VL53L0X7readRegEh>

  enables->tcc          = (sequence_config >> 4) & 0x1;
 80a1a42:	f3c0 1300 	ubfx	r3, r0, #4, #1
 80a1a46:	7023      	strb	r3, [r4, #0]
  enables->dss          = (sequence_config >> 3) & 0x1;
 80a1a48:	f3c0 03c0 	ubfx	r3, r0, #3, #1
 80a1a4c:	70a3      	strb	r3, [r4, #2]
  enables->msrc         = (sequence_config >> 2) & 0x1;
 80a1a4e:	f3c0 0380 	ubfx	r3, r0, #2, #1
 80a1a52:	7063      	strb	r3, [r4, #1]
  enables->pre_range    = (sequence_config >> 6) & 0x1;
 80a1a54:	f3c0 1380 	ubfx	r3, r0, #6, #1
  enables->final_range  = (sequence_config >> 7) & 0x1;
 80a1a58:	f3c0 10c0 	ubfx	r0, r0, #7, #1
  uint8_t sequence_config = readReg(SYSTEM_SEQUENCE_CONFIG);

  enables->tcc          = (sequence_config >> 4) & 0x1;
  enables->dss          = (sequence_config >> 3) & 0x1;
  enables->msrc         = (sequence_config >> 2) & 0x1;
  enables->pre_range    = (sequence_config >> 6) & 0x1;
 80a1a5c:	70e3      	strb	r3, [r4, #3]
  enables->final_range  = (sequence_config >> 7) & 0x1;
 80a1a5e:	7120      	strb	r0, [r4, #4]
 80a1a60:	bd10      	pop	{r4, pc}

080a1a62 <_ZN7VL53L0X13decodeTimeoutEm>:
// Decode sequence step timeout in MCLKs from register value
// based on VL53L0X_decode_timeout()
// Note: the original function returned a uint32_t, but the return value is
// always stored in a uint16_t.
uint16_t VL53L0X::decodeTimeout(uint32_t reg_val)
{
 80a1a62:	f64f 73ff 	movw	r3, #65535	; 0xffff
 80a1a66:	4298      	cmp	r0, r3
 80a1a68:	bf28      	it	cs
 80a1a6a:	4618      	movcs	r0, r3
  if (reg_val > 0xFFFF) reg_val = 0xFFFF;
  // format: "(LSByte * 2^MSByte) + 1"
  return (uint16_t)((reg_val & 0x00FF) <<
         (uint16_t)((reg_val & 0xFF00) >> 8)) + 1;
 80a1a6c:	b2c3      	uxtb	r3, r0
 80a1a6e:	0a00      	lsrs	r0, r0, #8
 80a1a70:	fa03 f000 	lsl.w	r0, r3, r0
 80a1a74:	3001      	adds	r0, #1
}
 80a1a76:	b280      	uxth	r0, r0
 80a1a78:	4770      	bx	lr

080a1a7a <_ZN7VL53L0X13encodeTimeoutEm>:
// based on VL53L0X_encode_timeout()
// Note: the original function took a uint16_t, but the argument passed to it
// is always uint32_t with uint16_t values only.
uint16_t VL53L0X::encodeTimeout(uint32_t timeout_mclks)
{
  if (timeout_mclks > 0xFFFF) timeout_mclks = 0xFFFF;
 80a1a7a:	f5b0 3f80 	cmp.w	r0, #65536	; 0x10000
 80a1a7e:	d201      	bcs.n	80a1a84 <_ZN7VL53L0X13encodeTimeoutEm+0xa>

  // format: "(LSByte * 2^MSByte) + 1"
  uint32_t ls_byte = 0;
  uint16_t ms_byte = 0;

  if (timeout_mclks > 0)
 80a1a80:	b178      	cbz	r0, 80a1aa2 <_ZN7VL53L0X13encodeTimeoutEm+0x28>
 80a1a82:	e001      	b.n	80a1a88 <_ZN7VL53L0X13encodeTimeoutEm+0xe>
// based on VL53L0X_encode_timeout()
// Note: the original function took a uint16_t, but the argument passed to it
// is always uint32_t with uint16_t values only.
uint16_t VL53L0X::encodeTimeout(uint32_t timeout_mclks)
{
  if (timeout_mclks > 0xFFFF) timeout_mclks = 0xFFFF;
 80a1a84:	f64f 70ff 	movw	r0, #65535	; 0xffff
  uint32_t ls_byte = 0;
  uint16_t ms_byte = 0;

  if (timeout_mclks > 0)
  {
    ls_byte = timeout_mclks - 1;
 80a1a88:	3801      	subs	r0, #1
 80a1a8a:	2300      	movs	r3, #0

    while ((ls_byte & 0xFFFFFF00) > 0)
 80a1a8c:	f030 01ff 	bics.w	r1, r0, #255	; 0xff
 80a1a90:	b29a      	uxth	r2, r3
 80a1a92:	f103 0301 	add.w	r3, r3, #1
 80a1a96:	d001      	beq.n	80a1a9c <_ZN7VL53L0X13encodeTimeoutEm+0x22>
    {
      ls_byte >>= 1;
 80a1a98:	0840      	lsrs	r0, r0, #1

  if (timeout_mclks > 0)
  {
    ls_byte = timeout_mclks - 1;

    while ((ls_byte & 0xFFFFFF00) > 0)
 80a1a9a:	e7f7      	b.n	80a1a8c <_ZN7VL53L0X13encodeTimeoutEm+0x12>
    {
      ls_byte >>= 1;
      ms_byte++;
    }

    return (ms_byte << 8) | (ls_byte & 0xFF);
 80a1a9c:	ea40 2002 	orr.w	r0, r0, r2, lsl #8
 80a1aa0:	b280      	uxth	r0, r0
  }
  else { return 0; }
}
 80a1aa2:	4770      	bx	lr

080a1aa4 <_ZN7VL53L0X26timeoutMclksToMicrosecondsEmh>:

// Convert sequence step timeout from MCLKs to microseconds with given VCSEL period in PCLKs
// based on VL53L0X_calc_timeout_us()
uint32_t VL53L0X::timeoutMclksToMicroseconds(uint32_t timeout_period_mclks, uint8_t vcsel_period_pclks)
{
  uint32_t macro_period_ns = calcMacroPeriod(vcsel_period_pclks);
 80a1aa4:	4b08      	ldr	r3, [pc, #32]	; (80a1ac8 <_ZN7VL53L0X26timeoutMclksToMicrosecondsEmh+0x24>)

  return ((timeout_period_mclks * macro_period_ns) + (macro_period_ns / 2)) / 1000;
 80a1aa6:	f44f 727a 	mov.w	r2, #1000	; 0x3e8

// Convert sequence step timeout from MCLKs to microseconds with given VCSEL period in PCLKs
// based on VL53L0X_calc_timeout_us()
uint32_t VL53L0X::timeoutMclksToMicroseconds(uint32_t timeout_period_mclks, uint8_t vcsel_period_pclks)
{
  uint32_t macro_period_ns = calcMacroPeriod(vcsel_period_pclks);
 80a1aaa:	4359      	muls	r1, r3
}

// Convert sequence step timeout from MCLKs to microseconds with given VCSEL period in PCLKs
// based on VL53L0X_calc_timeout_us()
uint32_t VL53L0X::timeoutMclksToMicroseconds(uint32_t timeout_period_mclks, uint8_t vcsel_period_pclks)
{
 80a1aac:	b510      	push	{r4, lr}
  uint32_t macro_period_ns = calcMacroPeriod(vcsel_period_pclks);
 80a1aae:	f501 71fa 	add.w	r1, r1, #500	; 0x1f4

  return ((timeout_period_mclks * macro_period_ns) + (macro_period_ns / 2)) / 1000;
 80a1ab2:	f44f 64fa 	mov.w	r4, #2000	; 0x7d0
 80a1ab6:	fbb1 f3f2 	udiv	r3, r1, r2
 80a1aba:	fbb1 f1f4 	udiv	r1, r1, r4
 80a1abe:	fb00 1003 	mla	r0, r0, r3, r1
}
 80a1ac2:	fbb0 f0f2 	udiv	r0, r0, r2
 80a1ac6:	bd10      	pop	{r4, pc}
 80a1ac8:	003a2f00 	.word	0x003a2f00

080a1acc <_ZN7VL53L0X23getSequenceStepTimeoutsEPKNS_19SequenceStepEnablesEPNS_20SequenceStepTimeoutsE>:
// Get sequence step timeouts
// based on get_sequence_step_timeout(),
// but gets all timeouts instead of just the requested one, and also stores
// intermediate values
void VL53L0X::getSequenceStepTimeouts(SequenceStepEnables const * enables, SequenceStepTimeouts * timeouts)
{
 80a1acc:	b570      	push	{r4, r5, r6, lr}
 80a1ace:	460e      	mov	r6, r1
  timeouts->pre_range_vcsel_period_pclks = getVcselPulsePeriod(VcselPeriodPreRange);
 80a1ad0:	2100      	movs	r1, #0
// Get sequence step timeouts
// based on get_sequence_step_timeout(),
// but gets all timeouts instead of just the requested one, and also stores
// intermediate values
void VL53L0X::getSequenceStepTimeouts(SequenceStepEnables const * enables, SequenceStepTimeouts * timeouts)
{
 80a1ad2:	4614      	mov	r4, r2
 80a1ad4:	4605      	mov	r5, r0
  timeouts->pre_range_vcsel_period_pclks = getVcselPulsePeriod(VcselPeriodPreRange);
 80a1ad6:	f7ff feb7 	bl	80a1848 <_ZN7VL53L0X19getVcselPulsePeriodENS_15vcselPeriodTypeE>

  timeouts->msrc_dss_tcc_mclks = readReg(MSRC_CONFIG_TIMEOUT_MACROP) + 1;
 80a1ada:	2146      	movs	r1, #70	; 0x46
// based on get_sequence_step_timeout(),
// but gets all timeouts instead of just the requested one, and also stores
// intermediate values
void VL53L0X::getSequenceStepTimeouts(SequenceStepEnables const * enables, SequenceStepTimeouts * timeouts)
{
  timeouts->pre_range_vcsel_period_pclks = getVcselPulsePeriod(VcselPeriodPreRange);
 80a1adc:	8020      	strh	r0, [r4, #0]

  timeouts->msrc_dss_tcc_mclks = readReg(MSRC_CONFIG_TIMEOUT_MACROP) + 1;
 80a1ade:	4628      	mov	r0, r5
 80a1ae0:	f7ff fdf9 	bl	80a16d6 <_ZN7VL53L0X7readRegEh>
 80a1ae4:	3001      	adds	r0, #1
 80a1ae6:	b280      	uxth	r0, r0
  timeouts->msrc_dss_tcc_us =
    timeoutMclksToMicroseconds(timeouts->msrc_dss_tcc_mclks,
 80a1ae8:	7821      	ldrb	r1, [r4, #0]
// intermediate values
void VL53L0X::getSequenceStepTimeouts(SequenceStepEnables const * enables, SequenceStepTimeouts * timeouts)
{
  timeouts->pre_range_vcsel_period_pclks = getVcselPulsePeriod(VcselPeriodPreRange);

  timeouts->msrc_dss_tcc_mclks = readReg(MSRC_CONFIG_TIMEOUT_MACROP) + 1;
 80a1aea:	80a0      	strh	r0, [r4, #4]
  timeouts->msrc_dss_tcc_us =
    timeoutMclksToMicroseconds(timeouts->msrc_dss_tcc_mclks,
 80a1aec:	f7ff ffda 	bl	80a1aa4 <_ZN7VL53L0X26timeoutMclksToMicrosecondsEmh>
                               timeouts->pre_range_vcsel_period_pclks);

  timeouts->pre_range_mclks =
    decodeTimeout(readReg16Bit(PRE_RANGE_CONFIG_TIMEOUT_MACROP_HI));
 80a1af0:	2151      	movs	r1, #81	; 0x51
  timeouts->pre_range_vcsel_period_pclks = getVcselPulsePeriod(VcselPeriodPreRange);

  timeouts->msrc_dss_tcc_mclks = readReg(MSRC_CONFIG_TIMEOUT_MACROP) + 1;
  timeouts->msrc_dss_tcc_us =
    timeoutMclksToMicroseconds(timeouts->msrc_dss_tcc_mclks,
                               timeouts->pre_range_vcsel_period_pclks);
 80a1af2:	60e0      	str	r0, [r4, #12]

  timeouts->pre_range_mclks =
    decodeTimeout(readReg16Bit(PRE_RANGE_CONFIG_TIMEOUT_MACROP_HI));
 80a1af4:	4628      	mov	r0, r5
 80a1af6:	f7ff fe0e 	bl	80a1716 <_ZN7VL53L0X12readReg16BitEh>
 80a1afa:	f7ff ffb2 	bl	80a1a62 <_ZN7VL53L0X13decodeTimeoutEm>
  timeouts->pre_range_us =
    timeoutMclksToMicroseconds(timeouts->pre_range_mclks,
 80a1afe:	7821      	ldrb	r1, [r4, #0]
  timeouts->msrc_dss_tcc_us =
    timeoutMclksToMicroseconds(timeouts->msrc_dss_tcc_mclks,
                               timeouts->pre_range_vcsel_period_pclks);

  timeouts->pre_range_mclks =
    decodeTimeout(readReg16Bit(PRE_RANGE_CONFIG_TIMEOUT_MACROP_HI));
 80a1b00:	80e0      	strh	r0, [r4, #6]
  timeouts->pre_range_us =
    timeoutMclksToMicroseconds(timeouts->pre_range_mclks,
 80a1b02:	f7ff ffcf 	bl	80a1aa4 <_ZN7VL53L0X26timeoutMclksToMicrosecondsEmh>
  {
    return decodeVcselPeriod(readReg(PRE_RANGE_CONFIG_VCSEL_PERIOD));
  }
  else if (type == VcselPeriodFinalRange)
  {
    return decodeVcselPeriod(readReg(FINAL_RANGE_CONFIG_VCSEL_PERIOD));
 80a1b06:	2170      	movs	r1, #112	; 0x70

  timeouts->pre_range_mclks =
    decodeTimeout(readReg16Bit(PRE_RANGE_CONFIG_TIMEOUT_MACROP_HI));
  timeouts->pre_range_us =
    timeoutMclksToMicroseconds(timeouts->pre_range_mclks,
                               timeouts->pre_range_vcsel_period_pclks);
 80a1b08:	6120      	str	r0, [r4, #16]
  {
    return decodeVcselPeriod(readReg(PRE_RANGE_CONFIG_VCSEL_PERIOD));
  }
  else if (type == VcselPeriodFinalRange)
  {
    return decodeVcselPeriod(readReg(FINAL_RANGE_CONFIG_VCSEL_PERIOD));
 80a1b0a:	4628      	mov	r0, r5
 80a1b0c:	f7ff fde3 	bl	80a16d6 <_ZN7VL53L0X7readRegEh>
    decodeTimeout(readReg16Bit(PRE_RANGE_CONFIG_TIMEOUT_MACROP_HI));
  timeouts->pre_range_us =
    timeoutMclksToMicroseconds(timeouts->pre_range_mclks,
                               timeouts->pre_range_vcsel_period_pclks);

  timeouts->final_range_vcsel_period_pclks = getVcselPulsePeriod(VcselPeriodFinalRange);
 80a1b10:	3001      	adds	r0, #1
 80a1b12:	0040      	lsls	r0, r0, #1
 80a1b14:	b2c0      	uxtb	r0, r0
 80a1b16:	8060      	strh	r0, [r4, #2]

  timeouts->final_range_mclks =
    decodeTimeout(readReg16Bit(FINAL_RANGE_CONFIG_TIMEOUT_MACROP_HI));
 80a1b18:	2171      	movs	r1, #113	; 0x71
 80a1b1a:	4628      	mov	r0, r5
 80a1b1c:	f7ff fdfb 	bl	80a1716 <_ZN7VL53L0X12readReg16BitEh>
 80a1b20:	f7ff ff9f 	bl	80a1a62 <_ZN7VL53L0X13decodeTimeoutEm>
 80a1b24:	8120      	strh	r0, [r4, #8]

  if (enables->pre_range)
 80a1b26:	78f3      	ldrb	r3, [r6, #3]
 80a1b28:	b113      	cbz	r3, 80a1b30 <_ZN7VL53L0X23getSequenceStepTimeoutsEPKNS_19SequenceStepEnablesEPNS_20SequenceStepTimeoutsE+0x64>
  {
    timeouts->final_range_mclks -= timeouts->pre_range_mclks;
 80a1b2a:	88e3      	ldrh	r3, [r4, #6]
 80a1b2c:	1ac0      	subs	r0, r0, r3
 80a1b2e:	8120      	strh	r0, [r4, #8]
  }

  timeouts->final_range_us =
    timeoutMclksToMicroseconds(timeouts->final_range_mclks,
 80a1b30:	78a1      	ldrb	r1, [r4, #2]
 80a1b32:	8920      	ldrh	r0, [r4, #8]
 80a1b34:	f7ff ffb6 	bl	80a1aa4 <_ZN7VL53L0X26timeoutMclksToMicrosecondsEmh>
                               timeouts->final_range_vcsel_period_pclks);
 80a1b38:	6160      	str	r0, [r4, #20]
 80a1b3a:	bd70      	pop	{r4, r5, r6, pc}

080a1b3c <_ZN7VL53L0X26getMeasurementTimingBudgetEv>:

// Get the measurement timing budget in microseconds
// based on VL53L0X_get_measurement_timing_budget_micro_seconds()
// in us
uint32_t VL53L0X::getMeasurementTimingBudget(void)
{
 80a1b3c:	b510      	push	{r4, lr}
 80a1b3e:	4604      	mov	r4, r0
 80a1b40:	b088      	sub	sp, #32
  uint16_t const FinalRangeOverhead = 550;

  // "Start and end overhead times always present"
  uint32_t budget_us = StartOverhead + EndOverhead;

  getSequenceStepEnables(&enables);
 80a1b42:	4669      	mov	r1, sp
 80a1b44:	f7ff ff78 	bl	80a1a38 <_ZN7VL53L0X22getSequenceStepEnablesEPNS_19SequenceStepEnablesE>
  getSequenceStepTimeouts(&enables, &timeouts);
 80a1b48:	aa02      	add	r2, sp, #8
 80a1b4a:	4669      	mov	r1, sp
 80a1b4c:	4620      	mov	r0, r4
 80a1b4e:	f7ff ffbd 	bl	80a1acc <_ZN7VL53L0X23getSequenceStepTimeoutsEPKNS_19SequenceStepEnablesEPNS_20SequenceStepTimeoutsE>

  if (enables.tcc)
 80a1b52:	f89d 3000 	ldrb.w	r3, [sp]
 80a1b56:	b11b      	cbz	r3, 80a1b60 <_ZN7VL53L0X26getMeasurementTimingBudgetEv+0x24>
  {
    budget_us += (timeouts.msrc_dss_tcc_us + TccOverhead);
 80a1b58:	9805      	ldr	r0, [sp, #20]
 80a1b5a:	f600 5084 	addw	r0, r0, #3460	; 0xd84
 80a1b5e:	e001      	b.n	80a1b64 <_ZN7VL53L0X26getMeasurementTimingBudgetEv+0x28>
  uint16_t const DssOverhead        = 690;
  uint16_t const PreRangeOverhead   = 660;
  uint16_t const FinalRangeOverhead = 550;

  // "Start and end overhead times always present"
  uint32_t budget_us = StartOverhead + EndOverhead;
 80a1b60:	f640 3036 	movw	r0, #2870	; 0xb36
  if (enables.tcc)
  {
    budget_us += (timeouts.msrc_dss_tcc_us + TccOverhead);
  }

  if (enables.dss)
 80a1b64:	f89d 3002 	ldrb.w	r3, [sp, #2]
 80a1b68:	b12b      	cbz	r3, 80a1b76 <_ZN7VL53L0X26getMeasurementTimingBudgetEv+0x3a>
  {
    budget_us += 2 * (timeouts.msrc_dss_tcc_us + DssOverhead);
 80a1b6a:	9b05      	ldr	r3, [sp, #20]
 80a1b6c:	f203 23b2 	addw	r3, r3, #690	; 0x2b2
 80a1b70:	eb00 0043 	add.w	r0, r0, r3, lsl #1
 80a1b74:	e006      	b.n	80a1b84 <_ZN7VL53L0X26getMeasurementTimingBudgetEv+0x48>
  }
  else if (enables.msrc)
 80a1b76:	f89d 3001 	ldrb.w	r3, [sp, #1]
 80a1b7a:	b11b      	cbz	r3, 80a1b84 <_ZN7VL53L0X26getMeasurementTimingBudgetEv+0x48>
  {
    budget_us += (timeouts.msrc_dss_tcc_us + MsrcOverhead);
 80a1b7c:	9b05      	ldr	r3, [sp, #20]
 80a1b7e:	f503 7325 	add.w	r3, r3, #660	; 0x294
 80a1b82:	4418      	add	r0, r3
  }

  if (enables.pre_range)
 80a1b84:	f89d 3003 	ldrb.w	r3, [sp, #3]
 80a1b88:	b11b      	cbz	r3, 80a1b92 <_ZN7VL53L0X26getMeasurementTimingBudgetEv+0x56>
  {
    budget_us += (timeouts.pre_range_us + PreRangeOverhead);
 80a1b8a:	9b06      	ldr	r3, [sp, #24]
 80a1b8c:	f503 7325 	add.w	r3, r3, #660	; 0x294
 80a1b90:	4418      	add	r0, r3
  }

  if (enables.final_range)
 80a1b92:	f89d 3004 	ldrb.w	r3, [sp, #4]
 80a1b96:	b11b      	cbz	r3, 80a1ba0 <_ZN7VL53L0X26getMeasurementTimingBudgetEv+0x64>
  {
    budget_us += (timeouts.final_range_us + FinalRangeOverhead);
 80a1b98:	9b07      	ldr	r3, [sp, #28]
 80a1b9a:	f203 2326 	addw	r3, r3, #550	; 0x226
 80a1b9e:	4418      	add	r0, r3
  }

  measurement_timing_budget_us = budget_us; // store for internal reuse
 80a1ba0:	6160      	str	r0, [r4, #20]
  return budget_us;
}
 80a1ba2:	b008      	add	sp, #32
 80a1ba4:	bd10      	pop	{r4, pc}
	...

080a1ba8 <_ZN7VL53L0X26timeoutMicrosecondsToMclksEmh>:

// Convert sequence step timeout from microseconds to MCLKs with given VCSEL period in PCLKs
// based on VL53L0X_calc_timeout_mclks()
uint32_t VL53L0X::timeoutMicrosecondsToMclks(uint32_t timeout_period_us, uint8_t vcsel_period_pclks)
{
  uint32_t macro_period_ns = calcMacroPeriod(vcsel_period_pclks);
 80a1ba8:	4b08      	ldr	r3, [pc, #32]	; (80a1bcc <_ZN7VL53L0X26timeoutMicrosecondsToMclksEmh+0x24>)

  return (((timeout_period_us * 1000) + (macro_period_ns / 2)) / macro_period_ns);
 80a1baa:	f44f 727a 	mov.w	r2, #1000	; 0x3e8

// Convert sequence step timeout from microseconds to MCLKs with given VCSEL period in PCLKs
// based on VL53L0X_calc_timeout_mclks()
uint32_t VL53L0X::timeoutMicrosecondsToMclks(uint32_t timeout_period_us, uint8_t vcsel_period_pclks)
{
  uint32_t macro_period_ns = calcMacroPeriod(vcsel_period_pclks);
 80a1bae:	4359      	muls	r1, r3

  return (((timeout_period_us * 1000) + (macro_period_ns / 2)) / macro_period_ns);
 80a1bb0:	f44f 63fa 	mov.w	r3, #2000	; 0x7d0

// Convert sequence step timeout from microseconds to MCLKs with given VCSEL period in PCLKs
// based on VL53L0X_calc_timeout_mclks()
uint32_t VL53L0X::timeoutMicrosecondsToMclks(uint32_t timeout_period_us, uint8_t vcsel_period_pclks)
{
  uint32_t macro_period_ns = calcMacroPeriod(vcsel_period_pclks);
 80a1bb4:	f501 71fa 	add.w	r1, r1, #500	; 0x1f4

  return (((timeout_period_us * 1000) + (macro_period_ns / 2)) / macro_period_ns);
 80a1bb8:	fbb1 f3f3 	udiv	r3, r1, r3
 80a1bbc:	fbb1 f1f2 	udiv	r1, r1, r2
 80a1bc0:	fb02 3000 	mla	r0, r2, r0, r3
}
 80a1bc4:	fbb0 f0f1 	udiv	r0, r0, r1
 80a1bc8:	4770      	bx	lr
 80a1bca:	bf00      	nop
 80a1bcc:	003a2f00 	.word	0x003a2f00

080a1bd0 <_ZN7VL53L0X26setMeasurementTimingBudgetEm>:
  uint16_t const PreRangeOverhead   = 660;
  uint16_t const FinalRangeOverhead = 550;

  uint32_t const MinTimingBudget = 20000;

  if (budget_us < MinTimingBudget) { return false; }
 80a1bd0:	f644 631f 	movw	r3, #19999	; 0x4e1f
// budget allows for more accurate measurements. Increasing the budget by a
// factor of N decreases the range measurement standard deviation by a factor of
// sqrt(N). Defaults to about 33 milliseconds; the minimum is 20 ms.
// based on VL53L0X_set_measurement_timing_budget_micro_seconds()
bool VL53L0X::setMeasurementTimingBudget(uint32_t budget_us)
{
 80a1bd4:	b5f0      	push	{r4, r5, r6, r7, lr}
  uint16_t const PreRangeOverhead   = 660;
  uint16_t const FinalRangeOverhead = 550;

  uint32_t const MinTimingBudget = 20000;

  if (budget_us < MinTimingBudget) { return false; }
 80a1bd6:	4299      	cmp	r1, r3
// budget allows for more accurate measurements. Increasing the budget by a
// factor of N decreases the range measurement standard deviation by a factor of
// sqrt(N). Defaults to about 33 milliseconds; the minimum is 20 ms.
// based on VL53L0X_set_measurement_timing_budget_micro_seconds()
bool VL53L0X::setMeasurementTimingBudget(uint32_t budget_us)
{
 80a1bd8:	b089      	sub	sp, #36	; 0x24
 80a1bda:	4606      	mov	r6, r0
 80a1bdc:	460d      	mov	r5, r1
  uint16_t const PreRangeOverhead   = 660;
  uint16_t const FinalRangeOverhead = 550;

  uint32_t const MinTimingBudget = 20000;

  if (budget_us < MinTimingBudget) { return false; }
 80a1bde:	d942      	bls.n	80a1c66 <_ZN7VL53L0X26setMeasurementTimingBudgetEm+0x96>

  uint32_t used_budget_us = StartOverhead + EndOverhead;

  getSequenceStepEnables(&enables);
 80a1be0:	4669      	mov	r1, sp
 80a1be2:	f7ff ff29 	bl	80a1a38 <_ZN7VL53L0X22getSequenceStepEnablesEPNS_19SequenceStepEnablesE>
  getSequenceStepTimeouts(&enables, &timeouts);
 80a1be6:	aa02      	add	r2, sp, #8
 80a1be8:	4669      	mov	r1, sp
 80a1bea:	4630      	mov	r0, r6
 80a1bec:	f7ff ff6e 	bl	80a1acc <_ZN7VL53L0X23getSequenceStepTimeoutsEPKNS_19SequenceStepEnablesEPNS_20SequenceStepTimeoutsE>

  if (enables.tcc)
 80a1bf0:	f89d 3000 	ldrb.w	r3, [sp]
 80a1bf4:	b11b      	cbz	r3, 80a1bfe <_ZN7VL53L0X26setMeasurementTimingBudgetEm+0x2e>
  {
    used_budget_us += (timeouts.msrc_dss_tcc_us + TccOverhead);
 80a1bf6:	9805      	ldr	r0, [sp, #20]
 80a1bf8:	f600 3036 	addw	r0, r0, #2870	; 0xb36
 80a1bfc:	e001      	b.n	80a1c02 <_ZN7VL53L0X26setMeasurementTimingBudgetEm+0x32>

  uint32_t const MinTimingBudget = 20000;

  if (budget_us < MinTimingBudget) { return false; }

  uint32_t used_budget_us = StartOverhead + EndOverhead;
 80a1bfe:	f640 00e8 	movw	r0, #2280	; 0x8e8
  if (enables.tcc)
  {
    used_budget_us += (timeouts.msrc_dss_tcc_us + TccOverhead);
  }

  if (enables.dss)
 80a1c02:	f89d 3002 	ldrb.w	r3, [sp, #2]
 80a1c06:	b12b      	cbz	r3, 80a1c14 <_ZN7VL53L0X26setMeasurementTimingBudgetEm+0x44>
  {
    used_budget_us += 2 * (timeouts.msrc_dss_tcc_us + DssOverhead);
 80a1c08:	9b05      	ldr	r3, [sp, #20]
 80a1c0a:	f203 23b2 	addw	r3, r3, #690	; 0x2b2
 80a1c0e:	eb00 0043 	add.w	r0, r0, r3, lsl #1
 80a1c12:	e006      	b.n	80a1c22 <_ZN7VL53L0X26setMeasurementTimingBudgetEm+0x52>
  }
  else if (enables.msrc)
 80a1c14:	f89d 3001 	ldrb.w	r3, [sp, #1]
 80a1c18:	b11b      	cbz	r3, 80a1c22 <_ZN7VL53L0X26setMeasurementTimingBudgetEm+0x52>
  {
    used_budget_us += (timeouts.msrc_dss_tcc_us + MsrcOverhead);
 80a1c1a:	9b05      	ldr	r3, [sp, #20]
 80a1c1c:	f503 7325 	add.w	r3, r3, #660	; 0x294
 80a1c20:	4418      	add	r0, r3
  }

  if (enables.pre_range)
 80a1c22:	f89d 7003 	ldrb.w	r7, [sp, #3]
 80a1c26:	b11f      	cbz	r7, 80a1c30 <_ZN7VL53L0X26setMeasurementTimingBudgetEm+0x60>
  {
    used_budget_us += (timeouts.pre_range_us + PreRangeOverhead);
 80a1c28:	9b06      	ldr	r3, [sp, #24]
 80a1c2a:	f503 7325 	add.w	r3, r3, #660	; 0x294
 80a1c2e:	4418      	add	r0, r3
  }

  if (enables.final_range)
 80a1c30:	f89d 4004 	ldrb.w	r4, [sp, #4]
 80a1c34:	b1ac      	cbz	r4, 80a1c62 <_ZN7VL53L0X26setMeasurementTimingBudgetEm+0x92>
  {
    used_budget_us += FinalRangeOverhead;
 80a1c36:	f200 2026 	addw	r0, r0, #550	; 0x226
    // budget and the sum of all other timeouts within the sequence.
    // If there is no room for the final range timeout, then an error
    // will be set. Otherwise the remaining time will be applied to
    // the final range."

    if (used_budget_us > budget_us)
 80a1c3a:	4285      	cmp	r5, r0
 80a1c3c:	d313      	bcc.n	80a1c66 <_ZN7VL53L0X26setMeasurementTimingBudgetEm+0x96>
    //  timeouts must be expressed in macro periods MClks
    //  because they have different vcsel periods."

    uint32_t final_range_timeout_mclks =
      timeoutMicrosecondsToMclks(final_range_timeout_us,
                                 timeouts.final_range_vcsel_period_pclks);
 80a1c3e:	f89d 100a 	ldrb.w	r1, [sp, #10]
 80a1c42:	1a28      	subs	r0, r5, r0
 80a1c44:	f7ff ffb0 	bl	80a1ba8 <_ZN7VL53L0X26timeoutMicrosecondsToMclksEmh>

    if (enables.pre_range)
 80a1c48:	b117      	cbz	r7, 80a1c50 <_ZN7VL53L0X26setMeasurementTimingBudgetEm+0x80>
    {
      final_range_timeout_mclks += timeouts.pre_range_mclks;
 80a1c4a:	f8bd 300e 	ldrh.w	r3, [sp, #14]
 80a1c4e:	4418      	add	r0, r3
    }

    writeReg16Bit(FINAL_RANGE_CONFIG_TIMEOUT_MACROP_HI,
 80a1c50:	f7ff ff13 	bl	80a1a7a <_ZN7VL53L0X13encodeTimeoutEm>
      encodeTimeout(final_range_timeout_mclks));
 80a1c54:	2171      	movs	r1, #113	; 0x71
 80a1c56:	4602      	mov	r2, r0
 80a1c58:	4630      	mov	r0, r6
 80a1c5a:	f7ff fcf2 	bl	80a1642 <_ZN7VL53L0X13writeReg16BitEht>

    // set_sequence_step_timeout() end

    measurement_timing_budget_us = budget_us; // store for internal reuse
 80a1c5e:	6175      	str	r5, [r6, #20]
 80a1c60:	e002      	b.n	80a1c68 <_ZN7VL53L0X26setMeasurementTimingBudgetEm+0x98>
  }
  return true;
 80a1c62:	2401      	movs	r4, #1
 80a1c64:	e000      	b.n	80a1c68 <_ZN7VL53L0X26setMeasurementTimingBudgetEm+0x98>
  uint16_t const PreRangeOverhead   = 660;
  uint16_t const FinalRangeOverhead = 550;

  uint32_t const MinTimingBudget = 20000;

  if (budget_us < MinTimingBudget) { return false; }
 80a1c66:	2400      	movs	r4, #0
    // set_sequence_step_timeout() end

    measurement_timing_budget_us = budget_us; // store for internal reuse
  }
  return true;
}
 80a1c68:	4620      	mov	r0, r4
 80a1c6a:	b009      	add	sp, #36	; 0x24
 80a1c6c:	bdf0      	pop	{r4, r5, r6, r7, pc}

080a1c6e <_ZN7VL53L0X27performSingleRefCalibrationEh>:
}


// based on VL53L0X_perform_single_ref_calibration()
bool VL53L0X::performSingleRefCalibration(uint8_t vhv_init_byte)
{
 80a1c6e:	b538      	push	{r3, r4, r5, lr}
  writeReg(SYSRANGE_START, 0x01 | vhv_init_byte); // VL53L0X_REG_SYSRANGE_MODE_START_STOP
 80a1c70:	f041 0201 	orr.w	r2, r1, #1
 80a1c74:	2100      	movs	r1, #0
}


// based on VL53L0X_perform_single_ref_calibration()
bool VL53L0X::performSingleRefCalibration(uint8_t vhv_init_byte)
{
 80a1c76:	4604      	mov	r4, r0
  writeReg(SYSRANGE_START, 0x01 | vhv_init_byte); // VL53L0X_REG_SYSRANGE_MODE_START_STOP
 80a1c78:	f7ff fcbe 	bl	80a15f8 <_ZN7VL53L0X8writeRegEhh>
 80a1c7c:	f001 fa68 	bl	80a3150 <HAL_Timer_Get_Milli_Seconds>

  startTimeout();
 80a1c80:	60e0      	str	r0, [r4, #12]
  while ((readReg(RESULT_INTERRUPT_STATUS) & 0x07) == 0)
 80a1c82:	2113      	movs	r1, #19
 80a1c84:	4620      	mov	r0, r4
 80a1c86:	f7ff fd26 	bl	80a16d6 <_ZN7VL53L0X7readRegEh>
 80a1c8a:	f010 0507 	ands.w	r5, r0, #7
 80a1c8e:	d10b      	bne.n	80a1ca8 <_ZN7VL53L0X27performSingleRefCalibrationEh+0x3a>
  {
    if (checkTimeoutExpired()) { return false; }
 80a1c90:	6863      	ldr	r3, [r4, #4]
 80a1c92:	2b00      	cmp	r3, #0
 80a1c94:	d0f5      	beq.n	80a1c82 <_ZN7VL53L0X27performSingleRefCalibrationEh+0x14>
 80a1c96:	f001 fa5b 	bl	80a3150 <HAL_Timer_Get_Milli_Seconds>
 80a1c9a:	68e3      	ldr	r3, [r4, #12]
 80a1c9c:	1ac0      	subs	r0, r0, r3
 80a1c9e:	6863      	ldr	r3, [r4, #4]
 80a1ca0:	4298      	cmp	r0, r3
 80a1ca2:	d9ee      	bls.n	80a1c82 <_ZN7VL53L0X27performSingleRefCalibrationEh+0x14>
 80a1ca4:	4628      	mov	r0, r5
  writeReg(SYSTEM_INTERRUPT_CLEAR, 0x01);

  writeReg(SYSRANGE_START, 0x00);

  return true;
}
 80a1ca6:	bd38      	pop	{r3, r4, r5, pc}
  while ((readReg(RESULT_INTERRUPT_STATUS) & 0x07) == 0)
  {
    if (checkTimeoutExpired()) { return false; }
  }

  writeReg(SYSTEM_INTERRUPT_CLEAR, 0x01);
 80a1ca8:	4620      	mov	r0, r4
 80a1caa:	2201      	movs	r2, #1
 80a1cac:	210b      	movs	r1, #11
 80a1cae:	f7ff fca3 	bl	80a15f8 <_ZN7VL53L0X8writeRegEhh>

  writeReg(SYSRANGE_START, 0x00);
 80a1cb2:	2200      	movs	r2, #0
 80a1cb4:	4620      	mov	r0, r4
 80a1cb6:	4611      	mov	r1, r2
 80a1cb8:	f7ff fc9e 	bl	80a15f8 <_ZN7VL53L0X8writeRegEhh>
 80a1cbc:	2001      	movs	r0, #1
 80a1cbe:	bd38      	pop	{r3, r4, r5, pc}

080a1cc0 <_ZN7VL53L0X4initEb>:
// is performed by ST on the bare modules; it seems like that should work well
// enough unless a cover glass is added.
// If io_2v8 (optional) is true or not given, the sensor is configured for 2V8
// mode.
bool VL53L0X::init(bool io_2v8)
{
 80a1cc0:	b5f0      	push	{r4, r5, r6, r7, lr}
 80a1cc2:	4604      	mov	r4, r0
 80a1cc4:	b085      	sub	sp, #20
  // VL53L0X_DataInit() begin

  // sensor uses 1V8 mode for I/O by default; switch to 2V8 mode if necessary
  if (io_2v8)
 80a1cc6:	b149      	cbz	r1, 80a1cdc <_ZN7VL53L0X4initEb+0x1c>
  {
    writeReg(VHV_CONFIG_PAD_SCL_SDA__EXTSUP_HV,
      readReg(VHV_CONFIG_PAD_SCL_SDA__EXTSUP_HV) | 0x01); // set bit 0
 80a1cc8:	2189      	movs	r1, #137	; 0x89
 80a1cca:	f7ff fd04 	bl	80a16d6 <_ZN7VL53L0X7readRegEh>
 80a1cce:	f040 0201 	orr.w	r2, r0, #1
 80a1cd2:	b2d2      	uxtb	r2, r2
 80a1cd4:	2189      	movs	r1, #137	; 0x89
 80a1cd6:	4620      	mov	r0, r4
 80a1cd8:	f7ff fc8e 	bl	80a15f8 <_ZN7VL53L0X8writeRegEhh>
  }

  // "Set I2C standard mode"
  writeReg(0x88, 0x00);
 80a1cdc:	2200      	movs	r2, #0
 80a1cde:	2188      	movs	r1, #136	; 0x88
 80a1ce0:	4620      	mov	r0, r4
 80a1ce2:	f7ff fc89 	bl	80a15f8 <_ZN7VL53L0X8writeRegEhh>

  writeReg(0x80, 0x01);
 80a1ce6:	2201      	movs	r2, #1
 80a1ce8:	2180      	movs	r1, #128	; 0x80
 80a1cea:	4620      	mov	r0, r4
 80a1cec:	f7ff fc84 	bl	80a15f8 <_ZN7VL53L0X8writeRegEhh>
  writeReg(0xFF, 0x01);
 80a1cf0:	2201      	movs	r2, #1
 80a1cf2:	21ff      	movs	r1, #255	; 0xff
 80a1cf4:	4620      	mov	r0, r4
 80a1cf6:	f7ff fc7f 	bl	80a15f8 <_ZN7VL53L0X8writeRegEhh>
  writeReg(0x00, 0x00);
 80a1cfa:	2200      	movs	r2, #0
 80a1cfc:	4611      	mov	r1, r2
 80a1cfe:	4620      	mov	r0, r4
 80a1d00:	f7ff fc7a 	bl	80a15f8 <_ZN7VL53L0X8writeRegEhh>
  stop_variable = readReg(0x91);
 80a1d04:	2191      	movs	r1, #145	; 0x91
 80a1d06:	4620      	mov	r0, r4
 80a1d08:	f7ff fce5 	bl	80a16d6 <_ZN7VL53L0X7readRegEh>
  writeReg(0x00, 0x01);
 80a1d0c:	2201      	movs	r2, #1
  writeReg(0x88, 0x00);

  writeReg(0x80, 0x01);
  writeReg(0xFF, 0x01);
  writeReg(0x00, 0x00);
  stop_variable = readReg(0x91);
 80a1d0e:	7420      	strb	r0, [r4, #16]
  writeReg(0x00, 0x01);
 80a1d10:	2100      	movs	r1, #0
 80a1d12:	4620      	mov	r0, r4
 80a1d14:	f7ff fc70 	bl	80a15f8 <_ZN7VL53L0X8writeRegEhh>
  writeReg(0xFF, 0x00);
 80a1d18:	2200      	movs	r2, #0
 80a1d1a:	21ff      	movs	r1, #255	; 0xff
 80a1d1c:	4620      	mov	r0, r4
 80a1d1e:	f7ff fc6b 	bl	80a15f8 <_ZN7VL53L0X8writeRegEhh>
  writeReg(0x80, 0x00);
 80a1d22:	2200      	movs	r2, #0
 80a1d24:	2180      	movs	r1, #128	; 0x80
 80a1d26:	4620      	mov	r0, r4
 80a1d28:	f7ff fc66 	bl	80a15f8 <_ZN7VL53L0X8writeRegEhh>

  // disable SIGNAL_RATE_MSRC (bit 1) and SIGNAL_RATE_PRE_RANGE (bit 4) limit checks
  writeReg(MSRC_CONFIG_CONTROL, readReg(MSRC_CONFIG_CONTROL) | 0x12);
 80a1d2c:	2160      	movs	r1, #96	; 0x60
 80a1d2e:	4620      	mov	r0, r4
 80a1d30:	f7ff fcd1 	bl	80a16d6 <_ZN7VL53L0X7readRegEh>
 80a1d34:	f040 0212 	orr.w	r2, r0, #18
 80a1d38:	b2d2      	uxtb	r2, r2
 80a1d3a:	2160      	movs	r1, #96	; 0x60
 80a1d3c:	4620      	mov	r0, r4
 80a1d3e:	f7ff fc5b 	bl	80a15f8 <_ZN7VL53L0X8writeRegEhh>

  // set final range signal rate limit to 0.25 MCPS (million counts per second)
  setSignalRateLimit(0.25);
 80a1d42:	f04f 517a 	mov.w	r1, #1048576000	; 0x3e800000
 80a1d46:	4620      	mov	r0, r4
 80a1d48:	f7ff fd56 	bl	80a17f8 <_ZN7VL53L0X18setSignalRateLimitEf>

  writeReg(SYSTEM_SEQUENCE_CONFIG, 0xFF);
 80a1d4c:	22ff      	movs	r2, #255	; 0xff
 80a1d4e:	2101      	movs	r1, #1
 80a1d50:	4620      	mov	r0, r4
 80a1d52:	f7ff fc51 	bl	80a15f8 <_ZN7VL53L0X8writeRegEhh>

  // VL53L0X_StaticInit() begin

  uint8_t spad_count;
  bool spad_type_is_aperture;
  if (!getSpadInfo(&spad_count, &spad_type_is_aperture)) { return false; }
 80a1d56:	f10d 0207 	add.w	r2, sp, #7
 80a1d5a:	f10d 0106 	add.w	r1, sp, #6
 80a1d5e:	4620      	mov	r0, r4
 80a1d60:	f7ff fde2 	bl	80a1928 <_ZN7VL53L0X11getSpadInfoEPhPb>
 80a1d64:	b908      	cbnz	r0, 80a1d6a <_ZN7VL53L0X4initEb+0xaa>
 80a1d66:	2500      	movs	r5, #0
 80a1d68:	e21d      	b.n	80a21a6 <_ZN7VL53L0X4initEb+0x4e6>

  // The SPAD map (RefGoodSpadMap) is read by VL53L0X_get_info_from_device() in
  // the API, but the same data seems to be more easily readable from
  // GLOBAL_CONFIG_SPAD_ENABLES_REF_0 through _6, so read it from there
  uint8_t ref_spad_map[6];
  readMulti(GLOBAL_CONFIG_SPAD_ENABLES_REF_0, ref_spad_map, 6);
 80a1d6a:	2306      	movs	r3, #6
 80a1d6c:	aa02      	add	r2, sp, #8
 80a1d6e:	21b0      	movs	r1, #176	; 0xb0
 80a1d70:	4620      	mov	r0, r4
 80a1d72:	f7ff fd19 	bl	80a17a8 <_ZN7VL53L0X9readMultiEhPhh>

  // -- VL53L0X_set_reference_spads() begin (assume NVM values are valid)

  writeReg(0xFF, 0x01);
 80a1d76:	2201      	movs	r2, #1
 80a1d78:	21ff      	movs	r1, #255	; 0xff
 80a1d7a:	4620      	mov	r0, r4
 80a1d7c:	f7ff fc3c 	bl	80a15f8 <_ZN7VL53L0X8writeRegEhh>
  writeReg(DYNAMIC_SPAD_REF_EN_START_OFFSET, 0x00);
 80a1d80:	2200      	movs	r2, #0
 80a1d82:	214f      	movs	r1, #79	; 0x4f
 80a1d84:	4620      	mov	r0, r4
 80a1d86:	f7ff fc37 	bl	80a15f8 <_ZN7VL53L0X8writeRegEhh>
  writeReg(DYNAMIC_SPAD_NUM_REQUESTED_REF_SPAD, 0x2C);
 80a1d8a:	222c      	movs	r2, #44	; 0x2c
 80a1d8c:	214e      	movs	r1, #78	; 0x4e
 80a1d8e:	4620      	mov	r0, r4
 80a1d90:	f7ff fc32 	bl	80a15f8 <_ZN7VL53L0X8writeRegEhh>
  writeReg(0xFF, 0x00);
 80a1d94:	2200      	movs	r2, #0
 80a1d96:	21ff      	movs	r1, #255	; 0xff
 80a1d98:	4620      	mov	r0, r4
 80a1d9a:	f7ff fc2d 	bl	80a15f8 <_ZN7VL53L0X8writeRegEhh>
  uint8_t first_spad_to_enable = spad_type_is_aperture ? 12 : 0; // 12 is the first aperture spad
  uint8_t spads_enabled = 0;

  for (uint8_t i = 0; i < 48; i++)
  {
    if (i < first_spad_to_enable || spads_enabled == spad_count)
 80a1d9e:	2500      	movs	r5, #0

  writeReg(0xFF, 0x01);
  writeReg(DYNAMIC_SPAD_REF_EN_START_OFFSET, 0x00);
  writeReg(DYNAMIC_SPAD_NUM_REQUESTED_REF_SPAD, 0x2C);
  writeReg(0xFF, 0x00);
  writeReg(GLOBAL_CONFIG_REF_EN_START_SELECT, 0xB4);
 80a1da0:	4620      	mov	r0, r4
 80a1da2:	21b6      	movs	r1, #182	; 0xb6
 80a1da4:	22b4      	movs	r2, #180	; 0xb4
 80a1da6:	f7ff fc27 	bl	80a15f8 <_ZN7VL53L0X8writeRegEhh>

  uint8_t first_spad_to_enable = spad_type_is_aperture ? 12 : 0; // 12 is the first aperture spad
  uint8_t spads_enabled = 0;
 80a1daa:	4629      	mov	r1, r5
  writeReg(DYNAMIC_SPAD_REF_EN_START_OFFSET, 0x00);
  writeReg(DYNAMIC_SPAD_NUM_REQUESTED_REF_SPAD, 0x2C);
  writeReg(0xFF, 0x00);
  writeReg(GLOBAL_CONFIG_REF_EN_START_SELECT, 0xB4);

  uint8_t first_spad_to_enable = spad_type_is_aperture ? 12 : 0; // 12 is the first aperture spad
 80a1dac:	f89d 3007 	ldrb.w	r3, [sp, #7]
  uint8_t spads_enabled = 0;

  for (uint8_t i = 0; i < 48; i++)
  {
    if (i < first_spad_to_enable || spads_enabled == spad_count)
 80a1db0:	f89d 6006 	ldrb.w	r6, [sp, #6]
  writeReg(DYNAMIC_SPAD_REF_EN_START_OFFSET, 0x00);
  writeReg(DYNAMIC_SPAD_NUM_REQUESTED_REF_SPAD, 0x2C);
  writeReg(0xFF, 0x00);
  writeReg(GLOBAL_CONFIG_REF_EN_START_SELECT, 0xB4);

  uint8_t first_spad_to_enable = spad_type_is_aperture ? 12 : 0; // 12 is the first aperture spad
 80a1db4:	2b00      	cmp	r3, #0
 80a1db6:	bf14      	ite	ne
 80a1db8:	200c      	movne	r0, #12
 80a1dba:	2000      	moveq	r0, #0
  {
    if (i < first_spad_to_enable || spads_enabled == spad_count)
    {
      // This bit is lower than the first one that should be enabled, or
      // (reference_spad_count) bits have already been enabled, so zero this bit
      ref_spad_map[i / 8] &= ~(1 << (i % 8));
 80a1dbc:	2701      	movs	r7, #1
 80a1dbe:	b2eb      	uxtb	r3, r5
 80a1dc0:	08da      	lsrs	r2, r3, #3
  uint8_t first_spad_to_enable = spad_type_is_aperture ? 12 : 0; // 12 is the first aperture spad
  uint8_t spads_enabled = 0;

  for (uint8_t i = 0; i < 48; i++)
  {
    if (i < first_spad_to_enable || spads_enabled == spad_count)
 80a1dc2:	4298      	cmp	r0, r3
    {
      // This bit is lower than the first one that should be enabled, or
      // (reference_spad_count) bits have already been enabled, so zero this bit
      ref_spad_map[i / 8] &= ~(1 << (i % 8));
 80a1dc4:	f10d 0e10 	add.w	lr, sp, #16
 80a1dc8:	f003 0307 	and.w	r3, r3, #7
 80a1dcc:	4472      	add	r2, lr
  uint8_t first_spad_to_enable = spad_type_is_aperture ? 12 : 0; // 12 is the first aperture spad
  uint8_t spads_enabled = 0;

  for (uint8_t i = 0; i < 48; i++)
  {
    if (i < first_spad_to_enable || spads_enabled == spad_count)
 80a1dce:	d801      	bhi.n	80a1dd4 <_ZN7VL53L0X4initEb+0x114>
 80a1dd0:	428e      	cmp	r6, r1
 80a1dd2:	d108      	bne.n	80a1de6 <_ZN7VL53L0X4initEb+0x126>
    {
      // This bit is lower than the first one that should be enabled, or
      // (reference_spad_count) bits have already been enabled, so zero this bit
      ref_spad_map[i / 8] &= ~(1 << (i % 8));
 80a1dd4:	f812 ec08 	ldrb.w	lr, [r2, #-8]
 80a1dd8:	fa07 f303 	lsl.w	r3, r7, r3
 80a1ddc:	ea2e 0303 	bic.w	r3, lr, r3
 80a1de0:	f802 3c08 	strb.w	r3, [r2, #-8]
 80a1de4:	e007      	b.n	80a1df6 <_ZN7VL53L0X4initEb+0x136>
    }
    else if ((ref_spad_map[i / 8] >> (i % 8)) & 0x1)
 80a1de6:	f812 2c08 	ldrb.w	r2, [r2, #-8]
 80a1dea:	fa42 f303 	asr.w	r3, r2, r3
 80a1dee:	07db      	lsls	r3, r3, #31
    {
      spads_enabled++;
 80a1df0:	bf44      	itt	mi
 80a1df2:	3101      	addmi	r1, #1
 80a1df4:	b2c9      	uxtbmi	r1, r1
 80a1df6:	3501      	adds	r5, #1
  writeReg(GLOBAL_CONFIG_REF_EN_START_SELECT, 0xB4);

  uint8_t first_spad_to_enable = spad_type_is_aperture ? 12 : 0; // 12 is the first aperture spad
  uint8_t spads_enabled = 0;

  for (uint8_t i = 0; i < 48; i++)
 80a1df8:	2d30      	cmp	r5, #48	; 0x30
 80a1dfa:	d1e0      	bne.n	80a1dbe <_ZN7VL53L0X4initEb+0xfe>
    {
      spads_enabled++;
    }
  }

  writeMulti(GLOBAL_CONFIG_SPAD_ENABLES_REF_0, ref_spad_map, 6);
 80a1dfc:	2306      	movs	r3, #6
 80a1dfe:	aa02      	add	r2, sp, #8
 80a1e00:	21b0      	movs	r1, #176	; 0xb0
 80a1e02:	4620      	mov	r0, r4
 80a1e04:	f7ff fcaf 	bl	80a1766 <_ZN7VL53L0X10writeMultiEhPKhh>
  // -- VL53L0X_set_reference_spads() end

  // -- VL53L0X_load_tuning_settings() begin
  // DefaultTuningSettings from vl53l0x_tuning.h

  writeReg(0xFF, 0x01);
 80a1e08:	2201      	movs	r2, #1
 80a1e0a:	21ff      	movs	r1, #255	; 0xff
 80a1e0c:	4620      	mov	r0, r4
 80a1e0e:	f7ff fbf3 	bl	80a15f8 <_ZN7VL53L0X8writeRegEhh>
  writeReg(0x00, 0x00);
 80a1e12:	2200      	movs	r2, #0
 80a1e14:	4611      	mov	r1, r2
 80a1e16:	4620      	mov	r0, r4
 80a1e18:	f7ff fbee 	bl	80a15f8 <_ZN7VL53L0X8writeRegEhh>

  writeReg(0xFF, 0x00);
 80a1e1c:	2200      	movs	r2, #0
 80a1e1e:	21ff      	movs	r1, #255	; 0xff
 80a1e20:	4620      	mov	r0, r4
 80a1e22:	f7ff fbe9 	bl	80a15f8 <_ZN7VL53L0X8writeRegEhh>
  writeReg(0x09, 0x00);
 80a1e26:	2200      	movs	r2, #0
 80a1e28:	2109      	movs	r1, #9
 80a1e2a:	4620      	mov	r0, r4
 80a1e2c:	f7ff fbe4 	bl	80a15f8 <_ZN7VL53L0X8writeRegEhh>
  writeReg(0x10, 0x00);
 80a1e30:	2200      	movs	r2, #0
 80a1e32:	2110      	movs	r1, #16
 80a1e34:	4620      	mov	r0, r4
 80a1e36:	f7ff fbdf 	bl	80a15f8 <_ZN7VL53L0X8writeRegEhh>
  writeReg(0x11, 0x00);
 80a1e3a:	2200      	movs	r2, #0
 80a1e3c:	2111      	movs	r1, #17
 80a1e3e:	4620      	mov	r0, r4
 80a1e40:	f7ff fbda 	bl	80a15f8 <_ZN7VL53L0X8writeRegEhh>

  writeReg(0x24, 0x01);
 80a1e44:	2201      	movs	r2, #1
 80a1e46:	2124      	movs	r1, #36	; 0x24
 80a1e48:	4620      	mov	r0, r4
 80a1e4a:	f7ff fbd5 	bl	80a15f8 <_ZN7VL53L0X8writeRegEhh>
  writeReg(0x25, 0xFF);
 80a1e4e:	22ff      	movs	r2, #255	; 0xff
 80a1e50:	2125      	movs	r1, #37	; 0x25
 80a1e52:	4620      	mov	r0, r4
 80a1e54:	f7ff fbd0 	bl	80a15f8 <_ZN7VL53L0X8writeRegEhh>
  writeReg(0x75, 0x00);
 80a1e58:	2200      	movs	r2, #0
 80a1e5a:	2175      	movs	r1, #117	; 0x75
 80a1e5c:	4620      	mov	r0, r4
 80a1e5e:	f7ff fbcb 	bl	80a15f8 <_ZN7VL53L0X8writeRegEhh>

  writeReg(0xFF, 0x01);
 80a1e62:	2201      	movs	r2, #1
 80a1e64:	21ff      	movs	r1, #255	; 0xff
 80a1e66:	4620      	mov	r0, r4
 80a1e68:	f7ff fbc6 	bl	80a15f8 <_ZN7VL53L0X8writeRegEhh>
  writeReg(0x4E, 0x2C);
 80a1e6c:	222c      	movs	r2, #44	; 0x2c
 80a1e6e:	214e      	movs	r1, #78	; 0x4e
 80a1e70:	4620      	mov	r0, r4
 80a1e72:	f7ff fbc1 	bl	80a15f8 <_ZN7VL53L0X8writeRegEhh>
  writeReg(0x48, 0x00);
 80a1e76:	2200      	movs	r2, #0
 80a1e78:	2148      	movs	r1, #72	; 0x48
 80a1e7a:	4620      	mov	r0, r4
 80a1e7c:	f7ff fbbc 	bl	80a15f8 <_ZN7VL53L0X8writeRegEhh>
  writeReg(0x30, 0x20);
 80a1e80:	2220      	movs	r2, #32
 80a1e82:	4629      	mov	r1, r5
 80a1e84:	4620      	mov	r0, r4
 80a1e86:	f7ff fbb7 	bl	80a15f8 <_ZN7VL53L0X8writeRegEhh>

  writeReg(0xFF, 0x00);
 80a1e8a:	2200      	movs	r2, #0
 80a1e8c:	21ff      	movs	r1, #255	; 0xff
 80a1e8e:	4620      	mov	r0, r4
 80a1e90:	f7ff fbb2 	bl	80a15f8 <_ZN7VL53L0X8writeRegEhh>
  writeReg(0x30, 0x09);
 80a1e94:	2209      	movs	r2, #9
 80a1e96:	4629      	mov	r1, r5
 80a1e98:	4620      	mov	r0, r4
 80a1e9a:	f7ff fbad 	bl	80a15f8 <_ZN7VL53L0X8writeRegEhh>
  writeReg(0x54, 0x00);
 80a1e9e:	2200      	movs	r2, #0
 80a1ea0:	2154      	movs	r1, #84	; 0x54
 80a1ea2:	4620      	mov	r0, r4
 80a1ea4:	f7ff fba8 	bl	80a15f8 <_ZN7VL53L0X8writeRegEhh>
  writeReg(0x31, 0x04);
 80a1ea8:	2204      	movs	r2, #4
 80a1eaa:	2131      	movs	r1, #49	; 0x31
 80a1eac:	4620      	mov	r0, r4
 80a1eae:	f7ff fba3 	bl	80a15f8 <_ZN7VL53L0X8writeRegEhh>
  writeReg(0x32, 0x03);
 80a1eb2:	2203      	movs	r2, #3
 80a1eb4:	2132      	movs	r1, #50	; 0x32
 80a1eb6:	4620      	mov	r0, r4
 80a1eb8:	f7ff fb9e 	bl	80a15f8 <_ZN7VL53L0X8writeRegEhh>
  writeReg(0x40, 0x83);
 80a1ebc:	2283      	movs	r2, #131	; 0x83
 80a1ebe:	2140      	movs	r1, #64	; 0x40
 80a1ec0:	4620      	mov	r0, r4
 80a1ec2:	f7ff fb99 	bl	80a15f8 <_ZN7VL53L0X8writeRegEhh>
  writeReg(0x46, 0x25);
 80a1ec6:	2225      	movs	r2, #37	; 0x25
 80a1ec8:	2146      	movs	r1, #70	; 0x46
 80a1eca:	4620      	mov	r0, r4
 80a1ecc:	f7ff fb94 	bl	80a15f8 <_ZN7VL53L0X8writeRegEhh>
  writeReg(0x60, 0x00);
 80a1ed0:	2200      	movs	r2, #0
 80a1ed2:	2160      	movs	r1, #96	; 0x60
 80a1ed4:	4620      	mov	r0, r4
 80a1ed6:	f7ff fb8f 	bl	80a15f8 <_ZN7VL53L0X8writeRegEhh>
  writeReg(0x27, 0x00);
 80a1eda:	2200      	movs	r2, #0
 80a1edc:	2127      	movs	r1, #39	; 0x27
 80a1ede:	4620      	mov	r0, r4
 80a1ee0:	f7ff fb8a 	bl	80a15f8 <_ZN7VL53L0X8writeRegEhh>
  writeReg(0x50, 0x06);
 80a1ee4:	2206      	movs	r2, #6
 80a1ee6:	2150      	movs	r1, #80	; 0x50
 80a1ee8:	4620      	mov	r0, r4
 80a1eea:	f7ff fb85 	bl	80a15f8 <_ZN7VL53L0X8writeRegEhh>
  writeReg(0x51, 0x00);
 80a1eee:	2200      	movs	r2, #0
 80a1ef0:	2151      	movs	r1, #81	; 0x51
 80a1ef2:	4620      	mov	r0, r4
 80a1ef4:	f7ff fb80 	bl	80a15f8 <_ZN7VL53L0X8writeRegEhh>
  writeReg(0x52, 0x96);
 80a1ef8:	2296      	movs	r2, #150	; 0x96
 80a1efa:	2152      	movs	r1, #82	; 0x52
 80a1efc:	4620      	mov	r0, r4
 80a1efe:	f7ff fb7b 	bl	80a15f8 <_ZN7VL53L0X8writeRegEhh>
  writeReg(0x56, 0x08);
 80a1f02:	2208      	movs	r2, #8
 80a1f04:	2156      	movs	r1, #86	; 0x56
 80a1f06:	4620      	mov	r0, r4
 80a1f08:	f7ff fb76 	bl	80a15f8 <_ZN7VL53L0X8writeRegEhh>
  writeReg(0x57, 0x30);
 80a1f0c:	462a      	mov	r2, r5
 80a1f0e:	2157      	movs	r1, #87	; 0x57
 80a1f10:	4620      	mov	r0, r4
 80a1f12:	f7ff fb71 	bl	80a15f8 <_ZN7VL53L0X8writeRegEhh>
  writeReg(0x61, 0x00);
 80a1f16:	2200      	movs	r2, #0
 80a1f18:	2161      	movs	r1, #97	; 0x61
 80a1f1a:	4620      	mov	r0, r4
 80a1f1c:	f7ff fb6c 	bl	80a15f8 <_ZN7VL53L0X8writeRegEhh>
  writeReg(0x62, 0x00);
 80a1f20:	2200      	movs	r2, #0
 80a1f22:	2162      	movs	r1, #98	; 0x62
 80a1f24:	4620      	mov	r0, r4
 80a1f26:	f7ff fb67 	bl	80a15f8 <_ZN7VL53L0X8writeRegEhh>
  writeReg(0x64, 0x00);
 80a1f2a:	2200      	movs	r2, #0
 80a1f2c:	2164      	movs	r1, #100	; 0x64
 80a1f2e:	4620      	mov	r0, r4
 80a1f30:	f7ff fb62 	bl	80a15f8 <_ZN7VL53L0X8writeRegEhh>
  writeReg(0x65, 0x00);
 80a1f34:	2200      	movs	r2, #0
 80a1f36:	2165      	movs	r1, #101	; 0x65
 80a1f38:	4620      	mov	r0, r4
 80a1f3a:	f7ff fb5d 	bl	80a15f8 <_ZN7VL53L0X8writeRegEhh>
  writeReg(0x66, 0xA0);
 80a1f3e:	22a0      	movs	r2, #160	; 0xa0
 80a1f40:	2166      	movs	r1, #102	; 0x66
 80a1f42:	4620      	mov	r0, r4
 80a1f44:	f7ff fb58 	bl	80a15f8 <_ZN7VL53L0X8writeRegEhh>

  writeReg(0xFF, 0x01);
 80a1f48:	2201      	movs	r2, #1
 80a1f4a:	21ff      	movs	r1, #255	; 0xff
 80a1f4c:	4620      	mov	r0, r4
 80a1f4e:	f7ff fb53 	bl	80a15f8 <_ZN7VL53L0X8writeRegEhh>
  writeReg(0x22, 0x32);
 80a1f52:	2232      	movs	r2, #50	; 0x32
 80a1f54:	2122      	movs	r1, #34	; 0x22
 80a1f56:	4620      	mov	r0, r4
 80a1f58:	f7ff fb4e 	bl	80a15f8 <_ZN7VL53L0X8writeRegEhh>
  writeReg(0x47, 0x14);
 80a1f5c:	2214      	movs	r2, #20
 80a1f5e:	2147      	movs	r1, #71	; 0x47
 80a1f60:	4620      	mov	r0, r4
 80a1f62:	f7ff fb49 	bl	80a15f8 <_ZN7VL53L0X8writeRegEhh>
  writeReg(0x49, 0xFF);
 80a1f66:	22ff      	movs	r2, #255	; 0xff
 80a1f68:	2149      	movs	r1, #73	; 0x49
 80a1f6a:	4620      	mov	r0, r4
 80a1f6c:	f7ff fb44 	bl	80a15f8 <_ZN7VL53L0X8writeRegEhh>
  writeReg(0x4A, 0x00);
 80a1f70:	2200      	movs	r2, #0
 80a1f72:	214a      	movs	r1, #74	; 0x4a
 80a1f74:	4620      	mov	r0, r4
 80a1f76:	f7ff fb3f 	bl	80a15f8 <_ZN7VL53L0X8writeRegEhh>

  writeReg(0xFF, 0x00);
 80a1f7a:	2200      	movs	r2, #0
 80a1f7c:	21ff      	movs	r1, #255	; 0xff
 80a1f7e:	4620      	mov	r0, r4
 80a1f80:	f7ff fb3a 	bl	80a15f8 <_ZN7VL53L0X8writeRegEhh>
  writeReg(0x7A, 0x0A);
 80a1f84:	220a      	movs	r2, #10
 80a1f86:	217a      	movs	r1, #122	; 0x7a
 80a1f88:	4620      	mov	r0, r4
 80a1f8a:	f7ff fb35 	bl	80a15f8 <_ZN7VL53L0X8writeRegEhh>
  writeReg(0x7B, 0x00);
 80a1f8e:	2200      	movs	r2, #0
 80a1f90:	217b      	movs	r1, #123	; 0x7b
 80a1f92:	4620      	mov	r0, r4
 80a1f94:	f7ff fb30 	bl	80a15f8 <_ZN7VL53L0X8writeRegEhh>
  writeReg(0x78, 0x21);
 80a1f98:	2221      	movs	r2, #33	; 0x21
 80a1f9a:	2178      	movs	r1, #120	; 0x78
 80a1f9c:	4620      	mov	r0, r4
 80a1f9e:	f7ff fb2b 	bl	80a15f8 <_ZN7VL53L0X8writeRegEhh>

  writeReg(0xFF, 0x01);
 80a1fa2:	2201      	movs	r2, #1
 80a1fa4:	21ff      	movs	r1, #255	; 0xff
 80a1fa6:	4620      	mov	r0, r4
 80a1fa8:	f7ff fb26 	bl	80a15f8 <_ZN7VL53L0X8writeRegEhh>
  writeReg(0x23, 0x34);
 80a1fac:	2234      	movs	r2, #52	; 0x34
 80a1fae:	2123      	movs	r1, #35	; 0x23
 80a1fb0:	4620      	mov	r0, r4
 80a1fb2:	f7ff fb21 	bl	80a15f8 <_ZN7VL53L0X8writeRegEhh>
  writeReg(0x42, 0x00);
 80a1fb6:	2200      	movs	r2, #0
 80a1fb8:	2142      	movs	r1, #66	; 0x42
 80a1fba:	4620      	mov	r0, r4
 80a1fbc:	f7ff fb1c 	bl	80a15f8 <_ZN7VL53L0X8writeRegEhh>
  writeReg(0x44, 0xFF);
 80a1fc0:	22ff      	movs	r2, #255	; 0xff
 80a1fc2:	2144      	movs	r1, #68	; 0x44
 80a1fc4:	4620      	mov	r0, r4
 80a1fc6:	f7ff fb17 	bl	80a15f8 <_ZN7VL53L0X8writeRegEhh>
  writeReg(0x45, 0x26);
 80a1fca:	2226      	movs	r2, #38	; 0x26
 80a1fcc:	2145      	movs	r1, #69	; 0x45
 80a1fce:	4620      	mov	r0, r4
 80a1fd0:	f7ff fb12 	bl	80a15f8 <_ZN7VL53L0X8writeRegEhh>
  writeReg(0x46, 0x05);
 80a1fd4:	2205      	movs	r2, #5
 80a1fd6:	2146      	movs	r1, #70	; 0x46
 80a1fd8:	4620      	mov	r0, r4
 80a1fda:	f7ff fb0d 	bl	80a15f8 <_ZN7VL53L0X8writeRegEhh>
  writeReg(0x40, 0x40);
 80a1fde:	2240      	movs	r2, #64	; 0x40
 80a1fe0:	4611      	mov	r1, r2
 80a1fe2:	4620      	mov	r0, r4
 80a1fe4:	f7ff fb08 	bl	80a15f8 <_ZN7VL53L0X8writeRegEhh>
  writeReg(0x0E, 0x06);
 80a1fe8:	2206      	movs	r2, #6
 80a1fea:	210e      	movs	r1, #14
 80a1fec:	4620      	mov	r0, r4
 80a1fee:	f7ff fb03 	bl	80a15f8 <_ZN7VL53L0X8writeRegEhh>
  writeReg(0x20, 0x1A);
 80a1ff2:	221a      	movs	r2, #26
 80a1ff4:	2120      	movs	r1, #32
 80a1ff6:	4620      	mov	r0, r4
 80a1ff8:	f7ff fafe 	bl	80a15f8 <_ZN7VL53L0X8writeRegEhh>
  writeReg(0x43, 0x40);
 80a1ffc:	2240      	movs	r2, #64	; 0x40
 80a1ffe:	2143      	movs	r1, #67	; 0x43
 80a2000:	4620      	mov	r0, r4
 80a2002:	f7ff faf9 	bl	80a15f8 <_ZN7VL53L0X8writeRegEhh>

  writeReg(0xFF, 0x00);
 80a2006:	2200      	movs	r2, #0
 80a2008:	21ff      	movs	r1, #255	; 0xff
 80a200a:	4620      	mov	r0, r4
 80a200c:	f7ff faf4 	bl	80a15f8 <_ZN7VL53L0X8writeRegEhh>
  writeReg(0x34, 0x03);
 80a2010:	2203      	movs	r2, #3
 80a2012:	2134      	movs	r1, #52	; 0x34
 80a2014:	4620      	mov	r0, r4
 80a2016:	f7ff faef 	bl	80a15f8 <_ZN7VL53L0X8writeRegEhh>
  writeReg(0x35, 0x44);
 80a201a:	2244      	movs	r2, #68	; 0x44
 80a201c:	2135      	movs	r1, #53	; 0x35
 80a201e:	4620      	mov	r0, r4
 80a2020:	f7ff faea 	bl	80a15f8 <_ZN7VL53L0X8writeRegEhh>

  writeReg(0xFF, 0x01);
 80a2024:	2201      	movs	r2, #1
 80a2026:	21ff      	movs	r1, #255	; 0xff
 80a2028:	4620      	mov	r0, r4
 80a202a:	f7ff fae5 	bl	80a15f8 <_ZN7VL53L0X8writeRegEhh>
  writeReg(0x31, 0x04);
 80a202e:	2204      	movs	r2, #4
 80a2030:	2131      	movs	r1, #49	; 0x31
 80a2032:	4620      	mov	r0, r4
 80a2034:	f7ff fae0 	bl	80a15f8 <_ZN7VL53L0X8writeRegEhh>
  writeReg(0x4B, 0x09);
 80a2038:	2209      	movs	r2, #9
 80a203a:	214b      	movs	r1, #75	; 0x4b
 80a203c:	4620      	mov	r0, r4
 80a203e:	f7ff fadb 	bl	80a15f8 <_ZN7VL53L0X8writeRegEhh>
  writeReg(0x4C, 0x05);
 80a2042:	2205      	movs	r2, #5
 80a2044:	214c      	movs	r1, #76	; 0x4c
 80a2046:	4620      	mov	r0, r4
 80a2048:	f7ff fad6 	bl	80a15f8 <_ZN7VL53L0X8writeRegEhh>
  writeReg(0x4D, 0x04);
 80a204c:	2204      	movs	r2, #4
 80a204e:	214d      	movs	r1, #77	; 0x4d
 80a2050:	4620      	mov	r0, r4
 80a2052:	f7ff fad1 	bl	80a15f8 <_ZN7VL53L0X8writeRegEhh>

  writeReg(0xFF, 0x00);
 80a2056:	2200      	movs	r2, #0
 80a2058:	21ff      	movs	r1, #255	; 0xff
 80a205a:	4620      	mov	r0, r4
 80a205c:	f7ff facc 	bl	80a15f8 <_ZN7VL53L0X8writeRegEhh>
  writeReg(0x44, 0x00);
 80a2060:	2200      	movs	r2, #0
 80a2062:	2144      	movs	r1, #68	; 0x44
 80a2064:	4620      	mov	r0, r4
 80a2066:	f7ff fac7 	bl	80a15f8 <_ZN7VL53L0X8writeRegEhh>
  writeReg(0x45, 0x20);
 80a206a:	2220      	movs	r2, #32
 80a206c:	2145      	movs	r1, #69	; 0x45
 80a206e:	4620      	mov	r0, r4
 80a2070:	f7ff fac2 	bl	80a15f8 <_ZN7VL53L0X8writeRegEhh>
  writeReg(0x47, 0x08);
 80a2074:	2208      	movs	r2, #8
 80a2076:	2147      	movs	r1, #71	; 0x47
 80a2078:	4620      	mov	r0, r4
 80a207a:	f7ff fabd 	bl	80a15f8 <_ZN7VL53L0X8writeRegEhh>
  writeReg(0x48, 0x28);
 80a207e:	2228      	movs	r2, #40	; 0x28
 80a2080:	2148      	movs	r1, #72	; 0x48
 80a2082:	4620      	mov	r0, r4
 80a2084:	f7ff fab8 	bl	80a15f8 <_ZN7VL53L0X8writeRegEhh>
  writeReg(0x67, 0x00);
 80a2088:	2200      	movs	r2, #0
 80a208a:	2167      	movs	r1, #103	; 0x67
 80a208c:	4620      	mov	r0, r4
 80a208e:	f7ff fab3 	bl	80a15f8 <_ZN7VL53L0X8writeRegEhh>
  writeReg(0x70, 0x04);
 80a2092:	2204      	movs	r2, #4
 80a2094:	2170      	movs	r1, #112	; 0x70
 80a2096:	4620      	mov	r0, r4
 80a2098:	f7ff faae 	bl	80a15f8 <_ZN7VL53L0X8writeRegEhh>
  writeReg(0x71, 0x01);
 80a209c:	2201      	movs	r2, #1
 80a209e:	2171      	movs	r1, #113	; 0x71
 80a20a0:	4620      	mov	r0, r4
 80a20a2:	f7ff faa9 	bl	80a15f8 <_ZN7VL53L0X8writeRegEhh>
  writeReg(0x72, 0xFE);
 80a20a6:	22fe      	movs	r2, #254	; 0xfe
 80a20a8:	2172      	movs	r1, #114	; 0x72
 80a20aa:	4620      	mov	r0, r4
 80a20ac:	f7ff faa4 	bl	80a15f8 <_ZN7VL53L0X8writeRegEhh>
  writeReg(0x76, 0x00);
 80a20b0:	2200      	movs	r2, #0
 80a20b2:	2176      	movs	r1, #118	; 0x76
 80a20b4:	4620      	mov	r0, r4
 80a20b6:	f7ff fa9f 	bl	80a15f8 <_ZN7VL53L0X8writeRegEhh>
  writeReg(0x77, 0x00);
 80a20ba:	2200      	movs	r2, #0
 80a20bc:	2177      	movs	r1, #119	; 0x77
 80a20be:	4620      	mov	r0, r4
 80a20c0:	f7ff fa9a 	bl	80a15f8 <_ZN7VL53L0X8writeRegEhh>

  writeReg(0xFF, 0x01);
 80a20c4:	2201      	movs	r2, #1
 80a20c6:	21ff      	movs	r1, #255	; 0xff
 80a20c8:	4620      	mov	r0, r4
 80a20ca:	f7ff fa95 	bl	80a15f8 <_ZN7VL53L0X8writeRegEhh>
  writeReg(0x0D, 0x01);
 80a20ce:	2201      	movs	r2, #1
 80a20d0:	210d      	movs	r1, #13
 80a20d2:	4620      	mov	r0, r4
 80a20d4:	f7ff fa90 	bl	80a15f8 <_ZN7VL53L0X8writeRegEhh>

  writeReg(0xFF, 0x00);
 80a20d8:	2200      	movs	r2, #0
 80a20da:	21ff      	movs	r1, #255	; 0xff
 80a20dc:	4620      	mov	r0, r4
 80a20de:	f7ff fa8b 	bl	80a15f8 <_ZN7VL53L0X8writeRegEhh>
  writeReg(0x80, 0x01);
 80a20e2:	2201      	movs	r2, #1
 80a20e4:	2180      	movs	r1, #128	; 0x80
 80a20e6:	4620      	mov	r0, r4
 80a20e8:	f7ff fa86 	bl	80a15f8 <_ZN7VL53L0X8writeRegEhh>
  writeReg(0x01, 0xF8);
 80a20ec:	22f8      	movs	r2, #248	; 0xf8
 80a20ee:	2101      	movs	r1, #1
 80a20f0:	4620      	mov	r0, r4
 80a20f2:	f7ff fa81 	bl	80a15f8 <_ZN7VL53L0X8writeRegEhh>

  writeReg(0xFF, 0x01);
 80a20f6:	2201      	movs	r2, #1
 80a20f8:	21ff      	movs	r1, #255	; 0xff
 80a20fa:	4620      	mov	r0, r4
 80a20fc:	f7ff fa7c 	bl	80a15f8 <_ZN7VL53L0X8writeRegEhh>
  writeReg(0x8E, 0x01);
 80a2100:	2201      	movs	r2, #1
 80a2102:	218e      	movs	r1, #142	; 0x8e
 80a2104:	4620      	mov	r0, r4
 80a2106:	f7ff fa77 	bl	80a15f8 <_ZN7VL53L0X8writeRegEhh>
  writeReg(0x00, 0x01);
 80a210a:	2201      	movs	r2, #1
 80a210c:	2100      	movs	r1, #0
 80a210e:	4620      	mov	r0, r4
 80a2110:	f7ff fa72 	bl	80a15f8 <_ZN7VL53L0X8writeRegEhh>
  writeReg(0xFF, 0x00);
 80a2114:	2200      	movs	r2, #0
 80a2116:	21ff      	movs	r1, #255	; 0xff
 80a2118:	4620      	mov	r0, r4
 80a211a:	f7ff fa6d 	bl	80a15f8 <_ZN7VL53L0X8writeRegEhh>
  writeReg(0x80, 0x00);
 80a211e:	2200      	movs	r2, #0
 80a2120:	2180      	movs	r1, #128	; 0x80
 80a2122:	4620      	mov	r0, r4
 80a2124:	f7ff fa68 	bl	80a15f8 <_ZN7VL53L0X8writeRegEhh>
  // -- VL53L0X_load_tuning_settings() end

  // "Set interrupt config to new sample ready"
  // -- VL53L0X_SetGpioConfig() begin

  writeReg(SYSTEM_INTERRUPT_CONFIG_GPIO, 0x04);
 80a2128:	2204      	movs	r2, #4
 80a212a:	210a      	movs	r1, #10
 80a212c:	4620      	mov	r0, r4
 80a212e:	f7ff fa63 	bl	80a15f8 <_ZN7VL53L0X8writeRegEhh>
  writeReg(GPIO_HV_MUX_ACTIVE_HIGH, readReg(GPIO_HV_MUX_ACTIVE_HIGH) & ~0x10); // active low
 80a2132:	2184      	movs	r1, #132	; 0x84
 80a2134:	4620      	mov	r0, r4
 80a2136:	f7ff face 	bl	80a16d6 <_ZN7VL53L0X7readRegEh>
 80a213a:	2184      	movs	r1, #132	; 0x84
 80a213c:	f000 02ef 	and.w	r2, r0, #239	; 0xef
 80a2140:	4620      	mov	r0, r4
 80a2142:	f7ff fa59 	bl	80a15f8 <_ZN7VL53L0X8writeRegEhh>
  writeReg(SYSTEM_INTERRUPT_CLEAR, 0x01);
 80a2146:	2201      	movs	r2, #1
 80a2148:	210b      	movs	r1, #11
 80a214a:	4620      	mov	r0, r4
 80a214c:	f7ff fa54 	bl	80a15f8 <_ZN7VL53L0X8writeRegEhh>

  // -- VL53L0X_SetGpioConfig() end

  measurement_timing_budget_us = getMeasurementTimingBudget();
 80a2150:	4620      	mov	r0, r4
 80a2152:	f7ff fcf3 	bl	80a1b3c <_ZN7VL53L0X26getMeasurementTimingBudgetEv>
  // "Disable MSRC and TCC by default"
  // MSRC = Minimum Signal Rate Check
  // TCC = Target CentreCheck
  // -- VL53L0X_SetSequenceStepEnable() begin

  writeReg(SYSTEM_SEQUENCE_CONFIG, 0xE8);
 80a2156:	22e8      	movs	r2, #232	; 0xe8
  writeReg(GPIO_HV_MUX_ACTIVE_HIGH, readReg(GPIO_HV_MUX_ACTIVE_HIGH) & ~0x10); // active low
  writeReg(SYSTEM_INTERRUPT_CLEAR, 0x01);

  // -- VL53L0X_SetGpioConfig() end

  measurement_timing_budget_us = getMeasurementTimingBudget();
 80a2158:	6160      	str	r0, [r4, #20]
  // "Disable MSRC and TCC by default"
  // MSRC = Minimum Signal Rate Check
  // TCC = Target CentreCheck
  // -- VL53L0X_SetSequenceStepEnable() begin

  writeReg(SYSTEM_SEQUENCE_CONFIG, 0xE8);
 80a215a:	2101      	movs	r1, #1
 80a215c:	4620      	mov	r0, r4
 80a215e:	f7ff fa4b 	bl	80a15f8 <_ZN7VL53L0X8writeRegEhh>

  // -- VL53L0X_SetSequenceStepEnable() end

  // "Recalculate timing budget"
  setMeasurementTimingBudget(measurement_timing_budget_us);
 80a2162:	6961      	ldr	r1, [r4, #20]
 80a2164:	4620      	mov	r0, r4
 80a2166:	f7ff fd33 	bl	80a1bd0 <_ZN7VL53L0X26setMeasurementTimingBudgetEm>

  // VL53L0X_PerformRefCalibration() begin (VL53L0X_perform_ref_calibration())

  // -- VL53L0X_perform_vhv_calibration() begin

  writeReg(SYSTEM_SEQUENCE_CONFIG, 0x01);
 80a216a:	2201      	movs	r2, #1
 80a216c:	4611      	mov	r1, r2
 80a216e:	4620      	mov	r0, r4
 80a2170:	f7ff fa42 	bl	80a15f8 <_ZN7VL53L0X8writeRegEhh>
  if (!performSingleRefCalibration(0x40)) { return false; }
 80a2174:	2140      	movs	r1, #64	; 0x40
 80a2176:	4620      	mov	r0, r4
 80a2178:	f7ff fd79 	bl	80a1c6e <_ZN7VL53L0X27performSingleRefCalibrationEh>
 80a217c:	2800      	cmp	r0, #0
 80a217e:	f43f adf2 	beq.w	80a1d66 <_ZN7VL53L0X4initEb+0xa6>

  // -- VL53L0X_perform_vhv_calibration() end

  // -- VL53L0X_perform_phase_calibration() begin

  writeReg(SYSTEM_SEQUENCE_CONFIG, 0x02);
 80a2182:	2202      	movs	r2, #2
 80a2184:	2101      	movs	r1, #1
 80a2186:	4620      	mov	r0, r4
 80a2188:	f7ff fa36 	bl	80a15f8 <_ZN7VL53L0X8writeRegEhh>
  if (!performSingleRefCalibration(0x00)) { return false; }
 80a218c:	2100      	movs	r1, #0
 80a218e:	4620      	mov	r0, r4
 80a2190:	f7ff fd6d 	bl	80a1c6e <_ZN7VL53L0X27performSingleRefCalibrationEh>
 80a2194:	4605      	mov	r5, r0
 80a2196:	2800      	cmp	r0, #0
 80a2198:	f43f ade5 	beq.w	80a1d66 <_ZN7VL53L0X4initEb+0xa6>

  // -- VL53L0X_perform_phase_calibration() end

  // "restore the previous Sequence Config"
  writeReg(SYSTEM_SEQUENCE_CONFIG, 0xE8);
 80a219c:	22e8      	movs	r2, #232	; 0xe8
 80a219e:	2101      	movs	r1, #1
 80a21a0:	4620      	mov	r0, r4
 80a21a2:	f7ff fa29 	bl	80a15f8 <_ZN7VL53L0X8writeRegEhh>

  // VL53L0X_PerformRefCalibration() end

  return true;
}
 80a21a6:	4628      	mov	r0, r5
 80a21a8:	b005      	add	sp, #20
 80a21aa:	bdf0      	pop	{r4, r5, r6, r7, pc}

080a21ac <_GLOBAL__sub_I__ZN7VL53L0XC2Ev>:
 80a21ac:	f000 bf78 	b.w	80a30a0 <HAL_Pin_Map>

080a21b0 <_ZN9LIS3DHI2CD1Ev>:

}

LIS3DHI2C::~LIS3DHI2C() {

}
 80a21b0:	4770      	bx	lr

080a21b2 <_ZN9LIS3DHI2CD0Ev>:

LIS3DHI2C::LIS3DHI2C(TwoWire &wire, uint8_t sad0, int intPin) : LIS3DH(intPin), wire(wire), sad0(sad0) {

}

LIS3DHI2C::~LIS3DHI2C() {
 80a21b2:	b510      	push	{r4, lr}
 80a21b4:	4604      	mov	r4, r0

}
 80a21b6:	f7fd ff72 	bl	80a009e <_ZdlPv>
 80a21ba:	4620      	mov	r0, r4
 80a21bc:	bd10      	pop	{r4, pc}

080a21be <_ZN9LIS3DHI2C9writeDataEhPKhj>:
		buf[ii] = wire.read();
	}
	return true;
}

bool LIS3DHI2C::writeData(uint8_t addr, const uint8_t *buf, size_t numBytes) {
 80a21be:	b5f8      	push	{r3, r4, r5, r6, r7, lr}
 80a21c0:	4605      	mov	r5, r0
 80a21c2:	461e      	mov	r6, r3
 80a21c4:	460f      	mov	r7, r1

	wire.beginTransmission(getI2CAddr());
 80a21c6:	7c01      	ldrb	r1, [r0, #16]
 80a21c8:	68c0      	ldr	r0, [r0, #12]
 80a21ca:	f041 0118 	orr.w	r1, r1, #24
		buf[ii] = wire.read();
	}
	return true;
}

bool LIS3DHI2C::writeData(uint8_t addr, const uint8_t *buf, size_t numBytes) {
 80a21ce:	4614      	mov	r4, r2

	wire.beginTransmission(getI2CAddr());
 80a21d0:	f001 fd2b 	bl	80a3c2a <_ZN7TwoWire17beginTransmissionEh>

	if (numBytes > 1) {
		addr |= I2C_INCREMENT;
	}
	wire.write(addr);
 80a21d4:	68e8      	ldr	r0, [r5, #12]

bool LIS3DHI2C::writeData(uint8_t addr, const uint8_t *buf, size_t numBytes) {

	wire.beginTransmission(getI2CAddr());

	if (numBytes > 1) {
 80a21d6:	2e01      	cmp	r6, #1
		addr |= I2C_INCREMENT;
	}
	wire.write(addr);
 80a21d8:	6803      	ldr	r3, [r0, #0]
bool LIS3DHI2C::writeData(uint8_t addr, const uint8_t *buf, size_t numBytes) {

	wire.beginTransmission(getI2CAddr());

	if (numBytes > 1) {
		addr |= I2C_INCREMENT;
 80a21da:	bf88      	it	hi
 80a21dc:	f047 0780 	orrhi.w	r7, r7, #128	; 0x80
	}
	wire.write(addr);
 80a21e0:	689b      	ldr	r3, [r3, #8]
 80a21e2:	4639      	mov	r1, r7
 80a21e4:	4798      	blx	r3
 80a21e6:	4426      	add	r6, r4
	for(size_t ii = 0; ii < numBytes; ii++) {
 80a21e8:	42a6      	cmp	r6, r4
		wire.write(buf[ii]);
	}

	uint8_t res = wire.endTransmission();
 80a21ea:	68e8      	ldr	r0, [r5, #12]

	if (numBytes > 1) {
		addr |= I2C_INCREMENT;
	}
	wire.write(addr);
	for(size_t ii = 0; ii < numBytes; ii++) {
 80a21ec:	d005      	beq.n	80a21fa <_ZN9LIS3DHI2C9writeDataEhPKhj+0x3c>
		wire.write(buf[ii]);
 80a21ee:	6803      	ldr	r3, [r0, #0]
 80a21f0:	f814 1b01 	ldrb.w	r1, [r4], #1
 80a21f4:	689b      	ldr	r3, [r3, #8]
 80a21f6:	4798      	blx	r3

	if (numBytes > 1) {
		addr |= I2C_INCREMENT;
	}
	wire.write(addr);
	for(size_t ii = 0; ii < numBytes; ii++) {
 80a21f8:	e7f6      	b.n	80a21e8 <_ZN9LIS3DHI2C9writeDataEhPKhj+0x2a>
		wire.write(buf[ii]);
	}

	uint8_t res = wire.endTransmission();
 80a21fa:	f001 fd1e 	bl	80a3c3a <_ZN7TwoWire15endTransmissionEv>

	return (res == 0);
}
 80a21fe:	fab0 f080 	clz	r0, r0
 80a2202:	0940      	lsrs	r0, r0, #5
 80a2204:	bdf8      	pop	{r3, r4, r5, r6, r7, pc}

080a2206 <_ZN9LIS3DHI2C8readDataEhPhj>:

LIS3DHI2C::LIS3DHI2C(uint8_t sad0, int intPin) : LIS3DH(intPin), wire(Wire), sad0(sad0) {

}

bool LIS3DHI2C::readData(uint8_t addr, uint8_t *buf, size_t numBytes) {
 80a2206:	b5f8      	push	{r3, r4, r5, r6, r7, lr}
 80a2208:	4604      	mov	r4, r0
 80a220a:	461e      	mov	r6, r3
 80a220c:	460f      	mov	r7, r1
	wire.beginTransmission(getI2CAddr());
 80a220e:	7c01      	ldrb	r1, [r0, #16]
 80a2210:	68c0      	ldr	r0, [r0, #12]
 80a2212:	f041 0118 	orr.w	r1, r1, #24

LIS3DHI2C::LIS3DHI2C(uint8_t sad0, int intPin) : LIS3DH(intPin), wire(Wire), sad0(sad0) {

}

bool LIS3DHI2C::readData(uint8_t addr, uint8_t *buf, size_t numBytes) {
 80a2216:	4615      	mov	r5, r2
	wire.beginTransmission(getI2CAddr());
 80a2218:	f001 fd07 	bl	80a3c2a <_ZN7TwoWire17beginTransmissionEh>

	if (numBytes > 1) {
		addr |= I2C_INCREMENT;
	}
	wire.write(addr);
 80a221c:	68e0      	ldr	r0, [r4, #12]
}

bool LIS3DHI2C::readData(uint8_t addr, uint8_t *buf, size_t numBytes) {
	wire.beginTransmission(getI2CAddr());

	if (numBytes > 1) {
 80a221e:	2e01      	cmp	r6, #1
		addr |= I2C_INCREMENT;
	}
	wire.write(addr);
 80a2220:	6803      	ldr	r3, [r0, #0]

bool LIS3DHI2C::readData(uint8_t addr, uint8_t *buf, size_t numBytes) {
	wire.beginTransmission(getI2CAddr());

	if (numBytes > 1) {
		addr |= I2C_INCREMENT;
 80a2222:	bf88      	it	hi
 80a2224:	f047 0780 	orrhi.w	r7, r7, #128	; 0x80
	}
	wire.write(addr);
 80a2228:	689b      	ldr	r3, [r3, #8]
 80a222a:	4639      	mov	r1, r7
 80a222c:	4798      	blx	r3

	uint8_t res = wire.endTransmission();
 80a222e:	68e0      	ldr	r0, [r4, #12]
 80a2230:	f001 fd03 	bl	80a3c3a <_ZN7TwoWire15endTransmissionEv>
	if (res != 0) {
 80a2234:	b9a8      	cbnz	r0, 80a2262 <_ZN9LIS3DHI2C8readDataEhPhj+0x5c>
		return false;
	}

	wire.requestFrom((int)getI2CAddr(), numBytes);
 80a2236:	7c21      	ldrb	r1, [r4, #16]
 80a2238:	4632      	mov	r2, r6
 80a223a:	f041 0118 	orr.w	r1, r1, #24
 80a223e:	68e0      	ldr	r0, [r4, #12]
 80a2240:	f001 fcee 	bl	80a3c20 <_ZN7TwoWire11requestFromEii>
 80a2244:	442e      	add	r6, r5
	for(size_t ii = 0; ii < numBytes && wire.available(); ii++) {
 80a2246:	42ae      	cmp	r6, r5
 80a2248:	d00d      	beq.n	80a2266 <_ZN9LIS3DHI2C8readDataEhPhj+0x60>
 80a224a:	68e0      	ldr	r0, [r4, #12]
 80a224c:	6803      	ldr	r3, [r0, #0]
 80a224e:	691b      	ldr	r3, [r3, #16]
 80a2250:	4798      	blx	r3
 80a2252:	b140      	cbz	r0, 80a2266 <_ZN9LIS3DHI2C8readDataEhPhj+0x60>
		buf[ii] = wire.read();
 80a2254:	68e0      	ldr	r0, [r4, #12]
 80a2256:	6803      	ldr	r3, [r0, #0]
 80a2258:	695b      	ldr	r3, [r3, #20]
 80a225a:	4798      	blx	r3
 80a225c:	f805 0b01 	strb.w	r0, [r5], #1
 80a2260:	e7f1      	b.n	80a2246 <_ZN9LIS3DHI2C8readDataEhPhj+0x40>
	}
	wire.write(addr);

	uint8_t res = wire.endTransmission();
	if (res != 0) {
		return false;
 80a2262:	2000      	movs	r0, #0
 80a2264:	bdf8      	pop	{r3, r4, r5, r6, r7, pc}
 80a2266:	2001      	movs	r0, #1
	wire.requestFrom((int)getI2CAddr(), numBytes);
	for(size_t ii = 0; ii < numBytes && wire.available(); ii++) {
		buf[ii] = wire.read();
	}
	return true;
}
 80a2268:	bdf8      	pop	{r3, r4, r5, r6, r7, pc}
	...

080a226c <_ZN9LIS3DHI2CC1ER7TwoWirehi>:

//
//
//

LIS3DHI2C::LIS3DHI2C(TwoWire &wire, uint8_t sad0, int intPin) : LIS3DH(intPin), wire(wire), sad0(sad0) {
 80a226c:	b510      	push	{r4, lr}

	return *this;
}


LIS3DH::LIS3DH(int intPin) : intPin(intPin) {
 80a226e:	6043      	str	r3, [r0, #4]

//
//
//

LIS3DHI2C::LIS3DHI2C(TwoWire &wire, uint8_t sad0, int intPin) : LIS3DH(intPin), wire(wire), sad0(sad0) {
 80a2270:	4b02      	ldr	r3, [pc, #8]	; (80a227c <_ZN9LIS3DHI2CC1ER7TwoWirehi+0x10>)
 80a2272:	60c1      	str	r1, [r0, #12]
 80a2274:	6003      	str	r3, [r0, #0]
 80a2276:	7402      	strb	r2, [r0, #16]

}
 80a2278:	bd10      	pop	{r4, pc}
 80a227a:	bf00      	nop
 80a227c:	080a5084 	.word	0x080a5084

080a2280 <_GLOBAL__sub_I__ZN12LIS3DHConfigC2Ev>:
 80a2280:	f000 bf0e 	b.w	80a30a0 <HAL_Pin_Map>

080a2284 <_ZN9FuzzyRuleC1EiP19FuzzyRuleAntecedentP19FuzzyRuleConsequent>:
#include "FuzzyRule.h"

FuzzyRule::FuzzyRule(){
}

FuzzyRule::FuzzyRule(int index, FuzzyRuleAntecedent* fuzzyRuleAntecedent, FuzzyRuleConsequent* fuzzyRuleConsequent){
 80a2284:	b510      	push	{r4, lr}
    this->index = index;
    this->fuzzyRuleAntecedent = fuzzyRuleAntecedent;
    this->fuzzyRuleConsequent = fuzzyRuleConsequent;
 80a2286:	60c3      	str	r3, [r0, #12]
    this->fired = false;
 80a2288:	2300      	movs	r3, #0

FuzzyRule::FuzzyRule(){
}

FuzzyRule::FuzzyRule(int index, FuzzyRuleAntecedent* fuzzyRuleAntecedent, FuzzyRuleConsequent* fuzzyRuleConsequent){
    this->index = index;
 80a228a:	6001      	str	r1, [r0, #0]
    this->fuzzyRuleAntecedent = fuzzyRuleAntecedent;
 80a228c:	6082      	str	r2, [r0, #8]
    this->fuzzyRuleConsequent = fuzzyRuleConsequent;
    this->fired = false;
 80a228e:	7103      	strb	r3, [r0, #4]
}
 80a2290:	bd10      	pop	{r4, pc}

080a2292 <_ZN9FuzzyRule18evaluateExpressionEv>:

int FuzzyRule::getIndex(){
    return this->index;
}

bool FuzzyRule::evaluateExpression(){
 80a2292:	b538      	push	{r3, r4, r5, lr}
 80a2294:	4604      	mov	r4, r0
    if (this->fuzzyRuleAntecedent != NULL){
 80a2296:	6880      	ldr	r0, [r0, #8]
 80a2298:	b170      	cbz	r0, 80a22b8 <_ZN9FuzzyRule18evaluateExpressionEv+0x26>
        float powerOfAntecedent = this->fuzzyRuleAntecedent->evaluate();
 80a229a:	f000 fe29 	bl	80a2ef0 <_ZN19FuzzyRuleAntecedent8evaluateEv>

        (powerOfAntecedent > 0.0) ?    (this->fired = true) : (this->fired = false);
 80a229e:	2100      	movs	r1, #0
    return this->index;
}

bool FuzzyRule::evaluateExpression(){
    if (this->fuzzyRuleAntecedent != NULL){
        float powerOfAntecedent = this->fuzzyRuleAntecedent->evaluate();
 80a22a0:	4605      	mov	r5, r0

        (powerOfAntecedent > 0.0) ?    (this->fired = true) : (this->fired = false);
 80a22a2:	f002 fe5d 	bl	80a4f60 <__aeabi_fcmpgt>
 80a22a6:	b110      	cbz	r0, 80a22ae <_ZN9FuzzyRule18evaluateExpressionEv+0x1c>
 80a22a8:	2301      	movs	r3, #1
 80a22aa:	7123      	strb	r3, [r4, #4]
 80a22ac:	e000      	b.n	80a22b0 <_ZN9FuzzyRule18evaluateExpressionEv+0x1e>
 80a22ae:	7120      	strb	r0, [r4, #4]
        
        this->fuzzyRuleConsequent->evaluate(powerOfAntecedent);
 80a22b0:	4629      	mov	r1, r5
 80a22b2:	68e0      	ldr	r0, [r4, #12]
 80a22b4:	f000 fd57 	bl	80a2d66 <_ZN19FuzzyRuleConsequent8evaluateEf>
    }
    return this->fired;
}
 80a22b8:	7920      	ldrb	r0, [r4, #4]
 80a22ba:	bd38      	pop	{r3, r4, r5, pc}

080a22bc <_ZN16FuzzyCompositionC1Ev>:
#include "FuzzyComposition.h"
#include <math.h>

// CONSTRUTORES
FuzzyComposition::FuzzyComposition(){
    this->pointsCursor     = NULL;
 80a22bc:	2200      	movs	r2, #0
 80a22be:	6002      	str	r2, [r0, #0]
    this->points         = NULL;
 80a22c0:	6042      	str	r2, [r0, #4]
}
 80a22c2:	4770      	bx	lr

080a22c4 <_ZN16FuzzyComposition8addPointEff>:
// DESTRUTOR
FuzzyComposition::~FuzzyComposition(){
    this->cleanPoints(this->points);
}

bool FuzzyComposition::addPoint(float point, float pertinence){
 80a22c4:	b570      	push	{r4, r5, r6, lr}
 80a22c6:	4604      	mov	r4, r0
    pointsArray* aux;
    // Alocando espao na memria
    if((aux = (pointsArray* ) malloc(sizeof(pointsArray))) == NULL){
 80a22c8:	2010      	movs	r0, #16
// DESTRUTOR
FuzzyComposition::~FuzzyComposition(){
    this->cleanPoints(this->points);
}

bool FuzzyComposition::addPoint(float point, float pertinence){
 80a22ca:	460e      	mov	r6, r1
 80a22cc:	4615      	mov	r5, r2
    pointsArray* aux;
    // Alocando espao na memria
    if((aux = (pointsArray* ) malloc(sizeof(pointsArray))) == NULL){
 80a22ce:	f001 f891 	bl	80a33f4 <malloc>
 80a22d2:	2300      	movs	r3, #0
 80a22d4:	b170      	cbz	r0, 80a22f4 <_ZN16FuzzyComposition8addPointEff+0x30>
        return false;
    }
    aux->previous = NULL;
 80a22d6:	6003      	str	r3, [r0, #0]
    aux->point = point;
 80a22d8:	6046      	str	r6, [r0, #4]
    aux->pertinence = pertinence;
 80a22da:	6085      	str	r5, [r0, #8]
    aux->next = NULL;
 80a22dc:	60c3      	str	r3, [r0, #12]

    if(this->points == NULL){
 80a22de:	6863      	ldr	r3, [r4, #4]
 80a22e0:	b913      	cbnz	r3, 80a22e8 <_ZN16FuzzyComposition8addPointEff+0x24>
        this->points = aux;
 80a22e2:	6060      	str	r0, [r4, #4]
        this->pointsCursor  = aux;
 80a22e4:	6020      	str	r0, [r4, #0]
 80a22e6:	e004      	b.n	80a22f2 <_ZN16FuzzyComposition8addPointEff+0x2e>
    }else{
        aux->previous = this->pointsCursor;
 80a22e8:	6823      	ldr	r3, [r4, #0]
 80a22ea:	6003      	str	r3, [r0, #0]
        this->pointsCursor = aux;
 80a22ec:	6020      	str	r0, [r4, #0]
        aux->previous->next = this->pointsCursor;
 80a22ee:	6803      	ldr	r3, [r0, #0]
 80a22f0:	60d8      	str	r0, [r3, #12]
    }
    return true;
 80a22f2:	2001      	movs	r0, #1
}
 80a22f4:	bd70      	pop	{r4, r5, r6, pc}

080a22f6 <_ZN16FuzzyComposition10checkPointEff>:

bool FuzzyComposition::checkPoint(float point, float pertinence){
 80a22f6:	b570      	push	{r4, r5, r6, lr}
 80a22f8:	460d      	mov	r5, r1
 80a22fa:	4616      	mov	r6, r2
    pointsArray* aux;
    aux = this->pointsCursor;
 80a22fc:	6804      	ldr	r4, [r0, #0]
    while(aux != NULL){
 80a22fe:	b15c      	cbz	r4, 80a2318 <_ZN16FuzzyComposition10checkPointEff+0x22>
        if(aux->point == point && aux->pertinence == pertinence){
 80a2300:	4629      	mov	r1, r5
 80a2302:	6860      	ldr	r0, [r4, #4]
 80a2304:	f002 fe04 	bl	80a4f10 <__aeabi_fcmpeq>
 80a2308:	b120      	cbz	r0, 80a2314 <_ZN16FuzzyComposition10checkPointEff+0x1e>
 80a230a:	4631      	mov	r1, r6
 80a230c:	68a0      	ldr	r0, [r4, #8]
 80a230e:	f002 fdff 	bl	80a4f10 <__aeabi_fcmpeq>
 80a2312:	b918      	cbnz	r0, 80a231c <_ZN16FuzzyComposition10checkPointEff+0x26>
            return true;
        }
        aux = aux->previous;
 80a2314:	6824      	ldr	r4, [r4, #0]
}

bool FuzzyComposition::checkPoint(float point, float pertinence){
    pointsArray* aux;
    aux = this->pointsCursor;
    while(aux != NULL){
 80a2316:	e7f2      	b.n	80a22fe <_ZN16FuzzyComposition10checkPointEff+0x8>
        if(aux->point == point && aux->pertinence == pertinence){
            return true;
        }
        aux = aux->previous;
    }
    return false;
 80a2318:	4620      	mov	r0, r4
 80a231a:	bd70      	pop	{r4, r5, r6, pc}
bool FuzzyComposition::checkPoint(float point, float pertinence){
    pointsArray* aux;
    aux = this->pointsCursor;
    while(aux != NULL){
        if(aux->point == point && aux->pertinence == pertinence){
            return true;
 80a231c:	2001      	movs	r0, #1
        }
        aux = aux->previous;
    }
    return false;
}
 80a231e:	bd70      	pop	{r4, r5, r6, pc}

080a2320 <_ZN16FuzzyComposition8avaliateEv>:
        aux = aux->next;
    }
    return true;
}

float FuzzyComposition::avaliate(){
 80a2320:	e92d 4ff8 	stmdb	sp!, {r3, r4, r5, r6, r7, r8, r9, sl, fp, lr}
    pointsArray* aux;
    float numerator     = 0.0;
    float denominator   = 0.0;
 80a2324:	2700      	movs	r7, #0
    return true;
}

float FuzzyComposition::avaliate(){
    pointsArray* aux;
    float numerator     = 0.0;
 80a2326:	46ba      	mov	sl, r7
    float denominator   = 0.0;

    aux = this->points;
 80a2328:	6845      	ldr	r5, [r0, #4]
    while(aux != NULL){
 80a232a:	2d00      	cmp	r5, #0
 80a232c:	f000 80b1 	beq.w	80a2492 <_ZN16FuzzyComposition8avaliateEv+0x172>
        if(aux->next != NULL){
 80a2330:	68ee      	ldr	r6, [r5, #12]
 80a2332:	b90e      	cbnz	r6, 80a2338 <_ZN16FuzzyComposition8avaliateEv+0x18>
        aux = aux->next;
    }
    return true;
}

float FuzzyComposition::avaliate(){
 80a2334:	4635      	mov	r5, r6
 80a2336:	e7f8      	b.n	80a232a <_ZN16FuzzyComposition8avaliateEv+0xa>
    aux = this->points;
    while(aux != NULL){
        if(aux->next != NULL){
            float area = 0.0;
            float middle = 0.0;
            if(aux->point == aux->next->point){
 80a2338:	686c      	ldr	r4, [r5, #4]
 80a233a:	f8d6 8004 	ldr.w	r8, [r6, #4]
 80a233e:	4620      	mov	r0, r4
 80a2340:	4641      	mov	r1, r8
 80a2342:	f002 fde5 	bl	80a4f10 <__aeabi_fcmpeq>
 80a2346:	f8d5 b008 	ldr.w	fp, [r5, #8]
 80a234a:	b108      	cbz	r0, 80a2350 <_ZN16FuzzyComposition8avaliateEv+0x30>
                // Se Singleton
                area     = aux->pertinence;
 80a234c:	465d      	mov	r5, fp
 80a234e:	e091      	b.n	80a2474 <_ZN16FuzzyComposition8avaliateEv+0x154>
                middle   = aux->point;
            }else if(aux->pertinence == 0.0 || aux->next->pertinence == 0.0){
 80a2350:	2100      	movs	r1, #0
 80a2352:	4658      	mov	r0, fp
 80a2354:	f002 fddc 	bl	80a4f10 <__aeabi_fcmpeq>
 80a2358:	b930      	cbnz	r0, 80a2368 <_ZN16FuzzyComposition8avaliateEv+0x48>
 80a235a:	68b5      	ldr	r5, [r6, #8]
 80a235c:	2100      	movs	r1, #0
 80a235e:	4628      	mov	r0, r5
 80a2360:	f002 fdd6 	bl	80a4f10 <__aeabi_fcmpeq>
 80a2364:	2800      	cmp	r0, #0
 80a2366:	d036      	beq.n	80a23d6 <_ZN16FuzzyComposition8avaliateEv+0xb6>
                // Se triangulo
                float pertinence;
                if(aux->pertinence > 0.0){
 80a2368:	2100      	movs	r1, #0
 80a236a:	4658      	mov	r0, fp
 80a236c:	f002 fdf8 	bl	80a4f60 <__aeabi_fcmpgt>
 80a2370:	b908      	cbnz	r0, 80a2376 <_ZN16FuzzyComposition8avaliateEv+0x56>
                    pertinence = aux->pertinence;
                }else{
                    pertinence = aux->next->pertinence;
 80a2372:	68b5      	ldr	r5, [r6, #8]
 80a2374:	e000      	b.n	80a2378 <_ZN16FuzzyComposition8avaliateEv+0x58>
                middle   = aux->point;
            }else if(aux->pertinence == 0.0 || aux->next->pertinence == 0.0){
                // Se triangulo
                float pertinence;
                if(aux->pertinence > 0.0){
                    pertinence = aux->pertinence;
 80a2376:	465d      	mov	r5, fp
                }else{
                    pertinence = aux->next->pertinence;
                }
                area = ((aux->next->point - aux->point) * pertinence) / 2.0;
 80a2378:	4621      	mov	r1, r4
 80a237a:	4640      	mov	r0, r8
 80a237c:	f002 fb2a 	bl	80a49d4 <__aeabi_fsub>
 80a2380:	4601      	mov	r1, r0
 80a2382:	4680      	mov	r8, r0
 80a2384:	4628      	mov	r0, r5
 80a2386:	f002 fc2f 	bl	80a4be8 <__aeabi_fmul>
 80a238a:	f04f 517c 	mov.w	r1, #1056964608	; 0x3f000000
 80a238e:	f002 fc2b 	bl	80a4be8 <__aeabi_fmul>
                if(aux->pertinence < aux->next->pertinence){
 80a2392:	68b1      	ldr	r1, [r6, #8]
                if(aux->pertinence > 0.0){
                    pertinence = aux->pertinence;
                }else{
                    pertinence = aux->next->pertinence;
                }
                area = ((aux->next->point - aux->point) * pertinence) / 2.0;
 80a2394:	4605      	mov	r5, r0
                if(aux->pertinence < aux->next->pertinence){
 80a2396:	4658      	mov	r0, fp
 80a2398:	f002 fdc4 	bl	80a4f24 <__aeabi_fcmplt>
 80a239c:	b128      	cbz	r0, 80a23aa <_ZN16FuzzyComposition8avaliateEv+0x8a>
                    middle = ((aux->next->point - aux->point) / 1.5) + aux->point;
 80a239e:	4640      	mov	r0, r8
 80a23a0:	f001 ffd6 	bl	80a4350 <__aeabi_f2d>
 80a23a4:	2200      	movs	r2, #0
 80a23a6:	4b42      	ldr	r3, [pc, #264]	; (80a24b0 <_ZN16FuzzyComposition8avaliateEv+0x190>)
 80a23a8:	e004      	b.n	80a23b4 <_ZN16FuzzyComposition8avaliateEv+0x94>
                }else{
                    middle = ((aux->next->point - aux->point) / 3.0) + aux->point;
 80a23aa:	4640      	mov	r0, r8
 80a23ac:	f001 ffd0 	bl	80a4350 <__aeabi_f2d>
 80a23b0:	4b40      	ldr	r3, [pc, #256]	; (80a24b4 <_ZN16FuzzyComposition8avaliateEv+0x194>)
 80a23b2:	2200      	movs	r2, #0
 80a23b4:	f002 f94a 	bl	80a464c <__aeabi_ddiv>
 80a23b8:	4680      	mov	r8, r0
 80a23ba:	4620      	mov	r0, r4
 80a23bc:	4689      	mov	r9, r1
 80a23be:	f001 ffc7 	bl	80a4350 <__aeabi_f2d>
 80a23c2:	4602      	mov	r2, r0
 80a23c4:	460b      	mov	r3, r1
 80a23c6:	4640      	mov	r0, r8
 80a23c8:	4649      	mov	r1, r9
 80a23ca:	f001 fe63 	bl	80a4094 <__adddf3>
 80a23ce:	f002 faad 	bl	80a492c <__aeabi_d2f>
 80a23d2:	4604      	mov	r4, r0
 80a23d4:	e04e      	b.n	80a2474 <_ZN16FuzzyComposition8avaliateEv+0x154>
                }
            }else if((aux->pertinence > 0.0 && aux->next->pertinence > 0.0) && (aux->pertinence == aux->next->pertinence)){
 80a23d6:	2100      	movs	r1, #0
 80a23d8:	4658      	mov	r0, fp
 80a23da:	f002 fdc1 	bl	80a4f60 <__aeabi_fcmpgt>
 80a23de:	2100      	movs	r1, #0
 80a23e0:	b1c0      	cbz	r0, 80a2414 <_ZN16FuzzyComposition8avaliateEv+0xf4>
 80a23e2:	4628      	mov	r0, r5
 80a23e4:	f002 fdbc 	bl	80a4f60 <__aeabi_fcmpgt>
 80a23e8:	b1c0      	cbz	r0, 80a241c <_ZN16FuzzyComposition8avaliateEv+0xfc>
 80a23ea:	4629      	mov	r1, r5
 80a23ec:	4658      	mov	r0, fp
 80a23ee:	f002 fd8f 	bl	80a4f10 <__aeabi_fcmpeq>
 80a23f2:	b1e8      	cbz	r0, 80a2430 <_ZN16FuzzyComposition8avaliateEv+0x110>
                // Se quadrado
                area = (aux->next->point - aux->point) * aux->pertinence;
 80a23f4:	4621      	mov	r1, r4
 80a23f6:	4640      	mov	r0, r8
 80a23f8:	f002 faec 	bl	80a49d4 <__aeabi_fsub>
 80a23fc:	4601      	mov	r1, r0
 80a23fe:	4680      	mov	r8, r0
 80a2400:	4658      	mov	r0, fp
 80a2402:	f002 fbf1 	bl	80a4be8 <__aeabi_fmul>
 80a2406:	4605      	mov	r5, r0
                middle = ((aux->next->point - aux->point) / 2.0) + aux->point;
 80a2408:	4640      	mov	r0, r8
 80a240a:	f001 ffa1 	bl	80a4350 <__aeabi_f2d>
 80a240e:	2200      	movs	r2, #0
 80a2410:	4b29      	ldr	r3, [pc, #164]	; (80a24b8 <_ZN16FuzzyComposition8avaliateEv+0x198>)
 80a2412:	e02a      	b.n	80a246a <_ZN16FuzzyComposition8avaliateEv+0x14a>
            }else if((aux->pertinence > 0.0 && aux->next->pertinence > 0.0) && (aux->pertinence != aux->next->pertinence)){
 80a2414:	4658      	mov	r0, fp
 80a2416:	f002 fda3 	bl	80a4f60 <__aeabi_fcmpgt>
 80a241a:	b348      	cbz	r0, 80a2470 <_ZN16FuzzyComposition8avaliateEv+0x150>
 80a241c:	2100      	movs	r1, #0
 80a241e:	4628      	mov	r0, r5
 80a2420:	f002 fd9e 	bl	80a4f60 <__aeabi_fcmpgt>
 80a2424:	b320      	cbz	r0, 80a2470 <_ZN16FuzzyComposition8avaliateEv+0x150>
 80a2426:	4629      	mov	r1, r5
 80a2428:	4658      	mov	r0, fp
 80a242a:	f002 fd71 	bl	80a4f10 <__aeabi_fcmpeq>
 80a242e:	b9f8      	cbnz	r0, 80a2470 <_ZN16FuzzyComposition8avaliateEv+0x150>
                // Se trapezio
                area = ((aux->pertinence + aux->next->pertinence) / 2.0) * (aux->next->point - aux->point);
 80a2430:	4621      	mov	r1, r4
 80a2432:	4640      	mov	r0, r8
 80a2434:	f002 face 	bl	80a49d4 <__aeabi_fsub>
 80a2438:	f001 ff8a 	bl	80a4350 <__aeabi_f2d>
 80a243c:	4680      	mov	r8, r0
 80a243e:	4689      	mov	r9, r1
 80a2440:	4658      	mov	r0, fp
 80a2442:	4629      	mov	r1, r5
 80a2444:	f002 fac8 	bl	80a49d8 <__addsf3>
 80a2448:	f001 ff82 	bl	80a4350 <__aeabi_f2d>
 80a244c:	2200      	movs	r2, #0
 80a244e:	4b1a      	ldr	r3, [pc, #104]	; (80a24b8 <_ZN16FuzzyComposition8avaliateEv+0x198>)
 80a2450:	f001 ffd2 	bl	80a43f8 <__aeabi_dmul>
 80a2454:	4642      	mov	r2, r8
 80a2456:	464b      	mov	r3, r9
 80a2458:	f001 ffce 	bl	80a43f8 <__aeabi_dmul>
 80a245c:	f002 fa66 	bl	80a492c <__aeabi_d2f>
                middle = ((aux->next->point - aux->point) / 2.0) + aux->point;
 80a2460:	4649      	mov	r1, r9
                // Se quadrado
                area = (aux->next->point - aux->point) * aux->pertinence;
                middle = ((aux->next->point - aux->point) / 2.0) + aux->point;
            }else if((aux->pertinence > 0.0 && aux->next->pertinence > 0.0) && (aux->pertinence != aux->next->pertinence)){
                // Se trapezio
                area = ((aux->pertinence + aux->next->pertinence) / 2.0) * (aux->next->point - aux->point);
 80a2462:	4605      	mov	r5, r0
                middle = ((aux->next->point - aux->point) / 2.0) + aux->point;
 80a2464:	4640      	mov	r0, r8
 80a2466:	4b14      	ldr	r3, [pc, #80]	; (80a24b8 <_ZN16FuzzyComposition8avaliateEv+0x198>)
 80a2468:	2200      	movs	r2, #0
 80a246a:	f001 ffc5 	bl	80a43f8 <__aeabi_dmul>
 80a246e:	e7a3      	b.n	80a23b8 <_ZN16FuzzyComposition8avaliateEv+0x98>

    aux = this->points;
    while(aux != NULL){
        if(aux->next != NULL){
            float area = 0.0;
            float middle = 0.0;
 80a2470:	2400      	movs	r4, #0
    float denominator   = 0.0;

    aux = this->points;
    while(aux != NULL){
        if(aux->next != NULL){
            float area = 0.0;
 80a2472:	4625      	mov	r5, r4
            }else if((aux->pertinence > 0.0 && aux->next->pertinence > 0.0) && (aux->pertinence != aux->next->pertinence)){
                // Se trapezio
                area = ((aux->pertinence + aux->next->pertinence) / 2.0) * (aux->next->point - aux->point);
                middle = ((aux->next->point - aux->point) / 2.0) + aux->point;
            }
            numerator += middle * area;
 80a2474:	4621      	mov	r1, r4
 80a2476:	4628      	mov	r0, r5
 80a2478:	f002 fbb6 	bl	80a4be8 <__aeabi_fmul>
 80a247c:	4601      	mov	r1, r0
 80a247e:	4650      	mov	r0, sl
 80a2480:	f002 faaa 	bl	80a49d8 <__addsf3>
            denominator += area;
 80a2484:	4629      	mov	r1, r5
            }else if((aux->pertinence > 0.0 && aux->next->pertinence > 0.0) && (aux->pertinence != aux->next->pertinence)){
                // Se trapezio
                area = ((aux->pertinence + aux->next->pertinence) / 2.0) * (aux->next->point - aux->point);
                middle = ((aux->next->point - aux->point) / 2.0) + aux->point;
            }
            numerator += middle * area;
 80a2486:	4682      	mov	sl, r0
            denominator += area;
 80a2488:	4638      	mov	r0, r7
 80a248a:	f002 faa5 	bl	80a49d8 <__addsf3>
 80a248e:	4607      	mov	r7, r0
 80a2490:	e750      	b.n	80a2334 <_ZN16FuzzyComposition8avaliateEv+0x14>
        }
        aux = aux->next;
    }

    if(denominator == 0.0){
 80a2492:	2100      	movs	r1, #0
 80a2494:	4638      	mov	r0, r7
 80a2496:	f002 fd3b 	bl	80a4f10 <__aeabi_fcmpeq>
 80a249a:	b928      	cbnz	r0, 80a24a8 <_ZN16FuzzyComposition8avaliateEv+0x188>
        return 0.0;
    }else{
        return numerator / denominator;
 80a249c:	4639      	mov	r1, r7
 80a249e:	4650      	mov	r0, sl
 80a24a0:	f002 fc56 	bl	80a4d50 <__aeabi_fdiv>
 80a24a4:	e8bd 8ff8 	ldmia.w	sp!, {r3, r4, r5, r6, r7, r8, r9, sl, fp, pc}
        }
        aux = aux->next;
    }

    if(denominator == 0.0){
        return 0.0;
 80a24a8:	2000      	movs	r0, #0
    }else{
        return numerator / denominator;
    }
}
 80a24aa:	e8bd 8ff8 	ldmia.w	sp!, {r3, r4, r5, r6, r7, r8, r9, sl, fp, pc}
 80a24ae:	bf00      	nop
 80a24b0:	3ff80000 	.word	0x3ff80000
 80a24b4:	40080000 	.word	0x40080000
 80a24b8:	3fe00000 	.word	0x3fe00000

080a24bc <_ZN16FuzzyComposition11cleanPointsEP11pointsArray>:
    this->pointsCursor = NULL;
    return true;
}

// MTODOS PRIVADOS
void FuzzyComposition::cleanPoints(pointsArray* aux){
 80a24bc:	b510      	push	{r4, lr}
    if(aux != NULL){
 80a24be:	460c      	mov	r4, r1
 80a24c0:	b139      	cbz	r1, 80a24d2 <_ZN16FuzzyComposition11cleanPointsEP11pointsArray+0x16>
        // Esvaziando a memria alocada
        this->cleanPoints(aux->next);
 80a24c2:	68c9      	ldr	r1, [r1, #12]
 80a24c4:	f7ff fffa 	bl	80a24bc <_ZN16FuzzyComposition11cleanPointsEP11pointsArray>
        free(aux);
 80a24c8:	4620      	mov	r0, r4
    }
}
 80a24ca:	e8bd 4010 	ldmia.w	sp!, {r4, lr}
// MTODOS PRIVADOS
void FuzzyComposition::cleanPoints(pointsArray* aux){
    if(aux != NULL){
        // Esvaziando a memria alocada
        this->cleanPoints(aux->next);
        free(aux);
 80a24ce:	f000 bf99 	b.w	80a3404 <free>
 80a24d2:	bd10      	pop	{r4, pc}

080a24d4 <_ZN16FuzzyComposition5emptyEv>:
    }else{
        return numerator / denominator;
    }
}

bool FuzzyComposition::empty(){
 80a24d4:	b510      	push	{r4, lr}
 80a24d6:	4604      	mov	r4, r0
    // limpando a memria
    this->cleanPoints(this->points);
 80a24d8:	6841      	ldr	r1, [r0, #4]
 80a24da:	f7ff ffef 	bl	80a24bc <_ZN16FuzzyComposition11cleanPointsEP11pointsArray>
    // resetando os ponteiros
    this->points = NULL;
 80a24de:	2300      	movs	r3, #0
 80a24e0:	6063      	str	r3, [r4, #4]
    this->pointsCursor = NULL;
 80a24e2:	6023      	str	r3, [r4, #0]
    return true;
}
 80a24e4:	2001      	movs	r0, #1
 80a24e6:	bd10      	pop	{r4, pc}

080a24e8 <_ZN16FuzzyComposition8rmvPointEP11pointsArray>:

        return true;
    }
}

bool FuzzyComposition::rmvPoint(pointsArray* point){
 80a24e8:	b508      	push	{r3, lr}
    if(point != NULL){
 80a24ea:	b111      	cbz	r1, 80a24f2 <_ZN16FuzzyComposition8rmvPointEP11pointsArray+0xa>
        free(point);
 80a24ec:	4608      	mov	r0, r1
 80a24ee:	f000 ff89 	bl	80a3404 <free>
    }
    return true;
}
 80a24f2:	2001      	movs	r0, #1
 80a24f4:	bd08      	pop	{r3, pc}
	...

080a24f8 <_ZN16FuzzyComposition7rebuildEP11pointsArrayS1_S1_S1_>:
        this->cleanPoints(aux->next);
        free(aux);
    }
}

bool FuzzyComposition::rebuild(pointsArray* aSegmentBegin, pointsArray* aSegmentEnd, pointsArray* bSegmentBegin, pointsArray* bSegmentEnd){
 80a24f8:	e92d 4ff0 	stmdb	sp!, {r4, r5, r6, r7, r8, r9, sl, fp, lr}
 80a24fc:	461e      	mov	r6, r3
    float x1 = aSegmentBegin->point;
 80a24fe:	684b      	ldr	r3, [r1, #4]
        this->cleanPoints(aux->next);
        free(aux);
    }
}

bool FuzzyComposition::rebuild(pointsArray* aSegmentBegin, pointsArray* aSegmentEnd, pointsArray* bSegmentBegin, pointsArray* bSegmentEnd){
 80a2500:	b087      	sub	sp, #28
    float x1 = aSegmentBegin->point;
 80a2502:	9301      	str	r3, [sp, #4]
    float y1 = aSegmentBegin->pertinence;
 80a2504:	688b      	ldr	r3, [r1, #8]
    float x2 = aSegmentEnd->point;
    float y2 = aSegmentEnd->pertinence;
    float x3 = bSegmentBegin->point;
    float y3 = bSegmentBegin->pertinence;
 80a2506:	f8d6 9008 	ldr.w	r9, [r6, #8]
    }
}

bool FuzzyComposition::rebuild(pointsArray* aSegmentBegin, pointsArray* aSegmentEnd, pointsArray* bSegmentBegin, pointsArray* bSegmentEnd){
    float x1 = aSegmentBegin->point;
    float y1 = aSegmentBegin->pertinence;
 80a250a:	9302      	str	r3, [sp, #8]
    float y4 = bSegmentEnd->pertinence;
    float point, pertinence;
    float denom, numera, numerb;
    float mua, mub;

    denom  = (y4 - y3) * (x2 - x1) - (x4 - x3) * (y2 - y1);
 80a250c:	9b10      	ldr	r3, [sp, #64]	; 0x40
        this->cleanPoints(aux->next);
        free(aux);
    }
}

bool FuzzyComposition::rebuild(pointsArray* aSegmentBegin, pointsArray* aSegmentEnd, pointsArray* bSegmentBegin, pointsArray* bSegmentEnd){
 80a250e:	9005      	str	r0, [sp, #20]
 80a2510:	460c      	mov	r4, r1
    float y4 = bSegmentEnd->pertinence;
    float point, pertinence;
    float denom, numera, numerb;
    float mua, mub;

    denom  = (y4 - y3) * (x2 - x1) - (x4 - x3) * (y2 - y1);
 80a2512:	6898      	ldr	r0, [r3, #8]
 80a2514:	4649      	mov	r1, r9
        this->cleanPoints(aux->next);
        free(aux);
    }
}

bool FuzzyComposition::rebuild(pointsArray* aSegmentBegin, pointsArray* aSegmentEnd, pointsArray* bSegmentBegin, pointsArray* bSegmentEnd){
 80a2516:	4617      	mov	r7, r2
    float y4 = bSegmentEnd->pertinence;
    float point, pertinence;
    float denom, numera, numerb;
    float mua, mub;

    denom  = (y4 - y3) * (x2 - x1) - (x4 - x3) * (y2 - y1);
 80a2518:	f002 fa5c 	bl	80a49d4 <__aeabi_fsub>
 80a251c:	9901      	ldr	r1, [sp, #4]
 80a251e:	4682      	mov	sl, r0
 80a2520:	6878      	ldr	r0, [r7, #4]
 80a2522:	f002 fa57 	bl	80a49d4 <__aeabi_fsub>
bool FuzzyComposition::rebuild(pointsArray* aSegmentBegin, pointsArray* aSegmentEnd, pointsArray* bSegmentBegin, pointsArray* bSegmentEnd){
    float x1 = aSegmentBegin->point;
    float y1 = aSegmentBegin->pertinence;
    float x2 = aSegmentEnd->point;
    float y2 = aSegmentEnd->pertinence;
    float x3 = bSegmentBegin->point;
 80a2526:	f8d6 8004 	ldr.w	r8, [r6, #4]
    float y4 = bSegmentEnd->pertinence;
    float point, pertinence;
    float denom, numera, numerb;
    float mua, mub;

    denom  = (y4 - y3) * (x2 - x1) - (x4 - x3) * (y2 - y1);
 80a252a:	9b10      	ldr	r3, [sp, #64]	; 0x40
 80a252c:	4641      	mov	r1, r8
 80a252e:	9003      	str	r0, [sp, #12]
 80a2530:	6858      	ldr	r0, [r3, #4]
 80a2532:	f002 fa4f 	bl	80a49d4 <__aeabi_fsub>
 80a2536:	9902      	ldr	r1, [sp, #8]
 80a2538:	4683      	mov	fp, r0
 80a253a:	68b8      	ldr	r0, [r7, #8]
 80a253c:	f002 fa4a 	bl	80a49d4 <__aeabi_fsub>
 80a2540:	9903      	ldr	r1, [sp, #12]
 80a2542:	9004      	str	r0, [sp, #16]
 80a2544:	4650      	mov	r0, sl
 80a2546:	f002 fb4f 	bl	80a4be8 <__aeabi_fmul>
 80a254a:	9904      	ldr	r1, [sp, #16]
 80a254c:	4605      	mov	r5, r0
 80a254e:	4658      	mov	r0, fp
 80a2550:	f002 fb4a 	bl	80a4be8 <__aeabi_fmul>
 80a2554:	4601      	mov	r1, r0
 80a2556:	4628      	mov	r0, r5
 80a2558:	f002 fa3c 	bl	80a49d4 <__aeabi_fsub>
    numera = (x4 - x3) * (y1 - y3) - (y4 - y3) * (x1 - x3);
 80a255c:	4649      	mov	r1, r9
    float y4 = bSegmentEnd->pertinence;
    float point, pertinence;
    float denom, numera, numerb;
    float mua, mub;

    denom  = (y4 - y3) * (x2 - x1) - (x4 - x3) * (y2 - y1);
 80a255e:	4605      	mov	r5, r0
    numera = (x4 - x3) * (y1 - y3) - (y4 - y3) * (x1 - x3);
 80a2560:	9802      	ldr	r0, [sp, #8]
 80a2562:	f002 fa37 	bl	80a49d4 <__aeabi_fsub>
 80a2566:	4641      	mov	r1, r8
 80a2568:	4681      	mov	r9, r0
 80a256a:	9801      	ldr	r0, [sp, #4]
 80a256c:	f002 fa32 	bl	80a49d4 <__aeabi_fsub>
 80a2570:	4649      	mov	r1, r9
 80a2572:	4680      	mov	r8, r0
 80a2574:	4658      	mov	r0, fp
 80a2576:	f002 fb37 	bl	80a4be8 <__aeabi_fmul>
 80a257a:	4641      	mov	r1, r8
 80a257c:	4683      	mov	fp, r0
 80a257e:	4650      	mov	r0, sl
 80a2580:	f002 fb32 	bl	80a4be8 <__aeabi_fmul>
 80a2584:	4601      	mov	r1, r0
 80a2586:	4658      	mov	r0, fp
 80a2588:	f002 fa24 	bl	80a49d4 <__aeabi_fsub>
    numerb = (x2 - x1) * (y1 - y3) - (y2 - y1) * (x1 - x3);
 80a258c:	4649      	mov	r1, r9
    float point, pertinence;
    float denom, numera, numerb;
    float mua, mub;

    denom  = (y4 - y3) * (x2 - x1) - (x4 - x3) * (y2 - y1);
    numera = (x4 - x3) * (y1 - y3) - (y4 - y3) * (x1 - x3);
 80a258e:	4682      	mov	sl, r0
    numerb = (x2 - x1) * (y1 - y3) - (y2 - y1) * (x1 - x3);
 80a2590:	9803      	ldr	r0, [sp, #12]
 80a2592:	f002 fb29 	bl	80a4be8 <__aeabi_fmul>
 80a2596:	4641      	mov	r1, r8
 80a2598:	4681      	mov	r9, r0
 80a259a:	9804      	ldr	r0, [sp, #16]
 80a259c:	f002 fb24 	bl	80a4be8 <__aeabi_fmul>
 80a25a0:	4601      	mov	r1, r0
 80a25a2:	4648      	mov	r0, r9
 80a25a4:	f002 fa16 	bl	80a49d4 <__aeabi_fsub>

    if(denom < 0.0){
 80a25a8:	2100      	movs	r1, #0
    float denom, numera, numerb;
    float mua, mub;

    denom  = (y4 - y3) * (x2 - x1) - (x4 - x3) * (y2 - y1);
    numera = (x4 - x3) * (y1 - y3) - (y4 - y3) * (x1 - x3);
    numerb = (x2 - x1) * (y1 - y3) - (y2 - y1) * (x1 - x3);
 80a25aa:	4680      	mov	r8, r0

    if(denom < 0.0){
 80a25ac:	4628      	mov	r0, r5
 80a25ae:	f002 fcb9 	bl	80a4f24 <__aeabi_fcmplt>
 80a25b2:	b108      	cbz	r0, 80a25b8 <_ZN16FuzzyComposition7rebuildEP11pointsArrayS1_S1_S1_+0xc0>
        denom *= -1.0;
 80a25b4:	f105 4500 	add.w	r5, r5, #2147483648	; 0x80000000
    }
    if(numera < 0.0){
 80a25b8:	2100      	movs	r1, #0
 80a25ba:	4650      	mov	r0, sl
 80a25bc:	f002 fcb2 	bl	80a4f24 <__aeabi_fcmplt>
 80a25c0:	b108      	cbz	r0, 80a25c6 <_ZN16FuzzyComposition7rebuildEP11pointsArrayS1_S1_S1_+0xce>
        numera *= -1.0;
 80a25c2:	f10a 4a00 	add.w	sl, sl, #2147483648	; 0x80000000
    }
    if(numerb < 0.0){
 80a25c6:	2100      	movs	r1, #0
 80a25c8:	4640      	mov	r0, r8
 80a25ca:	f002 fcab 	bl	80a4f24 <__aeabi_fcmplt>
 80a25ce:	b108      	cbz	r0, 80a25d4 <_ZN16FuzzyComposition7rebuildEP11pointsArrayS1_S1_S1_+0xdc>
        numerb *= -1.0;
 80a25d0:	f108 4800 	add.w	r8, r8, #2147483648	; 0x80000000
    }

    // Se os seguimentos forem paralelos, retornar falso
    if(denom < EPS){
 80a25d4:	4628      	mov	r0, r5
 80a25d6:	f001 febb 	bl	80a4350 <__aeabi_f2d>
 80a25da:	a331      	add	r3, pc, #196	; (adr r3, 80a26a0 <_ZN16FuzzyComposition7rebuildEP11pointsArrayS1_S1_S1_+0x1a8>)
 80a25dc:	e9d3 2300 	ldrd	r2, r3, [r3]
 80a25e0:	f002 f97c 	bl	80a48dc <__aeabi_dcmplt>
 80a25e4:	b108      	cbz	r0, 80a25ea <_ZN16FuzzyComposition7rebuildEP11pointsArrayS1_S1_S1_+0xf2>
        return false;
 80a25e6:	2000      	movs	r0, #0
 80a25e8:	e057      	b.n	80a269a <_ZN16FuzzyComposition7rebuildEP11pointsArrayS1_S1_S1_+0x1a2>
    }

    // Verificar se h interseo ao longo do seguimento
    mua = numera / denom;
 80a25ea:	4629      	mov	r1, r5
 80a25ec:	4650      	mov	r0, sl
 80a25ee:	f002 fbaf 	bl	80a4d50 <__aeabi_fdiv>
    mub = numerb / denom;
    if(mua < 0.0 || mua > 1.0 || mub < 0.0 || mub > 1.0){
 80a25f2:	2100      	movs	r1, #0
    if(denom < EPS){
        return false;
    }

    // Verificar se h interseo ao longo do seguimento
    mua = numera / denom;
 80a25f4:	4681      	mov	r9, r0
    mub = numerb / denom;
    if(mua < 0.0 || mua > 1.0 || mub < 0.0 || mub > 1.0){
 80a25f6:	f002 fc95 	bl	80a4f24 <__aeabi_fcmplt>
 80a25fa:	2800      	cmp	r0, #0
 80a25fc:	d1f3      	bne.n	80a25e6 <_ZN16FuzzyComposition7rebuildEP11pointsArrayS1_S1_S1_+0xee>
 80a25fe:	f04f 517e 	mov.w	r1, #1065353216	; 0x3f800000
 80a2602:	4648      	mov	r0, r9
 80a2604:	f002 fcac 	bl	80a4f60 <__aeabi_fcmpgt>
 80a2608:	2800      	cmp	r0, #0
 80a260a:	d1ec      	bne.n	80a25e6 <_ZN16FuzzyComposition7rebuildEP11pointsArrayS1_S1_S1_+0xee>
        return false;
    }

    // Verificar se h interseo ao longo do seguimento
    mua = numera / denom;
    mub = numerb / denom;
 80a260c:	4629      	mov	r1, r5
 80a260e:	4640      	mov	r0, r8
 80a2610:	f002 fb9e 	bl	80a4d50 <__aeabi_fdiv>
    if(mua < 0.0 || mua > 1.0 || mub < 0.0 || mub > 1.0){
 80a2614:	2100      	movs	r1, #0
        return false;
    }

    // Verificar se h interseo ao longo do seguimento
    mua = numera / denom;
    mub = numerb / denom;
 80a2616:	4605      	mov	r5, r0
    if(mua < 0.0 || mua > 1.0 || mub < 0.0 || mub > 1.0){
 80a2618:	f002 fc84 	bl	80a4f24 <__aeabi_fcmplt>
 80a261c:	2800      	cmp	r0, #0
 80a261e:	d1e2      	bne.n	80a25e6 <_ZN16FuzzyComposition7rebuildEP11pointsArrayS1_S1_S1_+0xee>
 80a2620:	f04f 517e 	mov.w	r1, #1065353216	; 0x3f800000
 80a2624:	4628      	mov	r0, r5
 80a2626:	f002 fc9b 	bl	80a4f60 <__aeabi_fcmpgt>
 80a262a:	2800      	cmp	r0, #0
 80a262c:	d1db      	bne.n	80a25e6 <_ZN16FuzzyComposition7rebuildEP11pointsArrayS1_S1_S1_+0xee>
        return false;
    }else{
        // Calculando o ponto e a pertinencia do novo elemento
        point         = x1 + mua * (x2 - x1);
 80a262e:	4649      	mov	r1, r9
 80a2630:	9803      	ldr	r0, [sp, #12]
 80a2632:	f002 fad9 	bl	80a4be8 <__aeabi_fmul>
 80a2636:	9901      	ldr	r1, [sp, #4]
 80a2638:	f002 f9ce 	bl	80a49d8 <__addsf3>
        pertinence     = y1 + mua * (y2 - y1);
 80a263c:	4649      	mov	r1, r9
    mub = numerb / denom;
    if(mua < 0.0 || mua > 1.0 || mub < 0.0 || mub > 1.0){
        return false;
    }else{
        // Calculando o ponto e a pertinencia do novo elemento
        point         = x1 + mua * (x2 - x1);
 80a263e:	4605      	mov	r5, r0
        pertinence     = y1 + mua * (y2 - y1);
 80a2640:	9804      	ldr	r0, [sp, #16]
 80a2642:	f002 fad1 	bl	80a4be8 <__aeabi_fmul>
 80a2646:	9902      	ldr	r1, [sp, #8]
 80a2648:	f002 f9c6 	bl	80a49d8 <__addsf3>
 80a264c:	4680      	mov	r8, r0

        // Adicionando um novo ponto
        pointsArray* aux;
        // Alocando espao na memria
        if((aux = (pointsArray *) malloc(sizeof(pointsArray))) == NULL){
 80a264e:	2010      	movs	r0, #16
 80a2650:	f000 fed0 	bl	80a33f4 <malloc>
 80a2654:	2800      	cmp	r0, #0
 80a2656:	d0c6      	beq.n	80a25e6 <_ZN16FuzzyComposition7rebuildEP11pointsArrayS1_S1_S1_+0xee>
            return false;
        }

        aux->previous = bSegmentEnd;
 80a2658:	9b10      	ldr	r3, [sp, #64]	; 0x40
        aux->point = point;
 80a265a:	6045      	str	r5, [r0, #4]
        // Alocando espao na memria
        if((aux = (pointsArray *) malloc(sizeof(pointsArray))) == NULL){
            return false;
        }

        aux->previous = bSegmentEnd;
 80a265c:	6003      	str	r3, [r0, #0]
        aux->point = point;
        aux->pertinence = pertinence;
 80a265e:	f8c0 8008 	str.w	r8, [r0, #8]
        aux->next = aSegmentEnd;
 80a2662:	60c7      	str	r7, [r0, #12]

        bSegmentEnd->next = aux;
 80a2664:	60d8      	str	r0, [r3, #12]
        aSegmentEnd->previous = aux;
 80a2666:	6038      	str	r0, [r7, #0]

        float stopPoint = bSegmentBegin->point;
 80a2668:	6877      	ldr	r7, [r6, #4]
        float stopPertinence = bSegmentBegin->pertinence;
 80a266a:	68b6      	ldr	r6, [r6, #8]

        pointsArray* temp = aSegmentBegin;
        pointsArray* excl;

        do{
            float pointToCompare = temp->point;
 80a266c:	f8d4 9004 	ldr.w	r9, [r4, #4]
            float pertinenceToCompare = temp->pertinence;

            excl = temp->previous;

            this->rmvPoint(temp);
 80a2670:	4621      	mov	r1, r4
 80a2672:	9805      	ldr	r0, [sp, #20]
        pointsArray* temp = aSegmentBegin;
        pointsArray* excl;

        do{
            float pointToCompare = temp->point;
            float pertinenceToCompare = temp->pertinence;
 80a2674:	f8d4 8008 	ldr.w	r8, [r4, #8]

            excl = temp->previous;
 80a2678:	6825      	ldr	r5, [r4, #0]

            this->rmvPoint(temp);
 80a267a:	f7ff ff35 	bl	80a24e8 <_ZN16FuzzyComposition8rmvPointEP11pointsArray>

            temp = excl;

            if(stopPoint == pointToCompare && stopPertinence == pertinenceToCompare){
 80a267e:	4649      	mov	r1, r9
 80a2680:	4638      	mov	r0, r7
 80a2682:	f002 fc45 	bl	80a4f10 <__aeabi_fcmpeq>
 80a2686:	b120      	cbz	r0, 80a2692 <_ZN16FuzzyComposition7rebuildEP11pointsArrayS1_S1_S1_+0x19a>
 80a2688:	4641      	mov	r1, r8
 80a268a:	4630      	mov	r0, r6
 80a268c:	f002 fc40 	bl	80a4f10 <__aeabi_fcmpeq>
 80a2690:	b910      	cbnz	r0, 80a2698 <_ZN16FuzzyComposition7rebuildEP11pointsArrayS1_S1_S1_+0x1a0>
 80a2692:	462c      	mov	r4, r5
                break;
            }
        }while(temp != NULL);
 80a2694:	2d00      	cmp	r5, #0
 80a2696:	d1e9      	bne.n	80a266c <_ZN16FuzzyComposition7rebuildEP11pointsArrayS1_S1_S1_+0x174>

        return true;
 80a2698:	2001      	movs	r0, #1
    }
}
 80a269a:	b007      	add	sp, #28
 80a269c:	e8bd 8ff0 	ldmia.w	sp!, {r4, r5, r6, r7, r8, r9, sl, fp, pc}
 80a26a0:	d2f1a9fc 	.word	0xd2f1a9fc
 80a26a4:	3f50624d 	.word	0x3f50624d

080a26a8 <_ZN16FuzzyComposition5buildEv>:
        aux = aux->previous;
    }
    return false;
}

bool FuzzyComposition::build(){
 80a26a8:	b5f7      	push	{r0, r1, r2, r4, r5, r6, r7, lr}
 80a26aa:	4606      	mov	r6, r0
    pointsArray* aux;

    aux = this->points;
 80a26ac:	6845      	ldr	r5, [r0, #4]
    while(aux != NULL){
 80a26ae:	b1dd      	cbz	r5, 80a26e8 <_ZN16FuzzyComposition5buildEv+0x40>
 80a26b0:	462c      	mov	r4, r5
        pointsArray* temp = aux;
        while(temp->previous != NULL){
 80a26b2:	6827      	ldr	r7, [r4, #0]
 80a26b4:	b1b7      	cbz	r7, 80a26e4 <_ZN16FuzzyComposition5buildEv+0x3c>
            if(temp->point < temp->previous->point){
 80a26b6:	6879      	ldr	r1, [r7, #4]
 80a26b8:	6860      	ldr	r0, [r4, #4]
 80a26ba:	f002 fc33 	bl	80a4f24 <__aeabi_fcmplt>
 80a26be:	b908      	cbnz	r0, 80a26c4 <_ZN16FuzzyComposition5buildEv+0x1c>
 80a26c0:	463c      	mov	r4, r7
 80a26c2:	e7f6      	b.n	80a26b2 <_ZN16FuzzyComposition5buildEv+0xa>
 80a26c4:	4627      	mov	r7, r4
            temp = temp->previous;
        }
        pointsArray* zPoint;
        if(temp != NULL){
            zPoint = temp;
            while(temp->previous != NULL){
 80a26c6:	683b      	ldr	r3, [r7, #0]
 80a26c8:	b163      	cbz	r3, 80a26e4 <_ZN16FuzzyComposition5buildEv+0x3c>
                bool result = false;
                if(temp->previous->previous != NULL){
 80a26ca:	681a      	ldr	r2, [r3, #0]
 80a26cc:	b142      	cbz	r2, 80a26e0 <_ZN16FuzzyComposition5buildEv+0x38>
                    result = rebuild(zPoint, zPoint->next, temp->previous, temp->previous->previous);
 80a26ce:	9200      	str	r2, [sp, #0]
 80a26d0:	68e2      	ldr	r2, [r4, #12]
 80a26d2:	4621      	mov	r1, r4
 80a26d4:	4630      	mov	r0, r6
 80a26d6:	f7ff ff0f 	bl	80a24f8 <_ZN16FuzzyComposition7rebuildEP11pointsArrayS1_S1_S1_>
                }
                if(result == true){
 80a26da:	b108      	cbz	r0, 80a26e0 <_ZN16FuzzyComposition5buildEv+0x38>
                    aux = this->points;
 80a26dc:	6875      	ldr	r5, [r6, #4]
                    break;
 80a26de:	e001      	b.n	80a26e4 <_ZN16FuzzyComposition5buildEv+0x3c>
                }
                temp = temp->previous;
 80a26e0:	683f      	ldr	r7, [r7, #0]
            temp = temp->previous;
        }
        pointsArray* zPoint;
        if(temp != NULL){
            zPoint = temp;
            while(temp->previous != NULL){
 80a26e2:	e7f0      	b.n	80a26c6 <_ZN16FuzzyComposition5buildEv+0x1e>
                    break;
                }
                temp = temp->previous;
            }
        }
        aux = aux->next;
 80a26e4:	68ed      	ldr	r5, [r5, #12]

bool FuzzyComposition::build(){
    pointsArray* aux;

    aux = this->points;
    while(aux != NULL){
 80a26e6:	e7e2      	b.n	80a26ae <_ZN16FuzzyComposition5buildEv+0x6>
            }
        }
        aux = aux->next;
    }
    return true;
}
 80a26e8:	2001      	movs	r0, #1
 80a26ea:	b003      	add	sp, #12
 80a26ec:	bdf0      	pop	{r4, r5, r6, r7, pc}

080a26ee <_ZN10FuzzyInputC1Ei>:

// CONSTRUTORES
FuzzyInput::FuzzyInput() : FuzzyIO(){
}

FuzzyInput::FuzzyInput(int index) : FuzzyIO(index){
 80a26ee:	b510      	push	{r4, lr}
 80a26f0:	4604      	mov	r4, r0
 80a26f2:	f000 f80f 	bl	80a2714 <_ZN7FuzzyIOC1Ei>
}
 80a26f6:	4620      	mov	r0, r4
 80a26f8:	bd10      	pop	{r4, pc}

080a26fa <_ZN10FuzzyInput28calculateFuzzySetPertinencesEv>:
// DESTRUTOR
FuzzyInput::~FuzzyInput(){
}

// MTODOS PBLICOS
bool FuzzyInput::calculateFuzzySetPertinences(){
 80a26fa:	b538      	push	{r3, r4, r5, lr}
 80a26fc:	4605      	mov	r5, r0
    fuzzySetArray *aux;
    aux = this->fuzzySets;
 80a26fe:	6884      	ldr	r4, [r0, #8]

    while(aux != NULL){
 80a2700:	b134      	cbz	r4, 80a2710 <_ZN10FuzzyInput28calculateFuzzySetPertinencesEv+0x16>
        if (aux->fuzzySet != NULL){
 80a2702:	6820      	ldr	r0, [r4, #0]
 80a2704:	b110      	cbz	r0, 80a270c <_ZN10FuzzyInput28calculateFuzzySetPertinencesEv+0x12>
            aux->fuzzySet->calculatePertinence(this->crispInput);
 80a2706:	6869      	ldr	r1, [r5, #4]
 80a2708:	f000 fa7e 	bl	80a2c08 <_ZN8FuzzySet19calculatePertinenceEf>
        }
        aux = aux->next;
 80a270c:	6864      	ldr	r4, [r4, #4]
// MTODOS PBLICOS
bool FuzzyInput::calculateFuzzySetPertinences(){
    fuzzySetArray *aux;
    aux = this->fuzzySets;

    while(aux != NULL){
 80a270e:	e7f7      	b.n	80a2700 <_ZN10FuzzyInput28calculateFuzzySetPertinencesEv+0x6>
        }
        aux = aux->next;
    }
    
    return true;
 80a2710:	2001      	movs	r0, #1
 80a2712:	bd38      	pop	{r3, r4, r5, pc}

080a2714 <_ZN7FuzzyIOC1Ei>:
}

FuzzyIO::FuzzyIO(int index){
    this->index = index;
    // Iniciando os ponteiros como nulo
    this->fuzzySets          = NULL;
 80a2714:	2200      	movs	r2, #0
// CONSTRUTORES
FuzzyIO::FuzzyIO(){
}

FuzzyIO::FuzzyIO(int index){
    this->index = index;
 80a2716:	6001      	str	r1, [r0, #0]
    // Iniciando os ponteiros como nulo
    this->fuzzySets          = NULL;
 80a2718:	6082      	str	r2, [r0, #8]
    this->fuzzySetsCursor    = NULL;
 80a271a:	60c2      	str	r2, [r0, #12]
}
 80a271c:	4770      	bx	lr

080a271e <_ZN7FuzzyIO8getIndexEv>:
}

// MTODOS PBLICOS
int FuzzyIO::getIndex(){
    return this->index;
}
 80a271e:	6800      	ldr	r0, [r0, #0]
 80a2720:	4770      	bx	lr

080a2722 <_ZN7FuzzyIO13setCrispInputEf>:

void FuzzyIO::setCrispInput(float crispInput){
    this->crispInput = crispInput;
 80a2722:	6041      	str	r1, [r0, #4]
 80a2724:	4770      	bx	lr

080a2726 <_ZN7FuzzyIO11addFuzzySetEP8FuzzySet>:

float FuzzyIO::getCrispInput(){
    return this->crispInput;
}

bool FuzzyIO::addFuzzySet(FuzzySet* fuzzySet){
 80a2726:	b538      	push	{r3, r4, r5, lr}
 80a2728:	4604      	mov	r4, r0
    fuzzySetArray *aux;
    // Alocando espao na memria
    if((aux = (fuzzySetArray *) malloc(sizeof(fuzzySetArray))) == NULL){
 80a272a:	2008      	movs	r0, #8

float FuzzyIO::getCrispInput(){
    return this->crispInput;
}

bool FuzzyIO::addFuzzySet(FuzzySet* fuzzySet){
 80a272c:	460d      	mov	r5, r1
    fuzzySetArray *aux;
    // Alocando espao na memria
    if((aux = (fuzzySetArray *) malloc(sizeof(fuzzySetArray))) == NULL){
 80a272e:	f000 fe61 	bl	80a33f4 <malloc>
 80a2732:	b150      	cbz	r0, 80a274a <_ZN7FuzzyIO11addFuzzySetEP8FuzzySet+0x24>
        return false;
    }
    aux->fuzzySet     = fuzzySet;
    aux->next         = NULL;
 80a2734:	2300      	movs	r3, #0
    fuzzySetArray *aux;
    // Alocando espao na memria
    if((aux = (fuzzySetArray *) malloc(sizeof(fuzzySetArray))) == NULL){
        return false;
    }
    aux->fuzzySet     = fuzzySet;
 80a2736:	6005      	str	r5, [r0, #0]
    aux->next         = NULL;
 80a2738:	6043      	str	r3, [r0, #4]

    if(this->fuzzySets == NULL){
 80a273a:	68a3      	ldr	r3, [r4, #8]
 80a273c:	b90b      	cbnz	r3, 80a2742 <_ZN7FuzzyIO11addFuzzySetEP8FuzzySet+0x1c>
        this->fuzzySets = aux;
 80a273e:	60a0      	str	r0, [r4, #8]
 80a2740:	e001      	b.n	80a2746 <_ZN7FuzzyIO11addFuzzySetEP8FuzzySet+0x20>
        this->fuzzySetsCursor = aux;
    }else{
        this->fuzzySetsCursor->next = aux;
 80a2742:	68e3      	ldr	r3, [r4, #12]
 80a2744:	6058      	str	r0, [r3, #4]
        this->fuzzySetsCursor = aux;
 80a2746:	60e0      	str	r0, [r4, #12]
    }
    return true;
 80a2748:	2001      	movs	r0, #1
}
 80a274a:	bd38      	pop	{r3, r4, r5, pc}

080a274c <_ZN7FuzzyIO14resetFuzzySetsEv>:

void FuzzyIO::resetFuzzySets(){
 80a274c:	b510      	push	{r4, lr}
    fuzzySetArray* fuzzySetsAux;
    fuzzySetsAux = this->fuzzySets;
 80a274e:	6884      	ldr	r4, [r0, #8]
    // Calculando as pertinncias de totos os FuzzyInputs
    while(fuzzySetsAux != NULL){
 80a2750:	b124      	cbz	r4, 80a275c <_ZN7FuzzyIO14resetFuzzySetsEv+0x10>
        fuzzySetsAux->fuzzySet->reset();
 80a2752:	6820      	ldr	r0, [r4, #0]
 80a2754:	f000 faed 	bl	80a2d32 <_ZN8FuzzySet5resetEv>
        fuzzySetsAux = fuzzySetsAux->next;
 80a2758:	6864      	ldr	r4, [r4, #4]

void FuzzyIO::resetFuzzySets(){
    fuzzySetArray* fuzzySetsAux;
    fuzzySetsAux = this->fuzzySets;
    // Calculando as pertinncias de totos os FuzzyInputs
    while(fuzzySetsAux != NULL){
 80a275a:	e7f9      	b.n	80a2750 <_ZN7FuzzyIO14resetFuzzySetsEv+0x4>
 80a275c:	bd10      	pop	{r4, pc}

080a275e <_ZN11FuzzyOutputC1Ei>:

// CONSTRUTORES
FuzzyOutput::FuzzyOutput() : FuzzyIO(){
}

FuzzyOutput::FuzzyOutput(int index) : FuzzyIO(index){
 80a275e:	b510      	push	{r4, lr}
 80a2760:	4604      	mov	r4, r0
 80a2762:	f7ff ffd7 	bl	80a2714 <_ZN7FuzzyIOC1Ei>
 80a2766:	f104 0010 	add.w	r0, r4, #16
 80a276a:	f7ff fda7 	bl	80a22bc <_ZN16FuzzyCompositionC1Ev>
}
 80a276e:	4620      	mov	r0, r4
 80a2770:	bd10      	pop	{r4, pc}

080a2772 <_ZN11FuzzyOutput14getCrispOutputEv>:

    return true;
}

float FuzzyOutput::getCrispOutput(){
    return this->fuzzyComposition.avaliate();
 80a2772:	3010      	adds	r0, #16
 80a2774:	f7ff bdd4 	b.w	80a2320 <_ZN16FuzzyComposition8avaliateEv>

080a2778 <_ZN11FuzzyOutput5orderEv>:
}

// Um simples Bubble Sort
bool FuzzyOutput::order(){
 80a2778:	b5f8      	push	{r3, r4, r5, r6, r7, lr}
    fuzzySetArray *aux1;
    fuzzySetArray *aux2;

    aux1 = this->fuzzySets;
 80a277a:	6884      	ldr	r4, [r0, #8]
float FuzzyOutput::getCrispOutput(){
    return this->fuzzyComposition.avaliate();
}

// Um simples Bubble Sort
bool FuzzyOutput::order(){
 80a277c:	4606      	mov	r6, r0
    fuzzySetArray *aux1;
    fuzzySetArray *aux2;

    aux1 = this->fuzzySets;
 80a277e:	4625      	mov	r5, r4
    aux2 = this->fuzzySets;

    while(aux1 != NULL){
 80a2780:	b1cd      	cbz	r5, 80a27b6 <_ZN11FuzzyOutput5orderEv+0x3e>
        while(aux2 != NULL){
 80a2782:	b1ac      	cbz	r4, 80a27b0 <_ZN11FuzzyOutput5orderEv+0x38>
            if(aux2->next != NULL){
 80a2784:	6863      	ldr	r3, [r4, #4]
 80a2786:	b18b      	cbz	r3, 80a27ac <_ZN11FuzzyOutput5orderEv+0x34>
                if(aux2->fuzzySet->getPointA() > aux2->next->fuzzySet->getPointA()){
 80a2788:	6820      	ldr	r0, [r4, #0]
 80a278a:	f000 fa35 	bl	80a2bf8 <_ZN8FuzzySet9getPointAEv>
 80a278e:	6863      	ldr	r3, [r4, #4]
 80a2790:	4607      	mov	r7, r0
 80a2792:	6818      	ldr	r0, [r3, #0]
 80a2794:	f000 fa30 	bl	80a2bf8 <_ZN8FuzzySet9getPointAEv>
 80a2798:	4601      	mov	r1, r0
 80a279a:	4638      	mov	r0, r7
 80a279c:	f002 fbe0 	bl	80a4f60 <__aeabi_fcmpgt>
 80a27a0:	b120      	cbz	r0, 80a27ac <_ZN11FuzzyOutput5orderEv+0x34>

// MTODOS PRIVADOS
bool FuzzyOutput::swap(fuzzySetArray* fuzzySetA, fuzzySetArray* fuzzySetB){
    FuzzySet* aux;
    
    aux = fuzzySetA->fuzzySet;
 80a27a2:	e894 000c 	ldmia.w	r4, {r2, r3}
    fuzzySetA->fuzzySet = fuzzySetB->fuzzySet;
 80a27a6:	6819      	ldr	r1, [r3, #0]
 80a27a8:	6021      	str	r1, [r4, #0]
    fuzzySetB->fuzzySet = aux;
 80a27aa:	601a      	str	r2, [r3, #0]
            if(aux2->next != NULL){
                if(aux2->fuzzySet->getPointA() > aux2->next->fuzzySet->getPointA()){
                    this->swap(aux2, aux2->next);
                }
            }
            aux2 = aux2->next;
 80a27ac:	6864      	ldr	r4, [r4, #4]

    aux1 = this->fuzzySets;
    aux2 = this->fuzzySets;

    while(aux1 != NULL){
        while(aux2 != NULL){
 80a27ae:	e7e8      	b.n	80a2782 <_ZN11FuzzyOutput5orderEv+0xa>
                    this->swap(aux2, aux2->next);
                }
            }
            aux2 = aux2->next;
        }
        aux2 = this->fuzzySets;
 80a27b0:	68b4      	ldr	r4, [r6, #8]
        aux1 = aux1->next;
 80a27b2:	686d      	ldr	r5, [r5, #4]
    fuzzySetArray *aux2;

    aux1 = this->fuzzySets;
    aux2 = this->fuzzySets;

    while(aux1 != NULL){
 80a27b4:	e7e4      	b.n	80a2780 <_ZN11FuzzyOutput5orderEv+0x8>
        }
        aux2 = this->fuzzySets;
        aux1 = aux1->next;
    }
    return true;
}
 80a27b6:	2001      	movs	r0, #1
 80a27b8:	bdf8      	pop	{r3, r4, r5, r6, r7, pc}
 80a27ba:	0000      	movs	r0, r0
 80a27bc:	0000      	movs	r0, r0
	...

080a27c0 <_ZN11FuzzyOutput7rebuildEffffffffPfS0_>:
    fuzzySetB->fuzzySet = aux;

    return true;
}

bool FuzzyOutput::rebuild(float x1, float y1, float x2, float y2, float x3, float y3, float x4, float y4, float* point, float* pertinence){
 80a27c0:	e92d 4ff7 	stmdb	sp!, {r0, r1, r2, r4, r5, r6, r7, r8, r9, sl, fp, lr}
    float denom, numera, numerb;
    float mua, mub;

    denom  = (y4 - y3) * (x2 - x1) - (x4 - x3) * (y2 - y1);
 80a27c4:	9810      	ldr	r0, [sp, #64]	; 0x40
    fuzzySetB->fuzzySet = aux;

    return true;
}

bool FuzzyOutput::rebuild(float x1, float y1, float x2, float y2, float x3, float y3, float x4, float y4, float* point, float* pertinence){
 80a27c6:	460f      	mov	r7, r1
    float denom, numera, numerb;
    float mua, mub;

    denom  = (y4 - y3) * (x2 - x1) - (x4 - x3) * (y2 - y1);
 80a27c8:	990e      	ldr	r1, [sp, #56]	; 0x38
    fuzzySetB->fuzzySet = aux;

    return true;
}

bool FuzzyOutput::rebuild(float x1, float y1, float x2, float y2, float x3, float y3, float x4, float y4, float* point, float* pertinence){
 80a27ca:	4615      	mov	r5, r2
 80a27cc:	461c      	mov	r4, r3
    float denom, numera, numerb;
    float mua, mub;

    denom  = (y4 - y3) * (x2 - x1) - (x4 - x3) * (y2 - y1);
 80a27ce:	f002 f901 	bl	80a49d4 <__aeabi_fsub>
 80a27d2:	4639      	mov	r1, r7
 80a27d4:	4682      	mov	sl, r0
 80a27d6:	4620      	mov	r0, r4
 80a27d8:	f002 f8fc 	bl	80a49d4 <__aeabi_fsub>
 80a27dc:	990d      	ldr	r1, [sp, #52]	; 0x34
 80a27de:	4680      	mov	r8, r0
 80a27e0:	980f      	ldr	r0, [sp, #60]	; 0x3c
 80a27e2:	f002 f8f7 	bl	80a49d4 <__aeabi_fsub>
 80a27e6:	4629      	mov	r1, r5
 80a27e8:	4683      	mov	fp, r0
 80a27ea:	980c      	ldr	r0, [sp, #48]	; 0x30
 80a27ec:	f002 f8f2 	bl	80a49d4 <__aeabi_fsub>
 80a27f0:	4641      	mov	r1, r8
 80a27f2:	4606      	mov	r6, r0
 80a27f4:	4650      	mov	r0, sl
 80a27f6:	f002 f9f7 	bl	80a4be8 <__aeabi_fmul>
 80a27fa:	4631      	mov	r1, r6
 80a27fc:	4604      	mov	r4, r0
 80a27fe:	4658      	mov	r0, fp
 80a2800:	f002 f9f2 	bl	80a4be8 <__aeabi_fmul>
 80a2804:	4601      	mov	r1, r0
 80a2806:	4620      	mov	r0, r4
 80a2808:	f002 f8e4 	bl	80a49d4 <__aeabi_fsub>
    numera = (x4 - x3) * (y1 - y3) - (y4 - y3) * (x1 - x3);
 80a280c:	990e      	ldr	r1, [sp, #56]	; 0x38

bool FuzzyOutput::rebuild(float x1, float y1, float x2, float y2, float x3, float y3, float x4, float y4, float* point, float* pertinence){
    float denom, numera, numerb;
    float mua, mub;

    denom  = (y4 - y3) * (x2 - x1) - (x4 - x3) * (y2 - y1);
 80a280e:	4604      	mov	r4, r0
    numera = (x4 - x3) * (y1 - y3) - (y4 - y3) * (x1 - x3);
 80a2810:	4628      	mov	r0, r5
 80a2812:	f002 f8df 	bl	80a49d4 <__aeabi_fsub>
 80a2816:	990d      	ldr	r1, [sp, #52]	; 0x34
 80a2818:	4681      	mov	r9, r0
 80a281a:	4638      	mov	r0, r7
 80a281c:	f002 f8da 	bl	80a49d4 <__aeabi_fsub>
 80a2820:	4649      	mov	r1, r9
 80a2822:	9001      	str	r0, [sp, #4]
 80a2824:	4658      	mov	r0, fp
 80a2826:	f002 f9df 	bl	80a4be8 <__aeabi_fmul>
 80a282a:	9901      	ldr	r1, [sp, #4]
 80a282c:	4683      	mov	fp, r0
 80a282e:	4650      	mov	r0, sl
 80a2830:	f002 f9da 	bl	80a4be8 <__aeabi_fmul>
 80a2834:	4601      	mov	r1, r0
 80a2836:	4658      	mov	r0, fp
 80a2838:	f002 f8cc 	bl	80a49d4 <__aeabi_fsub>
    numerb = (x2 - x1) * (y1 - y3) - (y2 - y1) * (x1 - x3);
 80a283c:	4649      	mov	r1, r9
bool FuzzyOutput::rebuild(float x1, float y1, float x2, float y2, float x3, float y3, float x4, float y4, float* point, float* pertinence){
    float denom, numera, numerb;
    float mua, mub;

    denom  = (y4 - y3) * (x2 - x1) - (x4 - x3) * (y2 - y1);
    numera = (x4 - x3) * (y1 - y3) - (y4 - y3) * (x1 - x3);
 80a283e:	4682      	mov	sl, r0
    numerb = (x2 - x1) * (y1 - y3) - (y2 - y1) * (x1 - x3);
 80a2840:	4640      	mov	r0, r8
 80a2842:	f002 f9d1 	bl	80a4be8 <__aeabi_fmul>
 80a2846:	9901      	ldr	r1, [sp, #4]
 80a2848:	4681      	mov	r9, r0
 80a284a:	4630      	mov	r0, r6
 80a284c:	f002 f9cc 	bl	80a4be8 <__aeabi_fmul>
 80a2850:	4601      	mov	r1, r0
 80a2852:	4648      	mov	r0, r9
 80a2854:	f002 f8be 	bl	80a49d4 <__aeabi_fsub>

    if(denom < 0.0){
 80a2858:	2100      	movs	r1, #0
    float denom, numera, numerb;
    float mua, mub;

    denom  = (y4 - y3) * (x2 - x1) - (x4 - x3) * (y2 - y1);
    numera = (x4 - x3) * (y1 - y3) - (y4 - y3) * (x1 - x3);
    numerb = (x2 - x1) * (y1 - y3) - (y2 - y1) * (x1 - x3);
 80a285a:	4681      	mov	r9, r0

    if(denom < 0.0){
 80a285c:	4620      	mov	r0, r4
 80a285e:	f002 fb61 	bl	80a4f24 <__aeabi_fcmplt>
 80a2862:	b108      	cbz	r0, 80a2868 <_ZN11FuzzyOutput7rebuildEffffffffPfS0_+0xa8>
        denom *= -1.0;
 80a2864:	f104 4400 	add.w	r4, r4, #2147483648	; 0x80000000
    }
    if(numera < 0.0){
 80a2868:	2100      	movs	r1, #0
 80a286a:	4650      	mov	r0, sl
 80a286c:	f002 fb5a 	bl	80a4f24 <__aeabi_fcmplt>
 80a2870:	b108      	cbz	r0, 80a2876 <_ZN11FuzzyOutput7rebuildEffffffffPfS0_+0xb6>
        numera *= -1.0;
 80a2872:	f10a 4a00 	add.w	sl, sl, #2147483648	; 0x80000000
    }
    if(numerb < 0.0){
 80a2876:	2100      	movs	r1, #0
 80a2878:	4648      	mov	r0, r9
 80a287a:	f002 fb53 	bl	80a4f24 <__aeabi_fcmplt>
 80a287e:	b108      	cbz	r0, 80a2884 <_ZN11FuzzyOutput7rebuildEffffffffPfS0_+0xc4>
        numerb *= -1.0;
 80a2880:	f109 4900 	add.w	r9, r9, #2147483648	; 0x80000000
    }

    // Se os seguimentos forem paralelos, retornar falso
    if(denom < EPS){
 80a2884:	4620      	mov	r0, r4
 80a2886:	f001 fd63 	bl	80a4350 <__aeabi_f2d>
 80a288a:	a321      	add	r3, pc, #132	; (adr r3, 80a2910 <_ZN11FuzzyOutput7rebuildEffffffffPfS0_+0x150>)
 80a288c:	e9d3 2300 	ldrd	r2, r3, [r3]
 80a2890:	f002 f824 	bl	80a48dc <__aeabi_dcmplt>
 80a2894:	9001      	str	r0, [sp, #4]
 80a2896:	2800      	cmp	r0, #0
 80a2898:	d133      	bne.n	80a2902 <_ZN11FuzzyOutput7rebuildEffffffffPfS0_+0x142>
        return false;
    }

    // Verificar se h interseo ao longo do seguimento
    mua = numera / denom;
 80a289a:	4621      	mov	r1, r4
 80a289c:	4650      	mov	r0, sl
 80a289e:	f002 fa57 	bl	80a4d50 <__aeabi_fdiv>
    mub = numerb / denom;
    if(mua < 0.0 || mua > 1.0 || mub < 0.0 || mub > 1.0){
 80a28a2:	2100      	movs	r1, #0
    if(denom < EPS){
        return false;
    }

    // Verificar se h interseo ao longo do seguimento
    mua = numera / denom;
 80a28a4:	4682      	mov	sl, r0
    mub = numerb / denom;
    if(mua < 0.0 || mua > 1.0 || mub < 0.0 || mub > 1.0){
 80a28a6:	f002 fb3d 	bl	80a4f24 <__aeabi_fcmplt>
 80a28aa:	bb50      	cbnz	r0, 80a2902 <_ZN11FuzzyOutput7rebuildEffffffffPfS0_+0x142>
 80a28ac:	f04f 517e 	mov.w	r1, #1065353216	; 0x3f800000
 80a28b0:	4650      	mov	r0, sl
 80a28b2:	f002 fb55 	bl	80a4f60 <__aeabi_fcmpgt>
 80a28b6:	bb20      	cbnz	r0, 80a2902 <_ZN11FuzzyOutput7rebuildEffffffffPfS0_+0x142>
        return false;
    }

    // Verificar se h interseo ao longo do seguimento
    mua = numera / denom;
    mub = numerb / denom;
 80a28b8:	4621      	mov	r1, r4
 80a28ba:	9001      	str	r0, [sp, #4]
 80a28bc:	4648      	mov	r0, r9
 80a28be:	f002 fa47 	bl	80a4d50 <__aeabi_fdiv>
    if(mua < 0.0 || mua > 1.0 || mub < 0.0 || mub > 1.0){
 80a28c2:	2100      	movs	r1, #0
        return false;
    }

    // Verificar se h interseo ao longo do seguimento
    mua = numera / denom;
    mub = numerb / denom;
 80a28c4:	4681      	mov	r9, r0
    if(mua < 0.0 || mua > 1.0 || mub < 0.0 || mub > 1.0){
 80a28c6:	f002 fb2d 	bl	80a4f24 <__aeabi_fcmplt>
 80a28ca:	4604      	mov	r4, r0
 80a28cc:	b9c8      	cbnz	r0, 80a2902 <_ZN11FuzzyOutput7rebuildEffffffffPfS0_+0x142>
 80a28ce:	f04f 517e 	mov.w	r1, #1065353216	; 0x3f800000
 80a28d2:	4648      	mov	r0, r9
 80a28d4:	f002 fb44 	bl	80a4f60 <__aeabi_fcmpgt>
 80a28d8:	b9a8      	cbnz	r0, 80a2906 <_ZN11FuzzyOutput7rebuildEffffffffPfS0_+0x146>
        return false;
    }else{
        // Calculando o ponto e a pertinencia do novo elemento
        *point      = x1 + mua * (x2 - x1);
 80a28da:	4651      	mov	r1, sl
 80a28dc:	4640      	mov	r0, r8
 80a28de:	f002 f983 	bl	80a4be8 <__aeabi_fmul>
 80a28e2:	4639      	mov	r1, r7
 80a28e4:	f002 f878 	bl	80a49d8 <__addsf3>
 80a28e8:	9b11      	ldr	r3, [sp, #68]	; 0x44
        *pertinence = y1 + mua * (y2 - y1);
 80a28ea:	4651      	mov	r1, sl
    mub = numerb / denom;
    if(mua < 0.0 || mua > 1.0 || mub < 0.0 || mub > 1.0){
        return false;
    }else{
        // Calculando o ponto e a pertinencia do novo elemento
        *point      = x1 + mua * (x2 - x1);
 80a28ec:	6018      	str	r0, [r3, #0]
        *pertinence = y1 + mua * (y2 - y1);
 80a28ee:	4630      	mov	r0, r6
 80a28f0:	f002 f97a 	bl	80a4be8 <__aeabi_fmul>
 80a28f4:	4629      	mov	r1, r5
 80a28f6:	f002 f86f 	bl	80a49d8 <__addsf3>
 80a28fa:	9b12      	ldr	r3, [sp, #72]	; 0x48
 80a28fc:	6018      	str	r0, [r3, #0]

        return true;
 80a28fe:	2001      	movs	r0, #1
 80a2900:	e002      	b.n	80a2908 <_ZN11FuzzyOutput7rebuildEffffffffPfS0_+0x148>
        numerb *= -1.0;
    }

    // Se os seguimentos forem paralelos, retornar falso
    if(denom < EPS){
        return false;
 80a2902:	2000      	movs	r0, #0
 80a2904:	e000      	b.n	80a2908 <_ZN11FuzzyOutput7rebuildEffffffffPfS0_+0x148>
 80a2906:	4620      	mov	r0, r4
        *point      = x1 + mua * (x2 - x1);
        *pertinence = y1 + mua * (y2 - y1);

        return true;
    }
 80a2908:	b003      	add	sp, #12
 80a290a:	e8bd 8ff0 	ldmia.w	sp!, {r4, r5, r6, r7, r8, r9, sl, fp, pc}
 80a290e:	bf00      	nop
 80a2910:	d2f1a9fc 	.word	0xd2f1a9fc
 80a2914:	3f50624d 	.word	0x3f50624d

080a2918 <_ZN11FuzzyOutput8truncateEv>:
FuzzyOutput::~FuzzyOutput(){
    this->fuzzyComposition.empty();
}

// MTODOS PBLICOS
bool FuzzyOutput::truncate(){
 80a2918:	e92d 4ff0 	stmdb	sp!, {r4, r5, r6, r7, r8, r9, sl, fp, lr}
 80a291c:	4606      	mov	r6, r0
    // esvaziando a composio
    this->fuzzyComposition.empty();
 80a291e:	f100 0510 	add.w	r5, r0, #16
FuzzyOutput::~FuzzyOutput(){
    this->fuzzyComposition.empty();
}

// MTODOS PBLICOS
bool FuzzyOutput::truncate(){
 80a2922:	b091      	sub	sp, #68	; 0x44
    // esvaziando a composio
    this->fuzzyComposition.empty();
 80a2924:	4628      	mov	r0, r5
 80a2926:	f7ff fdd5 	bl	80a24d4 <_ZN16FuzzyComposition5emptyEv>

    fuzzySetArray *aux;
    aux = this->fuzzySets;
 80a292a:	68b4      	ldr	r4, [r6, #8]
                        this->fuzzyComposition.addPoint(newPointC, newPertinenceC);
                    }
                }
            }else if(aux->fuzzySet->getPointB() != aux->fuzzySet->getPointC()){
                // se trapezio
                if(aux->fuzzySet->getPertinence() == 1.0){
 80a292c:	f04f 597e 	mov.w	r9, #1065353216	; 0x3f800000
                    }
                }else{
                    float newPointB         = aux->fuzzySet->getPointB();
                    float newPertinenceB    = aux->fuzzySet->getPertinence();

                    rebuild(aux->fuzzySet->getPointA(), 0.0, aux->fuzzySet->getPointB(), 1.0, aux->fuzzySet->getPointA(), aux->fuzzySet->getPertinence(), aux->fuzzySet->getPointD(), aux->fuzzySet->getPertinence(), &newPointB, &newPertinenceB);
 80a2930:	af0d      	add	r7, sp, #52	; 0x34
    // esvaziando a composio
    this->fuzzyComposition.empty();

    fuzzySetArray *aux;
    aux = this->fuzzySets;
    while(aux != NULL){
 80a2932:	2c00      	cmp	r4, #0
 80a2934:	f000 8150 	beq.w	80a2bd8 <_ZN11FuzzyOutput8truncateEv+0x2c0>
        if(aux->fuzzySet->getPertinence() > 0.0){
 80a2938:	6820      	ldr	r0, [r4, #0]
 80a293a:	f000 f9f8 	bl	80a2d2e <_ZN8FuzzySet13getPertinenceEv>
 80a293e:	2100      	movs	r1, #0
 80a2940:	f002 fb0e 	bl	80a4f60 <__aeabi_fcmpgt>
 80a2944:	2800      	cmp	r0, #0
 80a2946:	f000 80d8 	beq.w	80a2afa <_ZN11FuzzyOutput8truncateEv+0x1e2>
            // Se no for trapezio iniciado com pertinencia 1 (sem o triangulo esquerdo)
            if(aux->fuzzySet->getPointA() != aux->fuzzySet->getPointB()){
 80a294a:	6820      	ldr	r0, [r4, #0]
 80a294c:	f000 f954 	bl	80a2bf8 <_ZN8FuzzySet9getPointAEv>
 80a2950:	4680      	mov	r8, r0
 80a2952:	6820      	ldr	r0, [r4, #0]
 80a2954:	f000 f952 	bl	80a2bfc <_ZN8FuzzySet9getPointBEv>
 80a2958:	4601      	mov	r1, r0
 80a295a:	4640      	mov	r0, r8
 80a295c:	f002 fad8 	bl	80a4f10 <__aeabi_fcmpeq>
 80a2960:	b980      	cbnz	r0, 80a2984 <_ZN11FuzzyOutput8truncateEv+0x6c>
                if(this->fuzzyComposition.checkPoint(aux->fuzzySet->getPointA(), 0.0) == false){
 80a2962:	6820      	ldr	r0, [r4, #0]
 80a2964:	f000 f948 	bl	80a2bf8 <_ZN8FuzzySet9getPointAEv>
 80a2968:	2200      	movs	r2, #0
 80a296a:	4601      	mov	r1, r0
 80a296c:	4628      	mov	r0, r5
 80a296e:	f7ff fcc2 	bl	80a22f6 <_ZN16FuzzyComposition10checkPointEff>
 80a2972:	b938      	cbnz	r0, 80a2984 <_ZN11FuzzyOutput8truncateEv+0x6c>
                    this->fuzzyComposition.addPoint(aux->fuzzySet->getPointA(), 0.0);
 80a2974:	6820      	ldr	r0, [r4, #0]
 80a2976:	f000 f93f 	bl	80a2bf8 <_ZN8FuzzySet9getPointAEv>
 80a297a:	2200      	movs	r2, #0
 80a297c:	4601      	mov	r1, r0
 80a297e:	4628      	mov	r0, r5
 80a2980:	f7ff fca0 	bl	80a22c4 <_ZN16FuzzyComposition8addPointEff>
                }
            }

            if(aux->fuzzySet->getPointB() == aux->fuzzySet->getPointC() && aux->fuzzySet->getPointA() != aux->fuzzySet->getPointD()){
 80a2984:	6820      	ldr	r0, [r4, #0]
 80a2986:	f000 f939 	bl	80a2bfc <_ZN8FuzzySet9getPointBEv>
 80a298a:	4680      	mov	r8, r0
 80a298c:	6820      	ldr	r0, [r4, #0]
 80a298e:	f000 f937 	bl	80a2c00 <_ZN8FuzzySet9getPointCEv>
 80a2992:	4601      	mov	r1, r0
 80a2994:	4640      	mov	r0, r8
 80a2996:	f002 fabb 	bl	80a4f10 <__aeabi_fcmpeq>
 80a299a:	b168      	cbz	r0, 80a29b8 <_ZN11FuzzyOutput8truncateEv+0xa0>
 80a299c:	6820      	ldr	r0, [r4, #0]
 80a299e:	f000 f92b 	bl	80a2bf8 <_ZN8FuzzySet9getPointAEv>
 80a29a2:	4680      	mov	r8, r0
 80a29a4:	6820      	ldr	r0, [r4, #0]
 80a29a6:	f000 f92d 	bl	80a2c04 <_ZN8FuzzySet9getPointDEv>
 80a29aa:	4601      	mov	r1, r0
 80a29ac:	4640      	mov	r0, r8
 80a29ae:	f002 faaf 	bl	80a4f10 <__aeabi_fcmpeq>
 80a29b2:	2800      	cmp	r0, #0
 80a29b4:	f000 80a3 	beq.w	80a2afe <_ZN11FuzzyOutput8truncateEv+0x1e6>

                    if(this->fuzzyComposition.checkPoint(newPointC, newPertinenceC) == false){
                        this->fuzzyComposition.addPoint(newPointC, newPertinenceC);
                    }
                }
            }else if(aux->fuzzySet->getPointB() != aux->fuzzySet->getPointC()){
 80a29b8:	6820      	ldr	r0, [r4, #0]
 80a29ba:	f000 f91f 	bl	80a2bfc <_ZN8FuzzySet9getPointBEv>
 80a29be:	4680      	mov	r8, r0
 80a29c0:	6820      	ldr	r0, [r4, #0]
 80a29c2:	f000 f91d 	bl	80a2c00 <_ZN8FuzzySet9getPointCEv>
 80a29c6:	4601      	mov	r1, r0
 80a29c8:	4640      	mov	r0, r8
 80a29ca:	f002 faa1 	bl	80a4f10 <__aeabi_fcmpeq>
 80a29ce:	2800      	cmp	r0, #0
 80a29d0:	f040 809f 	bne.w	80a2b12 <_ZN11FuzzyOutput8truncateEv+0x1fa>
                // se trapezio
                if(aux->fuzzySet->getPertinence() == 1.0){
 80a29d4:	6820      	ldr	r0, [r4, #0]
 80a29d6:	f000 f9aa 	bl	80a2d2e <_ZN8FuzzySet13getPertinenceEv>
 80a29da:	f04f 517e 	mov.w	r1, #1065353216	; 0x3f800000
 80a29de:	f002 fa97 	bl	80a4f10 <__aeabi_fcmpeq>
 80a29e2:	2800      	cmp	r0, #0
 80a29e4:	f040 80c4 	bne.w	80a2b70 <_ZN11FuzzyOutput8truncateEv+0x258>

                    if(this->fuzzyComposition.checkPoint(aux->fuzzySet->getPointC(), aux->fuzzySet->getPertinence()) == false){
                        this->fuzzyComposition.addPoint(aux->fuzzySet->getPointC(), aux->fuzzySet->getPertinence());
                    }
                }else{
                    float newPointB         = aux->fuzzySet->getPointB();
 80a29e8:	6820      	ldr	r0, [r4, #0]
 80a29ea:	f000 f907 	bl	80a2bfc <_ZN8FuzzySet9getPointBEv>
 80a29ee:	900c      	str	r0, [sp, #48]	; 0x30
                    float newPertinenceB    = aux->fuzzySet->getPertinence();
 80a29f0:	6820      	ldr	r0, [r4, #0]
 80a29f2:	f000 f99c 	bl	80a2d2e <_ZN8FuzzySet13getPertinenceEv>
 80a29f6:	900d      	str	r0, [sp, #52]	; 0x34

                    rebuild(aux->fuzzySet->getPointA(), 0.0, aux->fuzzySet->getPointB(), 1.0, aux->fuzzySet->getPointA(), aux->fuzzySet->getPertinence(), aux->fuzzySet->getPointD(), aux->fuzzySet->getPertinence(), &newPointB, &newPertinenceB);
 80a29f8:	6820      	ldr	r0, [r4, #0]
 80a29fa:	f000 f8fd 	bl	80a2bf8 <_ZN8FuzzySet9getPointAEv>
 80a29fe:	4680      	mov	r8, r0
 80a2a00:	6820      	ldr	r0, [r4, #0]
 80a2a02:	f000 f8fb 	bl	80a2bfc <_ZN8FuzzySet9getPointBEv>
 80a2a06:	4682      	mov	sl, r0
 80a2a08:	6820      	ldr	r0, [r4, #0]
 80a2a0a:	f000 f8f5 	bl	80a2bf8 <_ZN8FuzzySet9getPointAEv>
 80a2a0e:	4683      	mov	fp, r0
 80a2a10:	6820      	ldr	r0, [r4, #0]
 80a2a12:	f000 f98c 	bl	80a2d2e <_ZN8FuzzySet13getPertinenceEv>
 80a2a16:	900a      	str	r0, [sp, #40]	; 0x28
 80a2a18:	6820      	ldr	r0, [r4, #0]
 80a2a1a:	f000 f8f3 	bl	80a2c04 <_ZN8FuzzySet9getPointDEv>
 80a2a1e:	9009      	str	r0, [sp, #36]	; 0x24
 80a2a20:	6820      	ldr	r0, [r4, #0]
 80a2a22:	f000 f984 	bl	80a2d2e <_ZN8FuzzySet13getPertinenceEv>
 80a2a26:	9a09      	ldr	r2, [sp, #36]	; 0x24
 80a2a28:	9b0a      	ldr	r3, [sp, #40]	; 0x28
 80a2a2a:	a90c      	add	r1, sp, #48	; 0x30
 80a2a2c:	9105      	str	r1, [sp, #20]
 80a2a2e:	9004      	str	r0, [sp, #16]
 80a2a30:	9203      	str	r2, [sp, #12]
 80a2a32:	9302      	str	r3, [sp, #8]
 80a2a34:	2200      	movs	r2, #0
 80a2a36:	4641      	mov	r1, r8
 80a2a38:	9706      	str	r7, [sp, #24]
 80a2a3a:	f8cd b004 	str.w	fp, [sp, #4]
 80a2a3e:	f8cd 9000 	str.w	r9, [sp]
 80a2a42:	4653      	mov	r3, sl
 80a2a44:	4630      	mov	r0, r6
 80a2a46:	f7ff febb 	bl	80a27c0 <_ZN11FuzzyOutput7rebuildEffffffffPfS0_>

                    if(this->fuzzyComposition.checkPoint(newPointB, newPertinenceB) == false){
 80a2a4a:	9a0d      	ldr	r2, [sp, #52]	; 0x34
 80a2a4c:	990c      	ldr	r1, [sp, #48]	; 0x30
 80a2a4e:	4628      	mov	r0, r5
 80a2a50:	f7ff fc51 	bl	80a22f6 <_ZN16FuzzyComposition10checkPointEff>
 80a2a54:	b920      	cbnz	r0, 80a2a60 <_ZN11FuzzyOutput8truncateEv+0x148>
                        this->fuzzyComposition.addPoint(newPointB, newPertinenceB);
 80a2a56:	9a0d      	ldr	r2, [sp, #52]	; 0x34
 80a2a58:	990c      	ldr	r1, [sp, #48]	; 0x30
 80a2a5a:	4628      	mov	r0, r5
 80a2a5c:	f7ff fc32 	bl	80a22c4 <_ZN16FuzzyComposition8addPointEff>
                    }

                    float newPointC         = aux->fuzzySet->getPointB();
 80a2a60:	6820      	ldr	r0, [r4, #0]
 80a2a62:	f000 f8cb 	bl	80a2bfc <_ZN8FuzzySet9getPointBEv>
 80a2a66:	900e      	str	r0, [sp, #56]	; 0x38
                    float newPertinenceC    = aux->fuzzySet->getPertinence();
 80a2a68:	6820      	ldr	r0, [r4, #0]
 80a2a6a:	f000 f960 	bl	80a2d2e <_ZN8FuzzySet13getPertinenceEv>
 80a2a6e:	f10d 0840 	add.w	r8, sp, #64	; 0x40
 80a2a72:	f848 0d04 	str.w	r0, [r8, #-4]!

                    rebuild(aux->fuzzySet->getPointC(), 1.0, aux->fuzzySet->getPointD(), 0.0, aux->fuzzySet->getPointA(), aux->fuzzySet->getPertinence(), aux->fuzzySet->getPointD(), aux->fuzzySet->getPertinence(), &newPointC, &newPertinenceC);
 80a2a76:	6820      	ldr	r0, [r4, #0]
 80a2a78:	f000 f8c2 	bl	80a2c00 <_ZN8FuzzySet9getPointCEv>
 80a2a7c:	4682      	mov	sl, r0
 80a2a7e:	6820      	ldr	r0, [r4, #0]
 80a2a80:	f000 f8c0 	bl	80a2c04 <_ZN8FuzzySet9getPointDEv>
 80a2a84:	4683      	mov	fp, r0
 80a2a86:	6820      	ldr	r0, [r4, #0]
 80a2a88:	f000 f8b6 	bl	80a2bf8 <_ZN8FuzzySet9getPointAEv>
 80a2a8c:	9009      	str	r0, [sp, #36]	; 0x24
 80a2a8e:	6820      	ldr	r0, [r4, #0]
 80a2a90:	f000 f94d 	bl	80a2d2e <_ZN8FuzzySet13getPertinenceEv>
 80a2a94:	900b      	str	r0, [sp, #44]	; 0x2c
 80a2a96:	6820      	ldr	r0, [r4, #0]
 80a2a98:	f000 f8b4 	bl	80a2c04 <_ZN8FuzzySet9getPointDEv>
 80a2a9c:	900a      	str	r0, [sp, #40]	; 0x28
 80a2a9e:	6820      	ldr	r0, [r4, #0]
 80a2aa0:	f000 f945 	bl	80a2d2e <_ZN8FuzzySet13getPertinenceEv>
 80a2aa4:	ab0e      	add	r3, sp, #56	; 0x38
 80a2aa6:	9305      	str	r3, [sp, #20]
 80a2aa8:	9b09      	ldr	r3, [sp, #36]	; 0x24
 80a2aaa:	990a      	ldr	r1, [sp, #40]	; 0x28
 80a2aac:	9a0b      	ldr	r2, [sp, #44]	; 0x2c
 80a2aae:	9301      	str	r3, [sp, #4]
 80a2ab0:	2300      	movs	r3, #0
 80a2ab2:	9004      	str	r0, [sp, #16]
 80a2ab4:	9103      	str	r1, [sp, #12]
 80a2ab6:	9202      	str	r2, [sp, #8]
 80a2ab8:	9300      	str	r3, [sp, #0]
 80a2aba:	f04f 527e 	mov.w	r2, #1065353216	; 0x3f800000
 80a2abe:	4651      	mov	r1, sl
 80a2ac0:	f8cd 8018 	str.w	r8, [sp, #24]
 80a2ac4:	465b      	mov	r3, fp
 80a2ac6:	4630      	mov	r0, r6
 80a2ac8:	f7ff fe7a 	bl	80a27c0 <_ZN11FuzzyOutput7rebuildEffffffffPfS0_>

                    if(this->fuzzyComposition.checkPoint(newPointC, newPertinenceC) == false){
 80a2acc:	9a0f      	ldr	r2, [sp, #60]	; 0x3c
 80a2ace:	990e      	ldr	r1, [sp, #56]	; 0x38
 80a2ad0:	4628      	mov	r0, r5
 80a2ad2:	f7ff fc10 	bl	80a22f6 <_ZN16FuzzyComposition10checkPointEff>
 80a2ad6:	b920      	cbnz	r0, 80a2ae2 <_ZN11FuzzyOutput8truncateEv+0x1ca>
                        this->fuzzyComposition.addPoint(newPointC, newPertinenceC);
 80a2ad8:	9a0f      	ldr	r2, [sp, #60]	; 0x3c
 80a2ada:	990e      	ldr	r1, [sp, #56]	; 0x38
                    }
                }
            }else{
                //senao singleton
                if(this->fuzzyComposition.checkPoint(aux->fuzzySet->getPointB(), aux->fuzzySet->getPertinence()) == false){
                    this->fuzzyComposition.addPoint(aux->fuzzySet->getPointB(), aux->fuzzySet->getPertinence());
 80a2adc:	4628      	mov	r0, r5
 80a2ade:	f7ff fbf1 	bl	80a22c4 <_ZN16FuzzyComposition8addPointEff>
                }
            }
            
            //Se no for trapezio iniciado com pertinencia 1 (sem o triangulo direito)
            if(aux->fuzzySet->getPointC() != aux->fuzzySet->getPointD()){
 80a2ae2:	6820      	ldr	r0, [r4, #0]
 80a2ae4:	f000 f88c 	bl	80a2c00 <_ZN8FuzzySet9getPointCEv>
 80a2ae8:	4680      	mov	r8, r0
 80a2aea:	6820      	ldr	r0, [r4, #0]
 80a2aec:	f000 f88a 	bl	80a2c04 <_ZN8FuzzySet9getPointDEv>
 80a2af0:	4601      	mov	r1, r0
 80a2af2:	4640      	mov	r0, r8
 80a2af4:	f002 fa0c 	bl	80a4f10 <__aeabi_fcmpeq>
 80a2af8:	b318      	cbz	r0, 80a2b42 <_ZN11FuzzyOutput8truncateEv+0x22a>
                if(this->fuzzyComposition.checkPoint(aux->fuzzySet->getPointD(), 0.0) == false || aux->fuzzySet->getPointD() == aux->fuzzySet->getPointA()){
                    this->fuzzyComposition.addPoint(aux->fuzzySet->getPointD(), 0.0);
                }
            }
        }
        aux = aux->next;
 80a2afa:	6864      	ldr	r4, [r4, #4]
    // esvaziando a composio
    this->fuzzyComposition.empty();

    fuzzySetArray *aux;
    aux = this->fuzzySets;
    while(aux != NULL){
 80a2afc:	e719      	b.n	80a2932 <_ZN11FuzzyOutput8truncateEv+0x1a>
                }
            }

            if(aux->fuzzySet->getPointB() == aux->fuzzySet->getPointC() && aux->fuzzySet->getPointA() != aux->fuzzySet->getPointD()){
                // se trinagulo
                if(aux->fuzzySet->getPertinence() == 1.0){
 80a2afe:	6820      	ldr	r0, [r4, #0]
 80a2b00:	f000 f915 	bl	80a2d2e <_ZN8FuzzySet13getPertinenceEv>
 80a2b04:	f04f 517e 	mov.w	r1, #1065353216	; 0x3f800000
 80a2b08:	f002 fa02 	bl	80a4f10 <__aeabi_fcmpeq>
 80a2b0c:	2800      	cmp	r0, #0
 80a2b0e:	f43f af6b 	beq.w	80a29e8 <_ZN11FuzzyOutput8truncateEv+0xd0>
                        this->fuzzyComposition.addPoint(newPointC, newPertinenceC);
                    }
                }
            }else{
                //senao singleton
                if(this->fuzzyComposition.checkPoint(aux->fuzzySet->getPointB(), aux->fuzzySet->getPertinence()) == false){
 80a2b12:	6820      	ldr	r0, [r4, #0]
 80a2b14:	f000 f872 	bl	80a2bfc <_ZN8FuzzySet9getPointBEv>
 80a2b18:	4680      	mov	r8, r0
 80a2b1a:	6820      	ldr	r0, [r4, #0]
 80a2b1c:	f000 f907 	bl	80a2d2e <_ZN8FuzzySet13getPertinenceEv>
 80a2b20:	4641      	mov	r1, r8
 80a2b22:	4602      	mov	r2, r0
 80a2b24:	4628      	mov	r0, r5
 80a2b26:	f7ff fbe6 	bl	80a22f6 <_ZN16FuzzyComposition10checkPointEff>
 80a2b2a:	2800      	cmp	r0, #0
 80a2b2c:	d1d9      	bne.n	80a2ae2 <_ZN11FuzzyOutput8truncateEv+0x1ca>
                    this->fuzzyComposition.addPoint(aux->fuzzySet->getPointB(), aux->fuzzySet->getPertinence());
 80a2b2e:	6820      	ldr	r0, [r4, #0]
 80a2b30:	f000 f864 	bl	80a2bfc <_ZN8FuzzySet9getPointBEv>
 80a2b34:	4680      	mov	r8, r0
 80a2b36:	6820      	ldr	r0, [r4, #0]
 80a2b38:	f000 f8f9 	bl	80a2d2e <_ZN8FuzzySet13getPertinenceEv>
 80a2b3c:	4641      	mov	r1, r8
 80a2b3e:	4602      	mov	r2, r0
 80a2b40:	e7cc      	b.n	80a2adc <_ZN11FuzzyOutput8truncateEv+0x1c4>
                }
            }
            
            //Se no for trapezio iniciado com pertinencia 1 (sem o triangulo direito)
            if(aux->fuzzySet->getPointC() != aux->fuzzySet->getPointD()){
                if(this->fuzzyComposition.checkPoint(aux->fuzzySet->getPointD(), 0.0) == false || aux->fuzzySet->getPointD() == aux->fuzzySet->getPointA()){
 80a2b42:	6820      	ldr	r0, [r4, #0]
 80a2b44:	f000 f85e 	bl	80a2c04 <_ZN8FuzzySet9getPointDEv>
 80a2b48:	2200      	movs	r2, #0
 80a2b4a:	4601      	mov	r1, r0
 80a2b4c:	4628      	mov	r0, r5
 80a2b4e:	f7ff fbd2 	bl	80a22f6 <_ZN16FuzzyComposition10checkPointEff>
 80a2b52:	2800      	cmp	r0, #0
 80a2b54:	d037      	beq.n	80a2bc6 <_ZN11FuzzyOutput8truncateEv+0x2ae>
 80a2b56:	6820      	ldr	r0, [r4, #0]
 80a2b58:	f000 f854 	bl	80a2c04 <_ZN8FuzzySet9getPointDEv>
 80a2b5c:	4680      	mov	r8, r0
 80a2b5e:	6820      	ldr	r0, [r4, #0]
 80a2b60:	f000 f84a 	bl	80a2bf8 <_ZN8FuzzySet9getPointAEv>
 80a2b64:	4601      	mov	r1, r0
 80a2b66:	4640      	mov	r0, r8
 80a2b68:	f002 f9d2 	bl	80a4f10 <__aeabi_fcmpeq>
 80a2b6c:	bb58      	cbnz	r0, 80a2bc6 <_ZN11FuzzyOutput8truncateEv+0x2ae>
 80a2b6e:	e7c4      	b.n	80a2afa <_ZN11FuzzyOutput8truncateEv+0x1e2>
                    }
                }
            }else if(aux->fuzzySet->getPointB() != aux->fuzzySet->getPointC()){
                // se trapezio
                if(aux->fuzzySet->getPertinence() == 1.0){
                    if(this->fuzzyComposition.checkPoint(aux->fuzzySet->getPointB(), aux->fuzzySet->getPertinence()) == false){
 80a2b70:	6820      	ldr	r0, [r4, #0]
 80a2b72:	f000 f843 	bl	80a2bfc <_ZN8FuzzySet9getPointBEv>
 80a2b76:	4680      	mov	r8, r0
 80a2b78:	6820      	ldr	r0, [r4, #0]
 80a2b7a:	f000 f8d8 	bl	80a2d2e <_ZN8FuzzySet13getPertinenceEv>
 80a2b7e:	4641      	mov	r1, r8
 80a2b80:	4602      	mov	r2, r0
 80a2b82:	4628      	mov	r0, r5
 80a2b84:	f7ff fbb7 	bl	80a22f6 <_ZN16FuzzyComposition10checkPointEff>
 80a2b88:	b958      	cbnz	r0, 80a2ba2 <_ZN11FuzzyOutput8truncateEv+0x28a>
                        this->fuzzyComposition.addPoint(aux->fuzzySet->getPointB(), aux->fuzzySet->getPertinence());
 80a2b8a:	6820      	ldr	r0, [r4, #0]
 80a2b8c:	f000 f836 	bl	80a2bfc <_ZN8FuzzySet9getPointBEv>
 80a2b90:	4680      	mov	r8, r0
 80a2b92:	6820      	ldr	r0, [r4, #0]
 80a2b94:	f000 f8cb 	bl	80a2d2e <_ZN8FuzzySet13getPertinenceEv>
 80a2b98:	4641      	mov	r1, r8
 80a2b9a:	4602      	mov	r2, r0
 80a2b9c:	4628      	mov	r0, r5
 80a2b9e:	f7ff fb91 	bl	80a22c4 <_ZN16FuzzyComposition8addPointEff>
                    }

                    if(this->fuzzyComposition.checkPoint(aux->fuzzySet->getPointC(), aux->fuzzySet->getPertinence()) == false){
 80a2ba2:	6820      	ldr	r0, [r4, #0]
 80a2ba4:	f000 f82c 	bl	80a2c00 <_ZN8FuzzySet9getPointCEv>
 80a2ba8:	4680      	mov	r8, r0
 80a2baa:	6820      	ldr	r0, [r4, #0]
 80a2bac:	f000 f8bf 	bl	80a2d2e <_ZN8FuzzySet13getPertinenceEv>
 80a2bb0:	4641      	mov	r1, r8
 80a2bb2:	4602      	mov	r2, r0
 80a2bb4:	4628      	mov	r0, r5
 80a2bb6:	f7ff fb9e 	bl	80a22f6 <_ZN16FuzzyComposition10checkPointEff>
 80a2bba:	2800      	cmp	r0, #0
 80a2bbc:	d191      	bne.n	80a2ae2 <_ZN11FuzzyOutput8truncateEv+0x1ca>
                        this->fuzzyComposition.addPoint(aux->fuzzySet->getPointC(), aux->fuzzySet->getPertinence());
 80a2bbe:	6820      	ldr	r0, [r4, #0]
 80a2bc0:	f000 f81e 	bl	80a2c00 <_ZN8FuzzySet9getPointCEv>
 80a2bc4:	e7b6      	b.n	80a2b34 <_ZN11FuzzyOutput8truncateEv+0x21c>
            }
            
            //Se no for trapezio iniciado com pertinencia 1 (sem o triangulo direito)
            if(aux->fuzzySet->getPointC() != aux->fuzzySet->getPointD()){
                if(this->fuzzyComposition.checkPoint(aux->fuzzySet->getPointD(), 0.0) == false || aux->fuzzySet->getPointD() == aux->fuzzySet->getPointA()){
                    this->fuzzyComposition.addPoint(aux->fuzzySet->getPointD(), 0.0);
 80a2bc6:	6820      	ldr	r0, [r4, #0]
 80a2bc8:	f000 f81c 	bl	80a2c04 <_ZN8FuzzySet9getPointDEv>
 80a2bcc:	2200      	movs	r2, #0
 80a2bce:	4601      	mov	r1, r0
 80a2bd0:	4628      	mov	r0, r5
 80a2bd2:	f7ff fb77 	bl	80a22c4 <_ZN16FuzzyComposition8addPointEff>
 80a2bd6:	e790      	b.n	80a2afa <_ZN11FuzzyOutput8truncateEv+0x1e2>
            }
        }
        aux = aux->next;
    }

    this->fuzzyComposition.build();
 80a2bd8:	4628      	mov	r0, r5
 80a2bda:	f7ff fd65 	bl	80a26a8 <_ZN16FuzzyComposition5buildEv>

    return true;
}
 80a2bde:	2001      	movs	r0, #1
 80a2be0:	b011      	add	sp, #68	; 0x44
 80a2be2:	e8bd 8ff0 	ldmia.w	sp!, {r4, r5, r6, r7, r8, r9, sl, fp, pc}

080a2be6 <_ZN8FuzzySetC1Effff>:
#include "FuzzySet.h"

FuzzySet::FuzzySet(){
}

FuzzySet::FuzzySet(float a, float b, float c, float d){
 80a2be6:	b510      	push	{r4, lr}
    this->a = a;
    this->b = b;
    this->c = c;
 80a2be8:	6083      	str	r3, [r0, #8]
    this->d = d;
 80a2bea:	9b02      	ldr	r3, [sp, #8]

FuzzySet::FuzzySet(){
}

FuzzySet::FuzzySet(float a, float b, float c, float d){
    this->a = a;
 80a2bec:	6001      	str	r1, [r0, #0]
    this->b = b;
    this->c = c;
    this->d = d;
 80a2bee:	60c3      	str	r3, [r0, #12]
    this->pertinence = 0.0;
 80a2bf0:	2300      	movs	r3, #0
FuzzySet::FuzzySet(){
}

FuzzySet::FuzzySet(float a, float b, float c, float d){
    this->a = a;
    this->b = b;
 80a2bf2:	6042      	str	r2, [r0, #4]
    this->c = c;
    this->d = d;
    this->pertinence = 0.0;
 80a2bf4:	6103      	str	r3, [r0, #16]
}
 80a2bf6:	bd10      	pop	{r4, pc}

080a2bf8 <_ZN8FuzzySet9getPointAEv>:

float FuzzySet::getPointA(){
    return this->a;
}
 80a2bf8:	6800      	ldr	r0, [r0, #0]
 80a2bfa:	4770      	bx	lr

080a2bfc <_ZN8FuzzySet9getPointBEv>:

float FuzzySet::getPointB(){
    return this->b;
}
 80a2bfc:	6840      	ldr	r0, [r0, #4]
 80a2bfe:	4770      	bx	lr

080a2c00 <_ZN8FuzzySet9getPointCEv>:

float FuzzySet::getPointC(){
    return this->c;
}
 80a2c00:	6880      	ldr	r0, [r0, #8]
 80a2c02:	4770      	bx	lr

080a2c04 <_ZN8FuzzySet9getPointDEv>:

float FuzzySet::getPointD(){
    return this->d;
}
 80a2c04:	68c0      	ldr	r0, [r0, #12]
 80a2c06:	4770      	bx	lr

080a2c08 <_ZN8FuzzySet19calculatePertinenceEf>:

bool FuzzySet::calculatePertinence(float crispValue){
 80a2c08:	e92d 43f8 	stmdb	sp!, {r3, r4, r5, r6, r7, r8, r9, lr}
    float slope;

    if (crispValue < this->a){
 80a2c0c:	6807      	ldr	r7, [r0, #0]

float FuzzySet::getPointD(){
    return this->d;
}

bool FuzzySet::calculatePertinence(float crispValue){
 80a2c0e:	4604      	mov	r4, r0
    float slope;

    if (crispValue < this->a){
 80a2c10:	4638      	mov	r0, r7

float FuzzySet::getPointD(){
    return this->d;
}

bool FuzzySet::calculatePertinence(float crispValue){
 80a2c12:	460d      	mov	r5, r1
    float slope;

    if (crispValue < this->a){
 80a2c14:	f002 f9a4 	bl	80a4f60 <__aeabi_fcmpgt>
 80a2c18:	6866      	ldr	r6, [r4, #4]
 80a2c1a:	b198      	cbz	r0, 80a2c44 <_ZN8FuzzySet19calculatePertinenceEf+0x3c>
        if (this->a == this->b && this->b != this->c && this->c != this->d){
 80a2c1c:	4631      	mov	r1, r6
 80a2c1e:	4638      	mov	r0, r7
 80a2c20:	f002 f976 	bl	80a4f10 <__aeabi_fcmpeq>
 80a2c24:	2800      	cmp	r0, #0
 80a2c26:	d02e      	beq.n	80a2c86 <_ZN8FuzzySet19calculatePertinenceEf+0x7e>
 80a2c28:	68a5      	ldr	r5, [r4, #8]
 80a2c2a:	4630      	mov	r0, r6
 80a2c2c:	4629      	mov	r1, r5
 80a2c2e:	f002 f96f 	bl	80a4f10 <__aeabi_fcmpeq>
 80a2c32:	bb40      	cbnz	r0, 80a2c86 <_ZN8FuzzySet19calculatePertinenceEf+0x7e>
 80a2c34:	4628      	mov	r0, r5
 80a2c36:	68e1      	ldr	r1, [r4, #12]
 80a2c38:	f002 f96a 	bl	80a4f10 <__aeabi_fcmpeq>
 80a2c3c:	bb18      	cbnz	r0, 80a2c86 <_ZN8FuzzySet19calculatePertinenceEf+0x7e>
            this->pertinence = 1.0;
 80a2c3e:	f04f 537e 	mov.w	r3, #1065353216	; 0x3f800000
 80a2c42:	e021      	b.n	80a2c88 <_ZN8FuzzySet19calculatePertinenceEf+0x80>
        }else{
            this->pertinence = 0.0;
        }
    }else if (crispValue >= this->a && crispValue < this->b){
 80a2c44:	4629      	mov	r1, r5
 80a2c46:	4638      	mov	r0, r7
 80a2c48:	f002 f976 	bl	80a4f38 <__aeabi_fcmple>
 80a2c4c:	b9f0      	cbnz	r0, 80a2c8c <_ZN8FuzzySet19calculatePertinenceEf+0x84>
        slope = 1.0 / (this->b - this->a);
        this->pertinence = slope * (crispValue - this->b) + 1.0;
    }else if (crispValue >= this->b && crispValue <= this->c){
 80a2c4e:	4631      	mov	r1, r6
 80a2c50:	4628      	mov	r0, r5
 80a2c52:	f002 f97b 	bl	80a4f4c <__aeabi_fcmpge>
 80a2c56:	2800      	cmp	r0, #0
 80a2c58:	d12f      	bne.n	80a2cba <_ZN8FuzzySet19calculatePertinenceEf+0xb2>
        this->pertinence = 1.0;
    }else if (crispValue > this->c && crispValue <= this->d){
 80a2c5a:	f8d4 8008 	ldr.w	r8, [r4, #8]
 80a2c5e:	4628      	mov	r0, r5
 80a2c60:	4641      	mov	r1, r8
 80a2c62:	f002 f97d 	bl	80a4f60 <__aeabi_fcmpgt>
 80a2c66:	f8d4 900c 	ldr.w	r9, [r4, #12]
 80a2c6a:	2800      	cmp	r0, #0
 80a2c6c:	d12c      	bne.n	80a2cc8 <_ZN8FuzzySet19calculatePertinenceEf+0xc0>
        slope = 1.0 / (this->c - this->d);
        this->pertinence = slope * (crispValue - this->c) + 1.0;
    }else if (crispValue > this->d){
 80a2c6e:	4649      	mov	r1, r9
 80a2c70:	4628      	mov	r0, r5
 80a2c72:	f002 f975 	bl	80a4f60 <__aeabi_fcmpgt>
 80a2c76:	2800      	cmp	r0, #0
 80a2c78:	d04d      	beq.n	80a2d16 <_ZN8FuzzySet19calculatePertinenceEf+0x10e>
        if (this->c == this->d && this->c != this->b && this->b != this->a){
 80a2c7a:	4649      	mov	r1, r9
 80a2c7c:	4640      	mov	r0, r8
 80a2c7e:	f002 f947 	bl	80a4f10 <__aeabi_fcmpeq>
 80a2c82:	2800      	cmp	r0, #0
 80a2c84:	d13e      	bne.n	80a2d04 <_ZN8FuzzySet19calculatePertinenceEf+0xfc>

    if (crispValue < this->a){
        if (this->a == this->b && this->b != this->c && this->c != this->d){
            this->pertinence = 1.0;
        }else{
            this->pertinence = 0.0;
 80a2c86:	2300      	movs	r3, #0
 80a2c88:	6123      	str	r3, [r4, #16]
 80a2c8a:	e044      	b.n	80a2d16 <_ZN8FuzzySet19calculatePertinenceEf+0x10e>
        }
    }else if (crispValue >= this->a && crispValue < this->b){
 80a2c8c:	4631      	mov	r1, r6
 80a2c8e:	4628      	mov	r0, r5
 80a2c90:	f002 f948 	bl	80a4f24 <__aeabi_fcmplt>
 80a2c94:	2800      	cmp	r0, #0
 80a2c96:	d0da      	beq.n	80a2c4e <_ZN8FuzzySet19calculatePertinenceEf+0x46>
        slope = 1.0 / (this->b - this->a);
        this->pertinence = slope * (crispValue - this->b) + 1.0;
 80a2c98:	4639      	mov	r1, r7
 80a2c9a:	4630      	mov	r0, r6
 80a2c9c:	f001 fe9a 	bl	80a49d4 <__aeabi_fsub>
 80a2ca0:	4601      	mov	r1, r0
 80a2ca2:	f04f 507e 	mov.w	r0, #1065353216	; 0x3f800000
 80a2ca6:	f002 f853 	bl	80a4d50 <__aeabi_fdiv>
 80a2caa:	4631      	mov	r1, r6
 80a2cac:	4607      	mov	r7, r0
 80a2cae:	4628      	mov	r0, r5
 80a2cb0:	f001 fe90 	bl	80a49d4 <__aeabi_fsub>
 80a2cb4:	4601      	mov	r1, r0
 80a2cb6:	4638      	mov	r0, r7
 80a2cb8:	e01c      	b.n	80a2cf4 <_ZN8FuzzySet19calculatePertinenceEf+0xec>
    }else if (crispValue >= this->b && crispValue <= this->c){
 80a2cba:	68a1      	ldr	r1, [r4, #8]
 80a2cbc:	4628      	mov	r0, r5
 80a2cbe:	f002 f93b 	bl	80a4f38 <__aeabi_fcmple>
 80a2cc2:	2800      	cmp	r0, #0
 80a2cc4:	d0c9      	beq.n	80a2c5a <_ZN8FuzzySet19calculatePertinenceEf+0x52>
 80a2cc6:	e7ba      	b.n	80a2c3e <_ZN8FuzzySet19calculatePertinenceEf+0x36>
        this->pertinence = 1.0;
    }else if (crispValue > this->c && crispValue <= this->d){
 80a2cc8:	4649      	mov	r1, r9
 80a2cca:	4628      	mov	r0, r5
 80a2ccc:	f002 f934 	bl	80a4f38 <__aeabi_fcmple>
 80a2cd0:	2800      	cmp	r0, #0
 80a2cd2:	d0cc      	beq.n	80a2c6e <_ZN8FuzzySet19calculatePertinenceEf+0x66>
        slope = 1.0 / (this->c - this->d);
        this->pertinence = slope * (crispValue - this->c) + 1.0;
 80a2cd4:	4649      	mov	r1, r9
 80a2cd6:	4640      	mov	r0, r8
 80a2cd8:	f001 fe7c 	bl	80a49d4 <__aeabi_fsub>
 80a2cdc:	4601      	mov	r1, r0
 80a2cde:	f04f 507e 	mov.w	r0, #1065353216	; 0x3f800000
 80a2ce2:	f002 f835 	bl	80a4d50 <__aeabi_fdiv>
 80a2ce6:	4641      	mov	r1, r8
 80a2ce8:	4606      	mov	r6, r0
 80a2cea:	4628      	mov	r0, r5
 80a2cec:	f001 fe72 	bl	80a49d4 <__aeabi_fsub>
 80a2cf0:	4601      	mov	r1, r0
 80a2cf2:	4630      	mov	r0, r6
 80a2cf4:	f001 ff78 	bl	80a4be8 <__aeabi_fmul>
 80a2cf8:	f04f 517e 	mov.w	r1, #1065353216	; 0x3f800000
 80a2cfc:	f001 fe6c 	bl	80a49d8 <__addsf3>
 80a2d00:	6120      	str	r0, [r4, #16]
 80a2d02:	e008      	b.n	80a2d16 <_ZN8FuzzySet19calculatePertinenceEf+0x10e>
    }else if (crispValue > this->d){
        if (this->c == this->d && this->c != this->b && this->b != this->a){
 80a2d04:	4641      	mov	r1, r8
 80a2d06:	4630      	mov	r0, r6
 80a2d08:	f002 f902 	bl	80a4f10 <__aeabi_fcmpeq>
 80a2d0c:	2800      	cmp	r0, #0
 80a2d0e:	d1ba      	bne.n	80a2c86 <_ZN8FuzzySet19calculatePertinenceEf+0x7e>
 80a2d10:	4631      	mov	r1, r6
 80a2d12:	4638      	mov	r0, r7
 80a2d14:	e790      	b.n	80a2c38 <_ZN8FuzzySet19calculatePertinenceEf+0x30>
        }else{
            this->pertinence = 0.0;
        }
    }
    return true;
}
 80a2d16:	2001      	movs	r0, #1
 80a2d18:	e8bd 83f8 	ldmia.w	sp!, {r3, r4, r5, r6, r7, r8, r9, pc}

080a2d1c <_ZN8FuzzySet13setPertinenceEf>:

void FuzzySet::setPertinence(float pertinence){
 80a2d1c:	b538      	push	{r3, r4, r5, lr}
 80a2d1e:	4604      	mov	r4, r0
    if(this->pertinence < pertinence){
 80a2d20:	6900      	ldr	r0, [r0, #16]
        }
    }
    return true;
}

void FuzzySet::setPertinence(float pertinence){
 80a2d22:	460d      	mov	r5, r1
    if(this->pertinence < pertinence){
 80a2d24:	f002 f8fe 	bl	80a4f24 <__aeabi_fcmplt>
 80a2d28:	b100      	cbz	r0, 80a2d2c <_ZN8FuzzySet13setPertinenceEf+0x10>
        this->pertinence = pertinence;
 80a2d2a:	6125      	str	r5, [r4, #16]
 80a2d2c:	bd38      	pop	{r3, r4, r5, pc}

080a2d2e <_ZN8FuzzySet13getPertinenceEv>:
    }
}

float FuzzySet::getPertinence(){
    return this->pertinence;
}
 80a2d2e:	6900      	ldr	r0, [r0, #16]
 80a2d30:	4770      	bx	lr

080a2d32 <_ZN8FuzzySet5resetEv>:

void FuzzySet::reset(){
    this->pertinence = 0.0;
 80a2d32:	2300      	movs	r3, #0
 80a2d34:	6103      	str	r3, [r0, #16]
 80a2d36:	4770      	bx	lr

080a2d38 <_ZN19FuzzyRuleConsequentC1Ev>:
 */
#include "FuzzyRuleConsequent.h"

// CONSTRUTORES
FuzzyRuleConsequent::FuzzyRuleConsequent(){
    this->fuzzySetOutputs = NULL;
 80a2d38:	2200      	movs	r2, #0
 80a2d3a:	6042      	str	r2, [r0, #4]
    this->fuzzySetOutputsCursor = NULL;
 80a2d3c:	6002      	str	r2, [r0, #0]
}
 80a2d3e:	4770      	bx	lr

080a2d40 <_ZN19FuzzyRuleConsequent9addOutputEP8FuzzySet>:
FuzzyRuleConsequent::~FuzzyRuleConsequent(){
    this->cleanFuzzySets(this->fuzzySetOutputs);
}

// MTODOS PBLICOS
bool FuzzyRuleConsequent::addOutput(FuzzySet* fuzzySet){
 80a2d40:	b538      	push	{r3, r4, r5, lr}
 80a2d42:	4604      	mov	r4, r0
    fuzzySetOutputArray *aux;
    // Alocando espao na memria
    if((aux = (fuzzySetOutputArray *) malloc(sizeof(fuzzySetOutputArray))) == NULL){
 80a2d44:	2008      	movs	r0, #8
FuzzyRuleConsequent::~FuzzyRuleConsequent(){
    this->cleanFuzzySets(this->fuzzySetOutputs);
}

// MTODOS PBLICOS
bool FuzzyRuleConsequent::addOutput(FuzzySet* fuzzySet){
 80a2d46:	460d      	mov	r5, r1
    fuzzySetOutputArray *aux;
    // Alocando espao na memria
    if((aux = (fuzzySetOutputArray *) malloc(sizeof(fuzzySetOutputArray))) == NULL){
 80a2d48:	f000 fb54 	bl	80a33f4 <malloc>
 80a2d4c:	b150      	cbz	r0, 80a2d64 <_ZN19FuzzyRuleConsequent9addOutputEP8FuzzySet+0x24>
        return false;
    }
    aux->fuzzySet     = fuzzySet;
    aux->next         = NULL;
 80a2d4e:	2300      	movs	r3, #0
    fuzzySetOutputArray *aux;
    // Alocando espao na memria
    if((aux = (fuzzySetOutputArray *) malloc(sizeof(fuzzySetOutputArray))) == NULL){
        return false;
    }
    aux->fuzzySet     = fuzzySet;
 80a2d50:	6005      	str	r5, [r0, #0]
    aux->next         = NULL;
 80a2d52:	6043      	str	r3, [r0, #4]

    if(this->fuzzySetOutputs == NULL){
 80a2d54:	6863      	ldr	r3, [r4, #4]
 80a2d56:	b90b      	cbnz	r3, 80a2d5c <_ZN19FuzzyRuleConsequent9addOutputEP8FuzzySet+0x1c>
        this->fuzzySetOutputs = aux;
 80a2d58:	6060      	str	r0, [r4, #4]
 80a2d5a:	e001      	b.n	80a2d60 <_ZN19FuzzyRuleConsequent9addOutputEP8FuzzySet+0x20>
        this->fuzzySetOutputsCursor    = aux;
    }else{
        this->fuzzySetOutputsCursor->next = aux;
 80a2d5c:	6823      	ldr	r3, [r4, #0]
 80a2d5e:	6058      	str	r0, [r3, #4]
        this->fuzzySetOutputsCursor = aux;
 80a2d60:	6020      	str	r0, [r4, #0]
    }
    return true;
 80a2d62:	2001      	movs	r0, #1
}
 80a2d64:	bd38      	pop	{r3, r4, r5, pc}

080a2d66 <_ZN19FuzzyRuleConsequent8evaluateEf>:

bool FuzzyRuleConsequent::evaluate(float power){
 80a2d66:	b538      	push	{r3, r4, r5, lr}
 80a2d68:	460d      	mov	r5, r1
    fuzzySetOutputArray *aux;
    aux = this->fuzzySetOutputs;
 80a2d6a:	6844      	ldr	r4, [r0, #4]
    while(aux != NULL){
 80a2d6c:	b12c      	cbz	r4, 80a2d7a <_ZN19FuzzyRuleConsequent8evaluateEf+0x14>
        aux->fuzzySet->setPertinence(power);
 80a2d6e:	6820      	ldr	r0, [r4, #0]
 80a2d70:	4629      	mov	r1, r5
 80a2d72:	f7ff ffd3 	bl	80a2d1c <_ZN8FuzzySet13setPertinenceEf>
        aux = aux->next;
 80a2d76:	6864      	ldr	r4, [r4, #4]
}

bool FuzzyRuleConsequent::evaluate(float power){
    fuzzySetOutputArray *aux;
    aux = this->fuzzySetOutputs;
    while(aux != NULL){
 80a2d78:	e7f8      	b.n	80a2d6c <_ZN19FuzzyRuleConsequent8evaluateEf+0x6>
        aux->fuzzySet->setPertinence(power);
        aux = aux->next;
    }
    return true;
}
 80a2d7a:	2001      	movs	r0, #1
 80a2d7c:	bd38      	pop	{r3, r4, r5, pc}

080a2d7e <_ZN5FuzzyC1Ev>:

// CONSTRUTORES
Fuzzy::Fuzzy(){
    // Iniciando os ponteiros como nulo
    // FuzzyInput
    this->fuzzyInputs       = NULL;
 80a2d7e:	2200      	movs	r2, #0
 80a2d80:	6042      	str	r2, [r0, #4]
    this->fuzzyInputsCursor = NULL;
 80a2d82:	6002      	str	r2, [r0, #0]
    // FuzzyOutput
    this->fuzzyOutputs          = NULL;
 80a2d84:	60c2      	str	r2, [r0, #12]
    this->fuzzyOutputsCursor    = NULL;
 80a2d86:	6082      	str	r2, [r0, #8]
    // FuzzyRule
    this->fuzzyRules        = NULL;
 80a2d88:	6142      	str	r2, [r0, #20]
    this->fuzzyRulesCursor  = NULL;
 80a2d8a:	6102      	str	r2, [r0, #16]
}
 80a2d8c:	4770      	bx	lr

080a2d8e <_ZN5Fuzzy13addFuzzyInputEP10FuzzyInput>:
    this->cleanFuzzyOutputs(this->fuzzyOutputs);
    this->cleanFuzzyRules(this->fuzzyRules);
}

// MTODOS PBLICOS
bool Fuzzy::addFuzzyInput(FuzzyInput* fuzzyInput){
 80a2d8e:	b538      	push	{r3, r4, r5, lr}
 80a2d90:	4604      	mov	r4, r0
    fuzzyInputArray* aux;
    
    // Alocando espao na memria
    if((aux = (fuzzyInputArray *) malloc(sizeof(fuzzyInputArray))) == NULL){
 80a2d92:	2008      	movs	r0, #8
    this->cleanFuzzyOutputs(this->fuzzyOutputs);
    this->cleanFuzzyRules(this->fuzzyRules);
}

// MTODOS PBLICOS
bool Fuzzy::addFuzzyInput(FuzzyInput* fuzzyInput){
 80a2d94:	460d      	mov	r5, r1
    fuzzyInputArray* aux;
    
    // Alocando espao na memria
    if((aux = (fuzzyInputArray *) malloc(sizeof(fuzzyInputArray))) == NULL){
 80a2d96:	f000 fb2d 	bl	80a33f4 <malloc>
 80a2d9a:	b150      	cbz	r0, 80a2db2 <_ZN5Fuzzy13addFuzzyInputEP10FuzzyInput+0x24>
        return false;
    }

    aux->fuzzyInput = fuzzyInput;
    aux->next = NULL;
 80a2d9c:	2300      	movs	r3, #0
    // Alocando espao na memria
    if((aux = (fuzzyInputArray *) malloc(sizeof(fuzzyInputArray))) == NULL){
        return false;
    }

    aux->fuzzyInput = fuzzyInput;
 80a2d9e:	6005      	str	r5, [r0, #0]
    aux->next = NULL;
 80a2da0:	6043      	str	r3, [r0, #4]

    if(this->fuzzyInputs == NULL){
 80a2da2:	6863      	ldr	r3, [r4, #4]
 80a2da4:	b90b      	cbnz	r3, 80a2daa <_ZN5Fuzzy13addFuzzyInputEP10FuzzyInput+0x1c>
        this->fuzzyInputs = aux;
 80a2da6:	6060      	str	r0, [r4, #4]
 80a2da8:	e001      	b.n	80a2dae <_ZN5Fuzzy13addFuzzyInputEP10FuzzyInput+0x20>
        this->fuzzyInputsCursor  = aux;
    }else{
        this->fuzzyInputsCursor->next = aux;
 80a2daa:	6823      	ldr	r3, [r4, #0]
 80a2dac:	6058      	str	r0, [r3, #4]
        this->fuzzyInputsCursor = aux;
 80a2dae:	6020      	str	r0, [r4, #0]
    }

    return true;
 80a2db0:	2001      	movs	r0, #1
}
 80a2db2:	bd38      	pop	{r3, r4, r5, pc}

080a2db4 <_ZN5Fuzzy14addFuzzyOutputEP11FuzzyOutput>:

bool Fuzzy::addFuzzyOutput(FuzzyOutput* fuzzyOutput){
 80a2db4:	b570      	push	{r4, r5, r6, lr}
 80a2db6:	4605      	mov	r5, r0
    fuzzyOutputArray *aux;
    // Alocando espao na memria
    if((aux = (fuzzyOutputArray *) malloc(sizeof(fuzzyOutputArray))) == NULL){
 80a2db8:	2008      	movs	r0, #8
    }

    return true;
}

bool Fuzzy::addFuzzyOutput(FuzzyOutput* fuzzyOutput){
 80a2dba:	460e      	mov	r6, r1
    fuzzyOutputArray *aux;
    // Alocando espao na memria
    if((aux = (fuzzyOutputArray *) malloc(sizeof(fuzzyOutputArray))) == NULL){
 80a2dbc:	f000 fb1a 	bl	80a33f4 <malloc>
 80a2dc0:	4604      	mov	r4, r0
 80a2dc2:	b170      	cbz	r0, 80a2de2 <_ZN5Fuzzy14addFuzzyOutputEP11FuzzyOutput+0x2e>
        return false;
    }
    aux->fuzzyOutput = fuzzyOutput;
    aux->next = NULL;
 80a2dc4:	2300      	movs	r3, #0
 80a2dc6:	6043      	str	r3, [r0, #4]
    fuzzyOutputArray *aux;
    // Alocando espao na memria
    if((aux = (fuzzyOutputArray *) malloc(sizeof(fuzzyOutputArray))) == NULL){
        return false;
    }
    aux->fuzzyOutput = fuzzyOutput;
 80a2dc8:	6006      	str	r6, [r0, #0]
    aux->next = NULL;

    // Ordenando o fuzzyOutput
    fuzzyOutput->order();
 80a2dca:	4630      	mov	r0, r6
 80a2dcc:	f7ff fcd4 	bl	80a2778 <_ZN11FuzzyOutput5orderEv>

    if(this->fuzzyOutputs == NULL){
 80a2dd0:	68eb      	ldr	r3, [r5, #12]
 80a2dd2:	b90b      	cbnz	r3, 80a2dd8 <_ZN5Fuzzy14addFuzzyOutputEP11FuzzyOutput+0x24>
        this->fuzzyOutputs = aux;
 80a2dd4:	60ec      	str	r4, [r5, #12]
 80a2dd6:	e001      	b.n	80a2ddc <_ZN5Fuzzy14addFuzzyOutputEP11FuzzyOutput+0x28>
        this->fuzzyOutputsCursor  = aux;
    }else{
        this->fuzzyOutputsCursor->next = aux;
 80a2dd8:	68ab      	ldr	r3, [r5, #8]
 80a2dda:	605c      	str	r4, [r3, #4]
        this->fuzzyOutputsCursor = aux;
 80a2ddc:	60ac      	str	r4, [r5, #8]
    }
    return true;
 80a2dde:	2001      	movs	r0, #1
 80a2de0:	bd70      	pop	{r4, r5, r6, pc}
}
 80a2de2:	bd70      	pop	{r4, r5, r6, pc}

080a2de4 <_ZN5Fuzzy12addFuzzyRuleEP9FuzzyRule>:

bool Fuzzy::addFuzzyRule(FuzzyRule* fuzzyRule){
 80a2de4:	b538      	push	{r3, r4, r5, lr}
 80a2de6:	4604      	mov	r4, r0
    fuzzyRuleArray* aux;
    // Alocando espao na memria
    if((aux = (fuzzyRuleArray *) malloc(sizeof(fuzzyRuleArray))) == NULL){
 80a2de8:	2008      	movs	r0, #8
        this->fuzzyOutputsCursor = aux;
    }
    return true;
}

bool Fuzzy::addFuzzyRule(FuzzyRule* fuzzyRule){
 80a2dea:	460d      	mov	r5, r1
    fuzzyRuleArray* aux;
    // Alocando espao na memria
    if((aux = (fuzzyRuleArray *) malloc(sizeof(fuzzyRuleArray))) == NULL){
 80a2dec:	f000 fb02 	bl	80a33f4 <malloc>
 80a2df0:	b150      	cbz	r0, 80a2e08 <_ZN5Fuzzy12addFuzzyRuleEP9FuzzyRule+0x24>
        return false;
    }
    aux->fuzzyRule = fuzzyRule;
    aux->next = NULL;
 80a2df2:	2300      	movs	r3, #0
    fuzzyRuleArray* aux;
    // Alocando espao na memria
    if((aux = (fuzzyRuleArray *) malloc(sizeof(fuzzyRuleArray))) == NULL){
        return false;
    }
    aux->fuzzyRule = fuzzyRule;
 80a2df4:	6005      	str	r5, [r0, #0]
    aux->next = NULL;
 80a2df6:	6043      	str	r3, [r0, #4]

    if(this->fuzzyRules == NULL){
 80a2df8:	6963      	ldr	r3, [r4, #20]
 80a2dfa:	b90b      	cbnz	r3, 80a2e00 <_ZN5Fuzzy12addFuzzyRuleEP9FuzzyRule+0x1c>
        this->fuzzyRules = aux;
 80a2dfc:	6160      	str	r0, [r4, #20]
 80a2dfe:	e001      	b.n	80a2e04 <_ZN5Fuzzy12addFuzzyRuleEP9FuzzyRule+0x20>
        this->fuzzyRulesCursor  = aux;
    }else{
        this->fuzzyRulesCursor->next = aux;
 80a2e00:	6923      	ldr	r3, [r4, #16]
 80a2e02:	6058      	str	r0, [r3, #4]
        this->fuzzyRulesCursor = aux;
 80a2e04:	6120      	str	r0, [r4, #16]
    }
    return true;
 80a2e06:	2001      	movs	r0, #1
}
 80a2e08:	bd38      	pop	{r3, r4, r5, pc}

080a2e0a <_ZN5Fuzzy8setInputEif>:

bool Fuzzy::setInput(int fuzzyInputIndex, float crispValue){
 80a2e0a:	b570      	push	{r4, r5, r6, lr}
 80a2e0c:	460d      	mov	r5, r1
 80a2e0e:	4616      	mov	r6, r2
    fuzzyInputArray *aux;
    aux = this->fuzzyInputs;
 80a2e10:	6844      	ldr	r4, [r0, #4]

    while(aux != NULL){
 80a2e12:	b164      	cbz	r4, 80a2e2e <_ZN5Fuzzy8setInputEif+0x24>
        if(aux->fuzzyInput->getIndex() == fuzzyInputIndex){
 80a2e14:	6820      	ldr	r0, [r4, #0]
 80a2e16:	f7ff fc82 	bl	80a271e <_ZN7FuzzyIO8getIndexEv>
 80a2e1a:	42a8      	cmp	r0, r5
 80a2e1c:	d105      	bne.n	80a2e2a <_ZN5Fuzzy8setInputEif+0x20>
            aux->fuzzyInput->setCrispInput(crispValue);
 80a2e1e:	6820      	ldr	r0, [r4, #0]
 80a2e20:	4631      	mov	r1, r6
 80a2e22:	f7ff fc7e 	bl	80a2722 <_ZN7FuzzyIO13setCrispInputEf>
            return true;
 80a2e26:	2001      	movs	r0, #1
 80a2e28:	bd70      	pop	{r4, r5, r6, pc}
        }
        aux = aux->next;
 80a2e2a:	6864      	ldr	r4, [r4, #4]

bool Fuzzy::setInput(int fuzzyInputIndex, float crispValue){
    fuzzyInputArray *aux;
    aux = this->fuzzyInputs;

    while(aux != NULL){
 80a2e2c:	e7f1      	b.n	80a2e12 <_ZN5Fuzzy8setInputEif+0x8>
            aux->fuzzyInput->setCrispInput(crispValue);
            return true;
        }
        aux = aux->next;
    }
    return false;
 80a2e2e:	4620      	mov	r0, r4
}
 80a2e30:	bd70      	pop	{r4, r5, r6, pc}

080a2e32 <_ZN5Fuzzy7fuzzifyEv>:

bool Fuzzy::fuzzify(){
 80a2e32:	b538      	push	{r3, r4, r5, lr}
 80a2e34:	4604      	mov	r4, r0
    fuzzyInputArray* fuzzyInputAux;

    fuzzyOutputArray *fuzzyOutputAux;

    fuzzyInputAux = this->fuzzyInputs;
 80a2e36:	6845      	ldr	r5, [r0, #4]
    while(fuzzyInputAux != NULL){
 80a2e38:	b125      	cbz	r5, 80a2e44 <_ZN5Fuzzy7fuzzifyEv+0x12>
        fuzzyInputAux->fuzzyInput->resetFuzzySets();
 80a2e3a:	6828      	ldr	r0, [r5, #0]
 80a2e3c:	f7ff fc86 	bl	80a274c <_ZN7FuzzyIO14resetFuzzySetsEv>
        fuzzyInputAux = fuzzyInputAux->next;
 80a2e40:	686d      	ldr	r5, [r5, #4]
    fuzzyInputArray* fuzzyInputAux;

    fuzzyOutputArray *fuzzyOutputAux;

    fuzzyInputAux = this->fuzzyInputs;
    while(fuzzyInputAux != NULL){
 80a2e42:	e7f9      	b.n	80a2e38 <_ZN5Fuzzy7fuzzifyEv+0x6>
        fuzzyInputAux->fuzzyInput->resetFuzzySets();
        fuzzyInputAux = fuzzyInputAux->next;
    }

    fuzzyOutputAux = this->fuzzyOutputs;
 80a2e44:	68e5      	ldr	r5, [r4, #12]
    while(fuzzyOutputAux != NULL){
 80a2e46:	b125      	cbz	r5, 80a2e52 <_ZN5Fuzzy7fuzzifyEv+0x20>
        fuzzyOutputAux->fuzzyOutput->resetFuzzySets();
 80a2e48:	6828      	ldr	r0, [r5, #0]
 80a2e4a:	f7ff fc7f 	bl	80a274c <_ZN7FuzzyIO14resetFuzzySetsEv>
        fuzzyOutputAux = fuzzyOutputAux->next;
 80a2e4e:	686d      	ldr	r5, [r5, #4]
        fuzzyInputAux->fuzzyInput->resetFuzzySets();
        fuzzyInputAux = fuzzyInputAux->next;
    }

    fuzzyOutputAux = this->fuzzyOutputs;
    while(fuzzyOutputAux != NULL){
 80a2e50:	e7f9      	b.n	80a2e46 <_ZN5Fuzzy7fuzzifyEv+0x14>
        fuzzyOutputAux->fuzzyOutput->resetFuzzySets();
        fuzzyOutputAux = fuzzyOutputAux->next;
    }

    // Calculando a pertinncia de todos os FuzzyInputs
    fuzzyInputAux = this->fuzzyInputs;
 80a2e52:	6865      	ldr	r5, [r4, #4]
    while(fuzzyInputAux != NULL){
 80a2e54:	b125      	cbz	r5, 80a2e60 <_ZN5Fuzzy7fuzzifyEv+0x2e>
        fuzzyInputAux->fuzzyInput->calculateFuzzySetPertinences();
 80a2e56:	6828      	ldr	r0, [r5, #0]
 80a2e58:	f7ff fc4f 	bl	80a26fa <_ZN10FuzzyInput28calculateFuzzySetPertinencesEv>
        fuzzyInputAux = fuzzyInputAux->next;
 80a2e5c:	686d      	ldr	r5, [r5, #4]
        fuzzyOutputAux = fuzzyOutputAux->next;
    }

    // Calculando a pertinncia de todos os FuzzyInputs
    fuzzyInputAux = this->fuzzyInputs;
    while(fuzzyInputAux != NULL){
 80a2e5e:	e7f9      	b.n	80a2e54 <_ZN5Fuzzy7fuzzifyEv+0x22>
        fuzzyInputAux = fuzzyInputAux->next;
    }

    // Avaliando quais regras foram disparadas
    fuzzyRuleArray* fuzzyRuleAux;
    fuzzyRuleAux = this->fuzzyRules;
 80a2e60:	6965      	ldr	r5, [r4, #20]
    // Calculando as pertinncias de totos os FuzzyInputs
    while(fuzzyRuleAux != NULL){
 80a2e62:	b125      	cbz	r5, 80a2e6e <_ZN5Fuzzy7fuzzifyEv+0x3c>
        fuzzyRuleAux->fuzzyRule->evaluateExpression();
 80a2e64:	6828      	ldr	r0, [r5, #0]
 80a2e66:	f7ff fa14 	bl	80a2292 <_ZN9FuzzyRule18evaluateExpressionEv>
        fuzzyRuleAux = fuzzyRuleAux->next;
 80a2e6a:	686d      	ldr	r5, [r5, #4]

    // Avaliando quais regras foram disparadas
    fuzzyRuleArray* fuzzyRuleAux;
    fuzzyRuleAux = this->fuzzyRules;
    // Calculando as pertinncias de totos os FuzzyInputs
    while(fuzzyRuleAux != NULL){
 80a2e6c:	e7f9      	b.n	80a2e62 <_ZN5Fuzzy7fuzzifyEv+0x30>
        fuzzyRuleAux->fuzzyRule->evaluateExpression();
        fuzzyRuleAux = fuzzyRuleAux->next;
    }

    // Truncado os conjuntos de sada
    fuzzyOutputAux = this->fuzzyOutputs;
 80a2e6e:	68e4      	ldr	r4, [r4, #12]
    while(fuzzyOutputAux != NULL){
 80a2e70:	b124      	cbz	r4, 80a2e7c <_ZN5Fuzzy7fuzzifyEv+0x4a>
        fuzzyOutputAux->fuzzyOutput->truncate();
 80a2e72:	6820      	ldr	r0, [r4, #0]
 80a2e74:	f7ff fd50 	bl	80a2918 <_ZN11FuzzyOutput8truncateEv>
        fuzzyOutputAux = fuzzyOutputAux->next;
 80a2e78:	6864      	ldr	r4, [r4, #4]
        fuzzyRuleAux = fuzzyRuleAux->next;
    }

    // Truncado os conjuntos de sada
    fuzzyOutputAux = this->fuzzyOutputs;
    while(fuzzyOutputAux != NULL){
 80a2e7a:	e7f9      	b.n	80a2e70 <_ZN5Fuzzy7fuzzifyEv+0x3e>
        fuzzyOutputAux->fuzzyOutput->truncate();
        fuzzyOutputAux = fuzzyOutputAux->next;
    }

    return true;
}
 80a2e7c:	2001      	movs	r0, #1
 80a2e7e:	bd38      	pop	{r3, r4, r5, pc}

080a2e80 <_ZN5Fuzzy9defuzzifyEi>:
        aux = aux->next;
    }
    return false;
}

float Fuzzy::defuzzify(int fuzzyOutputIndex){
 80a2e80:	b538      	push	{r3, r4, r5, lr}
 80a2e82:	460d      	mov	r5, r1
    fuzzyOutputArray *aux;
    aux = this->fuzzyOutputs;
 80a2e84:	68c4      	ldr	r4, [r0, #12]
    while(aux != NULL){
 80a2e86:	b15c      	cbz	r4, 80a2ea0 <_ZN5Fuzzy9defuzzifyEi+0x20>
        if(aux->fuzzyOutput->getIndex() == fuzzyOutputIndex){
 80a2e88:	6820      	ldr	r0, [r4, #0]
 80a2e8a:	f7ff fc48 	bl	80a271e <_ZN7FuzzyIO8getIndexEv>
 80a2e8e:	42a8      	cmp	r0, r5
 80a2e90:	d104      	bne.n	80a2e9c <_ZN5Fuzzy9defuzzifyEi+0x1c>
            return aux->fuzzyOutput->getCrispOutput();
 80a2e92:	6820      	ldr	r0, [r4, #0]
        }
        aux = aux->next;
    }
    return 0;
}
 80a2e94:	e8bd 4038 	ldmia.w	sp!, {r3, r4, r5, lr}
float Fuzzy::defuzzify(int fuzzyOutputIndex){
    fuzzyOutputArray *aux;
    aux = this->fuzzyOutputs;
    while(aux != NULL){
        if(aux->fuzzyOutput->getIndex() == fuzzyOutputIndex){
            return aux->fuzzyOutput->getCrispOutput();
 80a2e98:	f7ff bc6b 	b.w	80a2772 <_ZN11FuzzyOutput14getCrispOutputEv>
        }
        aux = aux->next;
 80a2e9c:	6864      	ldr	r4, [r4, #4]
}

float Fuzzy::defuzzify(int fuzzyOutputIndex){
    fuzzyOutputArray *aux;
    aux = this->fuzzyOutputs;
    while(aux != NULL){
 80a2e9e:	e7f2      	b.n	80a2e86 <_ZN5Fuzzy9defuzzifyEi+0x6>
            return aux->fuzzyOutput->getCrispOutput();
        }
        aux = aux->next;
    }
    return 0;
}
 80a2ea0:	2000      	movs	r0, #0
 80a2ea2:	bd38      	pop	{r3, r4, r5, pc}

080a2ea4 <_ZN19FuzzyRuleAntecedentC1Ev>:
 */
#include "FuzzyRuleAntecedent.h"

// CONSTRUTORES
FuzzyRuleAntecedent::FuzzyRuleAntecedent(){
    this->op = 0;
 80a2ea4:	2200      	movs	r2, #0
 80a2ea6:	6002      	str	r2, [r0, #0]
    this->mode = 0;
 80a2ea8:	6042      	str	r2, [r0, #4]
    this->fuzzySet1 = NULL;
 80a2eaa:	6082      	str	r2, [r0, #8]
    this->fuzzySet2 = NULL;
 80a2eac:	60c2      	str	r2, [r0, #12]
    this->fuzzyRuleAntecedent1 = NULL;
 80a2eae:	6102      	str	r2, [r0, #16]
    this->fuzzyRuleAntecedent2 = NULL;
 80a2eb0:	6142      	str	r2, [r0, #20]
}
 80a2eb2:	4770      	bx	lr

080a2eb4 <_ZN19FuzzyRuleAntecedent11joinWithANDEP8FuzzySetS1_>:
        return true;
    }
    return false;
}

bool FuzzyRuleAntecedent::joinWithAND(FuzzySet* fuzzySet1, FuzzySet* fuzzySet2){
 80a2eb4:	b510      	push	{r4, lr}
 80a2eb6:	4603      	mov	r3, r0
    if(fuzzySet1 != NULL && fuzzySet2 != NULL){
 80a2eb8:	b139      	cbz	r1, 80a2eca <_ZN19FuzzyRuleAntecedent11joinWithANDEP8FuzzySetS1_+0x16>
 80a2eba:	b142      	cbz	r2, 80a2ece <_ZN19FuzzyRuleAntecedent11joinWithANDEP8FuzzySetS1_+0x1a>
        this->op = OP_AND;
        this->mode = MODE_FS_FS;
 80a2ebc:	2001      	movs	r0, #1
 80a2ebe:	2402      	movs	r4, #2
 80a2ec0:	e883 0011 	stmia.w	r3, {r0, r4}
        this->fuzzySet1 = fuzzySet1;
 80a2ec4:	6099      	str	r1, [r3, #8]
        this->fuzzySet2 = fuzzySet2;
 80a2ec6:	60da      	str	r2, [r3, #12]
        return true;
 80a2ec8:	bd10      	pop	{r4, pc}
    }
    return false;
 80a2eca:	4608      	mov	r0, r1
 80a2ecc:	bd10      	pop	{r4, pc}
 80a2ece:	4610      	mov	r0, r2
}
 80a2ed0:	bd10      	pop	{r4, pc}

080a2ed2 <_ZN19FuzzyRuleAntecedent11joinWithANDEPS_S0_>:
        return true;
    }
    return false;
}

bool FuzzyRuleAntecedent::joinWithAND(FuzzyRuleAntecedent* fuzzyRuleAntecedent1, FuzzyRuleAntecedent* fuzzyRuleAntecedent2){
 80a2ed2:	b510      	push	{r4, lr}
 80a2ed4:	4603      	mov	r3, r0
    if(fuzzyRuleAntecedent1 != NULL && fuzzyRuleAntecedent2 != NULL){
 80a2ed6:	b139      	cbz	r1, 80a2ee8 <_ZN19FuzzyRuleAntecedent11joinWithANDEPS_S0_+0x16>
 80a2ed8:	b142      	cbz	r2, 80a2eec <_ZN19FuzzyRuleAntecedent11joinWithANDEPS_S0_+0x1a>
        this->op = OP_AND;
        this->mode = MODE_FRA_FRA;
 80a2eda:	2001      	movs	r0, #1
 80a2edc:	2404      	movs	r4, #4
 80a2ede:	e883 0011 	stmia.w	r3, {r0, r4}
        this->fuzzyRuleAntecedent1 = fuzzyRuleAntecedent1;
 80a2ee2:	6119      	str	r1, [r3, #16]
        this->fuzzyRuleAntecedent2 = fuzzyRuleAntecedent2;
 80a2ee4:	615a      	str	r2, [r3, #20]
        return true;
 80a2ee6:	bd10      	pop	{r4, pc}
    }
    return false;
 80a2ee8:	4608      	mov	r0, r1
 80a2eea:	bd10      	pop	{r4, pc}
 80a2eec:	4610      	mov	r0, r2
}
 80a2eee:	bd10      	pop	{r4, pc}

080a2ef0 <_ZN19FuzzyRuleAntecedent8evaluateEv>:
        return true;
    }
    return false;
}

float FuzzyRuleAntecedent::evaluate(){
 80a2ef0:	b538      	push	{r3, r4, r5, lr}
 80a2ef2:	4604      	mov	r4, r0
    switch(this->mode){
 80a2ef4:	6863      	ldr	r3, [r4, #4]
 80a2ef6:	3b01      	subs	r3, #1
 80a2ef8:	2b03      	cmp	r3, #3
 80a2efa:	f200 80ce 	bhi.w	80a309a <_ZN19FuzzyRuleAntecedent8evaluateEv+0x1aa>
 80a2efe:	e8df f003 	tbb	[pc, r3]
 80a2f02:	0276      	.short	0x0276
 80a2f04:	7b37      	.short	0x7b37
        case MODE_FS:
            return this->fuzzySet1->getPertinence();
            break;
        case MODE_FS_FS:
            switch(this->op){
 80a2f06:	6823      	ldr	r3, [r4, #0]
 80a2f08:	2b01      	cmp	r3, #1
 80a2f0a:	d002      	beq.n	80a2f12 <_ZN19FuzzyRuleAntecedent8evaluateEv+0x22>
 80a2f0c:	2b02      	cmp	r3, #2
 80a2f0e:	d01e      	beq.n	80a2f4e <_ZN19FuzzyRuleAntecedent8evaluateEv+0x5e>
 80a2f10:	e0c3      	b.n	80a309a <_ZN19FuzzyRuleAntecedent8evaluateEv+0x1aa>
                case OP_AND:
                    if(this->fuzzySet1->getPertinence() > 0.0 && this->fuzzySet2->getPertinence() > 0.0){
 80a2f12:	68a0      	ldr	r0, [r4, #8]
 80a2f14:	f7ff ff0b 	bl	80a2d2e <_ZN8FuzzySet13getPertinenceEv>
 80a2f18:	2100      	movs	r1, #0
 80a2f1a:	f002 f821 	bl	80a4f60 <__aeabi_fcmpgt>
 80a2f1e:	2800      	cmp	r0, #0
 80a2f20:	f000 80bb 	beq.w	80a309a <_ZN19FuzzyRuleAntecedent8evaluateEv+0x1aa>
 80a2f24:	68e0      	ldr	r0, [r4, #12]
 80a2f26:	f7ff ff02 	bl	80a2d2e <_ZN8FuzzySet13getPertinenceEv>
 80a2f2a:	2100      	movs	r1, #0
 80a2f2c:	f002 f818 	bl	80a4f60 <__aeabi_fcmpgt>
 80a2f30:	2800      	cmp	r0, #0
 80a2f32:	f000 80b2 	beq.w	80a309a <_ZN19FuzzyRuleAntecedent8evaluateEv+0x1aa>
                        if(this->fuzzySet1->getPertinence() < this->fuzzySet2->getPertinence()){
 80a2f36:	68a0      	ldr	r0, [r4, #8]
 80a2f38:	f7ff fef9 	bl	80a2d2e <_ZN8FuzzySet13getPertinenceEv>
 80a2f3c:	4605      	mov	r5, r0
 80a2f3e:	68e0      	ldr	r0, [r4, #12]
 80a2f40:	f7ff fef5 	bl	80a2d2e <_ZN8FuzzySet13getPertinenceEv>
 80a2f44:	4601      	mov	r1, r0
 80a2f46:	4628      	mov	r0, r5
 80a2f48:	f001 ffec 	bl	80a4f24 <__aeabi_fcmplt>
 80a2f4c:	e090      	b.n	80a3070 <_ZN19FuzzyRuleAntecedent8evaluateEv+0x180>
                    }else{
                        return 0.0;
                    }
                    break;
                case OP_OR:
                    if(this->fuzzySet1->getPertinence() > 0.0 || this->fuzzySet2->getPertinence() > 0.0){
 80a2f4e:	68a0      	ldr	r0, [r4, #8]
 80a2f50:	f7ff feed 	bl	80a2d2e <_ZN8FuzzySet13getPertinenceEv>
 80a2f54:	2100      	movs	r1, #0
 80a2f56:	f002 f803 	bl	80a4f60 <__aeabi_fcmpgt>
 80a2f5a:	2800      	cmp	r0, #0
 80a2f5c:	d17d      	bne.n	80a305a <_ZN19FuzzyRuleAntecedent8evaluateEv+0x16a>
 80a2f5e:	68e0      	ldr	r0, [r4, #12]
 80a2f60:	f7ff fee5 	bl	80a2d2e <_ZN8FuzzySet13getPertinenceEv>
 80a2f64:	2100      	movs	r1, #0
 80a2f66:	f001 fffb 	bl	80a4f60 <__aeabi_fcmpgt>
 80a2f6a:	2800      	cmp	r0, #0
 80a2f6c:	d175      	bne.n	80a305a <_ZN19FuzzyRuleAntecedent8evaluateEv+0x16a>
 80a2f6e:	e094      	b.n	80a309a <_ZN19FuzzyRuleAntecedent8evaluateEv+0x1aa>
                default:
                    return 0.0;
            }
            break;
        case MODE_FS_FRA:
            switch(this->op){
 80a2f70:	6823      	ldr	r3, [r4, #0]
 80a2f72:	2b01      	cmp	r3, #1
 80a2f74:	d002      	beq.n	80a2f7c <_ZN19FuzzyRuleAntecedent8evaluateEv+0x8c>
 80a2f76:	2b02      	cmp	r3, #2
 80a2f78:	d01d      	beq.n	80a2fb6 <_ZN19FuzzyRuleAntecedent8evaluateEv+0xc6>
 80a2f7a:	e08e      	b.n	80a309a <_ZN19FuzzyRuleAntecedent8evaluateEv+0x1aa>
                case OP_AND:
                    if(this->fuzzySet1->getPertinence() > 0.0 && fuzzyRuleAntecedent1->evaluate() > 0.0){
 80a2f7c:	68a0      	ldr	r0, [r4, #8]
 80a2f7e:	f7ff fed6 	bl	80a2d2e <_ZN8FuzzySet13getPertinenceEv>
 80a2f82:	2100      	movs	r1, #0
 80a2f84:	f001 ffec 	bl	80a4f60 <__aeabi_fcmpgt>
 80a2f88:	2800      	cmp	r0, #0
 80a2f8a:	f000 8086 	beq.w	80a309a <_ZN19FuzzyRuleAntecedent8evaluateEv+0x1aa>
 80a2f8e:	6920      	ldr	r0, [r4, #16]
 80a2f90:	f7ff ffae 	bl	80a2ef0 <_ZN19FuzzyRuleAntecedent8evaluateEv>
 80a2f94:	2100      	movs	r1, #0
 80a2f96:	f001 ffe3 	bl	80a4f60 <__aeabi_fcmpgt>
 80a2f9a:	2800      	cmp	r0, #0
 80a2f9c:	d07d      	beq.n	80a309a <_ZN19FuzzyRuleAntecedent8evaluateEv+0x1aa>
                        if(this->fuzzySet1->getPertinence() < fuzzyRuleAntecedent1->evaluate()){
 80a2f9e:	68a0      	ldr	r0, [r4, #8]
 80a2fa0:	f7ff fec5 	bl	80a2d2e <_ZN8FuzzySet13getPertinenceEv>
 80a2fa4:	4605      	mov	r5, r0
 80a2fa6:	6920      	ldr	r0, [r4, #16]
 80a2fa8:	f7ff ffa2 	bl	80a2ef0 <_ZN19FuzzyRuleAntecedent8evaluateEv>
 80a2fac:	4601      	mov	r1, r0
 80a2fae:	4628      	mov	r0, r5
 80a2fb0:	f001 ffb8 	bl	80a4f24 <__aeabi_fcmplt>
 80a2fb4:	e019      	b.n	80a2fea <_ZN19FuzzyRuleAntecedent8evaluateEv+0xfa>
                    }else{
                        return 0.0;
                    }
                    break;
                case OP_OR:
                    if(this->fuzzySet1->getPertinence() > 0.0 || fuzzyRuleAntecedent1->evaluate() > 0.0){
 80a2fb6:	68a0      	ldr	r0, [r4, #8]
 80a2fb8:	f7ff feb9 	bl	80a2d2e <_ZN8FuzzySet13getPertinenceEv>
 80a2fbc:	2100      	movs	r1, #0
 80a2fbe:	f001 ffcf 	bl	80a4f60 <__aeabi_fcmpgt>
 80a2fc2:	b938      	cbnz	r0, 80a2fd4 <_ZN19FuzzyRuleAntecedent8evaluateEv+0xe4>
 80a2fc4:	6920      	ldr	r0, [r4, #16]
 80a2fc6:	f7ff ff93 	bl	80a2ef0 <_ZN19FuzzyRuleAntecedent8evaluateEv>
 80a2fca:	2100      	movs	r1, #0
 80a2fcc:	f001 ffc8 	bl	80a4f60 <__aeabi_fcmpgt>
 80a2fd0:	2800      	cmp	r0, #0
 80a2fd2:	d062      	beq.n	80a309a <_ZN19FuzzyRuleAntecedent8evaluateEv+0x1aa>
                        if(this->fuzzySet1->getPertinence() > fuzzyRuleAntecedent1->evaluate()){
 80a2fd4:	68a0      	ldr	r0, [r4, #8]
 80a2fd6:	f7ff feaa 	bl	80a2d2e <_ZN8FuzzySet13getPertinenceEv>
 80a2fda:	4605      	mov	r5, r0
 80a2fdc:	6920      	ldr	r0, [r4, #16]
 80a2fde:	f7ff ff87 	bl	80a2ef0 <_ZN19FuzzyRuleAntecedent8evaluateEv>
 80a2fe2:	4601      	mov	r1, r0
 80a2fe4:	4628      	mov	r0, r5
 80a2fe6:	f001 ffbb 	bl	80a4f60 <__aeabi_fcmpgt>
 80a2fea:	2800      	cmp	r0, #0
 80a2fec:	d044      	beq.n	80a3078 <_ZN19FuzzyRuleAntecedent8evaluateEv+0x188>
                            return this->fuzzySet1->getPertinence();
 80a2fee:	68a0      	ldr	r0, [r4, #8]
            break;
        default:
            return 0.0;
    }
    return 0.0;
 80a2ff0:	e8bd 4038 	ldmia.w	sp!, {r3, r4, r5, lr}
                    }
                    break;
                case OP_OR:
                    if(this->fuzzySet1->getPertinence() > 0.0 || fuzzyRuleAntecedent1->evaluate() > 0.0){
                        if(this->fuzzySet1->getPertinence() > fuzzyRuleAntecedent1->evaluate()){
                            return this->fuzzySet1->getPertinence();
 80a2ff4:	f7ff be9b 	b.w	80a2d2e <_ZN8FuzzySet13getPertinenceEv>
                default:
                    return 0.0;
            }
            break;
        case MODE_FRA_FRA:
            switch(this->op){
 80a2ff8:	6823      	ldr	r3, [r4, #0]
 80a2ffa:	2b01      	cmp	r3, #1
 80a2ffc:	d002      	beq.n	80a3004 <_ZN19FuzzyRuleAntecedent8evaluateEv+0x114>
 80a2ffe:	2b02      	cmp	r3, #2
 80a3000:	d01c      	beq.n	80a303c <_ZN19FuzzyRuleAntecedent8evaluateEv+0x14c>
 80a3002:	e04a      	b.n	80a309a <_ZN19FuzzyRuleAntecedent8evaluateEv+0x1aa>
                case OP_AND:
                    if(fuzzyRuleAntecedent1->evaluate() > 0.0 && fuzzyRuleAntecedent2->evaluate() > 0.0){
 80a3004:	6920      	ldr	r0, [r4, #16]
 80a3006:	f7ff ff73 	bl	80a2ef0 <_ZN19FuzzyRuleAntecedent8evaluateEv>
 80a300a:	2100      	movs	r1, #0
 80a300c:	f001 ffa8 	bl	80a4f60 <__aeabi_fcmpgt>
 80a3010:	2800      	cmp	r0, #0
 80a3012:	d042      	beq.n	80a309a <_ZN19FuzzyRuleAntecedent8evaluateEv+0x1aa>
 80a3014:	6960      	ldr	r0, [r4, #20]
 80a3016:	f7ff ff6b 	bl	80a2ef0 <_ZN19FuzzyRuleAntecedent8evaluateEv>
 80a301a:	2100      	movs	r1, #0
 80a301c:	f001 ffa0 	bl	80a4f60 <__aeabi_fcmpgt>
 80a3020:	2800      	cmp	r0, #0
 80a3022:	d03a      	beq.n	80a309a <_ZN19FuzzyRuleAntecedent8evaluateEv+0x1aa>
                        if(fuzzyRuleAntecedent1->evaluate() < fuzzyRuleAntecedent2->evaluate()){
 80a3024:	6920      	ldr	r0, [r4, #16]
 80a3026:	f7ff ff63 	bl	80a2ef0 <_ZN19FuzzyRuleAntecedent8evaluateEv>
 80a302a:	4605      	mov	r5, r0
 80a302c:	6960      	ldr	r0, [r4, #20]
 80a302e:	f7ff ff5f 	bl	80a2ef0 <_ZN19FuzzyRuleAntecedent8evaluateEv>
 80a3032:	4601      	mov	r1, r0
 80a3034:	4628      	mov	r0, r5
 80a3036:	f001 ff75 	bl	80a4f24 <__aeabi_fcmplt>
 80a303a:	e02a      	b.n	80a3092 <_ZN19FuzzyRuleAntecedent8evaluateEv+0x1a2>
                    }else{
                        return 0.0;
                    }
                    break;
                case OP_OR:
                    if(fuzzyRuleAntecedent1->evaluate() > 0.0 || fuzzyRuleAntecedent2->evaluate() > 0.0){
 80a303c:	6920      	ldr	r0, [r4, #16]
 80a303e:	f7ff ff57 	bl	80a2ef0 <_ZN19FuzzyRuleAntecedent8evaluateEv>
 80a3042:	2100      	movs	r1, #0
 80a3044:	f001 ff8c 	bl	80a4f60 <__aeabi_fcmpgt>
 80a3048:	b9c0      	cbnz	r0, 80a307c <_ZN19FuzzyRuleAntecedent8evaluateEv+0x18c>
 80a304a:	6960      	ldr	r0, [r4, #20]
 80a304c:	f7ff ff50 	bl	80a2ef0 <_ZN19FuzzyRuleAntecedent8evaluateEv>
 80a3050:	2100      	movs	r1, #0
 80a3052:	f001 ff85 	bl	80a4f60 <__aeabi_fcmpgt>
 80a3056:	b988      	cbnz	r0, 80a307c <_ZN19FuzzyRuleAntecedent8evaluateEv+0x18c>
 80a3058:	e01f      	b.n	80a309a <_ZN19FuzzyRuleAntecedent8evaluateEv+0x1aa>
                        return 0.0;
                    }
                    break;
                case OP_OR:
                    if(this->fuzzySet1->getPertinence() > 0.0 || this->fuzzySet2->getPertinence() > 0.0){
                        if(this->fuzzySet1->getPertinence() > this->fuzzySet2->getPertinence()){
 80a305a:	68a0      	ldr	r0, [r4, #8]
 80a305c:	f7ff fe67 	bl	80a2d2e <_ZN8FuzzySet13getPertinenceEv>
 80a3060:	4605      	mov	r5, r0
 80a3062:	68e0      	ldr	r0, [r4, #12]
 80a3064:	f7ff fe63 	bl	80a2d2e <_ZN8FuzzySet13getPertinenceEv>
 80a3068:	4601      	mov	r1, r0
 80a306a:	4628      	mov	r0, r5
 80a306c:	f001 ff78 	bl	80a4f60 <__aeabi_fcmpgt>
 80a3070:	2800      	cmp	r0, #0
 80a3072:	d1bc      	bne.n	80a2fee <_ZN19FuzzyRuleAntecedent8evaluateEv+0xfe>
                            return this->fuzzySet1->getPertinence();
                        }else{
                            return this->fuzzySet2->getPertinence();
 80a3074:	68e0      	ldr	r0, [r4, #12]
 80a3076:	e7bb      	b.n	80a2ff0 <_ZN19FuzzyRuleAntecedent8evaluateEv+0x100>
                    }
                    break;
                case OP_OR:
                    if(fuzzyRuleAntecedent1->evaluate() > 0.0 || fuzzyRuleAntecedent2->evaluate() > 0.0){
                        if(fuzzyRuleAntecedent1->evaluate() > fuzzyRuleAntecedent2->evaluate()){
                            return fuzzyRuleAntecedent1->evaluate();
 80a3078:	6924      	ldr	r4, [r4, #16]
 80a307a:	e73b      	b.n	80a2ef4 <_ZN19FuzzyRuleAntecedent8evaluateEv+0x4>
                        return 0.0;
                    }
                    break;
                case OP_OR:
                    if(fuzzyRuleAntecedent1->evaluate() > 0.0 || fuzzyRuleAntecedent2->evaluate() > 0.0){
                        if(fuzzyRuleAntecedent1->evaluate() > fuzzyRuleAntecedent2->evaluate()){
 80a307c:	6920      	ldr	r0, [r4, #16]
 80a307e:	f7ff ff37 	bl	80a2ef0 <_ZN19FuzzyRuleAntecedent8evaluateEv>
 80a3082:	4605      	mov	r5, r0
 80a3084:	6960      	ldr	r0, [r4, #20]
 80a3086:	f7ff ff33 	bl	80a2ef0 <_ZN19FuzzyRuleAntecedent8evaluateEv>
 80a308a:	4601      	mov	r1, r0
 80a308c:	4628      	mov	r0, r5
 80a308e:	f001 ff67 	bl	80a4f60 <__aeabi_fcmpgt>
 80a3092:	2800      	cmp	r0, #0
 80a3094:	d1f0      	bne.n	80a3078 <_ZN19FuzzyRuleAntecedent8evaluateEv+0x188>
                            return fuzzyRuleAntecedent1->evaluate();
                        }else{
                            return fuzzyRuleAntecedent2->evaluate();
 80a3096:	6964      	ldr	r4, [r4, #20]
 80a3098:	e72c      	b.n	80a2ef4 <_ZN19FuzzyRuleAntecedent8evaluateEv+0x4>
            break;
        default:
            return 0.0;
    }
    return 0.0;
 80a309a:	2000      	movs	r0, #0
 80a309c:	bd38      	pop	{r3, r4, r5, pc}
	...

080a30a0 <HAL_Pin_Map>:
// New HAL functions must be added to the end of this list.
// GNINRAW

DYNALIB_BEGIN(hal_gpio)

DYNALIB_FN(0, hal_gpio, HAL_Pin_Map, STM32_Pin_Info*(void))
 80a30a0:	b508      	push	{r3, lr}
 80a30a2:	4b02      	ldr	r3, [pc, #8]	; (80a30ac <HAL_Pin_Map+0xc>)
 80a30a4:	681b      	ldr	r3, [r3, #0]
 80a30a6:	681b      	ldr	r3, [r3, #0]
 80a30a8:	9301      	str	r3, [sp, #4]
 80a30aa:	bd08      	pop	{r3, pc}
 80a30ac:	080601b0 	.word	0x080601b0

080a30b0 <HAL_Validate_Pin_Function>:
DYNALIB_FN(1, hal_gpio, HAL_Validate_Pin_Function, PinFunction(pin_t, PinFunction))
 80a30b0:	b508      	push	{r3, lr}
 80a30b2:	4b02      	ldr	r3, [pc, #8]	; (80a30bc <HAL_Validate_Pin_Function+0xc>)
 80a30b4:	681b      	ldr	r3, [r3, #0]
 80a30b6:	685b      	ldr	r3, [r3, #4]
 80a30b8:	9301      	str	r3, [sp, #4]
 80a30ba:	bd08      	pop	{r3, pc}
 80a30bc:	080601b0 	.word	0x080601b0

080a30c0 <HAL_Pin_Mode>:
DYNALIB_FN(2, hal_gpio, HAL_Pin_Mode, void(pin_t, PinMode))
 80a30c0:	b508      	push	{r3, lr}
 80a30c2:	4b02      	ldr	r3, [pc, #8]	; (80a30cc <HAL_Pin_Mode+0xc>)
 80a30c4:	681b      	ldr	r3, [r3, #0]
 80a30c6:	689b      	ldr	r3, [r3, #8]
 80a30c8:	9301      	str	r3, [sp, #4]
 80a30ca:	bd08      	pop	{r3, pc}
 80a30cc:	080601b0 	.word	0x080601b0

080a30d0 <HAL_Get_Pin_Mode>:
DYNALIB_FN(3, hal_gpio, HAL_Get_Pin_Mode, PinMode(pin_t))
 80a30d0:	b508      	push	{r3, lr}
 80a30d2:	4b02      	ldr	r3, [pc, #8]	; (80a30dc <HAL_Get_Pin_Mode+0xc>)
 80a30d4:	681b      	ldr	r3, [r3, #0]
 80a30d6:	68db      	ldr	r3, [r3, #12]
 80a30d8:	9301      	str	r3, [sp, #4]
 80a30da:	bd08      	pop	{r3, pc}
 80a30dc:	080601b0 	.word	0x080601b0

080a30e0 <HAL_GPIO_Write>:
DYNALIB_FN(4, hal_gpio, HAL_GPIO_Write, void(pin_t, uint8_t))
 80a30e0:	b508      	push	{r3, lr}
 80a30e2:	4b02      	ldr	r3, [pc, #8]	; (80a30ec <HAL_GPIO_Write+0xc>)
 80a30e4:	681b      	ldr	r3, [r3, #0]
 80a30e6:	691b      	ldr	r3, [r3, #16]
 80a30e8:	9301      	str	r3, [sp, #4]
 80a30ea:	bd08      	pop	{r3, pc}
 80a30ec:	080601b0 	.word	0x080601b0

080a30f0 <HAL_GPIO_Read>:
DYNALIB_FN(5, hal_gpio, HAL_GPIO_Read, int32_t(pin_t))
 80a30f0:	b508      	push	{r3, lr}
 80a30f2:	4b02      	ldr	r3, [pc, #8]	; (80a30fc <HAL_GPIO_Read+0xc>)
 80a30f4:	681b      	ldr	r3, [r3, #0]
 80a30f6:	695b      	ldr	r3, [r3, #20]
 80a30f8:	9301      	str	r3, [sp, #4]
 80a30fa:	bd08      	pop	{r3, pc}
 80a30fc:	080601b0 	.word	0x080601b0

080a3100 <HAL_Interrupts_Attach>:
DYNALIB_FN(6, hal_gpio, HAL_Interrupts_Attach, void(uint16_t, HAL_InterruptHandler, void*, InterruptMode, HAL_InterruptExtraConfiguration*))
 80a3100:	b508      	push	{r3, lr}
 80a3102:	4b02      	ldr	r3, [pc, #8]	; (80a310c <HAL_Interrupts_Attach+0xc>)
 80a3104:	681b      	ldr	r3, [r3, #0]
 80a3106:	699b      	ldr	r3, [r3, #24]
 80a3108:	9301      	str	r3, [sp, #4]
 80a310a:	bd08      	pop	{r3, pc}
 80a310c:	080601b0 	.word	0x080601b0

080a3110 <HAL_Interrupts_Detach>:
DYNALIB_FN(7, hal_gpio, HAL_Interrupts_Detach, void(uint16_t))
 80a3110:	b508      	push	{r3, lr}
 80a3112:	4b02      	ldr	r3, [pc, #8]	; (80a311c <HAL_Interrupts_Detach+0xc>)
 80a3114:	681b      	ldr	r3, [r3, #0]
 80a3116:	69db      	ldr	r3, [r3, #28]
 80a3118:	9301      	str	r3, [sp, #4]
 80a311a:	bd08      	pop	{r3, pc}
 80a311c:	080601b0 	.word	0x080601b0

080a3120 <HAL_SPI_Init>:
DYNALIB_FN(2, hal_spi, HAL_SPI_Set_Bit_Order, void(HAL_SPI_Interface, uint8_t))
DYNALIB_FN(3, hal_spi, HAL_SPI_Set_Data_Mode, void(HAL_SPI_Interface, uint8_t))
DYNALIB_FN(4, hal_spi, HAL_SPI_Set_Clock_Divider, void(HAL_SPI_Interface, uint8_t))
DYNALIB_FN(5, hal_spi, HAL_SPI_Send_Receive_Data, uint16_t(HAL_SPI_Interface, uint16_t))
DYNALIB_FN(6, hal_spi, HAL_SPI_Is_Enabled_Old, bool(void))
DYNALIB_FN(7, hal_spi, HAL_SPI_Init, void(HAL_SPI_Interface))
 80a3120:	b508      	push	{r3, lr}
 80a3122:	4b02      	ldr	r3, [pc, #8]	; (80a312c <HAL_SPI_Init+0xc>)
 80a3124:	681b      	ldr	r3, [r3, #0]
 80a3126:	69db      	ldr	r3, [r3, #28]
 80a3128:	9301      	str	r3, [sp, #4]
 80a312a:	bd08      	pop	{r3, pc}
 80a312c:	080601b4 	.word	0x080601b4

080a3130 <HAL_SPI_Is_Enabled>:
DYNALIB_FN(8, hal_spi, HAL_SPI_Is_Enabled, bool(HAL_SPI_Interface))
 80a3130:	b508      	push	{r3, lr}
 80a3132:	4b02      	ldr	r3, [pc, #8]	; (80a313c <HAL_SPI_Is_Enabled+0xc>)
 80a3134:	681b      	ldr	r3, [r3, #0]
 80a3136:	6a1b      	ldr	r3, [r3, #32]
 80a3138:	9301      	str	r3, [sp, #4]
 80a313a:	bd08      	pop	{r3, pc}
 80a313c:	080601b4 	.word	0x080601b4

080a3140 <HAL_RNG_GetRandomNumber>:

DYNALIB_BEGIN(hal)

#if PLATFORM_ID > 3
DYNALIB_FN(0, hal, HAL_RNG_Configuration, void(void))
DYNALIB_FN(1, hal, HAL_RNG_GetRandomNumber, uint32_t(void))
 80a3140:	b508      	push	{r3, lr}
 80a3142:	4b02      	ldr	r3, [pc, #8]	; (80a314c <HAL_RNG_GetRandomNumber+0xc>)
 80a3144:	681b      	ldr	r3, [r3, #0]
 80a3146:	685b      	ldr	r3, [r3, #4]
 80a3148:	9301      	str	r3, [sp, #4]
 80a314a:	bd08      	pop	{r3, pc}
 80a314c:	0806019c 	.word	0x0806019c

080a3150 <HAL_Timer_Get_Milli_Seconds>:
#endif

DYNALIB_FN(BASE_IDX + 0, hal, HAL_Delay_Milliseconds, void(uint32_t))
DYNALIB_FN(BASE_IDX + 1, hal, HAL_Delay_Microseconds, void(uint32_t))
DYNALIB_FN(BASE_IDX + 2, hal, HAL_Timer_Get_Micro_Seconds, system_tick_t(void))
DYNALIB_FN(BASE_IDX + 3, hal, HAL_Timer_Get_Milli_Seconds, system_tick_t(void))
 80a3150:	b508      	push	{r3, lr}
 80a3152:	4b02      	ldr	r3, [pc, #8]	; (80a315c <HAL_Timer_Get_Milli_Seconds+0xc>)
 80a3154:	681b      	ldr	r3, [r3, #0]
 80a3156:	695b      	ldr	r3, [r3, #20]
 80a3158:	9301      	str	r3, [sp, #4]
 80a315a:	bd08      	pop	{r3, pc}
 80a315c:	0806019c 	.word	0x0806019c

080a3160 <os_mutex_create>:
DYNALIB_FN(8, hal_concurrent, os_timer_create, int(os_timer_t*, unsigned, void(*)(os_timer_t), void*, bool, void*))
DYNALIB_FN(9, hal_concurrent, os_timer_destroy, int(os_timer_t, void*))
DYNALIB_FN(10, hal_concurrent, os_timer_get_id, int(os_timer_t, void**))
DYNALIB_FN(11, hal_concurrent, os_timer_change, int(os_timer_t, os_timer_change_t, bool, unsigned, unsigned, void*))

DYNALIB_FN(12, hal_concurrent, os_mutex_create, int(os_mutex_t*))
 80a3160:	b508      	push	{r3, lr}
 80a3162:	4b02      	ldr	r3, [pc, #8]	; (80a316c <os_mutex_create+0xc>)
 80a3164:	681b      	ldr	r3, [r3, #0]
 80a3166:	6b1b      	ldr	r3, [r3, #48]	; 0x30
 80a3168:	9301      	str	r3, [sp, #4]
 80a316a:	bd08      	pop	{r3, pc}
 80a316c:	080601d0 	.word	0x080601d0

080a3170 <HAL_USART_Init>:
#define BASE_IDX 6 // Base index for all subsequent functions
#else
#define BASE_IDX 0
#endif

DYNALIB_FN(BASE_IDX + 0, hal_usart, HAL_USART_Init, void(HAL_USART_Serial, Ring_Buffer*, Ring_Buffer*))
 80a3170:	b508      	push	{r3, lr}
 80a3172:	4b02      	ldr	r3, [pc, #8]	; (80a317c <HAL_USART_Init+0xc>)
 80a3174:	681b      	ldr	r3, [r3, #0]
 80a3176:	699b      	ldr	r3, [r3, #24]
 80a3178:	9301      	str	r3, [sp, #4]
 80a317a:	bd08      	pop	{r3, pc}
 80a317c:	080601c4 	.word	0x080601c4

080a3180 <HAL_USART_Write_Data>:
DYNALIB_FN(BASE_IDX + 1, hal_usart, HAL_USART_Begin, void(HAL_USART_Serial, uint32_t))
DYNALIB_FN(BASE_IDX + 2, hal_usart, HAL_USART_End, void(HAL_USART_Serial))
DYNALIB_FN(BASE_IDX + 3, hal_usart, HAL_USART_Write_Data, uint32_t(HAL_USART_Serial, uint8_t))
 80a3180:	b508      	push	{r3, lr}
 80a3182:	4b02      	ldr	r3, [pc, #8]	; (80a318c <HAL_USART_Write_Data+0xc>)
 80a3184:	681b      	ldr	r3, [r3, #0]
 80a3186:	6a5b      	ldr	r3, [r3, #36]	; 0x24
 80a3188:	9301      	str	r3, [sp, #4]
 80a318a:	bd08      	pop	{r3, pc}
 80a318c:	080601c4 	.word	0x080601c4

080a3190 <HAL_USART_Available_Data>:
DYNALIB_FN(BASE_IDX + 4, hal_usart, HAL_USART_Available_Data, int32_t(HAL_USART_Serial))
 80a3190:	b508      	push	{r3, lr}
 80a3192:	4b02      	ldr	r3, [pc, #8]	; (80a319c <HAL_USART_Available_Data+0xc>)
 80a3194:	681b      	ldr	r3, [r3, #0]
 80a3196:	6a9b      	ldr	r3, [r3, #40]	; 0x28
 80a3198:	9301      	str	r3, [sp, #4]
 80a319a:	bd08      	pop	{r3, pc}
 80a319c:	080601c4 	.word	0x080601c4

080a31a0 <HAL_USART_Read_Data>:
DYNALIB_FN(BASE_IDX + 5, hal_usart, HAL_USART_Read_Data, int32_t(HAL_USART_Serial))
 80a31a0:	b508      	push	{r3, lr}
 80a31a2:	4b02      	ldr	r3, [pc, #8]	; (80a31ac <HAL_USART_Read_Data+0xc>)
 80a31a4:	681b      	ldr	r3, [r3, #0]
 80a31a6:	6adb      	ldr	r3, [r3, #44]	; 0x2c
 80a31a8:	9301      	str	r3, [sp, #4]
 80a31aa:	bd08      	pop	{r3, pc}
 80a31ac:	080601c4 	.word	0x080601c4

080a31b0 <HAL_USART_Peek_Data>:
DYNALIB_FN(BASE_IDX + 6, hal_usart, HAL_USART_Peek_Data, int32_t(HAL_USART_Serial))
 80a31b0:	b508      	push	{r3, lr}
 80a31b2:	4b02      	ldr	r3, [pc, #8]	; (80a31bc <HAL_USART_Peek_Data+0xc>)
 80a31b4:	681b      	ldr	r3, [r3, #0]
 80a31b6:	6b1b      	ldr	r3, [r3, #48]	; 0x30
 80a31b8:	9301      	str	r3, [sp, #4]
 80a31ba:	bd08      	pop	{r3, pc}
 80a31bc:	080601c4 	.word	0x080601c4

080a31c0 <HAL_USART_Flush_Data>:
DYNALIB_FN(BASE_IDX + 7, hal_usart, HAL_USART_Flush_Data, void(HAL_USART_Serial))
 80a31c0:	b508      	push	{r3, lr}
 80a31c2:	4b02      	ldr	r3, [pc, #8]	; (80a31cc <HAL_USART_Flush_Data+0xc>)
 80a31c4:	681b      	ldr	r3, [r3, #0]
 80a31c6:	6b5b      	ldr	r3, [r3, #52]	; 0x34
 80a31c8:	9301      	str	r3, [sp, #4]
 80a31ca:	bd08      	pop	{r3, pc}
 80a31cc:	080601c4 	.word	0x080601c4

080a31d0 <HAL_USART_Is_Enabled>:
DYNALIB_FN(BASE_IDX + 8, hal_usart, HAL_USART_Is_Enabled, bool(HAL_USART_Serial))
 80a31d0:	b508      	push	{r3, lr}
 80a31d2:	4b02      	ldr	r3, [pc, #8]	; (80a31dc <HAL_USART_Is_Enabled+0xc>)
 80a31d4:	681b      	ldr	r3, [r3, #0]
 80a31d6:	6b9b      	ldr	r3, [r3, #56]	; 0x38
 80a31d8:	9301      	str	r3, [sp, #4]
 80a31da:	bd08      	pop	{r3, pc}
 80a31dc:	080601c4 	.word	0x080601c4

080a31e0 <HAL_USART_Available_Data_For_Write>:
DYNALIB_FN(BASE_IDX + 9, hal_usart, HAL_USART_Half_Duplex, void(HAL_USART_Serial, bool))
DYNALIB_FN(BASE_IDX + 10, hal_usart, HAL_USART_Available_Data_For_Write, int32_t(HAL_USART_Serial))
 80a31e0:	b508      	push	{r3, lr}
 80a31e2:	4b02      	ldr	r3, [pc, #8]	; (80a31ec <HAL_USART_Available_Data_For_Write+0xc>)
 80a31e4:	681b      	ldr	r3, [r3, #0]
 80a31e6:	6c1b      	ldr	r3, [r3, #64]	; 0x40
 80a31e8:	9301      	str	r3, [sp, #4]
 80a31ea:	bd08      	pop	{r3, pc}
 80a31ec:	080601c4 	.word	0x080601c4

080a31f0 <HAL_I2C_Set_Speed>:
#define BASE_IDX 16 // Base index for all subsequent functions
#else
#define BASE_IDX 0
#endif

DYNALIB_FN(BASE_IDX + 0, hal_i2c, HAL_I2C_Set_Speed, void(HAL_I2C_Interface, uint32_t, void*))
 80a31f0:	b508      	push	{r3, lr}
 80a31f2:	4b02      	ldr	r3, [pc, #8]	; (80a31fc <HAL_I2C_Set_Speed+0xc>)
 80a31f4:	681b      	ldr	r3, [r3, #0]
 80a31f6:	6c1b      	ldr	r3, [r3, #64]	; 0x40
 80a31f8:	9301      	str	r3, [sp, #4]
 80a31fa:	bd08      	pop	{r3, pc}
 80a31fc:	080601ac 	.word	0x080601ac

080a3200 <HAL_I2C_Begin>:
DYNALIB_FN(BASE_IDX + 1, hal_i2c, HAL_I2C_Enable_DMA_Mode, void(HAL_I2C_Interface, bool, void*))
DYNALIB_FN(BASE_IDX + 2, hal_i2c, HAL_I2C_Stretch_Clock, void(HAL_I2C_Interface, bool, void*))
DYNALIB_FN(BASE_IDX + 3, hal_i2c, HAL_I2C_Begin, void(HAL_I2C_Interface, I2C_Mode, uint8_t, void*))
 80a3200:	b508      	push	{r3, lr}
 80a3202:	4b02      	ldr	r3, [pc, #8]	; (80a320c <HAL_I2C_Begin+0xc>)
 80a3204:	681b      	ldr	r3, [r3, #0]
 80a3206:	6cdb      	ldr	r3, [r3, #76]	; 0x4c
 80a3208:	9301      	str	r3, [sp, #4]
 80a320a:	bd08      	pop	{r3, pc}
 80a320c:	080601ac 	.word	0x080601ac

080a3210 <HAL_I2C_Request_Data>:
DYNALIB_FN(BASE_IDX + 4, hal_i2c, HAL_I2C_End, void(HAL_I2C_Interface, void*))
DYNALIB_FN(BASE_IDX + 5, hal_i2c, HAL_I2C_Request_Data, uint32_t(HAL_I2C_Interface, uint8_t, uint8_t, uint8_t, void*))
 80a3210:	b508      	push	{r3, lr}
 80a3212:	4b02      	ldr	r3, [pc, #8]	; (80a321c <HAL_I2C_Request_Data+0xc>)
 80a3214:	681b      	ldr	r3, [r3, #0]
 80a3216:	6d5b      	ldr	r3, [r3, #84]	; 0x54
 80a3218:	9301      	str	r3, [sp, #4]
 80a321a:	bd08      	pop	{r3, pc}
 80a321c:	080601ac 	.word	0x080601ac

080a3220 <HAL_I2C_Begin_Transmission>:
DYNALIB_FN(BASE_IDX + 6, hal_i2c, HAL_I2C_Begin_Transmission, void(HAL_I2C_Interface, uint8_t, void*))
 80a3220:	b508      	push	{r3, lr}
 80a3222:	4b02      	ldr	r3, [pc, #8]	; (80a322c <HAL_I2C_Begin_Transmission+0xc>)
 80a3224:	681b      	ldr	r3, [r3, #0]
 80a3226:	6d9b      	ldr	r3, [r3, #88]	; 0x58
 80a3228:	9301      	str	r3, [sp, #4]
 80a322a:	bd08      	pop	{r3, pc}
 80a322c:	080601ac 	.word	0x080601ac

080a3230 <HAL_I2C_End_Transmission>:
DYNALIB_FN(BASE_IDX + 7, hal_i2c, HAL_I2C_End_Transmission, uint8_t(HAL_I2C_Interface, uint8_t, void*))
 80a3230:	b508      	push	{r3, lr}
 80a3232:	4b02      	ldr	r3, [pc, #8]	; (80a323c <HAL_I2C_End_Transmission+0xc>)
 80a3234:	681b      	ldr	r3, [r3, #0]
 80a3236:	6ddb      	ldr	r3, [r3, #92]	; 0x5c
 80a3238:	9301      	str	r3, [sp, #4]
 80a323a:	bd08      	pop	{r3, pc}
 80a323c:	080601ac 	.word	0x080601ac

080a3240 <HAL_I2C_Write_Data>:
DYNALIB_FN(BASE_IDX + 8, hal_i2c, HAL_I2C_Write_Data, uint32_t(HAL_I2C_Interface, uint8_t, void*))
 80a3240:	b508      	push	{r3, lr}
 80a3242:	4b02      	ldr	r3, [pc, #8]	; (80a324c <HAL_I2C_Write_Data+0xc>)
 80a3244:	681b      	ldr	r3, [r3, #0]
 80a3246:	6e1b      	ldr	r3, [r3, #96]	; 0x60
 80a3248:	9301      	str	r3, [sp, #4]
 80a324a:	bd08      	pop	{r3, pc}
 80a324c:	080601ac 	.word	0x080601ac

080a3250 <HAL_I2C_Available_Data>:
DYNALIB_FN(BASE_IDX + 9, hal_i2c, HAL_I2C_Available_Data, int32_t(HAL_I2C_Interface, void*))
 80a3250:	b508      	push	{r3, lr}
 80a3252:	4b02      	ldr	r3, [pc, #8]	; (80a325c <HAL_I2C_Available_Data+0xc>)
 80a3254:	681b      	ldr	r3, [r3, #0]
 80a3256:	6e5b      	ldr	r3, [r3, #100]	; 0x64
 80a3258:	9301      	str	r3, [sp, #4]
 80a325a:	bd08      	pop	{r3, pc}
 80a325c:	080601ac 	.word	0x080601ac

080a3260 <HAL_I2C_Read_Data>:
DYNALIB_FN(BASE_IDX + 10, hal_i2c, HAL_I2C_Read_Data, int32_t(HAL_I2C_Interface, void*))
 80a3260:	b508      	push	{r3, lr}
 80a3262:	4b02      	ldr	r3, [pc, #8]	; (80a326c <HAL_I2C_Read_Data+0xc>)
 80a3264:	681b      	ldr	r3, [r3, #0]
 80a3266:	6e9b      	ldr	r3, [r3, #104]	; 0x68
 80a3268:	9301      	str	r3, [sp, #4]
 80a326a:	bd08      	pop	{r3, pc}
 80a326c:	080601ac 	.word	0x080601ac

080a3270 <HAL_I2C_Peek_Data>:
DYNALIB_FN(BASE_IDX + 11, hal_i2c, HAL_I2C_Peek_Data, int32_t(HAL_I2C_Interface, void*))
 80a3270:	b508      	push	{r3, lr}
 80a3272:	4b02      	ldr	r3, [pc, #8]	; (80a327c <HAL_I2C_Peek_Data+0xc>)
 80a3274:	681b      	ldr	r3, [r3, #0]
 80a3276:	6edb      	ldr	r3, [r3, #108]	; 0x6c
 80a3278:	9301      	str	r3, [sp, #4]
 80a327a:	bd08      	pop	{r3, pc}
 80a327c:	080601ac 	.word	0x080601ac

080a3280 <HAL_I2C_Flush_Data>:
DYNALIB_FN(BASE_IDX + 12, hal_i2c, HAL_I2C_Flush_Data, void(HAL_I2C_Interface, void*))
 80a3280:	b508      	push	{r3, lr}
 80a3282:	4b02      	ldr	r3, [pc, #8]	; (80a328c <HAL_I2C_Flush_Data+0xc>)
 80a3284:	681b      	ldr	r3, [r3, #0]
 80a3286:	6f1b      	ldr	r3, [r3, #112]	; 0x70
 80a3288:	9301      	str	r3, [sp, #4]
 80a328a:	bd08      	pop	{r3, pc}
 80a328c:	080601ac 	.word	0x080601ac

080a3290 <HAL_I2C_Is_Enabled>:
DYNALIB_FN(BASE_IDX + 13, hal_i2c, HAL_I2C_Is_Enabled, bool(HAL_I2C_Interface, void*))
 80a3290:	b508      	push	{r3, lr}
 80a3292:	4b02      	ldr	r3, [pc, #8]	; (80a329c <HAL_I2C_Is_Enabled+0xc>)
 80a3294:	681b      	ldr	r3, [r3, #0]
 80a3296:	6f5b      	ldr	r3, [r3, #116]	; 0x74
 80a3298:	9301      	str	r3, [sp, #4]
 80a329a:	bd08      	pop	{r3, pc}
 80a329c:	080601ac 	.word	0x080601ac

080a32a0 <HAL_I2C_Init>:
DYNALIB_FN(BASE_IDX + 14, hal_i2c, HAL_I2C_Set_Callback_On_Receive, void(HAL_I2C_Interface, void(*)(int), void*))
DYNALIB_FN(BASE_IDX + 15, hal_i2c, HAL_I2C_Set_Callback_On_Request, void(HAL_I2C_Interface, void(*)(void), void*))
DYNALIB_FN(BASE_IDX + 16, hal_i2c, HAL_I2C_Init, void(HAL_I2C_Interface, void*))
 80a32a0:	b508      	push	{r3, lr}
 80a32a2:	4b03      	ldr	r3, [pc, #12]	; (80a32b0 <HAL_I2C_Init+0x10>)
 80a32a4:	681b      	ldr	r3, [r3, #0]
 80a32a6:	f8d3 3080 	ldr.w	r3, [r3, #128]	; 0x80
 80a32aa:	9301      	str	r3, [sp, #4]
 80a32ac:	bd08      	pop	{r3, pc}
 80a32ae:	0000      	.short	0x0000
 80a32b0:	080601ac 	.word	0x080601ac

080a32b4 <HAL_Servo_Attach>:
DYNALIB_FN(0, hal_peripherals, HAL_Tone_Start, void(uint8_t, uint32_t, uint32_t))
DYNALIB_FN(1, hal_peripherals, HAL_Tone_Stop, void(uint8_t))
DYNALIB_FN(2, hal_peripherals, HAL_Tone_Get_Frequency, uint32_t(uint8_t))
DYNALIB_FN(3, hal_peripherals, HAL_Tone_Is_Stopped, bool(uint8_t))

DYNALIB_FN(4, hal_peripherals, HAL_Servo_Attach, void(uint16_t))
 80a32b4:	b508      	push	{r3, lr}
 80a32b6:	4b02      	ldr	r3, [pc, #8]	; (80a32c0 <HAL_Servo_Attach+0xc>)
 80a32b8:	681b      	ldr	r3, [r3, #0]
 80a32ba:	691b      	ldr	r3, [r3, #16]
 80a32bc:	9301      	str	r3, [sp, #4]
 80a32be:	bd08      	pop	{r3, pc}
 80a32c0:	080601a8 	.word	0x080601a8

080a32c4 <HAL_Servo_Detach>:
DYNALIB_FN(5, hal_peripherals, HAL_Servo_Detach, void(uint16_t))
 80a32c4:	b508      	push	{r3, lr}
 80a32c6:	4b02      	ldr	r3, [pc, #8]	; (80a32d0 <HAL_Servo_Detach+0xc>)
 80a32c8:	681b      	ldr	r3, [r3, #0]
 80a32ca:	695b      	ldr	r3, [r3, #20]
 80a32cc:	9301      	str	r3, [sp, #4]
 80a32ce:	bd08      	pop	{r3, pc}
 80a32d0:	080601a8 	.word	0x080601a8

080a32d4 <HAL_Servo_Write_Pulse_Width>:
DYNALIB_FN(6, hal_peripherals, HAL_Servo_Write_Pulse_Width, void(uint16_t, uint16_t))
 80a32d4:	b508      	push	{r3, lr}
 80a32d6:	4b02      	ldr	r3, [pc, #8]	; (80a32e0 <HAL_Servo_Write_Pulse_Width+0xc>)
 80a32d8:	681b      	ldr	r3, [r3, #0]
 80a32da:	699b      	ldr	r3, [r3, #24]
 80a32dc:	9301      	str	r3, [sp, #4]
 80a32de:	bd08      	pop	{r3, pc}
 80a32e0:	080601a8 	.word	0x080601a8

080a32e4 <HAL_USB_USART_Init>:
#endif

DYNALIB_BEGIN(hal_usb)

#ifdef USB_CDC_ENABLE
DYNALIB_FN(0, hal_usb, HAL_USB_USART_Init, void(HAL_USB_USART_Serial, const HAL_USB_USART_Config*))
 80a32e4:	b508      	push	{r3, lr}
 80a32e6:	4b02      	ldr	r3, [pc, #8]	; (80a32f0 <HAL_USB_USART_Init+0xc>)
 80a32e8:	681b      	ldr	r3, [r3, #0]
 80a32ea:	681b      	ldr	r3, [r3, #0]
 80a32ec:	9301      	str	r3, [sp, #4]
 80a32ee:	bd08      	pop	{r3, pc}
 80a32f0:	080601d8 	.word	0x080601d8

080a32f4 <HAL_USB_USART_Available_Data>:
DYNALIB_FN(1, hal_usb, HAL_USB_USART_Begin, void(HAL_USB_USART_Serial, uint32_t, void *))
DYNALIB_FN(2, hal_usb, HAL_USB_USART_End, void(HAL_USB_USART_Serial))
DYNALIB_FN(3, hal_usb, HAL_USB_USART_Baud_Rate, unsigned int(HAL_USB_USART_Serial))
DYNALIB_FN(4, hal_usb, HAL_USB_USART_Available_Data, int32_t(HAL_USB_USART_Serial))
 80a32f4:	b508      	push	{r3, lr}
 80a32f6:	4b02      	ldr	r3, [pc, #8]	; (80a3300 <HAL_USB_USART_Available_Data+0xc>)
 80a32f8:	681b      	ldr	r3, [r3, #0]
 80a32fa:	691b      	ldr	r3, [r3, #16]
 80a32fc:	9301      	str	r3, [sp, #4]
 80a32fe:	bd08      	pop	{r3, pc}
 80a3300:	080601d8 	.word	0x080601d8

080a3304 <HAL_USB_USART_Available_Data_For_Write>:
DYNALIB_FN(5, hal_usb, HAL_USB_USART_Available_Data_For_Write, int32_t(HAL_USB_USART_Serial))
 80a3304:	b508      	push	{r3, lr}
 80a3306:	4b02      	ldr	r3, [pc, #8]	; (80a3310 <HAL_USB_USART_Available_Data_For_Write+0xc>)
 80a3308:	681b      	ldr	r3, [r3, #0]
 80a330a:	695b      	ldr	r3, [r3, #20]
 80a330c:	9301      	str	r3, [sp, #4]
 80a330e:	bd08      	pop	{r3, pc}
 80a3310:	080601d8 	.word	0x080601d8

080a3314 <HAL_USB_USART_Receive_Data>:
DYNALIB_FN(6, hal_usb, HAL_USB_USART_Receive_Data, int32_t(HAL_USB_USART_Serial, uint8_t))
 80a3314:	b508      	push	{r3, lr}
 80a3316:	4b02      	ldr	r3, [pc, #8]	; (80a3320 <HAL_USB_USART_Receive_Data+0xc>)
 80a3318:	681b      	ldr	r3, [r3, #0]
 80a331a:	699b      	ldr	r3, [r3, #24]
 80a331c:	9301      	str	r3, [sp, #4]
 80a331e:	bd08      	pop	{r3, pc}
 80a3320:	080601d8 	.word	0x080601d8

080a3324 <HAL_USB_USART_Send_Data>:
DYNALIB_FN(7, hal_usb, HAL_USB_USART_Send_Data, int32_t(HAL_USB_USART_Serial, uint8_t))
 80a3324:	b508      	push	{r3, lr}
 80a3326:	4b02      	ldr	r3, [pc, #8]	; (80a3330 <HAL_USB_USART_Send_Data+0xc>)
 80a3328:	681b      	ldr	r3, [r3, #0]
 80a332a:	69db      	ldr	r3, [r3, #28]
 80a332c:	9301      	str	r3, [sp, #4]
 80a332e:	bd08      	pop	{r3, pc}
 80a3330:	080601d8 	.word	0x080601d8

080a3334 <HAL_USB_USART_Flush_Data>:
DYNALIB_FN(8, hal_usb, HAL_USB_USART_Flush_Data, void(HAL_USB_USART_Serial))
 80a3334:	b508      	push	{r3, lr}
 80a3336:	4b02      	ldr	r3, [pc, #8]	; (80a3340 <HAL_USB_USART_Flush_Data+0xc>)
 80a3338:	681b      	ldr	r3, [r3, #0]
 80a333a:	6a1b      	ldr	r3, [r3, #32]
 80a333c:	9301      	str	r3, [sp, #4]
 80a333e:	bd08      	pop	{r3, pc}
 80a3340:	080601d8 	.word	0x080601d8

080a3344 <LED_SetSignalingColor>:
#include "dynalib.h"

DYNALIB_BEGIN(services)

DYNALIB_FN(0, services, LED_SetRGBColor, void(uint32_t))
DYNALIB_FN(1, services, LED_SetSignalingColor, void(uint32_t))
 80a3344:	b508      	push	{r3, lr}
 80a3346:	4b02      	ldr	r3, [pc, #8]	; (80a3350 <LED_SetSignalingColor+0xc>)
 80a3348:	681b      	ldr	r3, [r3, #0]
 80a334a:	685b      	ldr	r3, [r3, #4]
 80a334c:	9301      	str	r3, [sp, #4]
 80a334e:	bd08      	pop	{r3, pc}
 80a3350:	080201a8 	.word	0x080201a8

080a3354 <LED_Signaling_Start>:
DYNALIB_FN(2, services, LED_Signaling_Start, void(void))
 80a3354:	b508      	push	{r3, lr}
 80a3356:	4b02      	ldr	r3, [pc, #8]	; (80a3360 <LED_Signaling_Start+0xc>)
 80a3358:	681b      	ldr	r3, [r3, #0]
 80a335a:	689b      	ldr	r3, [r3, #8]
 80a335c:	9301      	str	r3, [sp, #4]
 80a335e:	bd08      	pop	{r3, pc}
 80a3360:	080201a8 	.word	0x080201a8

080a3364 <LED_Signaling_Stop>:
DYNALIB_FN(3, services, LED_Signaling_Stop, void(void))
 80a3364:	b508      	push	{r3, lr}
 80a3366:	4b02      	ldr	r3, [pc, #8]	; (80a3370 <LED_Signaling_Stop+0xc>)
 80a3368:	681b      	ldr	r3, [r3, #0]
 80a336a:	68db      	ldr	r3, [r3, #12]
 80a336c:	9301      	str	r3, [sp, #4]
 80a336e:	bd08      	pop	{r3, pc}
 80a3370:	080201a8 	.word	0x080201a8

080a3374 <LED_RGB_IsOverRidden>:
DYNALIB_FN(4, services, LED_SetBrightness, void(uint8_t))
DYNALIB_FN(5, services, LED_RGB_Get, void(uint8_t*))
DYNALIB_FN(6, services, LED_RGB_IsOverRidden, bool(void))
 80a3374:	b508      	push	{r3, lr}
 80a3376:	4b02      	ldr	r3, [pc, #8]	; (80a3380 <LED_RGB_IsOverRidden+0xc>)
 80a3378:	681b      	ldr	r3, [r3, #0]
 80a337a:	699b      	ldr	r3, [r3, #24]
 80a337c:	9301      	str	r3, [sp, #4]
 80a337e:	bd08      	pop	{r3, pc}
 80a3380:	080201a8 	.word	0x080201a8

080a3384 <LED_On>:
DYNALIB_FN(7, services, LED_On, void(Led_TypeDef))
 80a3384:	b508      	push	{r3, lr}
 80a3386:	4b02      	ldr	r3, [pc, #8]	; (80a3390 <LED_On+0xc>)
 80a3388:	681b      	ldr	r3, [r3, #0]
 80a338a:	69db      	ldr	r3, [r3, #28]
 80a338c:	9301      	str	r3, [sp, #4]
 80a338e:	bd08      	pop	{r3, pc}
 80a3390:	080201a8 	.word	0x080201a8

080a3394 <set_system_mode>:
#endif

DYNALIB_BEGIN(system)

DYNALIB_FN(0, system, system_mode, System_Mode_TypeDef(void))
DYNALIB_FN(1, system, set_system_mode, void(System_Mode_TypeDef))
 80a3394:	b508      	push	{r3, lr}
 80a3396:	4b02      	ldr	r3, [pc, #8]	; (80a33a0 <set_system_mode+0xc>)
 80a3398:	681b      	ldr	r3, [r3, #0]
 80a339a:	685b      	ldr	r3, [r3, #4]
 80a339c:	9301      	str	r3, [sp, #4]
 80a339e:	bd08      	pop	{r3, pc}
 80a33a0:	080601a4 	.word	0x080601a4

080a33a4 <system_delay_ms>:

DYNALIB_FN(2, system, set_ymodem_serial_flash_update_handler, void(ymodem_serial_flash_update_handler))
DYNALIB_FN(3, system, system_firmwareUpdate, bool(Stream*, void*))
DYNALIB_FN(4, system, system_fileTransfer, bool(system_file_transfer_t*, void*))

DYNALIB_FN(5, system, system_delay_ms, void(unsigned long, bool))
 80a33a4:	b508      	push	{r3, lr}
 80a33a6:	4b02      	ldr	r3, [pc, #8]	; (80a33b0 <system_delay_ms+0xc>)
 80a33a8:	681b      	ldr	r3, [r3, #0]
 80a33aa:	695b      	ldr	r3, [r3, #20]
 80a33ac:	9301      	str	r3, [sp, #4]
 80a33ae:	bd08      	pop	{r3, pc}
 80a33b0:	080601a4 	.word	0x080601a4

080a33b4 <system_thread_set_state>:
DYNALIB_FN(6, system, system_sleep, void(Spark_Sleep_TypeDef, long, uint32_t, void*))
DYNALIB_FN(7, system, system_sleep_pin, void(uint16_t, uint16_t, long, uint32_t, void*))
DYNALIB_FN(8, system, system_subscribe_event, int(system_event_t, system_event_handler_t*, void*))
DYNALIB_FN(9, system, system_unsubscribe_event, void(system_event_t, system_event_handler_t*, void*))
DYNALIB_FN(10, system, system_button_pushed_duration, uint16_t(uint8_t, void*))
DYNALIB_FN(11, system, system_thread_set_state, void(spark::feature::State, void*))
 80a33b4:	b508      	push	{r3, lr}
 80a33b6:	4b02      	ldr	r3, [pc, #8]	; (80a33c0 <system_thread_set_state+0xc>)
 80a33b8:	681b      	ldr	r3, [r3, #0]
 80a33ba:	6adb      	ldr	r3, [r3, #44]	; 0x2c
 80a33bc:	9301      	str	r3, [sp, #4]
 80a33be:	bd08      	pop	{r3, pc}
 80a33c0:	080601a4 	.word	0x080601a4

080a33c4 <system_set_usb_request_app_handler>:
DYNALIB_FN(22, system, system_thread_get_state, spark::feature::State(void*))
DYNALIB_FN(23, system, system_notify_time_changed, void(uint32_t, void*, void*))
DYNALIB_FN(24, system, main_thread_current, uint8_t(void*))

#ifdef USB_VENDOR_REQUEST_ENABLE
DYNALIB_FN(25, system, system_set_usb_request_app_handler, void(usb_request_app_handler_type, void*))
 80a33c4:	b508      	push	{r3, lr}
 80a33c6:	4b02      	ldr	r3, [pc, #8]	; (80a33d0 <system_set_usb_request_app_handler+0xc>)
 80a33c8:	681b      	ldr	r3, [r3, #0]
 80a33ca:	6e5b      	ldr	r3, [r3, #100]	; 0x64
 80a33cc:	9301      	str	r3, [sp, #4]
 80a33ce:	bd08      	pop	{r3, pc}
 80a33d0:	080601a4 	.word	0x080601a4

080a33d4 <system_set_usb_request_result>:
DYNALIB_FN(26, system, system_set_usb_request_result, void(USBRequest*, int, void*))
 80a33d4:	b508      	push	{r3, lr}
 80a33d6:	4b02      	ldr	r3, [pc, #8]	; (80a33e0 <system_set_usb_request_result+0xc>)
 80a33d8:	681b      	ldr	r3, [r3, #0]
 80a33da:	6e9b      	ldr	r3, [r3, #104]	; 0x68
 80a33dc:	9301      	str	r3, [sp, #4]
 80a33de:	bd08      	pop	{r3, pc}
 80a33e0:	080601a4 	.word	0x080601a4

080a33e4 <network_ready>:

DYNALIB_FN(0, system_net, network_config, const void*(network_handle_t, uint32_t, void*))
DYNALIB_FN(1, system_net, network_connect, void(network_handle_t, uint32_t, uint32_t, void*))
DYNALIB_FN(2, system_net, network_connecting, bool(network_handle_t, uint32_t, void*))
DYNALIB_FN(3, system_net, network_disconnect, void(network_handle_t, uint32_t, void*))
DYNALIB_FN(4, system_net, network_ready, bool(network_handle_t, uint32_t, void*))
 80a33e4:	b508      	push	{r3, lr}
 80a33e6:	4b02      	ldr	r3, [pc, #8]	; (80a33f0 <network_ready+0xc>)
 80a33e8:	681b      	ldr	r3, [r3, #0]
 80a33ea:	691b      	ldr	r3, [r3, #16]
 80a33ec:	9301      	str	r3, [sp, #4]
 80a33ee:	bd08      	pop	{r3, pc}
 80a33f0:	080601c8 	.word	0x080601c8

080a33f4 <malloc>:

#include "dynalib.h"

DYNALIB_BEGIN(rt)

DYNALIB_FN(0, rt, malloc, void*(size_t))
 80a33f4:	b508      	push	{r3, lr}
 80a33f6:	4b02      	ldr	r3, [pc, #8]	; (80a3400 <malloc+0xc>)
 80a33f8:	681b      	ldr	r3, [r3, #0]
 80a33fa:	681b      	ldr	r3, [r3, #0]
 80a33fc:	9301      	str	r3, [sp, #4]
 80a33fe:	bd08      	pop	{r3, pc}
 80a3400:	080601a0 	.word	0x080601a0

080a3404 <free>:
DYNALIB_FN(1, rt, free, void(void*))
 80a3404:	b508      	push	{r3, lr}
 80a3406:	4b02      	ldr	r3, [pc, #8]	; (80a3410 <free+0xc>)
 80a3408:	681b      	ldr	r3, [r3, #0]
 80a340a:	685b      	ldr	r3, [r3, #4]
 80a340c:	9301      	str	r3, [sp, #4]
 80a340e:	bd08      	pop	{r3, pc}
 80a3410:	080601a0 	.word	0x080601a0

080a3414 <realloc>:
DYNALIB_FN(2, rt, realloc, void*(void*, size_t))
 80a3414:	b508      	push	{r3, lr}
 80a3416:	4b02      	ldr	r3, [pc, #8]	; (80a3420 <realloc+0xc>)
 80a3418:	681b      	ldr	r3, [r3, #0]
 80a341a:	689b      	ldr	r3, [r3, #8]
 80a341c:	9301      	str	r3, [sp, #4]
 80a341e:	bd08      	pop	{r3, pc}
 80a3420:	080601a0 	.word	0x080601a0

080a3424 <_ZN8SPIClassD1Ev>:
  Mutex mutex_;
#endif

public:
  SPIClass(HAL_SPI_Interface spi);
  virtual ~SPIClass() {};
 80a3424:	4770      	bx	lr

080a3426 <_ZN8SPIClassD0Ev>:
 80a3426:	b510      	push	{r4, lr}
 80a3428:	4604      	mov	r4, r0
 80a342a:	f7fc fe38 	bl	80a009e <_ZdlPv>
 80a342e:	4620      	mov	r0, r4
 80a3430:	bd10      	pop	{r4, pc}
	...

080a3434 <_ZN8SPIClassC1E17HAL_SPI_Interface>:
  if (!info->enabled || info->default_settings)
    return particle::__SPISettings();
  return particle::__SPISettings(info->clock, info->bit_order, info->data_mode);
}

SPIClass::SPIClass(HAL_SPI_Interface spi)
 80a3434:	b570      	push	{r4, r5, r6, lr}
 80a3436:	4604      	mov	r4, r0
 80a3438:	460e      	mov	r6, r1
 80a343a:	4b07      	ldr	r3, [pc, #28]	; (80a3458 <_ZN8SPIClassC1E17HAL_SPI_Interface+0x24>)
	Mutex(os_mutex_t handle) : handle_(handle) {}

	/**
	 * Creates a new mutex.
	 */
	Mutex() : handle_(nullptr)
 80a343c:	2500      	movs	r5, #0
 80a343e:	6003      	str	r3, [r0, #0]
 80a3440:	f840 5f0c 	str.w	r5, [r0, #12]!
	{
		os_mutex_create(&handle_);
 80a3444:	f7ff fe8c 	bl	80a3160 <os_mutex_create>
{
  _spi = spi;
  HAL_SPI_Init(_spi);
 80a3448:	4630      	mov	r0, r6
  return particle::__SPISettings(info->clock, info->bit_order, info->data_mode);
}

SPIClass::SPIClass(HAL_SPI_Interface spi)
{
  _spi = spi;
 80a344a:	7126      	strb	r6, [r4, #4]
  HAL_SPI_Init(_spi);
 80a344c:	f7ff fe68 	bl	80a3120 <HAL_SPI_Init>
  dividerReference = SPI_CLK_SYSTEM;     // 0 indicates the system clock
 80a3450:	60a5      	str	r5, [r4, #8]
}
 80a3452:	4620      	mov	r0, r4
 80a3454:	bd70      	pop	{r4, r5, r6, pc}
 80a3456:	bf00      	nop
 80a3458:	080a509c 	.word	0x080a509c

080a345c <_ZN8SPIClass9isEnabledEv>:
  //To Do
}

bool SPIClass::isEnabled()
{
  return HAL_SPI_Is_Enabled(_spi);
 80a345c:	7900      	ldrb	r0, [r0, #4]
 80a345e:	f7ff be67 	b.w	80a3130 <HAL_SPI_Is_Enabled>

080a3462 <_ZN5Servo17writeMicrosecondsEt>:
  // write(179).
  return a == this->minAngle || a == this->maxAngle ? a : a + 1;
}

void Servo::writeMicroseconds(uint16_t pulseWidth)
{
 80a3462:	f9b0 2000 	ldrsh.w	r2, [r0]

  if (!this->attached())
 80a3466:	1c53      	adds	r3, r2, #1
 80a3468:	d00b      	beq.n	80a3482 <_ZN5Servo17writeMicrosecondsEt+0x20>
  {
    return;
  }

  pulseWidth = constrain(pulseWidth, this->minPW, this->maxPW);
 80a346a:	8843      	ldrh	r3, [r0, #2]
 80a346c:	8880      	ldrh	r0, [r0, #4]
typename std::common_type<T, U>::type
min (T a, U b) { return static_cast<typename std::common_type<T, U>::type>((a)<(b)?(a):(b)); }

template <typename T, typename U, typename V>
static inline
T constrain (T amt, U low, V high) { return ((amt)<(low)?(low):((amt)>(high)?(high):(amt))); }
 80a346e:	428b      	cmp	r3, r1
 80a3470:	d803      	bhi.n	80a347a <_ZN5Servo17writeMicrosecondsEt+0x18>
 80a3472:	4288      	cmp	r0, r1
 80a3474:	4603      	mov	r3, r0
 80a3476:	bf28      	it	cs
 80a3478:	460b      	movcs	r3, r1

  HAL_Servo_Write_Pulse_Width(this->pin, pulseWidth);
 80a347a:	4619      	mov	r1, r3
 80a347c:	b290      	uxth	r0, r2
 80a347e:	f7ff bf29 	b.w	80a32d4 <HAL_Servo_Write_Pulse_Width>
 80a3482:	4770      	bx	lr

080a3484 <_ZN5Servo11resetFieldsEv>:
  return HAL_Servo_Read_Pulse_Width(this->pin);
}

void Servo::resetFields(void)
{
  this->pin = NOT_ATTACHED;
 80a3484:	f64f 73ff 	movw	r3, #65535	; 0xffff
  this->minAngle = SERVO_DEFAULT_MIN_ANGLE;
  this->maxAngle = SERVO_DEFAULT_MAX_ANGLE;
 80a3488:	22b4      	movs	r2, #180	; 0xb4
 80a348a:	8102      	strh	r2, [r0, #8]
  this->minPW = SERVO_DEFAULT_MIN_PW;
 80a348c:	f44f 7208 	mov.w	r2, #544	; 0x220
  return HAL_Servo_Read_Pulse_Width(this->pin);
}

void Servo::resetFields(void)
{
  this->pin = NOT_ATTACHED;
 80a3490:	8003      	strh	r3, [r0, #0]
  this->minAngle = SERVO_DEFAULT_MIN_ANGLE;
  this->maxAngle = SERVO_DEFAULT_MAX_ANGLE;
  this->minPW = SERVO_DEFAULT_MIN_PW;
 80a3492:	8042      	strh	r2, [r0, #2]
}

void Servo::resetFields(void)
{
  this->pin = NOT_ATTACHED;
  this->minAngle = SERVO_DEFAULT_MIN_ANGLE;
 80a3494:	2300      	movs	r3, #0
  this->maxAngle = SERVO_DEFAULT_MAX_ANGLE;
  this->minPW = SERVO_DEFAULT_MIN_PW;
  this->maxPW = SERVO_DEFAULT_MAX_PW;
 80a3496:	f44f 6216 	mov.w	r2, #2400	; 0x960
}

void Servo::resetFields(void)
{
  this->pin = NOT_ATTACHED;
  this->minAngle = SERVO_DEFAULT_MIN_ANGLE;
 80a349a:	80c3      	strh	r3, [r0, #6]
  this->maxAngle = SERVO_DEFAULT_MAX_ANGLE;
  this->minPW = SERVO_DEFAULT_MIN_PW;
  this->maxPW = SERVO_DEFAULT_MAX_PW;
 80a349c:	8082      	strh	r2, [r0, #4]
  this->trim = 0;
 80a349e:	60c3      	str	r3, [r0, #12]
 80a34a0:	4770      	bx	lr

080a34a2 <_ZN5ServoC1Ev>:
#define ANGLE_TO_US(a)    ((uint16_t)(map((a), this->minAngle, this->maxAngle, \
                                        this->minPW, this->maxPW)))
#define US_TO_ANGLE(us)   ((int16_t)(map((us), this->minPW, this->maxPW,  \
                                       this->minAngle, this->maxAngle)))

Servo::Servo()
 80a34a2:	b508      	push	{r3, lr}
{
  this->resetFields();
 80a34a4:	f7ff ffee 	bl	80a3484 <_ZN5Servo11resetFieldsEv>
}
 80a34a8:	bd08      	pop	{r3, pc}

080a34aa <_ZN5Servo6detachEv>:

  return true;
}

bool Servo::detach()
{
 80a34aa:	b510      	push	{r4, lr}
 80a34ac:	4604      	mov	r4, r0
 80a34ae:	f9b0 0000 	ldrsh.w	r0, [r0]
  if (!this->attached())
 80a34b2:	1c43      	adds	r3, r0, #1
 80a34b4:	d007      	beq.n	80a34c6 <_ZN5Servo6detachEv+0x1c>
  {
    return false;
  }

  HAL_Servo_Detach(this->pin);
 80a34b6:	b280      	uxth	r0, r0
 80a34b8:	f7ff ff04 	bl	80a32c4 <HAL_Servo_Detach>

  this->resetFields();
 80a34bc:	4620      	mov	r0, r4
 80a34be:	f7ff ffe1 	bl	80a3484 <_ZN5Servo11resetFieldsEv>

  return true;
 80a34c2:	2001      	movs	r0, #1
 80a34c4:	bd10      	pop	{r4, pc}

bool Servo::detach()
{
  if (!this->attached())
  {
    return false;
 80a34c6:	2000      	movs	r0, #0
  HAL_Servo_Detach(this->pin);

  this->resetFields();

  return true;
}
 80a34c8:	bd10      	pop	{r4, pc}

080a34ca <_ZN5Servo6attachEtttss>:
bool Servo::attach(uint16_t pin,
    uint16_t minPW,
    uint16_t maxPW,
    int16_t minAngle,
    int16_t maxAngle)
{
 80a34ca:	e92d 41f0 	stmdb	sp!, {r4, r5, r6, r7, r8, lr}
 80a34ce:	460d      	mov	r5, r1
 80a34d0:	4604      	mov	r4, r0

  if (HAL_Validate_Pin_Function(pin, PF_TIMER)!=PF_TIMER)
 80a34d2:	2102      	movs	r1, #2
 80a34d4:	4628      	mov	r0, r5
bool Servo::attach(uint16_t pin,
    uint16_t minPW,
    uint16_t maxPW,
    int16_t minAngle,
    int16_t maxAngle)
{
 80a34d6:	4690      	mov	r8, r2
 80a34d8:	461f      	mov	r7, r3

  if (HAL_Validate_Pin_Function(pin, PF_TIMER)!=PF_TIMER)
 80a34da:	f7ff fde9 	bl	80a30b0 <HAL_Validate_Pin_Function>
 80a34de:	2802      	cmp	r0, #2
 80a34e0:	d001      	beq.n	80a34e6 <_ZN5Servo6attachEtttss+0x1c>
  {
    return false;
 80a34e2:	2600      	movs	r6, #0
 80a34e4:	e019      	b.n	80a351a <_ZN5Servo6attachEtttss+0x50>
  }

  // Safety check
  if (!pinAvailable(pin))
 80a34e6:	4628      	mov	r0, r5
 80a34e8:	f000 fbc4 	bl	80a3c74 <pinAvailable>
 80a34ec:	4606      	mov	r6, r0
 80a34ee:	2800      	cmp	r0, #0
 80a34f0:	d0f7      	beq.n	80a34e2 <_ZN5Servo6attachEtttss+0x18>
  {
    return false;
  }

  if (this->attached())
 80a34f2:	f9b4 3000 	ldrsh.w	r3, [r4]
 80a34f6:	3301      	adds	r3, #1
 80a34f8:	d002      	beq.n	80a3500 <_ZN5Servo6attachEtttss+0x36>
  {
    this->detach();
 80a34fa:	4620      	mov	r0, r4
 80a34fc:	f7ff ffd5 	bl	80a34aa <_ZN5Servo6detachEv>
  }

  this->pin = pin;
  this->minPW = minPW;
  this->maxPW = maxPW;
  this->minAngle = minAngle;
 80a3500:	f9bd 3018 	ldrsh.w	r3, [sp, #24]
  if (this->attached())
  {
    this->detach();
  }

  this->pin = pin;
 80a3504:	8025      	strh	r5, [r4, #0]
  this->minPW = minPW;
  this->maxPW = maxPW;
  this->minAngle = minAngle;
 80a3506:	80e3      	strh	r3, [r4, #6]
  this->maxAngle = maxAngle;
 80a3508:	f9bd 301c 	ldrsh.w	r3, [sp, #28]
  {
    this->detach();
  }

  this->pin = pin;
  this->minPW = minPW;
 80a350c:	f8a4 8002 	strh.w	r8, [r4, #2]
  this->maxPW = maxPW;
 80a3510:	80a7      	strh	r7, [r4, #4]
  this->minAngle = minAngle;
  this->maxAngle = maxAngle;
 80a3512:	8123      	strh	r3, [r4, #8]

  HAL_Servo_Attach(this->pin);
 80a3514:	4628      	mov	r0, r5
 80a3516:	f7ff fecd 	bl	80a32b4 <HAL_Servo_Attach>

  return true;
}
 80a351a:	4630      	mov	r0, r6
 80a351c:	e8bd 81f0 	ldmia.w	sp!, {r4, r5, r6, r7, r8, pc}

080a3520 <_GLOBAL__sub_I_System>:

class SystemClass {
public:

    SystemClass(System_Mode_TypeDef mode = DEFAULT) {
        set_system_mode(mode);
 80a3520:	2000      	movs	r0, #0
 80a3522:	f7ff bf37 	b.w	80a3394 <set_system_mode>

080a3526 <_ZN6StringD1Ev>:
	init();
	char buf[33];
	dtoa(value, decimalPlaces, buf);
        *this = buf;
}
String::~String()
 80a3526:	b510      	push	{r4, lr}
 80a3528:	4604      	mov	r4, r0
{
	free(buffer);
 80a352a:	6800      	ldr	r0, [r0, #0]
 80a352c:	f7ff ff6a 	bl	80a3404 <free>
}
 80a3530:	4620      	mov	r0, r4
 80a3532:	bd10      	pop	{r4, pc}

080a3534 <_ZN6String10invalidateEv>:
	len = 0;
	flags = 0;
}

void String::invalidate(void)
{
 80a3534:	b510      	push	{r4, lr}
 80a3536:	4604      	mov	r4, r0
	if (buffer) free(buffer);
 80a3538:	6800      	ldr	r0, [r0, #0]
 80a353a:	b108      	cbz	r0, 80a3540 <_ZN6String10invalidateEv+0xc>
 80a353c:	f7ff ff62 	bl	80a3404 <free>
	buffer = NULL;
 80a3540:	2300      	movs	r3, #0
 80a3542:	6023      	str	r3, [r4, #0]
	capacity = len = 0;
 80a3544:	60a3      	str	r3, [r4, #8]
 80a3546:	6063      	str	r3, [r4, #4]
 80a3548:	bd10      	pop	{r4, pc}

080a354a <_ZN6String12changeBufferEj>:
	}
	return 0;
}

unsigned char String::changeBuffer(unsigned int maxStrLen)
{
 80a354a:	b538      	push	{r3, r4, r5, lr}
 80a354c:	4604      	mov	r4, r0
 80a354e:	460d      	mov	r5, r1
	char *newbuffer = (char *)realloc(buffer, maxStrLen + 1);
 80a3550:	6800      	ldr	r0, [r0, #0]
 80a3552:	3101      	adds	r1, #1
 80a3554:	f7ff ff5e 	bl	80a3414 <realloc>
	if (newbuffer) {
 80a3558:	b110      	cbz	r0, 80a3560 <_ZN6String12changeBufferEj+0x16>
		buffer = newbuffer;
		capacity = maxStrLen;
 80a355a:	e884 0021 	stmia.w	r4, {r0, r5}
		return 1;
 80a355e:	2001      	movs	r0, #1
	}
	return 0;
}
 80a3560:	bd38      	pop	{r3, r4, r5, pc}

080a3562 <_ZN6String7reserveEj>:
	buffer = NULL;
	capacity = len = 0;
}

unsigned char String::reserve(unsigned int size)
{
 80a3562:	b510      	push	{r4, lr}
	if (buffer && capacity >= size) return 1;
 80a3564:	6803      	ldr	r3, [r0, #0]
	buffer = NULL;
	capacity = len = 0;
}

unsigned char String::reserve(unsigned int size)
{
 80a3566:	4604      	mov	r4, r0
	if (buffer && capacity >= size) return 1;
 80a3568:	b113      	cbz	r3, 80a3570 <_ZN6String7reserveEj+0xe>
 80a356a:	6843      	ldr	r3, [r0, #4]
 80a356c:	428b      	cmp	r3, r1
 80a356e:	d207      	bcs.n	80a3580 <_ZN6String7reserveEj+0x1e>
	if (changeBuffer(size)) {
 80a3570:	4620      	mov	r0, r4
 80a3572:	f7ff ffea 	bl	80a354a <_ZN6String12changeBufferEj>
 80a3576:	b120      	cbz	r0, 80a3582 <_ZN6String7reserveEj+0x20>
		if (len == 0) buffer[0] = 0;
 80a3578:	68a3      	ldr	r3, [r4, #8]
 80a357a:	b90b      	cbnz	r3, 80a3580 <_ZN6String7reserveEj+0x1e>
 80a357c:	6822      	ldr	r2, [r4, #0]
 80a357e:	7013      	strb	r3, [r2, #0]
 80a3580:	2001      	movs	r0, #1
		return 1;
	}
	return 0;
}
 80a3582:	bd10      	pop	{r4, pc}

080a3584 <_ZN6String4copyEPKcj>:
/*********************************************/
/*  Copy and Move                            */
/*********************************************/

String & String::copy(const char *cstr, unsigned int length)
{
 80a3584:	b570      	push	{r4, r5, r6, lr}
 80a3586:	460e      	mov	r6, r1
	if (!reserve(length)) {
 80a3588:	4611      	mov	r1, r2
/*********************************************/
/*  Copy and Move                            */
/*********************************************/

String & String::copy(const char *cstr, unsigned int length)
{
 80a358a:	4604      	mov	r4, r0
 80a358c:	4615      	mov	r5, r2
	if (!reserve(length)) {
 80a358e:	f7ff ffe8 	bl	80a3562 <_ZN6String7reserveEj>
 80a3592:	b918      	cbnz	r0, 80a359c <_ZN6String4copyEPKcj+0x18>
		invalidate();
 80a3594:	4620      	mov	r0, r4
 80a3596:	f7ff ffcd 	bl	80a3534 <_ZN6String10invalidateEv>
		return *this;
 80a359a:	e009      	b.n	80a35b0 <_ZN6String4copyEPKcj+0x2c>
	}
	len = length;
	memcpy(buffer, cstr, length);
 80a359c:	462a      	mov	r2, r5
 80a359e:	4631      	mov	r1, r6
{
	if (!reserve(length)) {
		invalidate();
		return *this;
	}
	len = length;
 80a35a0:	60a5      	str	r5, [r4, #8]
	memcpy(buffer, cstr, length);
 80a35a2:	6820      	ldr	r0, [r4, #0]
 80a35a4:	f001 fd14 	bl	80a4fd0 <memcpy>
	buffer[len] = 0;
 80a35a8:	6822      	ldr	r2, [r4, #0]
 80a35aa:	68a3      	ldr	r3, [r4, #8]
 80a35ac:	2100      	movs	r1, #0
 80a35ae:	54d1      	strb	r1, [r2, r3]
	return *this;
}
 80a35b0:	4620      	mov	r0, r4
 80a35b2:	bd70      	pop	{r4, r5, r6, pc}

080a35b4 <_ZN6StringC1EPK19__FlashStringHelper>:
{
	init();
	*this = value;
}

String::String(const __FlashStringHelper *pstr)
 80a35b4:	b538      	push	{r3, r4, r5, lr}
/*  Memory Management                        */
/*********************************************/

inline void String::init(void)
{
	buffer = NULL;
 80a35b6:	2300      	movs	r3, #0
{
	init();
	*this = value;
}

String::String(const __FlashStringHelper *pstr)
 80a35b8:	4604      	mov	r4, r0
/*  Memory Management                        */
/*********************************************/

inline void String::init(void)
{
	buffer = NULL;
 80a35ba:	6003      	str	r3, [r0, #0]
	capacity = 0;
 80a35bc:	6043      	str	r3, [r0, #4]
	len = 0;
 80a35be:	6083      	str	r3, [r0, #8]
	flags = 0;
 80a35c0:	7303      	strb	r3, [r0, #12]

String::String(const __FlashStringHelper *pstr)
{
	init();
	const char* cstr = reinterpret_cast<const char*>(pstr);
	if (cstr) copy(cstr, strlen(cstr));
 80a35c2:	460d      	mov	r5, r1
 80a35c4:	b139      	cbz	r1, 80a35d6 <_ZN6StringC1EPK19__FlashStringHelper+0x22>
 80a35c6:	4608      	mov	r0, r1
 80a35c8:	f001 fd15 	bl	80a4ff6 <strlen>
 80a35cc:	4629      	mov	r1, r5
 80a35ce:	4602      	mov	r2, r0
 80a35d0:	4620      	mov	r0, r4
 80a35d2:	f7ff ffd7 	bl	80a3584 <_ZN6String4copyEPKcj>
}
 80a35d6:	4620      	mov	r0, r4
 80a35d8:	bd38      	pop	{r3, r4, r5, pc}

080a35da <_ZN6StringaSEPKc>:
	return *this;
}
#endif

String & String::operator = (const char *cstr)
{
 80a35da:	b538      	push	{r3, r4, r5, lr}
 80a35dc:	4605      	mov	r5, r0
	if (cstr) copy(cstr, strlen(cstr));
 80a35de:	460c      	mov	r4, r1
 80a35e0:	b141      	cbz	r1, 80a35f4 <_ZN6StringaSEPKc+0x1a>
 80a35e2:	4608      	mov	r0, r1
 80a35e4:	f001 fd07 	bl	80a4ff6 <strlen>
 80a35e8:	4621      	mov	r1, r4
 80a35ea:	4602      	mov	r2, r0
 80a35ec:	4628      	mov	r0, r5
 80a35ee:	f7ff ffc9 	bl	80a3584 <_ZN6String4copyEPKcj>
 80a35f2:	e001      	b.n	80a35f8 <_ZN6StringaSEPKc+0x1e>
	else invalidate();
 80a35f4:	f7ff ff9e 	bl	80a3534 <_ZN6String10invalidateEv>

	return *this;
}
 80a35f8:	4628      	mov	r0, r5
 80a35fa:	bd38      	pop	{r3, r4, r5, pc}

080a35fc <_ZN5Print5writeEPKhj>:

// Public Methods //////////////////////////////////////////////////////////////

/* default implementation: may be overridden */
size_t Print::write(const uint8_t *buffer, size_t size)
{
 80a35fc:	b5f8      	push	{r3, r4, r5, r6, r7, lr}
 80a35fe:	4606      	mov	r6, r0
 80a3600:	460d      	mov	r5, r1
 80a3602:	188f      	adds	r7, r1, r2
  size_t n = 0;
 80a3604:	2400      	movs	r4, #0
  while (size--) {
 80a3606:	42bd      	cmp	r5, r7
 80a3608:	d00c      	beq.n	80a3624 <_ZN5Print5writeEPKhj+0x28>
     int chunk = write(*buffer++);
 80a360a:	6833      	ldr	r3, [r6, #0]
 80a360c:	f815 1b01 	ldrb.w	r1, [r5], #1
 80a3610:	689b      	ldr	r3, [r3, #8]
 80a3612:	4630      	mov	r0, r6
 80a3614:	4798      	blx	r3
     if (chunk>=0)
 80a3616:	2800      	cmp	r0, #0
 80a3618:	db01      	blt.n	80a361e <_ZN5Print5writeEPKhj+0x22>
         n += chunk;
 80a361a:	4404      	add	r4, r0

/* default implementation: may be overridden */
size_t Print::write(const uint8_t *buffer, size_t size)
{
  size_t n = 0;
  while (size--) {
 80a361c:	e7f3      	b.n	80a3606 <_ZN5Print5writeEPKhj+0xa>
     int chunk = write(*buffer++);
 80a361e:	2c00      	cmp	r4, #0
 80a3620:	bf08      	it	eq
 80a3622:	4604      	moveq	r4, r0
             n = chunk;
         break;
     }
  }
  return n;
}
 80a3624:	4620      	mov	r0, r4
 80a3626:	bdf8      	pop	{r3, r4, r5, r6, r7, pc}

080a3628 <_ZN5Print5writeEPKc>:

    int getWriteError() { return write_error; }
    void clearWriteError() { setWriteError(0); }

    virtual size_t write(uint8_t) = 0;
    size_t write(const char *str) {
 80a3628:	b570      	push	{r4, r5, r6, lr}
 80a362a:	4605      	mov	r5, r0
      if (str == NULL) return 0;
 80a362c:	460c      	mov	r4, r1
      return write((const uint8_t *)str, strlen(str));
    }
 80a362e:	4608      	mov	r0, r1
    int getWriteError() { return write_error; }
    void clearWriteError() { setWriteError(0); }

    virtual size_t write(uint8_t) = 0;
    size_t write(const char *str) {
      if (str == NULL) return 0;
 80a3630:	b149      	cbz	r1, 80a3646 <_ZN5Print5writeEPKc+0x1e>
      return write((const uint8_t *)str, strlen(str));
 80a3632:	f001 fce0 	bl	80a4ff6 <strlen>
 80a3636:	682b      	ldr	r3, [r5, #0]
 80a3638:	4602      	mov	r2, r0
 80a363a:	4621      	mov	r1, r4
 80a363c:	4628      	mov	r0, r5
    }
 80a363e:	e8bd 4070 	ldmia.w	sp!, {r4, r5, r6, lr}
    void clearWriteError() { setWriteError(0); }

    virtual size_t write(uint8_t) = 0;
    size_t write(const char *str) {
      if (str == NULL) return 0;
      return write((const uint8_t *)str, strlen(str));
 80a3642:	68db      	ldr	r3, [r3, #12]
 80a3644:	4718      	bx	r3
    }
 80a3646:	bd70      	pop	{r4, r5, r6, pc}

080a3648 <_ZN5Print5printEc>:
  return write(str);
}

size_t Print::print(char c)
{
  return write(c);
 80a3648:	6803      	ldr	r3, [r0, #0]
 80a364a:	689b      	ldr	r3, [r3, #8]
 80a364c:	4718      	bx	r3

080a364e <_ZN5Print7printlnEv>:
{
  return print(reinterpret_cast<const char*>(str));
}

size_t Print::println(void)
{
 80a364e:	b538      	push	{r3, r4, r5, lr}
  size_t n = print('\r');
 80a3650:	210d      	movs	r1, #13
{
  return print(reinterpret_cast<const char*>(str));
}

size_t Print::println(void)
{
 80a3652:	4605      	mov	r5, r0
  size_t n = print('\r');
 80a3654:	f7ff fff8 	bl	80a3648 <_ZN5Print5printEc>
  n += print('\n');
 80a3658:	210a      	movs	r1, #10
  return print(reinterpret_cast<const char*>(str));
}

size_t Print::println(void)
{
  size_t n = print('\r');
 80a365a:	4604      	mov	r4, r0
  n += print('\n');
 80a365c:	4628      	mov	r0, r5
 80a365e:	f7ff fff3 	bl	80a3648 <_ZN5Print5printEc>
  return n;
}
 80a3662:	4420      	add	r0, r4
 80a3664:	bd38      	pop	{r3, r4, r5, pc}

080a3666 <_ZN5Print7printlnEPKc>:

size_t Print::println(const char c[])
{
 80a3666:	b538      	push	{r3, r4, r5, lr}
 80a3668:	4605      	mov	r5, r0
  return n;
}

size_t Print::print(const char str[])
{
  return write(str);
 80a366a:	f7ff ffdd 	bl	80a3628 <_ZN5Print5writeEPKc>
 80a366e:	4604      	mov	r4, r0
}

size_t Print::println(const char c[])
{
  size_t n = print(c);
  n += println();
 80a3670:	4628      	mov	r0, r5
 80a3672:	f7ff ffec 	bl	80a364e <_ZN5Print7printlnEv>
  return n;
}
 80a3676:	4420      	add	r0, r4
 80a3678:	bd38      	pop	{r3, r4, r5, pc}

080a367a <_ZN5Print11printNumberEmh>:
  char *str = &buf[sizeof(buf) - 1];

  *str = '\0';

  // prevent crash if called with base == 1
  if (base < 2) base = 10;
 80a367a:	2a01      	cmp	r2, #1
 80a367c:	bf98      	it	ls
 80a367e:	220a      	movls	r2, #10
  return println(reinterpret_cast<const char*>(str));
}

// Private Methods /////////////////////////////////////////////////////////////

size_t Print::printNumber(unsigned long n, uint8_t base) {
 80a3680:	b530      	push	{r4, r5, lr}
 80a3682:	460b      	mov	r3, r1
 80a3684:	b08b      	sub	sp, #44	; 0x2c
  char buf[8 * sizeof(long) + 1]; // Assumes 8-bit chars plus zero byte.
  char *str = &buf[sizeof(buf) - 1];

  *str = '\0';
 80a3686:	2100      	movs	r1, #0
 80a3688:	f88d 1024 	strb.w	r1, [sp, #36]	; 0x24
 80a368c:	f10d 0423 	add.w	r4, sp, #35	; 0x23
  // prevent crash if called with base == 1
  if (base < 2) base = 10;

  do {
    unsigned long m = n;
    n /= base;
 80a3690:	fbb3 f5f2 	udiv	r5, r3, r2
    char c = m - base * n;
 80a3694:	fb05 3312 	mls	r3, r5, r2, r3
 80a3698:	b2db      	uxtb	r3, r3
    *--str = c < 10 ? c + '0' : c + 'A' - 10;
 80a369a:	2b09      	cmp	r3, #9
 80a369c:	bf94      	ite	ls
 80a369e:	3330      	addls	r3, #48	; 0x30
 80a36a0:	3337      	addhi	r3, #55	; 0x37
 80a36a2:	b2db      	uxtb	r3, r3
 80a36a4:	4621      	mov	r1, r4
 80a36a6:	f804 3901 	strb.w	r3, [r4], #-1
 80a36aa:	462b      	mov	r3, r5
  *str = '\0';

  // prevent crash if called with base == 1
  if (base < 2) base = 10;

  do {
 80a36ac:	2d00      	cmp	r5, #0
 80a36ae:	d1ef      	bne.n	80a3690 <_ZN5Print11printNumberEmh+0x16>
    n /= base;
    char c = m - base * n;
    *--str = c < 10 ? c + '0' : c + 'A' - 10;
  } while(n);

  return write(str);
 80a36b0:	f7ff ffba 	bl	80a3628 <_ZN5Print5writeEPKc>
}
 80a36b4:	b00b      	add	sp, #44	; 0x2c
 80a36b6:	bd30      	pop	{r4, r5, pc}

080a36b8 <_ZN5Print5printEmi>:
    return printNumber(n, base);
  }
}

size_t Print::print(unsigned long n, int base)
{
 80a36b8:	b410      	push	{r4}
  if (base == 0) return write(n);
 80a36ba:	b922      	cbnz	r2, 80a36c6 <_ZN5Print5printEmi+0xe>
 80a36bc:	6803      	ldr	r3, [r0, #0]
 80a36be:	b2c9      	uxtb	r1, r1
 80a36c0:	689b      	ldr	r3, [r3, #8]
  else return printNumber(n, base);
}
 80a36c2:	bc10      	pop	{r4}
  }
}

size_t Print::print(unsigned long n, int base)
{
  if (base == 0) return write(n);
 80a36c4:	4718      	bx	r3
  else return printNumber(n, base);
 80a36c6:	b2d2      	uxtb	r2, r2
}
 80a36c8:	bc10      	pop	{r4}
}

size_t Print::print(unsigned long n, int base)
{
  if (base == 0) return write(n);
  else return printNumber(n, base);
 80a36ca:	f7ff bfd6 	b.w	80a367a <_ZN5Print11printNumberEmh>

080a36ce <_ZN5Print5printEhi>:
  return write(c);
}

size_t Print::print(unsigned char b, int base)
{
  return print((unsigned long) b, base);
 80a36ce:	f7ff bff3 	b.w	80a36b8 <_ZN5Print5printEmi>
	...

080a36d4 <_GLOBAL__sub_I__ZN5spark3LogE>:
    // This handler doesn't support direct logging
}

// spark::Logger
inline spark::Logger::Logger(const char *name) :
        name_(name) {
 80a36d4:	4a01      	ldr	r2, [pc, #4]	; (80a36dc <_GLOBAL__sub_I__ZN5spark3LogE+0x8>)
 80a36d6:	4b02      	ldr	r3, [pc, #8]	; (80a36e0 <_GLOBAL__sub_I__ZN5spark3LogE+0xc>)
 80a36d8:	601a      	str	r2, [r3, #0]
 80a36da:	4770      	bx	lr
 80a36dc:	080a515f 	.word	0x080a515f
 80a36e0:	20000408 	.word	0x20000408

080a36e4 <_GLOBAL__sub_I_TIME_FORMAT_DEFAULT>:
            calendar_time_cache = Convert_UnixTime_To_CalendarTime(unix_time);
            unix_time_cache = unix_time;
    }
}

const char* TimeClass::format_spec = TIME_FORMAT_DEFAULT;
 80a36e4:	4b02      	ldr	r3, [pc, #8]	; (80a36f0 <_GLOBAL__sub_I_TIME_FORMAT_DEFAULT+0xc>)
 80a36e6:	681a      	ldr	r2, [r3, #0]
 80a36e8:	4b02      	ldr	r3, [pc, #8]	; (80a36f4 <_GLOBAL__sub_I_TIME_FORMAT_DEFAULT+0x10>)
 80a36ea:	601a      	str	r2, [r3, #0]
 80a36ec:	4770      	bx	lr
 80a36ee:	bf00      	nop
 80a36f0:	20000334 	.word	0x20000334
 80a36f4:	2000040c 	.word	0x2000040c

080a36f8 <delay>:
  return (value - fromStart) * (toEnd - toStart) / (fromEnd - fromStart) + toStart;
}

void delay(unsigned long ms)
{
    system_delay_ms(ms, false);
 80a36f8:	2100      	movs	r1, #0
 80a36fa:	f7ff be53 	b.w	80a33a4 <system_delay_ms>

080a36fe <_ZN8RGBClass7controlEb>:
{
    return LED_RGB_IsOverRidden();
}

void RGBClass::control(bool override)
{
 80a36fe:	b510      	push	{r4, lr}
 80a3700:	4604      	mov	r4, r0
#include "core_hal.h"
#include "rgbled.h"

bool RGBClass::controlled(void)
{
    return LED_RGB_IsOverRidden();
 80a3702:	f7ff fe37 	bl	80a3374 <LED_RGB_IsOverRidden>
}

void RGBClass::control(bool override)
{
    if(override == controlled())
 80a3706:	4284      	cmp	r4, r0
 80a3708:	d008      	beq.n	80a371c <_ZN8RGBClass7controlEb+0x1e>
            return;
    else if (override)
 80a370a:	b11c      	cbz	r4, 80a3714 <_ZN8RGBClass7controlEb+0x16>
            LED_Signaling_Start();
    else
            LED_Signaling_Stop();
}
 80a370c:	e8bd 4010 	ldmia.w	sp!, {r4, lr}
void RGBClass::control(bool override)
{
    if(override == controlled())
            return;
    else if (override)
            LED_Signaling_Start();
 80a3710:	f7ff be20 	b.w	80a3354 <LED_Signaling_Start>
    else
            LED_Signaling_Stop();
}
 80a3714:	e8bd 4010 	ldmia.w	sp!, {r4, lr}
    if(override == controlled())
            return;
    else if (override)
            LED_Signaling_Start();
    else
            LED_Signaling_Stop();
 80a3718:	f7ff be24 	b.w	80a3364 <LED_Signaling_Stop>
 80a371c:	bd10      	pop	{r4, pc}

080a371e <_ZN8RGBClass5colorEiii>:
void RGBClass::color(uint32_t rgb) {
    color((rgb>>16)&0xFF, (rgb>>8)&0xFF, (rgb)&0xFF);
}

void RGBClass::color(int red, int green, int blue)
{
 80a371e:	b570      	push	{r4, r5, r6, lr}
 80a3720:	4605      	mov	r5, r0
 80a3722:	460e      	mov	r6, r1
 80a3724:	4614      	mov	r4, r2
#include "core_hal.h"
#include "rgbled.h"

bool RGBClass::controlled(void)
{
    return LED_RGB_IsOverRidden();
 80a3726:	f7ff fe25 	bl	80a3374 <LED_RGB_IsOverRidden>
    color((rgb>>16)&0xFF, (rgb>>8)&0xFF, (rgb)&0xFF);
}

void RGBClass::color(int red, int green, int blue)
{
    if (!controlled())
 80a372a:	b150      	cbz	r0, 80a3742 <_ZN8RGBClass5colorEiii+0x24>
            return;

    LED_SetSignalingColor(red << 16 | green << 8 | blue);
 80a372c:	ea44 2006 	orr.w	r0, r4, r6, lsl #8
 80a3730:	ea40 4005 	orr.w	r0, r0, r5, lsl #16
 80a3734:	f7ff fe06 	bl	80a3344 <LED_SetSignalingColor>
    LED_On(LED_RGB);
}
 80a3738:	e8bd 4070 	ldmia.w	sp!, {r4, r5, r6, lr}
{
    if (!controlled())
            return;

    LED_SetSignalingColor(red << 16 | green << 8 | blue);
    LED_On(LED_RGB);
 80a373c:	20e7      	movs	r0, #231	; 0xe7
 80a373e:	f7ff be21 	b.w	80a3384 <LED_On>
 80a3742:	bd70      	pop	{r4, r5, r6, pc}

080a3744 <serialEventRun>:

/**
 * Provides background processing of serial data.
 */
void serialEventRun()
{
 80a3744:	b508      	push	{r3, lr}
    if (serialEvent && Serial.available()>0)
 80a3746:	4b14      	ldr	r3, [pc, #80]	; (80a3798 <serialEventRun+0x54>)
 80a3748:	b133      	cbz	r3, 80a3758 <serialEventRun+0x14>
 80a374a:	f000 f921 	bl	80a3990 <_Z16_fetch_usbserialv>
 80a374e:	6803      	ldr	r3, [r0, #0]
 80a3750:	691b      	ldr	r3, [r3, #16]
 80a3752:	4798      	blx	r3
 80a3754:	2800      	cmp	r0, #0
 80a3756:	dc16      	bgt.n	80a3786 <serialEventRun+0x42>
        serialEvent();

    if (serialEvent1 && Serial1.available()>0)
 80a3758:	4b10      	ldr	r3, [pc, #64]	; (80a379c <serialEventRun+0x58>)
 80a375a:	b133      	cbz	r3, 80a376a <serialEventRun+0x26>
 80a375c:	f000 f9e6 	bl	80a3b2c <_Z22__fetch_global_Serial1v>
 80a3760:	6803      	ldr	r3, [r0, #0]
 80a3762:	691b      	ldr	r3, [r3, #16]
 80a3764:	4798      	blx	r3
 80a3766:	2800      	cmp	r0, #0
 80a3768:	dc10      	bgt.n	80a378c <serialEventRun+0x48>
        serialEvent1();

#if Wiring_Serial2
    if (serialEventRun2) serialEventRun2();
 80a376a:	4b0d      	ldr	r3, [pc, #52]	; (80a37a0 <serialEventRun+0x5c>)
 80a376c:	b10b      	cbz	r3, 80a3772 <serialEventRun+0x2e>
 80a376e:	f3af 8000 	nop.w
#if Wiring_Serial5
    if (serialEventRun5) serialEventRun5();
#endif

#if Wiring_USBSerial1
    if (usbSerialEvent1 && USBSerial1.available()>0)
 80a3772:	4b0c      	ldr	r3, [pc, #48]	; (80a37a4 <serialEventRun+0x60>)
 80a3774:	b17b      	cbz	r3, 80a3796 <serialEventRun+0x52>
 80a3776:	f000 f947 	bl	80a3a08 <_Z17_fetch_usbserial1v>
 80a377a:	6803      	ldr	r3, [r0, #0]
 80a377c:	691b      	ldr	r3, [r3, #16]
 80a377e:	4798      	blx	r3
 80a3780:	2800      	cmp	r0, #0
 80a3782:	dc06      	bgt.n	80a3792 <serialEventRun+0x4e>
 80a3784:	bd08      	pop	{r3, pc}
 * Provides background processing of serial data.
 */
void serialEventRun()
{
    if (serialEvent && Serial.available()>0)
        serialEvent();
 80a3786:	f3af 8000 	nop.w
 80a378a:	e7e5      	b.n	80a3758 <serialEventRun+0x14>

    if (serialEvent1 && Serial1.available()>0)
        serialEvent1();
 80a378c:	f3af 8000 	nop.w
 80a3790:	e7eb      	b.n	80a376a <serialEventRun+0x26>
    if (serialEventRun5) serialEventRun5();
#endif

#if Wiring_USBSerial1
    if (usbSerialEvent1 && USBSerial1.available()>0)
        usbSerialEvent1();
 80a3792:	f3af 8000 	nop.w
 80a3796:	bd08      	pop	{r3, pc}
	...

080a37a8 <_post_loop>:
#if Wiring_Serial5
void serialEvent5() __attribute__((weak));
#endif

void _post_loop()
{
 80a37a8:	b508      	push	{r3, lr}
	serialEventRun();
 80a37aa:	f7ff ffcb 	bl	80a3744 <serialEventRun>
		return !timeout_fn;
	}

	static inline system_tick_t current_time()
	{
		return HAL_Timer_Get_Milli_Seconds();
 80a37ae:	f7ff fccf 	bl	80a3150 <HAL_Timer_Get_Milli_Seconds>
	/**
	 * Lifesign that the application is still working normally.
	 */
	static void checkin()
	{
		last_checkin = current_time();
 80a37b2:	4b01      	ldr	r3, [pc, #4]	; (80a37b8 <_post_loop+0x10>)
 80a37b4:	6018      	str	r0, [r3, #0]
 80a37b6:	bd08      	pop	{r3, pc}
 80a37b8:	20000898 	.word	0x20000898

080a37bc <_Z33system_initialize_user_backup_ramv>:
 * the dynamically linked application module.
 */
void system_initialize_user_backup_ram()
{
    size_t len = &link_global_retained_end-&link_global_retained_start;
    memcpy(&link_global_retained_start, &link_global_retained_initial_values, len);
 80a37bc:	4802      	ldr	r0, [pc, #8]	; (80a37c8 <_Z33system_initialize_user_backup_ramv+0xc>)
 80a37be:	4a03      	ldr	r2, [pc, #12]	; (80a37cc <_Z33system_initialize_user_backup_ramv+0x10>)
 80a37c0:	4903      	ldr	r1, [pc, #12]	; (80a37d0 <_Z33system_initialize_user_backup_ramv+0x14>)
 80a37c2:	1a12      	subs	r2, r2, r0
 80a37c4:	f001 bc04 	b.w	80a4fd0 <memcpy>
 80a37c8:	40024000 	.word	0x40024000
 80a37cc:	40024004 	.word	0x40024004
 80a37d0:	080a5290 	.word	0x080a5290

080a37d4 <_Z26usb_request_custom_handlerPcjjPj>:
#ifdef USB_VENDOR_REQUEST_ENABLE

// Synchronous handler for customizable requests (USBRequestType::USB_REQUEST_CUSTOM)
bool __attribute((weak)) usb_request_custom_handler(char* buf, size_t buf_size, size_t req_size, size_t* rep_size) {
    return false;
}
 80a37d4:	2000      	movs	r0, #0
 80a37d6:	4770      	bx	lr

080a37d8 <_Z23usb_request_app_handlerP10USBRequestPv>:

bool usb_request_app_handler(USBRequest* req, void* reserved) {
 80a37d8:	b537      	push	{r0, r1, r2, r4, r5, lr}
    switch (req->type) {
 80a37da:	6843      	ldr	r3, [r0, #4]
// Synchronous handler for customizable requests (USBRequestType::USB_REQUEST_CUSTOM)
bool __attribute((weak)) usb_request_custom_handler(char* buf, size_t buf_size, size_t req_size, size_t* rep_size) {
    return false;
}

bool usb_request_app_handler(USBRequest* req, void* reserved) {
 80a37dc:	4604      	mov	r4, r0
    switch (req->type) {
 80a37de:	2b0a      	cmp	r3, #10
 80a37e0:	d00e      	beq.n	80a3800 <_Z23usb_request_app_handlerP10USBRequestPv+0x28>
 80a37e2:	2b50      	cmp	r3, #80	; 0x50
 80a37e4:	d11c      	bne.n	80a3820 <_Z23usb_request_app_handlerP10USBRequestPv+0x48>
#if Wiring_LogConfig
    case USB_REQUEST_LOG_CONFIG: {
        if (!log_process_config_request_callback || !log_process_config_request_callback(req->data, USB_REQUEST_BUFFER_SIZE,
 80a37e6:	4b10      	ldr	r3, [pc, #64]	; (80a3828 <_Z23usb_request_app_handlerP10USBRequestPv+0x50>)
 80a37e8:	681d      	ldr	r5, [r3, #0]
 80a37ea:	b1cd      	cbz	r5, 80a3820 <_Z23usb_request_app_handlerP10USBRequestPv+0x48>
 80a37ec:	7d03      	ldrb	r3, [r0, #20]
 80a37ee:	f44f 7100 	mov.w	r1, #512	; 0x200
 80a37f2:	9300      	str	r3, [sp, #0]
 80a37f4:	68c2      	ldr	r2, [r0, #12]
 80a37f6:	f100 0310 	add.w	r3, r0, #16
 80a37fa:	6880      	ldr	r0, [r0, #8]
 80a37fc:	47a8      	blx	r5
 80a37fe:	e007      	b.n	80a3810 <_Z23usb_request_app_handlerP10USBRequestPv+0x38>
        system_set_usb_request_result(req, USB_REQUEST_RESULT_OK, nullptr);
        return true;
    }
#endif
    case USB_REQUEST_CUSTOM: {
        if (!usb_request_custom_handler(req->data, USB_REQUEST_BUFFER_SIZE, req->request_size, &req->reply_size)) {
 80a3800:	f100 0310 	add.w	r3, r0, #16
 80a3804:	68c2      	ldr	r2, [r0, #12]
 80a3806:	f44f 7100 	mov.w	r1, #512	; 0x200
 80a380a:	6880      	ldr	r0, [r0, #8]
 80a380c:	f7ff ffe2 	bl	80a37d4 <_Z26usb_request_custom_handlerPcjjPj>
 80a3810:	b130      	cbz	r0, 80a3820 <_Z23usb_request_app_handlerP10USBRequestPv+0x48>
            return false;
        }
        system_set_usb_request_result(req, USB_REQUEST_RESULT_OK, nullptr);
 80a3812:	2200      	movs	r2, #0
 80a3814:	4620      	mov	r0, r4
 80a3816:	4611      	mov	r1, r2
 80a3818:	f7ff fddc 	bl	80a33d4 <system_set_usb_request_result>
        return true;
 80a381c:	2001      	movs	r0, #1
 80a381e:	e000      	b.n	80a3822 <_Z23usb_request_app_handlerP10USBRequestPv+0x4a>
    switch (req->type) {
#if Wiring_LogConfig
    case USB_REQUEST_LOG_CONFIG: {
        if (!log_process_config_request_callback || !log_process_config_request_callback(req->data, USB_REQUEST_BUFFER_SIZE,
                req->request_size, &req->reply_size, (DataFormat)req->format)) {
            return false;
 80a3820:	2000      	movs	r0, #0
        return true;
    }
    default:
        return false; // Unsupported request type
    }
}
 80a3822:	b003      	add	sp, #12
 80a3824:	bd30      	pop	{r4, r5, pc}
 80a3826:	bf00      	nop
 80a3828:	20000410 	.word	0x20000410

080a382c <module_user_init_hook>:

#endif // USB_VENDOR_REQUEST_ENABLE

void module_user_init_hook()
{
 80a382c:	b538      	push	{r3, r4, r5, lr}
#if PLATFORM_BACKUP_RAM
    backup_ram_was_valid_ =  __backup_sram_signature==signature;
 80a382e:	4c0c      	ldr	r4, [pc, #48]	; (80a3860 <module_user_init_hook+0x34>)
 80a3830:	4d0c      	ldr	r5, [pc, #48]	; (80a3864 <module_user_init_hook+0x38>)
 80a3832:	6823      	ldr	r3, [r4, #0]
 80a3834:	42ab      	cmp	r3, r5
 80a3836:	4b0c      	ldr	r3, [pc, #48]	; (80a3868 <module_user_init_hook+0x3c>)
 80a3838:	bf0c      	ite	eq
 80a383a:	2201      	moveq	r2, #1
 80a383c:	2200      	movne	r2, #0
 80a383e:	701a      	strb	r2, [r3, #0]
    if (!backup_ram_was_valid_) {
 80a3840:	d002      	beq.n	80a3848 <module_user_init_hook+0x1c>
        system_initialize_user_backup_ram();
 80a3842:	f7ff ffbb 	bl	80a37bc <_Z33system_initialize_user_backup_ramv>
        __backup_sram_signature = signature;
 80a3846:	6025      	str	r5, [r4, #0]
    /* for dynamically linked user part, set the random seed if the user
     * app defines random_seed_from_cloud.
     */
// todo - add a RNG define for that capability
#if defined(STM32F2XX)
    if (random_seed_from_cloud) {
 80a3848:	4b08      	ldr	r3, [pc, #32]	; (80a386c <module_user_init_hook+0x40>)
 80a384a:	b11b      	cbz	r3, 80a3854 <module_user_init_hook+0x28>
    		uint32_t seed = HAL_RNG_GetRandomNumber();
 80a384c:	f7ff fc78 	bl	80a3140 <HAL_RNG_GetRandomNumber>
    		random_seed_from_cloud(seed);
 80a3850:	f3af 8000 	nop.w
#endif

#ifdef USB_VENDOR_REQUEST_ENABLE
    system_set_usb_request_app_handler(usb_request_app_handler, nullptr);
#endif
}
 80a3854:	e8bd 4038 	ldmia.w	sp!, {r3, r4, r5, lr}
    		random_seed_from_cloud(seed);
    }
#endif

#ifdef USB_VENDOR_REQUEST_ENABLE
    system_set_usb_request_app_handler(usb_request_app_handler, nullptr);
 80a3858:	2100      	movs	r1, #0
 80a385a:	4805      	ldr	r0, [pc, #20]	; (80a3870 <module_user_init_hook+0x44>)
 80a385c:	f7ff bdb2 	b.w	80a33c4 <system_set_usb_request_app_handler>
 80a3860:	40024000 	.word	0x40024000
 80a3864:	9a271c1e 	.word	0x9a271c1e
 80a3868:	20000414 	.word	0x20000414
 80a386c:	00000000 	.word	0x00000000
 80a3870:	080a37d9 	.word	0x080a37d9

080a3874 <_ZN9IPAddressD1Ev>:
    IPAddress(uint8_t first_octet, uint8_t second_octet, uint8_t third_octet, uint8_t fourth_octet);
    IPAddress(uint32_t address);
    IPAddress(const uint8_t* address);
    IPAddress(const HAL_IPAddress& address);

    virtual ~IPAddress() {}
 80a3874:	4770      	bx	lr

080a3876 <_ZN9IPAddressD0Ev>:
 80a3876:	b510      	push	{r4, lr}
 80a3878:	4604      	mov	r4, r0
 80a387a:	f7fc fc10 	bl	80a009e <_ZdlPv>
 80a387e:	4620      	mov	r0, r4
 80a3880:	bd10      	pop	{r4, pc}

080a3882 <_ZNK9IPAddress7printToER5Print>:
#endif
	return address.ipv4==that.address.ipv4;
}

size_t IPAddress::printTo(Print& p) const
{
 80a3882:	b5f8      	push	{r3, r4, r5, r6, r7, lr}
 80a3884:	460f      	mov	r7, r1
 80a3886:	f100 0608 	add.w	r6, r0, #8
 80a388a:	1d05      	adds	r5, r0, #4
 80a388c:	2400      	movs	r4, #0
    size_t n = 0;
    for (int i = 0; i < 4; i++)
    {
        if (n)
            n += p.print('.');
        n += p.print((*this)[i], DEC);
 80a388e:	f816 1d01 	ldrb.w	r1, [r6, #-1]!
 80a3892:	220a      	movs	r2, #10
 80a3894:	4638      	mov	r0, r7
 80a3896:	f7ff ff1a 	bl	80a36ce <_ZN5Print5printEhi>
}

size_t IPAddress::printTo(Print& p) const
{
    size_t n = 0;
    for (int i = 0; i < 4; i++)
 80a389a:	42ae      	cmp	r6, r5
    {
        if (n)
            n += p.print('.');
        n += p.print((*this)[i], DEC);
 80a389c:	4404      	add	r4, r0
}

size_t IPAddress::printTo(Print& p) const
{
    size_t n = 0;
    for (int i = 0; i < 4; i++)
 80a389e:	d007      	beq.n	80a38b0 <_ZNK9IPAddress7printToER5Print+0x2e>
    {
        if (n)
 80a38a0:	2c00      	cmp	r4, #0
 80a38a2:	d0f4      	beq.n	80a388e <_ZNK9IPAddress7printToER5Print+0xc>
            n += p.print('.');
 80a38a4:	212e      	movs	r1, #46	; 0x2e
 80a38a6:	4638      	mov	r0, r7
 80a38a8:	f7ff fece 	bl	80a3648 <_ZN5Print5printEc>
 80a38ac:	4404      	add	r4, r0
 80a38ae:	e7ee      	b.n	80a388e <_ZNK9IPAddress7printToER5Print+0xc>
        n += p.print((*this)[i], DEC);
    }
    return n;
}
 80a38b0:	4620      	mov	r0, r4
 80a38b2:	bdf8      	pop	{r3, r4, r5, r6, r7, pc}

080a38b4 <_ZN9IPAddress8set_ipv4Ehhhh>:
    return address.ipv4!=0;
#endif
}

void IPAddress::set_ipv4(uint8_t b0, uint8_t b1, uint8_t b2, uint8_t b3)
{
 80a38b4:	b510      	push	{r4, lr}
    address.ipv4 = b0<<24 | b1 << 16 | b2 << 8 | b3;
 80a38b6:	f89d 4008 	ldrb.w	r4, [sp, #8]
 80a38ba:	ea44 2303 	orr.w	r3, r4, r3, lsl #8
 80a38be:	ea43 4202 	orr.w	r2, r3, r2, lsl #16
 80a38c2:	ea42 6101 	orr.w	r1, r2, r1, lsl #24
        return &address;
    }

    inline void setVersion(uint8_t version) {
#if HAL_IPv6
        address.v = version;
 80a38c6:	2304      	movs	r3, #4
 80a38c8:	6041      	str	r1, [r0, #4]
 80a38ca:	7503      	strb	r3, [r0, #20]
 80a38cc:	bd10      	pop	{r4, pc}
	...

080a38d0 <_ZN9IPAddressC1Ehhhh>:
{
    memcpy(&this->address, &address, sizeof(address));
}


IPAddress::IPAddress(uint8_t first_octet, uint8_t second_octet, uint8_t third_octet, uint8_t fourth_octet)
 80a38d0:	b537      	push	{r0, r1, r2, r4, r5, lr}
 80a38d2:	4d04      	ldr	r5, [pc, #16]	; (80a38e4 <_ZN9IPAddressC1Ehhhh+0x14>)
 80a38d4:	6005      	str	r5, [r0, #0]
{
    set_ipv4(first_octet, second_octet, third_octet, fourth_octet);
 80a38d6:	f89d 5018 	ldrb.w	r5, [sp, #24]
 80a38da:	9500      	str	r5, [sp, #0]
 80a38dc:	f7ff ffea 	bl	80a38b4 <_ZN9IPAddress8set_ipv4Ehhhh>
}
 80a38e0:	b003      	add	sp, #12
 80a38e2:	bd30      	pop	{r4, r5, pc}
 80a38e4:	080a51bc 	.word	0x080a51bc

080a38e8 <_ZN9USBSerial14blockOnOverrunEb>:
  HAL_USB_USART_Flush_Data(_serial);
}

void USBSerial::blockOnOverrun(bool block)
{
  _blocking = block;
 80a38e8:	7441      	strb	r1, [r0, #17]
 80a38ea:	4770      	bx	lr

080a38ec <_ZN9USBSerialD1Ev>:
#include "spark_wiring_platform.h"
#include "usb_hal.h"
#include "system_task.h"
#include "spark_wiring_startup.h"

class USBSerial : public Stream
 80a38ec:	4770      	bx	lr

080a38ee <_ZN9USBSerial4readEv>:


// Read data from buffer
int USBSerial::read()
{
	return HAL_USB_USART_Receive_Data(_serial, false);
 80a38ee:	2100      	movs	r1, #0
 80a38f0:	7c00      	ldrb	r0, [r0, #16]
 80a38f2:	f7ff bd0f 	b.w	80a3314 <HAL_USB_USART_Receive_Data>

080a38f6 <_ZN9USBSerial4peekEv>:
  _blocking = block;
}

int USBSerial::peek()
{
	return HAL_USB_USART_Receive_Data(_serial, true);
 80a38f6:	2101      	movs	r1, #1
 80a38f8:	7c00      	ldrb	r0, [r0, #16]
 80a38fa:	f7ff bd0b 	b.w	80a3314 <HAL_USB_USART_Receive_Data>

080a38fe <_ZN9USBSerial17availableForWriteEv>:
	return HAL_USB_USART_Receive_Data(_serial, false);
}

int USBSerial::availableForWrite()
{
  return HAL_USB_USART_Available_Data_For_Write(_serial);
 80a38fe:	7c00      	ldrb	r0, [r0, #16]
 80a3900:	f7ff bd00 	b.w	80a3304 <HAL_USB_USART_Available_Data_For_Write>

080a3904 <_ZN9USBSerial9availableEv>:
}

int USBSerial::available()
{
	return HAL_USB_USART_Available_Data(_serial);
 80a3904:	7c00      	ldrb	r0, [r0, #16]
 80a3906:	f7ff bcf5 	b.w	80a32f4 <HAL_USB_USART_Available_Data>

080a390a <_ZN9USBSerial5writeEh>:
}

size_t USBSerial::write(uint8_t byte)
{
 80a390a:	b538      	push	{r3, r4, r5, lr}
 80a390c:	4604      	mov	r4, r0
  if (HAL_USB_USART_Available_Data_For_Write(_serial) > 0 || _blocking) {
 80a390e:	7c00      	ldrb	r0, [r0, #16]
{
	return HAL_USB_USART_Available_Data(_serial);
}

size_t USBSerial::write(uint8_t byte)
{
 80a3910:	460d      	mov	r5, r1
  if (HAL_USB_USART_Available_Data_For_Write(_serial) > 0 || _blocking) {
 80a3912:	f7ff fcf7 	bl	80a3304 <HAL_USB_USART_Available_Data_For_Write>
 80a3916:	2800      	cmp	r0, #0
 80a3918:	dc01      	bgt.n	80a391e <_ZN9USBSerial5writeEh+0x14>
 80a391a:	7c60      	ldrb	r0, [r4, #17]
 80a391c:	b120      	cbz	r0, 80a3928 <_ZN9USBSerial5writeEh+0x1e>
    HAL_USB_USART_Send_Data(_serial, byte);
 80a391e:	4629      	mov	r1, r5
 80a3920:	7c20      	ldrb	r0, [r4, #16]
 80a3922:	f7ff fcff 	bl	80a3324 <HAL_USB_USART_Send_Data>
    return 1;
 80a3926:	2001      	movs	r0, #1
  }
  return 0;
}
 80a3928:	bd38      	pop	{r3, r4, r5, pc}

080a392a <_ZN9USBSerial5flushEv>:

void USBSerial::flush()
{
  HAL_USB_USART_Flush_Data(_serial);
 80a392a:	7c00      	ldrb	r0, [r0, #16]
 80a392c:	f7ff bd02 	b.w	80a3334 <HAL_USB_USART_Flush_Data>

080a3930 <_ZN9USBSerialD0Ev>:
 80a3930:	b510      	push	{r4, lr}
 80a3932:	4604      	mov	r4, r0
 80a3934:	f7fc fbb3 	bl	80a009e <_ZdlPv>
 80a3938:	4620      	mov	r0, r4
 80a393a:	bd10      	pop	{r4, pc}

080a393c <_ZN9USBSerialC1E20HAL_USB_USART_SerialRK20HAL_USB_USART_Config>:

  HAL_USB_USART_Config conf = acquireSerialBuffer();
  HAL_USB_USART_Init(_serial, &conf);
}

USBSerial::USBSerial(HAL_USB_USART_Serial serial, const HAL_USB_USART_Config& conf)
 80a393c:	b510      	push	{r4, lr}
 80a393e:	4604      	mov	r4, r0
  protected:
    void setWriteError(int err = 1) { write_error = err; }
    size_t printf_impl(bool newline, const char* format, ...);

  public:
    Print() : write_error(0) {}
 80a3940:	2300      	movs	r3, #0
 80a3942:	6063      	str	r3, [r4, #4]
    virtual int available() = 0;
    virtual int read() = 0;
    virtual int peek() = 0;
    virtual void flush() = 0;

    Stream() {_timeout=1000;}
 80a3944:	f44f 737a 	mov.w	r3, #1000	; 0x3e8
 80a3948:	60a3      	str	r3, [r4, #8]
 80a394a:	4b05      	ldr	r3, [pc, #20]	; (80a3960 <_ZN9USBSerialC1E20HAL_USB_USART_SerialRK20HAL_USB_USART_Config+0x24>)
 80a394c:	4608      	mov	r0, r1
 80a394e:	6023      	str	r3, [r4, #0]
{
  _serial = serial;
  _blocking = true;
 80a3950:	2301      	movs	r3, #1
  HAL_USB_USART_Init(_serial, &conf);
}

USBSerial::USBSerial(HAL_USB_USART_Serial serial, const HAL_USB_USART_Config& conf)
{
  _serial = serial;
 80a3952:	7421      	strb	r1, [r4, #16]
  _blocking = true;
 80a3954:	7463      	strb	r3, [r4, #17]

  HAL_USB_USART_Init(_serial, &conf);
 80a3956:	4611      	mov	r1, r2
 80a3958:	f7ff fcc4 	bl	80a32e4 <HAL_USB_USART_Init>
}
 80a395c:	4620      	mov	r0, r4
 80a395e:	bd10      	pop	{r4, pc}
 80a3960:	080a51d0 	.word	0x080a51d0

080a3964 <_Z19acquireSerialBufferv>:

// Preinstantiate Objects //////////////////////////////////////////////////////
#ifdef SPARK_USB_SERIAL

HAL_USB_USART_Config __attribute__((weak)) acquireSerialBuffer()
{
 80a3964:	b510      	push	{r4, lr}
 80a3966:	4604      	mov	r4, r0
  HAL_USB_USART_Config conf = {0};
 80a3968:	2214      	movs	r2, #20
 80a396a:	2100      	movs	r1, #0
 80a396c:	f001 fb3b 	bl	80a4fe6 <memset>

#ifdef USB_SERIAL_USERSPACE_BUFFERS
  static uint8_t serial_rx_buffer[USB_RX_BUFFER_SIZE];
  static uint8_t serial_tx_buffer[USB_TX_BUFFER_SIZE];

  conf.rx_buffer = serial_rx_buffer;
 80a3970:	4b05      	ldr	r3, [pc, #20]	; (80a3988 <_Z19acquireSerialBufferv+0x24>)
  conf.rx_buffer_size = USB_RX_BUFFER_SIZE;
  conf.tx_buffer_size = USB_TX_BUFFER_SIZE;
#endif

  return conf;
}
 80a3972:	4620      	mov	r0, r4

#ifdef USB_SERIAL_USERSPACE_BUFFERS
  static uint8_t serial_rx_buffer[USB_RX_BUFFER_SIZE];
  static uint8_t serial_tx_buffer[USB_TX_BUFFER_SIZE];

  conf.rx_buffer = serial_rx_buffer;
 80a3974:	6063      	str	r3, [r4, #4]
  conf.tx_buffer = serial_tx_buffer;
 80a3976:	4b05      	ldr	r3, [pc, #20]	; (80a398c <_Z19acquireSerialBufferv+0x28>)
 80a3978:	60e3      	str	r3, [r4, #12]
  conf.rx_buffer_size = USB_RX_BUFFER_SIZE;
 80a397a:	f240 1301 	movw	r3, #257	; 0x101
 80a397e:	8123      	strh	r3, [r4, #8]
  conf.tx_buffer_size = USB_TX_BUFFER_SIZE;
 80a3980:	2381      	movs	r3, #129	; 0x81
 80a3982:	8223      	strh	r3, [r4, #16]
#endif

  return conf;
}
 80a3984:	bd10      	pop	{r4, pc}
 80a3986:	bf00      	nop
 80a3988:	2000049d 	.word	0x2000049d
 80a398c:	2000041c 	.word	0x2000041c

080a3990 <_Z16_fetch_usbserialv>:

USBSerial& _fetch_usbserial()
{
 80a3990:	b530      	push	{r4, r5, lr}
  HAL_USB_USART_Config conf = acquireSerialBuffer();
	static USBSerial _usbserial(HAL_USB_USART_SERIAL, conf);
 80a3992:	4d0e      	ldr	r5, [pc, #56]	; (80a39cc <_Z16_fetch_usbserialv+0x3c>)

  return conf;
}

USBSerial& _fetch_usbserial()
{
 80a3994:	b087      	sub	sp, #28
  HAL_USB_USART_Config conf = acquireSerialBuffer();
 80a3996:	a801      	add	r0, sp, #4
 80a3998:	f7ff ffe4 	bl	80a3964 <_Z19acquireSerialBufferv>
	static USBSerial _usbserial(HAL_USB_USART_SERIAL, conf);
 80a399c:	6829      	ldr	r1, [r5, #0]
 80a399e:	f011 0401 	ands.w	r4, r1, #1
 80a39a2:	d110      	bne.n	80a39c6 <_Z16_fetch_usbserialv+0x36>
 80a39a4:	4628      	mov	r0, r5
 80a39a6:	f7fc fb7c 	bl	80a00a2 <__cxa_guard_acquire>
 80a39aa:	b160      	cbz	r0, 80a39c6 <_Z16_fetch_usbserialv+0x36>
 80a39ac:	aa01      	add	r2, sp, #4
 80a39ae:	4621      	mov	r1, r4
 80a39b0:	4807      	ldr	r0, [pc, #28]	; (80a39d0 <_Z16_fetch_usbserialv+0x40>)
 80a39b2:	f7ff ffc3 	bl	80a393c <_ZN9USBSerialC1E20HAL_USB_USART_SerialRK20HAL_USB_USART_Config>
 80a39b6:	4628      	mov	r0, r5
 80a39b8:	f7fc fb78 	bl	80a00ac <__cxa_guard_release>
 80a39bc:	4a05      	ldr	r2, [pc, #20]	; (80a39d4 <_Z16_fetch_usbserialv+0x44>)
 80a39be:	4906      	ldr	r1, [pc, #24]	; (80a39d8 <_Z16_fetch_usbserialv+0x48>)
 80a39c0:	4803      	ldr	r0, [pc, #12]	; (80a39d0 <_Z16_fetch_usbserialv+0x40>)
 80a39c2:	f000 fa13 	bl	80a3dec <__aeabi_atexit>
	return _usbserial;
}
 80a39c6:	4802      	ldr	r0, [pc, #8]	; (80a39d0 <_Z16_fetch_usbserialv+0x40>)
 80a39c8:	b007      	add	sp, #28
 80a39ca:	bd30      	pop	{r4, r5, pc}
 80a39cc:	20000418 	.word	0x20000418
 80a39d0:	200005a0 	.word	0x200005a0
 80a39d4:	20000338 	.word	0x20000338
 80a39d8:	080a38ed 	.word	0x080a38ed

080a39dc <_Z23acquireUSBSerial1Bufferv>:

#if Wiring_USBSerial1

HAL_USB_USART_Config __attribute__((weak)) acquireUSBSerial1Buffer()
{
 80a39dc:	b510      	push	{r4, lr}
 80a39de:	4604      	mov	r4, r0
  HAL_USB_USART_Config conf = {0};
 80a39e0:	2214      	movs	r2, #20
 80a39e2:	2100      	movs	r1, #0
 80a39e4:	f001 faff 	bl	80a4fe6 <memset>

#ifdef USB_SERIAL_USERSPACE_BUFFERS
  static uint8_t usbserial1_rx_buffer[USB_RX_BUFFER_SIZE];
  static uint8_t usbserial1_tx_buffer[USB_TX_BUFFER_SIZE];

  conf.rx_buffer = usbserial1_rx_buffer;
 80a39e8:	4b05      	ldr	r3, [pc, #20]	; (80a3a00 <_Z23acquireUSBSerial1Bufferv+0x24>)
  conf.rx_buffer_size = USB_RX_BUFFER_SIZE;
  conf.tx_buffer_size = USB_TX_BUFFER_SIZE;
#endif

  return conf;
}
 80a39ea:	4620      	mov	r0, r4

#ifdef USB_SERIAL_USERSPACE_BUFFERS
  static uint8_t usbserial1_rx_buffer[USB_RX_BUFFER_SIZE];
  static uint8_t usbserial1_tx_buffer[USB_TX_BUFFER_SIZE];

  conf.rx_buffer = usbserial1_rx_buffer;
 80a39ec:	6063      	str	r3, [r4, #4]
  conf.tx_buffer = usbserial1_tx_buffer;
 80a39ee:	4b05      	ldr	r3, [pc, #20]	; (80a3a04 <_Z23acquireUSBSerial1Bufferv+0x28>)
 80a39f0:	60e3      	str	r3, [r4, #12]
  conf.rx_buffer_size = USB_RX_BUFFER_SIZE;
 80a39f2:	f240 1301 	movw	r3, #257	; 0x101
 80a39f6:	8123      	strh	r3, [r4, #8]
  conf.tx_buffer_size = USB_TX_BUFFER_SIZE;
 80a39f8:	2381      	movs	r3, #129	; 0x81
 80a39fa:	8223      	strh	r3, [r4, #16]
#endif

  return conf;
}
 80a39fc:	bd10      	pop	{r4, pc}
 80a39fe:	bf00      	nop
 80a3a00:	20000650 	.word	0x20000650
 80a3a04:	200005b8 	.word	0x200005b8

080a3a08 <_Z17_fetch_usbserial1v>:

USBSerial& _fetch_usbserial1()
{
 80a3a08:	b510      	push	{r4, lr}
  HAL_USB_USART_Config conf = acquireUSBSerial1Buffer();
  static USBSerial _usbserial1(HAL_USB_USART_SERIAL1, conf);
 80a3a0a:	4c0e      	ldr	r4, [pc, #56]	; (80a3a44 <_Z17_fetch_usbserial1v+0x3c>)

  return conf;
}

USBSerial& _fetch_usbserial1()
{
 80a3a0c:	b086      	sub	sp, #24
  HAL_USB_USART_Config conf = acquireUSBSerial1Buffer();
 80a3a0e:	a801      	add	r0, sp, #4
 80a3a10:	f7ff ffe4 	bl	80a39dc <_Z23acquireUSBSerial1Bufferv>
  static USBSerial _usbserial1(HAL_USB_USART_SERIAL1, conf);
 80a3a14:	6823      	ldr	r3, [r4, #0]
 80a3a16:	07db      	lsls	r3, r3, #31
 80a3a18:	d410      	bmi.n	80a3a3c <_Z17_fetch_usbserial1v+0x34>
 80a3a1a:	4620      	mov	r0, r4
 80a3a1c:	f7fc fb41 	bl	80a00a2 <__cxa_guard_acquire>
 80a3a20:	b160      	cbz	r0, 80a3a3c <_Z17_fetch_usbserial1v+0x34>
 80a3a22:	aa01      	add	r2, sp, #4
 80a3a24:	2101      	movs	r1, #1
 80a3a26:	4808      	ldr	r0, [pc, #32]	; (80a3a48 <_Z17_fetch_usbserial1v+0x40>)
 80a3a28:	f7ff ff88 	bl	80a393c <_ZN9USBSerialC1E20HAL_USB_USART_SerialRK20HAL_USB_USART_Config>
 80a3a2c:	4620      	mov	r0, r4
 80a3a2e:	f7fc fb3d 	bl	80a00ac <__cxa_guard_release>
 80a3a32:	4a06      	ldr	r2, [pc, #24]	; (80a3a4c <_Z17_fetch_usbserial1v+0x44>)
 80a3a34:	4906      	ldr	r1, [pc, #24]	; (80a3a50 <_Z17_fetch_usbserial1v+0x48>)
 80a3a36:	4804      	ldr	r0, [pc, #16]	; (80a3a48 <_Z17_fetch_usbserial1v+0x40>)
 80a3a38:	f000 f9d8 	bl	80a3dec <__aeabi_atexit>
  return _usbserial1;
}
 80a3a3c:	4802      	ldr	r0, [pc, #8]	; (80a3a48 <_Z17_fetch_usbserial1v+0x40>)
 80a3a3e:	b006      	add	sp, #24
 80a3a40:	bd10      	pop	{r4, pc}
 80a3a42:	bf00      	nop
 80a3a44:	200005b4 	.word	0x200005b4
 80a3a48:	2000063c 	.word	0x2000063c
 80a3a4c:	20000338 	.word	0x20000338
 80a3a50:	080a38ed 	.word	0x080a38ed

080a3a54 <_Z26call_raw_interrupt_handlerPv>:
}

void call_raw_interrupt_handler(void* data)
{
    raw_interrupt_handler_t handler = raw_interrupt_handler_t(data);
    handler();
 80a3a54:	4700      	bx	r0
	...

080a3a58 <_Z15attachInterrupttPFvvE13InterruptModeah>:
    }
    return handler!=NULL;
}

bool attachInterrupt(uint16_t pin, raw_interrupt_handler_t handler, InterruptMode mode, int8_t priority, uint8_t subpriority)
{
 80a3a58:	b5f0      	push	{r4, r5, r6, r7, lr}
 80a3a5a:	461c      	mov	r4, r3
 80a3a5c:	b085      	sub	sp, #20
 80a3a5e:	4605      	mov	r5, r0
 80a3a60:	460e      	mov	r6, r1
 80a3a62:	4617      	mov	r7, r2
#if Wiring_Cellular == 1
  /* safety check that prevents users from attaching an interrupt to D7
   * which is shared with BATT_INT_PC13 for power management */
  if (pin == D7) return false;
#endif
    HAL_Interrupts_Detach(pin);
 80a3a64:	f7ff fb54 	bl	80a3110 <HAL_Interrupts_Detach>
    HAL_InterruptExtraConfiguration extra = {0};
 80a3a68:	2000      	movs	r0, #0
 *******************************************************************************/

HAL_InterruptExtraConfiguration* configure_interrupt(HAL_InterruptExtraConfiguration& extra, int8_t priority, uint8_t subpriority)
{
  extra.version = HAL_INTERRUPT_EXTRA_CONFIGURATION_VERSION_1;
  if (priority >= 0) {
 80a3a6a:	4284      	cmp	r4, r0
 * Return         : true if function handler was allocated, false otherwise.
 *******************************************************************************/

HAL_InterruptExtraConfiguration* configure_interrupt(HAL_InterruptExtraConfiguration& extra, int8_t priority, uint8_t subpriority)
{
  extra.version = HAL_INTERRUPT_EXTRA_CONFIGURATION_VERSION_1;
 80a3a6c:	f04f 0304 	mov.w	r3, #4
  /* safety check that prevents users from attaching an interrupt to D7
   * which is shared with BATT_INT_PC13 for power management */
  if (pin == D7) return false;
#endif
    HAL_Interrupts_Detach(pin);
    HAL_InterruptExtraConfiguration extra = {0};
 80a3a70:	9003      	str	r0, [sp, #12]
 * Return         : true if function handler was allocated, false otherwise.
 *******************************************************************************/

HAL_InterruptExtraConfiguration* configure_interrupt(HAL_InterruptExtraConfiguration& extra, int8_t priority, uint8_t subpriority)
{
  extra.version = HAL_INTERRUPT_EXTRA_CONFIGURATION_VERSION_1;
 80a3a72:	f88d 300c 	strb.w	r3, [sp, #12]
  if (priority >= 0) {
    extra.IRQChannelPreemptionPriority = (uint8_t)priority;
    extra.IRQChannelSubPriority = subpriority;
    return &extra;
  }
  return nullptr;
 80a3a76:	bfb4      	ite	lt
 80a3a78:	4603      	movlt	r3, r0
HAL_InterruptExtraConfiguration* configure_interrupt(HAL_InterruptExtraConfiguration& extra, int8_t priority, uint8_t subpriority)
{
  extra.version = HAL_INTERRUPT_EXTRA_CONFIGURATION_VERSION_1;
  if (priority >= 0) {
    extra.IRQChannelPreemptionPriority = (uint8_t)priority;
    extra.IRQChannelSubPriority = subpriority;
 80a3a7a:	f89d 3028 	ldrbge.w	r3, [sp, #40]	; 0x28
   * which is shared with BATT_INT_PC13 for power management */
  if (pin == D7) return false;
#endif
    HAL_Interrupts_Detach(pin);
    HAL_InterruptExtraConfiguration extra = {0};
    HAL_Interrupts_Attach(pin, call_raw_interrupt_handler, (void*)handler, mode, configure_interrupt(extra, priority, subpriority));
 80a3a7e:	4628      	mov	r0, r5
HAL_InterruptExtraConfiguration* configure_interrupt(HAL_InterruptExtraConfiguration& extra, int8_t priority, uint8_t subpriority)
{
  extra.version = HAL_INTERRUPT_EXTRA_CONFIGURATION_VERSION_1;
  if (priority >= 0) {
    extra.IRQChannelPreemptionPriority = (uint8_t)priority;
    extra.IRQChannelSubPriority = subpriority;
 80a3a80:	bfa4      	itt	ge
 80a3a82:	f88d 300e 	strbge.w	r3, [sp, #14]
    return &extra;
 80a3a86:	ab03      	addge	r3, sp, #12
   * which is shared with BATT_INT_PC13 for power management */
  if (pin == D7) return false;
#endif
    HAL_Interrupts_Detach(pin);
    HAL_InterruptExtraConfiguration extra = {0};
    HAL_Interrupts_Attach(pin, call_raw_interrupt_handler, (void*)handler, mode, configure_interrupt(extra, priority, subpriority));
 80a3a88:	9300      	str	r3, [sp, #0]
 80a3a8a:	4632      	mov	r2, r6
 80a3a8c:	463b      	mov	r3, r7
 80a3a8e:	4904      	ldr	r1, [pc, #16]	; (80a3aa0 <_Z15attachInterrupttPFvvE13InterruptModeah+0x48>)

HAL_InterruptExtraConfiguration* configure_interrupt(HAL_InterruptExtraConfiguration& extra, int8_t priority, uint8_t subpriority)
{
  extra.version = HAL_INTERRUPT_EXTRA_CONFIGURATION_VERSION_1;
  if (priority >= 0) {
    extra.IRQChannelPreemptionPriority = (uint8_t)priority;
 80a3a90:	bfa8      	it	ge
 80a3a92:	f88d 400d 	strbge.w	r4, [sp, #13]
   * which is shared with BATT_INT_PC13 for power management */
  if (pin == D7) return false;
#endif
    HAL_Interrupts_Detach(pin);
    HAL_InterruptExtraConfiguration extra = {0};
    HAL_Interrupts_Attach(pin, call_raw_interrupt_handler, (void*)handler, mode, configure_interrupt(extra, priority, subpriority));
 80a3a96:	f7ff fb33 	bl	80a3100 <HAL_Interrupts_Attach>
    return true;
}
 80a3a9a:	2001      	movs	r0, #1
 80a3a9c:	b005      	add	sp, #20
 80a3a9e:	bdf0      	pop	{r4, r5, r6, r7, pc}
 80a3aa0:	080a3a55 	.word	0x080a3a55

080a3aa4 <_ZN11USARTSerialD1Ev>:
private:
  HAL_USART_Serial _serial;
  bool _blocking;
public:
  USARTSerial(HAL_USART_Serial serial, Ring_Buffer *rx_buffer, Ring_Buffer *tx_buffer);
  virtual ~USARTSerial() {};
 80a3aa4:	4770      	bx	lr

080a3aa6 <_ZN11USARTSerial14blockOnOverrunEb>:
    HAL_USART_Half_Duplex(_serial, Enable);
}

void USARTSerial::blockOnOverrun(bool block)
{
  _blocking = block;
 80a3aa6:	7441      	strb	r1, [r0, #17]
 80a3aa8:	4770      	bx	lr

080a3aaa <_ZN11USARTSerial17availableForWriteEv>:
}


int USARTSerial::availableForWrite(void)
{
  return HAL_USART_Available_Data_For_Write(_serial);
 80a3aaa:	7c00      	ldrb	r0, [r0, #16]
 80a3aac:	f7ff bb98 	b.w	80a31e0 <HAL_USART_Available_Data_For_Write>

080a3ab0 <_ZN11USARTSerial9availableEv>:
}

int USARTSerial::available(void)
{
  return HAL_USART_Available_Data(_serial);
 80a3ab0:	7c00      	ldrb	r0, [r0, #16]
 80a3ab2:	f7ff bb6d 	b.w	80a3190 <HAL_USART_Available_Data>

080a3ab6 <_ZN11USARTSerial4peekEv>:
}

int USARTSerial::peek(void)
{
  return HAL_USART_Peek_Data(_serial);
 80a3ab6:	7c00      	ldrb	r0, [r0, #16]
 80a3ab8:	f7ff bb7a 	b.w	80a31b0 <HAL_USART_Peek_Data>

080a3abc <_ZN11USARTSerial4readEv>:
}

int USARTSerial::read(void)
{
  return HAL_USART_Read_Data(_serial);
 80a3abc:	7c00      	ldrb	r0, [r0, #16]
 80a3abe:	f7ff bb6f 	b.w	80a31a0 <HAL_USART_Read_Data>

080a3ac2 <_ZN11USARTSerial5flushEv>:
}

void USARTSerial::flush()
{
  HAL_USART_Flush_Data(_serial);
 80a3ac2:	7c00      	ldrb	r0, [r0, #16]
 80a3ac4:	f7ff bb7c 	b.w	80a31c0 <HAL_USART_Flush_Data>

080a3ac8 <_ZN11USARTSerialD0Ev>:
 80a3ac8:	b510      	push	{r4, lr}
 80a3aca:	4604      	mov	r4, r0
 80a3acc:	f7fc fae7 	bl	80a009e <_ZdlPv>
 80a3ad0:	4620      	mov	r0, r4
 80a3ad2:	bd10      	pop	{r4, pc}

080a3ad4 <_ZN11USARTSerial5writeEh>:
}

size_t USARTSerial::write(uint8_t c)
{
 80a3ad4:	b570      	push	{r4, r5, r6, lr}
  // attempt a write if blocking, or for non-blocking if there is room.
  if (_blocking || HAL_USART_Available_Data_For_Write(_serial) > 0) {
 80a3ad6:	7c45      	ldrb	r5, [r0, #17]
{
  HAL_USART_Flush_Data(_serial);
}

size_t USARTSerial::write(uint8_t c)
{
 80a3ad8:	4604      	mov	r4, r0
 80a3ada:	460e      	mov	r6, r1
  // attempt a write if blocking, or for non-blocking if there is room.
  if (_blocking || HAL_USART_Available_Data_For_Write(_serial) > 0) {
 80a3adc:	b925      	cbnz	r5, 80a3ae8 <_ZN11USARTSerial5writeEh+0x14>
 80a3ade:	7c00      	ldrb	r0, [r0, #16]
 80a3ae0:	f7ff fb7e 	bl	80a31e0 <HAL_USART_Available_Data_For_Write>
 80a3ae4:	2800      	cmp	r0, #0
 80a3ae6:	dd05      	ble.n	80a3af4 <_ZN11USARTSerial5writeEh+0x20>
    // the HAL always blocks.
	  return HAL_USART_Write_Data(_serial, c);
 80a3ae8:	4631      	mov	r1, r6
 80a3aea:	7c20      	ldrb	r0, [r4, #16]
  }
  return 0;
}
 80a3aec:	e8bd 4070 	ldmia.w	sp!, {r4, r5, r6, lr}
size_t USARTSerial::write(uint8_t c)
{
  // attempt a write if blocking, or for non-blocking if there is room.
  if (_blocking || HAL_USART_Available_Data_For_Write(_serial) > 0) {
    // the HAL always blocks.
	  return HAL_USART_Write_Data(_serial, c);
 80a3af0:	f7ff bb46 	b.w	80a3180 <HAL_USART_Write_Data>
  }
  return 0;
}
 80a3af4:	4628      	mov	r0, r5
 80a3af6:	bd70      	pop	{r4, r5, r6, pc}

080a3af8 <_ZN11USARTSerialC1E16HAL_USART_SerialP11Ring_BufferS2_>:
#include "spark_wiring_usartserial.h"
#include "spark_wiring_constants.h"

// Constructors ////////////////////////////////////////////////////////////////

USARTSerial::USARTSerial(HAL_USART_Serial serial, Ring_Buffer *rx_buffer, Ring_Buffer *tx_buffer)
 80a3af8:	b510      	push	{r4, lr}
 80a3afa:	4604      	mov	r4, r0
 80a3afc:	4608      	mov	r0, r1
 80a3afe:	4611      	mov	r1, r2
 80a3b00:	2200      	movs	r2, #0
 80a3b02:	6062      	str	r2, [r4, #4]
 80a3b04:	f44f 727a 	mov.w	r2, #1000	; 0x3e8
 80a3b08:	60a2      	str	r2, [r4, #8]
 80a3b0a:	4a05      	ldr	r2, [pc, #20]	; (80a3b20 <_ZN11USARTSerialC1E16HAL_USART_SerialP11Ring_BufferS2_+0x28>)
{
  _serial = serial;
 80a3b0c:	7420      	strb	r0, [r4, #16]
#include "spark_wiring_usartserial.h"
#include "spark_wiring_constants.h"

// Constructors ////////////////////////////////////////////////////////////////

USARTSerial::USARTSerial(HAL_USART_Serial serial, Ring_Buffer *rx_buffer, Ring_Buffer *tx_buffer)
 80a3b0e:	6022      	str	r2, [r4, #0]
{
  _serial = serial;
  // Default is blocking mode
  _blocking = true;
 80a3b10:	2201      	movs	r2, #1
 80a3b12:	7462      	strb	r2, [r4, #17]
  HAL_USART_Init(serial, rx_buffer, tx_buffer);
 80a3b14:	461a      	mov	r2, r3
 80a3b16:	f7ff fb2b 	bl	80a3170 <HAL_USART_Init>
}
 80a3b1a:	4620      	mov	r0, r4
 80a3b1c:	bd10      	pop	{r4, pc}
 80a3b1e:	bf00      	nop
 80a3b20:	080a5200 	.word	0x080a5200

080a3b24 <_ZN11USARTSerial9isEnabledEv>:
USARTSerial::operator bool() {
  return true;
}

bool USARTSerial::isEnabled() {
  return HAL_USART_Is_Enabled(_serial);
 80a3b24:	7c00      	ldrb	r0, [r0, #16]
 80a3b26:	f7ff bb53 	b.w	80a31d0 <HAL_USART_Is_Enabled>
	...

080a3b2c <_Z22__fetch_global_Serial1v>:
// Preinstantiate Objects //////////////////////////////////////////////////////
static Ring_Buffer serial1_rx_buffer;
static Ring_Buffer serial1_tx_buffer;

USARTSerial& __fetch_global_Serial1()
{
 80a3b2c:	b538      	push	{r3, r4, r5, lr}
	static USARTSerial serial1(HAL_USART_SERIAL1, &serial1_rx_buffer, &serial1_tx_buffer);
 80a3b2e:	4d0c      	ldr	r5, [pc, #48]	; (80a3b60 <_Z22__fetch_global_Serial1v+0x34>)
 80a3b30:	6829      	ldr	r1, [r5, #0]
 80a3b32:	f011 0401 	ands.w	r4, r1, #1
 80a3b36:	d111      	bne.n	80a3b5c <_Z22__fetch_global_Serial1v+0x30>
 80a3b38:	4628      	mov	r0, r5
 80a3b3a:	f7fc fab2 	bl	80a00a2 <__cxa_guard_acquire>
 80a3b3e:	b168      	cbz	r0, 80a3b5c <_Z22__fetch_global_Serial1v+0x30>
 80a3b40:	4a08      	ldr	r2, [pc, #32]	; (80a3b64 <_Z22__fetch_global_Serial1v+0x38>)
 80a3b42:	4621      	mov	r1, r4
 80a3b44:	4b08      	ldr	r3, [pc, #32]	; (80a3b68 <_Z22__fetch_global_Serial1v+0x3c>)
 80a3b46:	4809      	ldr	r0, [pc, #36]	; (80a3b6c <_Z22__fetch_global_Serial1v+0x40>)
 80a3b48:	f7ff ffd6 	bl	80a3af8 <_ZN11USARTSerialC1E16HAL_USART_SerialP11Ring_BufferS2_>
 80a3b4c:	4628      	mov	r0, r5
 80a3b4e:	f7fc faad 	bl	80a00ac <__cxa_guard_release>
 80a3b52:	4a07      	ldr	r2, [pc, #28]	; (80a3b70 <_Z22__fetch_global_Serial1v+0x44>)
 80a3b54:	4907      	ldr	r1, [pc, #28]	; (80a3b74 <_Z22__fetch_global_Serial1v+0x48>)
 80a3b56:	4805      	ldr	r0, [pc, #20]	; (80a3b6c <_Z22__fetch_global_Serial1v+0x40>)
 80a3b58:	f000 f948 	bl	80a3dec <__aeabi_atexit>
	return serial1;
}
 80a3b5c:	4803      	ldr	r0, [pc, #12]	; (80a3b6c <_Z22__fetch_global_Serial1v+0x40>)
 80a3b5e:	bd38      	pop	{r3, r4, r5, pc}
 80a3b60:	200007ec 	.word	0x200007ec
 80a3b64:	200007f0 	.word	0x200007f0
 80a3b68:	20000768 	.word	0x20000768
 80a3b6c:	20000754 	.word	0x20000754
 80a3b70:	20000338 	.word	0x20000338
 80a3b74:	080a3aa5 	.word	0x080a3aa5

080a3b78 <_ZN7TwoWireD1Ev>:
private:
  HAL_I2C_Interface _i2c;

public:
  TwoWire(HAL_I2C_Interface i2c);
  virtual ~TwoWire() {};
 80a3b78:	4770      	bx	lr

080a3b7a <_ZN7TwoWire5writeEPKhj>:

// must be called in:
// slave tx event callback
// or after beginTransmission(address)
size_t TwoWire::write(const uint8_t *data, size_t quantity)
{
 80a3b7a:	b5f8      	push	{r3, r4, r5, r6, r7, lr}
 80a3b7c:	4606      	mov	r6, r0
 80a3b7e:	4615      	mov	r5, r2
 80a3b80:	460c      	mov	r4, r1
 80a3b82:	188f      	adds	r7, r1, r2
  // in master/slave transmitter mode
  for(size_t i = 0; i < quantity; ++i)
 80a3b84:	42bc      	cmp	r4, r7
 80a3b86:	d006      	beq.n	80a3b96 <_ZN7TwoWire5writeEPKhj+0x1c>
  {
    write(data[i]);
 80a3b88:	6833      	ldr	r3, [r6, #0]
 80a3b8a:	f814 1b01 	ldrb.w	r1, [r4], #1
 80a3b8e:	689b      	ldr	r3, [r3, #8]
 80a3b90:	4630      	mov	r0, r6
 80a3b92:	4798      	blx	r3
// slave tx event callback
// or after beginTransmission(address)
size_t TwoWire::write(const uint8_t *data, size_t quantity)
{
  // in master/slave transmitter mode
  for(size_t i = 0; i < quantity; ++i)
 80a3b94:	e7f6      	b.n	80a3b84 <_ZN7TwoWire5writeEPKhj+0xa>
  {
    write(data[i]);
  }

  return quantity;
}
 80a3b96:	4628      	mov	r0, r5
 80a3b98:	bdf8      	pop	{r3, r4, r5, r6, r7, pc}

080a3b9a <_ZN7TwoWire5writeEh>:
// must be called in:
// slave tx event callback
// or after beginTransmission(address)
size_t TwoWire::write(uint8_t data)
{
  return HAL_I2C_Write_Data(_i2c, data, NULL);
 80a3b9a:	2200      	movs	r2, #0
 80a3b9c:	7c00      	ldrb	r0, [r0, #16]
 80a3b9e:	f7ff bb4f 	b.w	80a3240 <HAL_I2C_Write_Data>

080a3ba2 <_ZN7TwoWire9availableEv>:
// must be called in:
// slave rx event callback
// or after requestFrom(address, numBytes)
int TwoWire::available(void)
{
  return HAL_I2C_Available_Data(_i2c, NULL);
 80a3ba2:	2100      	movs	r1, #0
 80a3ba4:	7c00      	ldrb	r0, [r0, #16]
 80a3ba6:	f7ff bb53 	b.w	80a3250 <HAL_I2C_Available_Data>

080a3baa <_ZN7TwoWire4readEv>:
// must be called in:
// slave rx event callback
// or after requestFrom(address, numBytes)
int TwoWire::read(void)
{
  return HAL_I2C_Read_Data(_i2c, NULL);
 80a3baa:	2100      	movs	r1, #0
 80a3bac:	7c00      	ldrb	r0, [r0, #16]
 80a3bae:	f7ff bb57 	b.w	80a3260 <HAL_I2C_Read_Data>

080a3bb2 <_ZN7TwoWire4peekEv>:
// must be called in:
// slave rx event callback
// or after requestFrom(address, numBytes)
int TwoWire::peek(void)
{
  return HAL_I2C_Peek_Data(_i2c, NULL);
 80a3bb2:	2100      	movs	r1, #0
 80a3bb4:	7c00      	ldrb	r0, [r0, #16]
 80a3bb6:	f7ff bb5b 	b.w	80a3270 <HAL_I2C_Peek_Data>

080a3bba <_ZN7TwoWire5flushEv>:
}

void TwoWire::flush(void)
{
  HAL_I2C_Flush_Data(_i2c, NULL);
 80a3bba:	2100      	movs	r1, #0
 80a3bbc:	7c00      	ldrb	r0, [r0, #16]
 80a3bbe:	f7ff bb5f 	b.w	80a3280 <HAL_I2C_Flush_Data>

080a3bc2 <_ZN7TwoWireD0Ev>:
 80a3bc2:	b510      	push	{r4, lr}
 80a3bc4:	4604      	mov	r4, r0
 80a3bc6:	f7fc fa6a 	bl	80a009e <_ZdlPv>
 80a3bca:	4620      	mov	r0, r4
 80a3bcc:	bd10      	pop	{r4, pc}
	...

080a3bd0 <_ZN7TwoWireC1E17HAL_I2C_Interface>:
#include "i2c_hal.h"
#include "spark_wiring_thread.h"

// Constructors ////////////////////////////////////////////////////////////////

TwoWire::TwoWire(HAL_I2C_Interface i2c)
 80a3bd0:	b510      	push	{r4, lr}
 80a3bd2:	4604      	mov	r4, r0
 80a3bd4:	4608      	mov	r0, r1
 80a3bd6:	f44f 737a 	mov.w	r3, #1000	; 0x3e8
 80a3bda:	60a3      	str	r3, [r4, #8]
 80a3bdc:	4b04      	ldr	r3, [pc, #16]	; (80a3bf0 <_ZN7TwoWireC1E17HAL_I2C_Interface+0x20>)
 80a3bde:	2100      	movs	r1, #0
{
  _i2c = i2c;
 80a3be0:	7420      	strb	r0, [r4, #16]
 80a3be2:	6061      	str	r1, [r4, #4]
#include "i2c_hal.h"
#include "spark_wiring_thread.h"

// Constructors ////////////////////////////////////////////////////////////////

TwoWire::TwoWire(HAL_I2C_Interface i2c)
 80a3be4:	6023      	str	r3, [r4, #0]
{
  _i2c = i2c;
  HAL_I2C_Init(_i2c, NULL);
 80a3be6:	f7ff fb5b 	bl	80a32a0 <HAL_I2C_Init>

}
 80a3bea:	4620      	mov	r0, r4
 80a3bec:	bd10      	pop	{r4, pc}
 80a3bee:	bf00      	nop
 80a3bf0:	080a5230 	.word	0x080a5230

080a3bf4 <_ZN7TwoWire8setSpeedEm>:
// Public Methods //////////////////////////////////////////////////////////////

//setSpeed() should be called before begin() else default to 100KHz
void TwoWire::setSpeed(uint32_t clockSpeed)
{
  HAL_I2C_Set_Speed(_i2c, clockSpeed, NULL);
 80a3bf4:	2200      	movs	r2, #0
 80a3bf6:	7c00      	ldrb	r0, [r0, #16]
 80a3bf8:	f7ff bafa 	b.w	80a31f0 <HAL_I2C_Set_Speed>

080a3bfc <_ZN7TwoWire5beginEv>:
  HAL_I2C_Stretch_Clock(_i2c, stretch, NULL);
}

void TwoWire::begin(void)
{
	HAL_I2C_Begin(_i2c, I2C_MODE_MASTER, 0x00, NULL);
 80a3bfc:	2300      	movs	r3, #0
 80a3bfe:	461a      	mov	r2, r3
 80a3c00:	4619      	mov	r1, r3
 80a3c02:	7c00      	ldrb	r0, [r0, #16]
 80a3c04:	f7ff bafc 	b.w	80a3200 <HAL_I2C_Begin>

080a3c08 <_ZN7TwoWire11requestFromEhhh>:
{
	HAL_I2C_End(_i2c, NULL);
}

uint8_t TwoWire::requestFrom(uint8_t address, uint8_t quantity, uint8_t sendStop)
{
 80a3c08:	b513      	push	{r0, r1, r4, lr}
  uint8_t result = HAL_I2C_Request_Data(_i2c, address, quantity, sendStop, NULL);
 80a3c0a:	2400      	movs	r4, #0
 80a3c0c:	7c00      	ldrb	r0, [r0, #16]
 80a3c0e:	9400      	str	r4, [sp, #0]
 80a3c10:	f7ff fafe 	bl	80a3210 <HAL_I2C_Request_Data>
  return result;
}
 80a3c14:	b2c0      	uxtb	r0, r0
 80a3c16:	b002      	add	sp, #8
 80a3c18:	bd10      	pop	{r4, pc}

080a3c1a <_ZN7TwoWire11requestFromEhh>:

uint8_t TwoWire::requestFrom(uint8_t address, uint8_t quantity)
{
  return requestFrom((uint8_t)address, (uint8_t)quantity, (uint8_t)true);
 80a3c1a:	2301      	movs	r3, #1
 80a3c1c:	f7ff bff4 	b.w	80a3c08 <_ZN7TwoWire11requestFromEhhh>

080a3c20 <_ZN7TwoWire11requestFromEii>:
}

uint8_t TwoWire::requestFrom(int address, int quantity)
{
  return requestFrom((uint8_t)address, (uint8_t)quantity, (uint8_t)true);
 80a3c20:	2301      	movs	r3, #1
 80a3c22:	b2d2      	uxtb	r2, r2
 80a3c24:	b2c9      	uxtb	r1, r1
 80a3c26:	f7ff bfef 	b.w	80a3c08 <_ZN7TwoWire11requestFromEhhh>

080a3c2a <_ZN7TwoWire17beginTransmissionEh>:
  return requestFrom((uint8_t)address, (uint8_t)quantity, (uint8_t)sendStop);
}

void TwoWire::beginTransmission(uint8_t address)
{
	HAL_I2C_Begin_Transmission(_i2c, address, NULL);
 80a3c2a:	2200      	movs	r2, #0
 80a3c2c:	7c00      	ldrb	r0, [r0, #16]
 80a3c2e:	f7ff baf7 	b.w	80a3220 <HAL_I2C_Begin_Transmission>

080a3c32 <_ZN7TwoWire15endTransmissionEh>:
//	no call to endTransmission(true) is made. Some I2C
//	devices will behave oddly if they do not see a STOP.
//
uint8_t TwoWire::endTransmission(uint8_t sendStop)
{
	return HAL_I2C_End_Transmission(_i2c, sendStop, NULL);
 80a3c32:	2200      	movs	r2, #0
 80a3c34:	7c00      	ldrb	r0, [r0, #16]
 80a3c36:	f7ff bafb 	b.w	80a3230 <HAL_I2C_End_Transmission>

080a3c3a <_ZN7TwoWire15endTransmissionEv>:
//	This provides backwards compatibility with the original
//	definition, and expected behaviour, of endTransmission
//
uint8_t TwoWire::endTransmission(void)
{
  return endTransmission(true);
 80a3c3a:	2101      	movs	r1, #1
 80a3c3c:	f7ff bff9 	b.w	80a3c32 <_ZN7TwoWire15endTransmissionEh>

080a3c40 <_ZN7TwoWire9isEnabledEv>:
  HAL_I2C_Set_Callback_On_Request(_i2c, function, NULL);
}

bool TwoWire::isEnabled()
{
  return HAL_I2C_Is_Enabled(_i2c, NULL);
 80a3c40:	2100      	movs	r1, #0
 80a3c42:	7c00      	ldrb	r0, [r0, #16]
 80a3c44:	f7ff bb24 	b.w	80a3290 <HAL_I2C_Is_Enabled>

080a3c48 <_ZN5spark9WiFiClassD1Ev>:
        wlan_set_ipaddress_source(source, true, NULL);
    }

public:
    WiFiClass() {}
    ~WiFiClass() {}
 80a3c48:	4770      	bx	lr

080a3c4a <_ZN5spark9WiFiClass5readyEv>:
    bool connecting(void) {
        return network_connecting(*this, 0, NULL);
    }

    bool ready(void) {
        return network_ready(*this, 0, NULL);
 80a3c4a:	2200      	movs	r2, #0
 80a3c4c:	4611      	mov	r1, r2
 80a3c4e:	4610      	mov	r0, r2
 80a3c50:	f7ff bbc8 	b.w	80a33e4 <network_ready>

080a3c54 <_GLOBAL__sub_I__ZN5spark9WiFiClass4scanEP15WiFiAccessPointj>:
    void setIPAddressSource(IPAddressSource source) {
        wlan_set_ipaddress_source(source, true, NULL);
    }

public:
    WiFiClass() {}
 80a3c54:	4803      	ldr	r0, [pc, #12]	; (80a3c64 <_GLOBAL__sub_I__ZN5spark9WiFiClass4scanEP15WiFiAccessPointj+0x10>)
 80a3c56:	4b04      	ldr	r3, [pc, #16]	; (80a3c68 <_GLOBAL__sub_I__ZN5spark9WiFiClass4scanEP15WiFiAccessPointj+0x14>)
one second timeout is reached). If the aforementioned "bug" is ever fixed by
TI, no changes need to be made to this function, as it would be implemented
the same way.
*****************************************************************************/

    WiFiClass WiFi;
 80a3c58:	4a04      	ldr	r2, [pc, #16]	; (80a3c6c <_GLOBAL__sub_I__ZN5spark9WiFiClass4scanEP15WiFiAccessPointj+0x18>)
 80a3c5a:	4905      	ldr	r1, [pc, #20]	; (80a3c70 <_GLOBAL__sub_I__ZN5spark9WiFiClass4scanEP15WiFiAccessPointj+0x1c>)
 80a3c5c:	6003      	str	r3, [r0, #0]
 80a3c5e:	f000 b8c5 	b.w	80a3dec <__aeabi_atexit>
 80a3c62:	bf00      	nop
 80a3c64:	20000874 	.word	0x20000874
 80a3c68:	080a5258 	.word	0x080a5258
 80a3c6c:	20000338 	.word	0x20000338
 80a3c70:	080a3c49 	.word	0x080a3c49

080a3c74 <pinAvailable>:

/*
 * @brief Perform safety check on desired pin to see if it's already
 * being used.  Return 0 if used, otherwise return 1 if available.
 */
bool pinAvailable(uint16_t pin) {
 80a3c74:	b510      	push	{r4, lr}
 80a3c76:	4604      	mov	r4, r0

  // SPI safety check
#ifndef SPARK_WIRING_NO_SPI
  if(SPI.isEnabled() == true && (pin == SCK || pin == MOSI || pin == MISO))
 80a3c78:	480f      	ldr	r0, [pc, #60]	; (80a3cb8 <pinAvailable+0x44>)
 80a3c7a:	f7ff fbef 	bl	80a345c <_ZN8SPIClass9isEnabledEv>
 80a3c7e:	b128      	cbz	r0, 80a3c8c <pinAvailable+0x18>
 80a3c80:	f1a4 030d 	sub.w	r3, r4, #13
 80a3c84:	2b02      	cmp	r3, #2
 80a3c86:	d801      	bhi.n	80a3c8c <pinAvailable+0x18>
  {
    return 0; // 'pin' is used
 80a3c88:	2000      	movs	r0, #0
 80a3c8a:	bd10      	pop	{r4, pc}
  }
#endif
  // I2C safety check
#ifndef SPARK_WIRING_NO_I2C
  if(Wire.isEnabled() == true && (pin == SCL || pin == SDA))
 80a3c8c:	f000 f88e 	bl	80a3dac <_Z19__fetch_global_Wirev>
 80a3c90:	f7ff ffd6 	bl	80a3c40 <_ZN7TwoWire9isEnabledEv>
 80a3c94:	b108      	cbz	r0, 80a3c9a <pinAvailable+0x26>
 80a3c96:	2c01      	cmp	r4, #1
 80a3c98:	d9f6      	bls.n	80a3c88 <pinAvailable+0x14>
    return 0; // 'pin' is used
  }
#endif
#ifndef SPARK_WIRING_NO_USART_SERIAL
  // Serial1 safety check
  if(Serial1.isEnabled() == true && (pin == RX || pin == TX))
 80a3c9a:	f7ff ff47 	bl	80a3b2c <_Z22__fetch_global_Serial1v>
 80a3c9e:	f7ff ff41 	bl	80a3b24 <_ZN11USARTSerial9isEnabledEv>
 80a3ca2:	b118      	cbz	r0, 80a3cac <pinAvailable+0x38>
 80a3ca4:	f1a4 0312 	sub.w	r3, r4, #18
 80a3ca8:	2b01      	cmp	r3, #1
 80a3caa:	d9ed      	bls.n	80a3c88 <pinAvailable+0x14>
  {
    return 0; // 'pin' is used
  }
#endif

  if (pin >= TOTAL_PINS)
 80a3cac:	2c17      	cmp	r4, #23
 80a3cae:	bf8c      	ite	hi
 80a3cb0:	2000      	movhi	r0, #0
 80a3cb2:	2001      	movls	r0, #1
    return 0;
  else
    return 1; // 'pin' is available
}
 80a3cb4:	bd10      	pop	{r4, pc}
 80a3cb6:	bf00      	nop
 80a3cb8:	20000878 	.word	0x20000878

080a3cbc <pinMode>:
 * or INPUT_PULLDOWN
 */
void pinMode(uint16_t pin, PinMode setMode)
{

  if(pin >= TOTAL_PINS || setMode == PIN_MODE_NONE )
 80a3cbc:	2817      	cmp	r0, #23
/*
 * @brief Set the mode of the pin to OUTPUT, INPUT, INPUT_PULLUP,
 * or INPUT_PULLDOWN
 */
void pinMode(uint16_t pin, PinMode setMode)
{
 80a3cbe:	b538      	push	{r3, r4, r5, lr}
 80a3cc0:	4604      	mov	r4, r0
 80a3cc2:	460d      	mov	r5, r1

  if(pin >= TOTAL_PINS || setMode == PIN_MODE_NONE )
 80a3cc4:	d80a      	bhi.n	80a3cdc <pinMode+0x20>
 80a3cc6:	29ff      	cmp	r1, #255	; 0xff
 80a3cc8:	d008      	beq.n	80a3cdc <pinMode+0x20>
  {
    return;
  }

  // Safety check
  if( !pinAvailable(pin) ) {
 80a3cca:	f7ff ffd3 	bl	80a3c74 <pinAvailable>
 80a3cce:	b128      	cbz	r0, 80a3cdc <pinMode+0x20>
    return;
  }

  HAL_Pin_Mode(pin, setMode);
 80a3cd0:	4629      	mov	r1, r5
 80a3cd2:	4620      	mov	r0, r4
}
 80a3cd4:	e8bd 4038 	ldmia.w	sp!, {r3, r4, r5, lr}
  // Safety check
  if( !pinAvailable(pin) ) {
    return;
  }

  HAL_Pin_Mode(pin, setMode);
 80a3cd8:	f7ff b9f2 	b.w	80a30c0 <HAL_Pin_Mode>
 80a3cdc:	bd38      	pop	{r3, r4, r5, pc}

080a3cde <digitalWrite>:

/*
 * @brief Sets a GPIO pin to HIGH or LOW.
 */
void digitalWrite(pin_t pin, uint8_t value)
{
 80a3cde:	b538      	push	{r3, r4, r5, lr}
 80a3ce0:	4604      	mov	r4, r0
 80a3ce2:	460d      	mov	r5, r1
    PinMode mode = HAL_Get_Pin_Mode(pin);
 80a3ce4:	f7ff f9f4 	bl	80a30d0 <HAL_Get_Pin_Mode>
    if (mode==PIN_MODE_NONE || is_input_mode(mode))
 80a3ce8:	28ff      	cmp	r0, #255	; 0xff
 80a3cea:	d010      	beq.n	80a3d0e <digitalWrite+0x30>
}

inline bool is_input_mode(PinMode mode) {
    return  mode == INPUT ||
            mode == INPUT_PULLUP ||
            mode == INPUT_PULLDOWN ||
 80a3cec:	2806      	cmp	r0, #6
 80a3cee:	d804      	bhi.n	80a3cfa <digitalWrite+0x1c>
 80a3cf0:	234d      	movs	r3, #77	; 0x4d
 80a3cf2:	fa23 f000 	lsr.w	r0, r3, r0
 80a3cf6:	07c3      	lsls	r3, r0, #31
 80a3cf8:	d409      	bmi.n	80a3d0e <digitalWrite+0x30>
{
    PinMode mode = HAL_Get_Pin_Mode(pin);
    if (mode==PIN_MODE_NONE || is_input_mode(mode))
        return;
  // Safety check
  if( !pinAvailable(pin) ) {
 80a3cfa:	4620      	mov	r0, r4
 80a3cfc:	f7ff ffba 	bl	80a3c74 <pinAvailable>
 80a3d00:	b128      	cbz	r0, 80a3d0e <digitalWrite+0x30>
    return;
  }

  HAL_GPIO_Write(pin, value);
 80a3d02:	4629      	mov	r1, r5
 80a3d04:	4620      	mov	r0, r4
}
 80a3d06:	e8bd 4038 	ldmia.w	sp!, {r3, r4, r5, lr}
  // Safety check
  if( !pinAvailable(pin) ) {
    return;
  }

  HAL_GPIO_Write(pin, value);
 80a3d0a:	f7ff b9e9 	b.w	80a30e0 <HAL_GPIO_Write>
 80a3d0e:	bd38      	pop	{r3, r4, r5, pc}

080a3d10 <digitalRead>:

/*
 * @brief Reads the value of a GPIO pin. Should return either 1 (HIGH) or 0 (LOW).
 */
int32_t digitalRead(pin_t pin)
{
 80a3d10:	b510      	push	{r4, lr}
 80a3d12:	4604      	mov	r4, r0
    PinMode mode = HAL_Get_Pin_Mode(pin);
 80a3d14:	f7ff f9dc 	bl	80a30d0 <HAL_Get_Pin_Mode>
    if (is_af_output_mode(mode))
 80a3d18:	3804      	subs	r0, #4
 80a3d1a:	b2c0      	uxtb	r0, r0
 80a3d1c:	2801      	cmp	r0, #1
 80a3d1e:	d908      	bls.n	80a3d32 <digitalRead+0x22>
        return LOW;

    // Safety check
    if( !pinAvailable(pin) ) {
 80a3d20:	4620      	mov	r0, r4
 80a3d22:	f7ff ffa7 	bl	80a3c74 <pinAvailable>
 80a3d26:	b120      	cbz	r0, 80a3d32 <digitalRead+0x22>
      return LOW;
    }

    return HAL_GPIO_Read(pin);
 80a3d28:	4620      	mov	r0, r4
}
 80a3d2a:	e8bd 4010 	ldmia.w	sp!, {r4, lr}
    // Safety check
    if( !pinAvailable(pin) ) {
      return LOW;
    }

    return HAL_GPIO_Read(pin);
 80a3d2e:	f7ff b9df 	b.w	80a30f0 <HAL_GPIO_Read>
}
 80a3d32:	2000      	movs	r0, #0
 80a3d34:	bd10      	pop	{r4, pc}
	...

080a3d38 <_GLOBAL__sub_I_SPI>:
#ifndef SPARK_WIRING_NO_SPI

SPIClass SPI(HAL_SPI_INTERFACE1);

#if Wiring_SPI1
SPIClass SPI1(HAL_SPI_INTERFACE2);
 80a3d38:	b570      	push	{r4, r5, r6, lr}
#include "core_hal.h"
#include "spark_macros.h"

#ifndef SPARK_WIRING_NO_SPI

SPIClass SPI(HAL_SPI_INTERFACE1);
 80a3d3a:	4c0c      	ldr	r4, [pc, #48]	; (80a3d6c <_GLOBAL__sub_I_SPI+0x34>)
 80a3d3c:	4e0c      	ldr	r6, [pc, #48]	; (80a3d70 <_GLOBAL__sub_I_SPI+0x38>)
 80a3d3e:	4d0d      	ldr	r5, [pc, #52]	; (80a3d74 <_GLOBAL__sub_I_SPI+0x3c>)
 80a3d40:	2100      	movs	r1, #0
 80a3d42:	4620      	mov	r0, r4
 80a3d44:	f7ff fb76 	bl	80a3434 <_ZN8SPIClassC1E17HAL_SPI_Interface>
 80a3d48:	4620      	mov	r0, r4

#if Wiring_SPI1
SPIClass SPI1(HAL_SPI_INTERFACE2);
 80a3d4a:	4c0b      	ldr	r4, [pc, #44]	; (80a3d78 <_GLOBAL__sub_I_SPI+0x40>)
#include "core_hal.h"
#include "spark_macros.h"

#ifndef SPARK_WIRING_NO_SPI

SPIClass SPI(HAL_SPI_INTERFACE1);
 80a3d4c:	4632      	mov	r2, r6
 80a3d4e:	4629      	mov	r1, r5
 80a3d50:	f000 f84c 	bl	80a3dec <__aeabi_atexit>

#if Wiring_SPI1
SPIClass SPI1(HAL_SPI_INTERFACE2);
 80a3d54:	2101      	movs	r1, #1
 80a3d56:	4620      	mov	r0, r4
 80a3d58:	f7ff fb6c 	bl	80a3434 <_ZN8SPIClassC1E17HAL_SPI_Interface>
 80a3d5c:	4632      	mov	r2, r6
 80a3d5e:	4629      	mov	r1, r5
 80a3d60:	4620      	mov	r0, r4
 80a3d62:	e8bd 4070 	ldmia.w	sp!, {r4, r5, r6, lr}
 80a3d66:	f000 b841 	b.w	80a3dec <__aeabi_atexit>
 80a3d6a:	bf00      	nop
 80a3d6c:	20000878 	.word	0x20000878
 80a3d70:	20000338 	.word	0x20000338
 80a3d74:	080a3425 	.word	0x080a3425
 80a3d78:	20000888 	.word	0x20000888

080a3d7c <_GLOBAL__sub_I_INADDR_NONE>:
#include "spark_wiring_ipaddress.h"

const IPAddress INADDR_NONE(0, 0, 0, 0);
 80a3d7c:	b513      	push	{r0, r1, r4, lr}
 80a3d7e:	4c08      	ldr	r4, [pc, #32]	; (80a3da0 <_GLOBAL__sub_I_INADDR_NONE+0x24>)
 80a3d80:	2300      	movs	r3, #0
 80a3d82:	461a      	mov	r2, r3
 80a3d84:	4619      	mov	r1, r3
 80a3d86:	9300      	str	r3, [sp, #0]
 80a3d88:	4620      	mov	r0, r4
 80a3d8a:	f7ff fda1 	bl	80a38d0 <_ZN9IPAddressC1Ehhhh>
 80a3d8e:	4620      	mov	r0, r4
 80a3d90:	4a04      	ldr	r2, [pc, #16]	; (80a3da4 <_GLOBAL__sub_I_INADDR_NONE+0x28>)
 80a3d92:	4905      	ldr	r1, [pc, #20]	; (80a3da8 <_GLOBAL__sub_I_INADDR_NONE+0x2c>)
 80a3d94:	b002      	add	sp, #8
 80a3d96:	e8bd 4010 	ldmia.w	sp!, {r4, lr}
 80a3d9a:	f000 b827 	b.w	80a3dec <__aeabi_atexit>
 80a3d9e:	bf00      	nop
 80a3da0:	2000089c 	.word	0x2000089c
 80a3da4:	20000338 	.word	0x20000338
 80a3da8:	080a3875 	.word	0x080a3875

080a3dac <_Z19__fetch_global_Wirev>:
#include "i2c_hal.h"

#ifndef SPARK_WIRING_NO_I2C

TwoWire& __fetch_global_Wire()
{
 80a3dac:	b538      	push	{r3, r4, r5, lr}
	static TwoWire wire(HAL_I2C_INTERFACE1);
 80a3dae:	4d0b      	ldr	r5, [pc, #44]	; (80a3ddc <_Z19__fetch_global_Wirev+0x30>)
 80a3db0:	6829      	ldr	r1, [r5, #0]
 80a3db2:	f011 0401 	ands.w	r4, r1, #1
 80a3db6:	d10f      	bne.n	80a3dd8 <_Z19__fetch_global_Wirev+0x2c>
 80a3db8:	4628      	mov	r0, r5
 80a3dba:	f7fc f972 	bl	80a00a2 <__cxa_guard_acquire>
 80a3dbe:	b158      	cbz	r0, 80a3dd8 <_Z19__fetch_global_Wirev+0x2c>
 80a3dc0:	4621      	mov	r1, r4
 80a3dc2:	4807      	ldr	r0, [pc, #28]	; (80a3de0 <_Z19__fetch_global_Wirev+0x34>)
 80a3dc4:	f7ff ff04 	bl	80a3bd0 <_ZN7TwoWireC1E17HAL_I2C_Interface>
 80a3dc8:	4628      	mov	r0, r5
 80a3dca:	f7fc f96f 	bl	80a00ac <__cxa_guard_release>
 80a3dce:	4a05      	ldr	r2, [pc, #20]	; (80a3de4 <_Z19__fetch_global_Wirev+0x38>)
 80a3dd0:	4905      	ldr	r1, [pc, #20]	; (80a3de8 <_Z19__fetch_global_Wirev+0x3c>)
 80a3dd2:	4803      	ldr	r0, [pc, #12]	; (80a3de0 <_Z19__fetch_global_Wirev+0x34>)
 80a3dd4:	f000 f80a 	bl	80a3dec <__aeabi_atexit>
	return wire;
}
 80a3dd8:	4801      	ldr	r0, [pc, #4]	; (80a3de0 <_Z19__fetch_global_Wirev+0x34>)
 80a3dda:	bd38      	pop	{r3, r4, r5, pc}
 80a3ddc:	200008b4 	.word	0x200008b4
 80a3de0:	200008b8 	.word	0x200008b8
 80a3de4:	20000338 	.word	0x20000338
 80a3de8:	080a3b79 	.word	0x080a3b79

080a3dec <__aeabi_atexit>:
 80a3dec:	460b      	mov	r3, r1
 80a3dee:	4601      	mov	r1, r0
 80a3df0:	4618      	mov	r0, r3
 80a3df2:	f001 b8df 	b.w	80a4fb4 <__cxa_atexit>
	...

080a3df8 <_GLOBAL__sub_I__ZNSt12ctype_bynameIcEC2ERKNSt7__cxx1112basic_stringIcSt11char_traitsIcESaIcEEEj>:
 80a3df8:	4b18      	ldr	r3, [pc, #96]	; (80a3e5c <_GLOBAL__sub_I__ZNSt12ctype_bynameIcEC2ERKNSt7__cxx1112basic_stringIcSt11char_traitsIcESaIcEEEj+0x64>)
 80a3dfa:	681a      	ldr	r2, [r3, #0]
 80a3dfc:	07d1      	lsls	r1, r2, #31
 80a3dfe:	bf5c      	itt	pl
 80a3e00:	2201      	movpl	r2, #1
 80a3e02:	601a      	strpl	r2, [r3, #0]
 80a3e04:	4b16      	ldr	r3, [pc, #88]	; (80a3e60 <_GLOBAL__sub_I__ZNSt12ctype_bynameIcEC2ERKNSt7__cxx1112basic_stringIcSt11char_traitsIcESaIcEEEj+0x68>)
 80a3e06:	681a      	ldr	r2, [r3, #0]
 80a3e08:	07d2      	lsls	r2, r2, #31
 80a3e0a:	bf5c      	itt	pl
 80a3e0c:	2201      	movpl	r2, #1
 80a3e0e:	601a      	strpl	r2, [r3, #0]
 80a3e10:	4b14      	ldr	r3, [pc, #80]	; (80a3e64 <_GLOBAL__sub_I__ZNSt12ctype_bynameIcEC2ERKNSt7__cxx1112basic_stringIcSt11char_traitsIcESaIcEEEj+0x6c>)
 80a3e12:	681a      	ldr	r2, [r3, #0]
 80a3e14:	07d0      	lsls	r0, r2, #31
 80a3e16:	bf5c      	itt	pl
 80a3e18:	2201      	movpl	r2, #1
 80a3e1a:	601a      	strpl	r2, [r3, #0]
 80a3e1c:	4b12      	ldr	r3, [pc, #72]	; (80a3e68 <_GLOBAL__sub_I__ZNSt12ctype_bynameIcEC2ERKNSt7__cxx1112basic_stringIcSt11char_traitsIcESaIcEEEj+0x70>)
 80a3e1e:	681a      	ldr	r2, [r3, #0]
 80a3e20:	07d1      	lsls	r1, r2, #31
 80a3e22:	bf5c      	itt	pl
 80a3e24:	2201      	movpl	r2, #1
 80a3e26:	601a      	strpl	r2, [r3, #0]
 80a3e28:	4b10      	ldr	r3, [pc, #64]	; (80a3e6c <_GLOBAL__sub_I__ZNSt12ctype_bynameIcEC2ERKNSt7__cxx1112basic_stringIcSt11char_traitsIcESaIcEEEj+0x74>)
 80a3e2a:	681a      	ldr	r2, [r3, #0]
 80a3e2c:	07d2      	lsls	r2, r2, #31
 80a3e2e:	bf5c      	itt	pl
 80a3e30:	2201      	movpl	r2, #1
 80a3e32:	601a      	strpl	r2, [r3, #0]
 80a3e34:	4b0e      	ldr	r3, [pc, #56]	; (80a3e70 <_GLOBAL__sub_I__ZNSt12ctype_bynameIcEC2ERKNSt7__cxx1112basic_stringIcSt11char_traitsIcESaIcEEEj+0x78>)
 80a3e36:	681a      	ldr	r2, [r3, #0]
 80a3e38:	07d0      	lsls	r0, r2, #31
 80a3e3a:	bf5c      	itt	pl
 80a3e3c:	2201      	movpl	r2, #1
 80a3e3e:	601a      	strpl	r2, [r3, #0]
 80a3e40:	4b0c      	ldr	r3, [pc, #48]	; (80a3e74 <_GLOBAL__sub_I__ZNSt12ctype_bynameIcEC2ERKNSt7__cxx1112basic_stringIcSt11char_traitsIcESaIcEEEj+0x7c>)
 80a3e42:	681a      	ldr	r2, [r3, #0]
 80a3e44:	07d1      	lsls	r1, r2, #31
 80a3e46:	bf5c      	itt	pl
 80a3e48:	2201      	movpl	r2, #1
 80a3e4a:	601a      	strpl	r2, [r3, #0]
 80a3e4c:	4b0a      	ldr	r3, [pc, #40]	; (80a3e78 <_GLOBAL__sub_I__ZNSt12ctype_bynameIcEC2ERKNSt7__cxx1112basic_stringIcSt11char_traitsIcESaIcEEEj+0x80>)
 80a3e4e:	681a      	ldr	r2, [r3, #0]
 80a3e50:	07d2      	lsls	r2, r2, #31
 80a3e52:	bf5c      	itt	pl
 80a3e54:	2201      	movpl	r2, #1
 80a3e56:	601a      	strpl	r2, [r3, #0]
 80a3e58:	4770      	bx	lr
 80a3e5a:	bf00      	nop
 80a3e5c:	200008e8 	.word	0x200008e8
 80a3e60:	200008e4 	.word	0x200008e4
 80a3e64:	200008e0 	.word	0x200008e0
 80a3e68:	200008dc 	.word	0x200008dc
 80a3e6c:	200008d8 	.word	0x200008d8
 80a3e70:	200008d4 	.word	0x200008d4
 80a3e74:	200008d0 	.word	0x200008d0
 80a3e78:	200008cc 	.word	0x200008cc

080a3e7c <_GLOBAL__sub_I__ZNSt12ctype_bynameIwEC2ERKSsj>:
 80a3e7c:	4b24      	ldr	r3, [pc, #144]	; (80a3f10 <_GLOBAL__sub_I__ZNSt12ctype_bynameIwEC2ERKSsj+0x94>)
 80a3e7e:	681a      	ldr	r2, [r3, #0]
 80a3e80:	07d0      	lsls	r0, r2, #31
 80a3e82:	bf5c      	itt	pl
 80a3e84:	2201      	movpl	r2, #1
 80a3e86:	601a      	strpl	r2, [r3, #0]
 80a3e88:	4b22      	ldr	r3, [pc, #136]	; (80a3f14 <_GLOBAL__sub_I__ZNSt12ctype_bynameIwEC2ERKSsj+0x98>)
 80a3e8a:	681a      	ldr	r2, [r3, #0]
 80a3e8c:	07d1      	lsls	r1, r2, #31
 80a3e8e:	bf5c      	itt	pl
 80a3e90:	2201      	movpl	r2, #1
 80a3e92:	601a      	strpl	r2, [r3, #0]
 80a3e94:	4b20      	ldr	r3, [pc, #128]	; (80a3f18 <_GLOBAL__sub_I__ZNSt12ctype_bynameIwEC2ERKSsj+0x9c>)
 80a3e96:	681a      	ldr	r2, [r3, #0]
 80a3e98:	07d2      	lsls	r2, r2, #31
 80a3e9a:	bf5c      	itt	pl
 80a3e9c:	2201      	movpl	r2, #1
 80a3e9e:	601a      	strpl	r2, [r3, #0]
 80a3ea0:	4b1e      	ldr	r3, [pc, #120]	; (80a3f1c <_GLOBAL__sub_I__ZNSt12ctype_bynameIwEC2ERKSsj+0xa0>)
 80a3ea2:	681a      	ldr	r2, [r3, #0]
 80a3ea4:	07d0      	lsls	r0, r2, #31
 80a3ea6:	bf5c      	itt	pl
 80a3ea8:	2201      	movpl	r2, #1
 80a3eaa:	601a      	strpl	r2, [r3, #0]
 80a3eac:	4b1c      	ldr	r3, [pc, #112]	; (80a3f20 <_GLOBAL__sub_I__ZNSt12ctype_bynameIwEC2ERKSsj+0xa4>)
 80a3eae:	681a      	ldr	r2, [r3, #0]
 80a3eb0:	07d1      	lsls	r1, r2, #31
 80a3eb2:	bf5c      	itt	pl
 80a3eb4:	2201      	movpl	r2, #1
 80a3eb6:	601a      	strpl	r2, [r3, #0]
 80a3eb8:	4b1a      	ldr	r3, [pc, #104]	; (80a3f24 <_GLOBAL__sub_I__ZNSt12ctype_bynameIwEC2ERKSsj+0xa8>)
 80a3eba:	681a      	ldr	r2, [r3, #0]
 80a3ebc:	07d2      	lsls	r2, r2, #31
 80a3ebe:	bf5c      	itt	pl
 80a3ec0:	2201      	movpl	r2, #1
 80a3ec2:	601a      	strpl	r2, [r3, #0]
 80a3ec4:	4b18      	ldr	r3, [pc, #96]	; (80a3f28 <_GLOBAL__sub_I__ZNSt12ctype_bynameIwEC2ERKSsj+0xac>)
 80a3ec6:	681a      	ldr	r2, [r3, #0]
 80a3ec8:	07d0      	lsls	r0, r2, #31
 80a3eca:	bf5c      	itt	pl
 80a3ecc:	2201      	movpl	r2, #1
 80a3ece:	601a      	strpl	r2, [r3, #0]
 80a3ed0:	4b16      	ldr	r3, [pc, #88]	; (80a3f2c <_GLOBAL__sub_I__ZNSt12ctype_bynameIwEC2ERKSsj+0xb0>)
 80a3ed2:	681a      	ldr	r2, [r3, #0]
 80a3ed4:	07d1      	lsls	r1, r2, #31
 80a3ed6:	bf5c      	itt	pl
 80a3ed8:	2201      	movpl	r2, #1
 80a3eda:	601a      	strpl	r2, [r3, #0]
 80a3edc:	4b14      	ldr	r3, [pc, #80]	; (80a3f30 <_GLOBAL__sub_I__ZNSt12ctype_bynameIwEC2ERKSsj+0xb4>)
 80a3ede:	681a      	ldr	r2, [r3, #0]
 80a3ee0:	07d2      	lsls	r2, r2, #31
 80a3ee2:	bf5c      	itt	pl
 80a3ee4:	2201      	movpl	r2, #1
 80a3ee6:	601a      	strpl	r2, [r3, #0]
 80a3ee8:	4b12      	ldr	r3, [pc, #72]	; (80a3f34 <_GLOBAL__sub_I__ZNSt12ctype_bynameIwEC2ERKSsj+0xb8>)
 80a3eea:	681a      	ldr	r2, [r3, #0]
 80a3eec:	07d0      	lsls	r0, r2, #31
 80a3eee:	bf5c      	itt	pl
 80a3ef0:	2201      	movpl	r2, #1
 80a3ef2:	601a      	strpl	r2, [r3, #0]
 80a3ef4:	4b10      	ldr	r3, [pc, #64]	; (80a3f38 <_GLOBAL__sub_I__ZNSt12ctype_bynameIwEC2ERKSsj+0xbc>)
 80a3ef6:	681a      	ldr	r2, [r3, #0]
 80a3ef8:	07d1      	lsls	r1, r2, #31
 80a3efa:	bf5c      	itt	pl
 80a3efc:	2201      	movpl	r2, #1
 80a3efe:	601a      	strpl	r2, [r3, #0]
 80a3f00:	4b0e      	ldr	r3, [pc, #56]	; (80a3f3c <_GLOBAL__sub_I__ZNSt12ctype_bynameIwEC2ERKSsj+0xc0>)
 80a3f02:	681a      	ldr	r2, [r3, #0]
 80a3f04:	07d2      	lsls	r2, r2, #31
 80a3f06:	bf5c      	itt	pl
 80a3f08:	2201      	movpl	r2, #1
 80a3f0a:	601a      	strpl	r2, [r3, #0]
 80a3f0c:	4770      	bx	lr
 80a3f0e:	bf00      	nop
 80a3f10:	20000918 	.word	0x20000918
 80a3f14:	20000914 	.word	0x20000914
 80a3f18:	20000910 	.word	0x20000910
 80a3f1c:	2000090c 	.word	0x2000090c
 80a3f20:	20000908 	.word	0x20000908
 80a3f24:	20000904 	.word	0x20000904
 80a3f28:	20000900 	.word	0x20000900
 80a3f2c:	200008fc 	.word	0x200008fc
 80a3f30:	200008f8 	.word	0x200008f8
 80a3f34:	200008f4 	.word	0x200008f4
 80a3f38:	200008f0 	.word	0x200008f0
 80a3f3c:	200008ec 	.word	0x200008ec

080a3f40 <_GLOBAL__sub_I__ZNSt12ctype_bynameIcEC2ERKSsj>:
 80a3f40:	4b24      	ldr	r3, [pc, #144]	; (80a3fd4 <_GLOBAL__sub_I__ZNSt12ctype_bynameIcEC2ERKSsj+0x94>)
 80a3f42:	681a      	ldr	r2, [r3, #0]
 80a3f44:	07d0      	lsls	r0, r2, #31
 80a3f46:	bf5c      	itt	pl
 80a3f48:	2201      	movpl	r2, #1
 80a3f4a:	601a      	strpl	r2, [r3, #0]
 80a3f4c:	4b22      	ldr	r3, [pc, #136]	; (80a3fd8 <_GLOBAL__sub_I__ZNSt12ctype_bynameIcEC2ERKSsj+0x98>)
 80a3f4e:	681a      	ldr	r2, [r3, #0]
 80a3f50:	07d1      	lsls	r1, r2, #31
 80a3f52:	bf5c      	itt	pl
 80a3f54:	2201      	movpl	r2, #1
 80a3f56:	601a      	strpl	r2, [r3, #0]
 80a3f58:	4b20      	ldr	r3, [pc, #128]	; (80a3fdc <_GLOBAL__sub_I__ZNSt12ctype_bynameIcEC2ERKSsj+0x9c>)
 80a3f5a:	681a      	ldr	r2, [r3, #0]
 80a3f5c:	07d2      	lsls	r2, r2, #31
 80a3f5e:	bf5c      	itt	pl
 80a3f60:	2201      	movpl	r2, #1
 80a3f62:	601a      	strpl	r2, [r3, #0]
 80a3f64:	4b1e      	ldr	r3, [pc, #120]	; (80a3fe0 <_GLOBAL__sub_I__ZNSt12ctype_bynameIcEC2ERKSsj+0xa0>)
 80a3f66:	681a      	ldr	r2, [r3, #0]
 80a3f68:	07d0      	lsls	r0, r2, #31
 80a3f6a:	bf5c      	itt	pl
 80a3f6c:	2201      	movpl	r2, #1
 80a3f6e:	601a      	strpl	r2, [r3, #0]
 80a3f70:	4b1c      	ldr	r3, [pc, #112]	; (80a3fe4 <_GLOBAL__sub_I__ZNSt12ctype_bynameIcEC2ERKSsj+0xa4>)
 80a3f72:	681a      	ldr	r2, [r3, #0]
 80a3f74:	07d1      	lsls	r1, r2, #31
 80a3f76:	bf5c      	itt	pl
 80a3f78:	2201      	movpl	r2, #1
 80a3f7a:	601a      	strpl	r2, [r3, #0]
 80a3f7c:	4b1a      	ldr	r3, [pc, #104]	; (80a3fe8 <_GLOBAL__sub_I__ZNSt12ctype_bynameIcEC2ERKSsj+0xa8>)
 80a3f7e:	681a      	ldr	r2, [r3, #0]
 80a3f80:	07d2      	lsls	r2, r2, #31
 80a3f82:	bf5c      	itt	pl
 80a3f84:	2201      	movpl	r2, #1
 80a3f86:	601a      	strpl	r2, [r3, #0]
 80a3f88:	4b18      	ldr	r3, [pc, #96]	; (80a3fec <_GLOBAL__sub_I__ZNSt12ctype_bynameIcEC2ERKSsj+0xac>)
 80a3f8a:	681a      	ldr	r2, [r3, #0]
 80a3f8c:	07d0      	lsls	r0, r2, #31
 80a3f8e:	bf5c      	itt	pl
 80a3f90:	2201      	movpl	r2, #1
 80a3f92:	601a      	strpl	r2, [r3, #0]
 80a3f94:	4b16      	ldr	r3, [pc, #88]	; (80a3ff0 <_GLOBAL__sub_I__ZNSt12ctype_bynameIcEC2ERKSsj+0xb0>)
 80a3f96:	681a      	ldr	r2, [r3, #0]
 80a3f98:	07d1      	lsls	r1, r2, #31
 80a3f9a:	bf5c      	itt	pl
 80a3f9c:	2201      	movpl	r2, #1
 80a3f9e:	601a      	strpl	r2, [r3, #0]
 80a3fa0:	4b14      	ldr	r3, [pc, #80]	; (80a3ff4 <_GLOBAL__sub_I__ZNSt12ctype_bynameIcEC2ERKSsj+0xb4>)
 80a3fa2:	681a      	ldr	r2, [r3, #0]
 80a3fa4:	07d2      	lsls	r2, r2, #31
 80a3fa6:	bf5c      	itt	pl
 80a3fa8:	2201      	movpl	r2, #1
 80a3faa:	601a      	strpl	r2, [r3, #0]
 80a3fac:	4b12      	ldr	r3, [pc, #72]	; (80a3ff8 <_GLOBAL__sub_I__ZNSt12ctype_bynameIcEC2ERKSsj+0xb8>)
 80a3fae:	681a      	ldr	r2, [r3, #0]
 80a3fb0:	07d0      	lsls	r0, r2, #31
 80a3fb2:	bf5c      	itt	pl
 80a3fb4:	2201      	movpl	r2, #1
 80a3fb6:	601a      	strpl	r2, [r3, #0]
 80a3fb8:	4b10      	ldr	r3, [pc, #64]	; (80a3ffc <_GLOBAL__sub_I__ZNSt12ctype_bynameIcEC2ERKSsj+0xbc>)
 80a3fba:	681a      	ldr	r2, [r3, #0]
 80a3fbc:	07d1      	lsls	r1, r2, #31
 80a3fbe:	bf5c      	itt	pl
 80a3fc0:	2201      	movpl	r2, #1
 80a3fc2:	601a      	strpl	r2, [r3, #0]
 80a3fc4:	4b0e      	ldr	r3, [pc, #56]	; (80a4000 <_GLOBAL__sub_I__ZNSt12ctype_bynameIcEC2ERKSsj+0xc0>)
 80a3fc6:	681a      	ldr	r2, [r3, #0]
 80a3fc8:	07d2      	lsls	r2, r2, #31
 80a3fca:	bf5c      	itt	pl
 80a3fcc:	2201      	movpl	r2, #1
 80a3fce:	601a      	strpl	r2, [r3, #0]
 80a3fd0:	4770      	bx	lr
 80a3fd2:	bf00      	nop
 80a3fd4:	20000948 	.word	0x20000948
 80a3fd8:	20000944 	.word	0x20000944
 80a3fdc:	20000940 	.word	0x20000940
 80a3fe0:	2000093c 	.word	0x2000093c
 80a3fe4:	20000938 	.word	0x20000938
 80a3fe8:	20000934 	.word	0x20000934
 80a3fec:	20000930 	.word	0x20000930
 80a3ff0:	2000092c 	.word	0x2000092c
 80a3ff4:	20000928 	.word	0x20000928
 80a3ff8:	20000924 	.word	0x20000924
 80a3ffc:	20000920 	.word	0x20000920
 80a4000:	2000091c 	.word	0x2000091c

080a4004 <_GLOBAL__sub_I__ZNSt12ctype_bynameIwEC2ERKNSt7__cxx1112basic_stringIcSt11char_traitsIcESaIcEEEj>:
 80a4004:	4b18      	ldr	r3, [pc, #96]	; (80a4068 <_GLOBAL__sub_I__ZNSt12ctype_bynameIwEC2ERKNSt7__cxx1112basic_stringIcSt11char_traitsIcESaIcEEEj+0x64>)
 80a4006:	681a      	ldr	r2, [r3, #0]
 80a4008:	07d1      	lsls	r1, r2, #31
 80a400a:	bf5c      	itt	pl
 80a400c:	2201      	movpl	r2, #1
 80a400e:	601a      	strpl	r2, [r3, #0]
 80a4010:	4b16      	ldr	r3, [pc, #88]	; (80a406c <_GLOBAL__sub_I__ZNSt12ctype_bynameIwEC2ERKNSt7__cxx1112basic_stringIcSt11char_traitsIcESaIcEEEj+0x68>)
 80a4012:	681a      	ldr	r2, [r3, #0]
 80a4014:	07d2      	lsls	r2, r2, #31
 80a4016:	bf5c      	itt	pl
 80a4018:	2201      	movpl	r2, #1
 80a401a:	601a      	strpl	r2, [r3, #0]
 80a401c:	4b14      	ldr	r3, [pc, #80]	; (80a4070 <_GLOBAL__sub_I__ZNSt12ctype_bynameIwEC2ERKNSt7__cxx1112basic_stringIcSt11char_traitsIcESaIcEEEj+0x6c>)
 80a401e:	681a      	ldr	r2, [r3, #0]
 80a4020:	07d0      	lsls	r0, r2, #31
 80a4022:	bf5c      	itt	pl
 80a4024:	2201      	movpl	r2, #1
 80a4026:	601a      	strpl	r2, [r3, #0]
 80a4028:	4b12      	ldr	r3, [pc, #72]	; (80a4074 <_GLOBAL__sub_I__ZNSt12ctype_bynameIwEC2ERKNSt7__cxx1112basic_stringIcSt11char_traitsIcESaIcEEEj+0x70>)
 80a402a:	681a      	ldr	r2, [r3, #0]
 80a402c:	07d1      	lsls	r1, r2, #31
 80a402e:	bf5c      	itt	pl
 80a4030:	2201      	movpl	r2, #1
 80a4032:	601a      	strpl	r2, [r3, #0]
 80a4034:	4b10      	ldr	r3, [pc, #64]	; (80a4078 <_GLOBAL__sub_I__ZNSt12ctype_bynameIwEC2ERKNSt7__cxx1112basic_stringIcSt11char_traitsIcESaIcEEEj+0x74>)
 80a4036:	681a      	ldr	r2, [r3, #0]
 80a4038:	07d2      	lsls	r2, r2, #31
 80a403a:	bf5c      	itt	pl
 80a403c:	2201      	movpl	r2, #1
 80a403e:	601a      	strpl	r2, [r3, #0]
 80a4040:	4b0e      	ldr	r3, [pc, #56]	; (80a407c <_GLOBAL__sub_I__ZNSt12ctype_bynameIwEC2ERKNSt7__cxx1112basic_stringIcSt11char_traitsIcESaIcEEEj+0x78>)
 80a4042:	681a      	ldr	r2, [r3, #0]
 80a4044:	07d0      	lsls	r0, r2, #31
 80a4046:	bf5c      	itt	pl
 80a4048:	2201      	movpl	r2, #1
 80a404a:	601a      	strpl	r2, [r3, #0]
 80a404c:	4b0c      	ldr	r3, [pc, #48]	; (80a4080 <_GLOBAL__sub_I__ZNSt12ctype_bynameIwEC2ERKNSt7__cxx1112basic_stringIcSt11char_traitsIcESaIcEEEj+0x7c>)
 80a404e:	681a      	ldr	r2, [r3, #0]
 80a4050:	07d1      	lsls	r1, r2, #31
 80a4052:	bf5c      	itt	pl
 80a4054:	2201      	movpl	r2, #1
 80a4056:	601a      	strpl	r2, [r3, #0]
 80a4058:	4b0a      	ldr	r3, [pc, #40]	; (80a4084 <_GLOBAL__sub_I__ZNSt12ctype_bynameIwEC2ERKNSt7__cxx1112basic_stringIcSt11char_traitsIcESaIcEEEj+0x80>)
 80a405a:	681a      	ldr	r2, [r3, #0]
 80a405c:	07d2      	lsls	r2, r2, #31
 80a405e:	bf5c      	itt	pl
 80a4060:	2201      	movpl	r2, #1
 80a4062:	601a      	strpl	r2, [r3, #0]
 80a4064:	4770      	bx	lr
 80a4066:	bf00      	nop
 80a4068:	20000968 	.word	0x20000968
 80a406c:	20000964 	.word	0x20000964
 80a4070:	20000960 	.word	0x20000960
 80a4074:	2000095c 	.word	0x2000095c
 80a4078:	20000958 	.word	0x20000958
 80a407c:	20000954 	.word	0x20000954
 80a4080:	20000950 	.word	0x20000950
 80a4084:	2000094c 	.word	0x2000094c

080a4088 <__aeabi_drsub>:
 80a4088:	f081 4100 	eor.w	r1, r1, #2147483648	; 0x80000000
 80a408c:	e002      	b.n	80a4094 <__adddf3>
 80a408e:	bf00      	nop

080a4090 <__aeabi_dsub>:
 80a4090:	f083 4300 	eor.w	r3, r3, #2147483648	; 0x80000000

080a4094 <__adddf3>:
 80a4094:	b530      	push	{r4, r5, lr}
 80a4096:	ea4f 0441 	mov.w	r4, r1, lsl #1
 80a409a:	ea4f 0543 	mov.w	r5, r3, lsl #1
 80a409e:	ea94 0f05 	teq	r4, r5
 80a40a2:	bf08      	it	eq
 80a40a4:	ea90 0f02 	teqeq	r0, r2
 80a40a8:	bf1f      	itttt	ne
 80a40aa:	ea54 0c00 	orrsne.w	ip, r4, r0
 80a40ae:	ea55 0c02 	orrsne.w	ip, r5, r2
 80a40b2:	ea7f 5c64 	mvnsne.w	ip, r4, asr #21
 80a40b6:	ea7f 5c65 	mvnsne.w	ip, r5, asr #21
 80a40ba:	f000 80e2 	beq.w	80a4282 <__adddf3+0x1ee>
 80a40be:	ea4f 5454 	mov.w	r4, r4, lsr #21
 80a40c2:	ebd4 5555 	rsbs	r5, r4, r5, lsr #21
 80a40c6:	bfb8      	it	lt
 80a40c8:	426d      	neglt	r5, r5
 80a40ca:	dd0c      	ble.n	80a40e6 <__adddf3+0x52>
 80a40cc:	442c      	add	r4, r5
 80a40ce:	ea80 0202 	eor.w	r2, r0, r2
 80a40d2:	ea81 0303 	eor.w	r3, r1, r3
 80a40d6:	ea82 0000 	eor.w	r0, r2, r0
 80a40da:	ea83 0101 	eor.w	r1, r3, r1
 80a40de:	ea80 0202 	eor.w	r2, r0, r2
 80a40e2:	ea81 0303 	eor.w	r3, r1, r3
 80a40e6:	2d36      	cmp	r5, #54	; 0x36
 80a40e8:	bf88      	it	hi
 80a40ea:	bd30      	pophi	{r4, r5, pc}
 80a40ec:	f011 4f00 	tst.w	r1, #2147483648	; 0x80000000
 80a40f0:	ea4f 3101 	mov.w	r1, r1, lsl #12
 80a40f4:	f44f 1c80 	mov.w	ip, #1048576	; 0x100000
 80a40f8:	ea4c 3111 	orr.w	r1, ip, r1, lsr #12
 80a40fc:	d002      	beq.n	80a4104 <__adddf3+0x70>
 80a40fe:	4240      	negs	r0, r0
 80a4100:	eb61 0141 	sbc.w	r1, r1, r1, lsl #1
 80a4104:	f013 4f00 	tst.w	r3, #2147483648	; 0x80000000
 80a4108:	ea4f 3303 	mov.w	r3, r3, lsl #12
 80a410c:	ea4c 3313 	orr.w	r3, ip, r3, lsr #12
 80a4110:	d002      	beq.n	80a4118 <__adddf3+0x84>
 80a4112:	4252      	negs	r2, r2
 80a4114:	eb63 0343 	sbc.w	r3, r3, r3, lsl #1
 80a4118:	ea94 0f05 	teq	r4, r5
 80a411c:	f000 80a7 	beq.w	80a426e <__adddf3+0x1da>
 80a4120:	f1a4 0401 	sub.w	r4, r4, #1
 80a4124:	f1d5 0e20 	rsbs	lr, r5, #32
 80a4128:	db0d      	blt.n	80a4146 <__adddf3+0xb2>
 80a412a:	fa02 fc0e 	lsl.w	ip, r2, lr
 80a412e:	fa22 f205 	lsr.w	r2, r2, r5
 80a4132:	1880      	adds	r0, r0, r2
 80a4134:	f141 0100 	adc.w	r1, r1, #0
 80a4138:	fa03 f20e 	lsl.w	r2, r3, lr
 80a413c:	1880      	adds	r0, r0, r2
 80a413e:	fa43 f305 	asr.w	r3, r3, r5
 80a4142:	4159      	adcs	r1, r3
 80a4144:	e00e      	b.n	80a4164 <__adddf3+0xd0>
 80a4146:	f1a5 0520 	sub.w	r5, r5, #32
 80a414a:	f10e 0e20 	add.w	lr, lr, #32
 80a414e:	2a01      	cmp	r2, #1
 80a4150:	fa03 fc0e 	lsl.w	ip, r3, lr
 80a4154:	bf28      	it	cs
 80a4156:	f04c 0c02 	orrcs.w	ip, ip, #2
 80a415a:	fa43 f305 	asr.w	r3, r3, r5
 80a415e:	18c0      	adds	r0, r0, r3
 80a4160:	eb51 71e3 	adcs.w	r1, r1, r3, asr #31
 80a4164:	f001 4500 	and.w	r5, r1, #2147483648	; 0x80000000
 80a4168:	d507      	bpl.n	80a417a <__adddf3+0xe6>
 80a416a:	f04f 0e00 	mov.w	lr, #0
 80a416e:	f1dc 0c00 	rsbs	ip, ip, #0
 80a4172:	eb7e 0000 	sbcs.w	r0, lr, r0
 80a4176:	eb6e 0101 	sbc.w	r1, lr, r1
 80a417a:	f5b1 1f80 	cmp.w	r1, #1048576	; 0x100000
 80a417e:	d31b      	bcc.n	80a41b8 <__adddf3+0x124>
 80a4180:	f5b1 1f00 	cmp.w	r1, #2097152	; 0x200000
 80a4184:	d30c      	bcc.n	80a41a0 <__adddf3+0x10c>
 80a4186:	0849      	lsrs	r1, r1, #1
 80a4188:	ea5f 0030 	movs.w	r0, r0, rrx
 80a418c:	ea4f 0c3c 	mov.w	ip, ip, rrx
 80a4190:	f104 0401 	add.w	r4, r4, #1
 80a4194:	ea4f 5244 	mov.w	r2, r4, lsl #21
 80a4198:	f512 0f80 	cmn.w	r2, #4194304	; 0x400000
 80a419c:	f080 809a 	bcs.w	80a42d4 <__adddf3+0x240>
 80a41a0:	f1bc 4f00 	cmp.w	ip, #2147483648	; 0x80000000
 80a41a4:	bf08      	it	eq
 80a41a6:	ea5f 0c50 	movseq.w	ip, r0, lsr #1
 80a41aa:	f150 0000 	adcs.w	r0, r0, #0
 80a41ae:	eb41 5104 	adc.w	r1, r1, r4, lsl #20
 80a41b2:	ea41 0105 	orr.w	r1, r1, r5
 80a41b6:	bd30      	pop	{r4, r5, pc}
 80a41b8:	ea5f 0c4c 	movs.w	ip, ip, lsl #1
 80a41bc:	4140      	adcs	r0, r0
 80a41be:	eb41 0101 	adc.w	r1, r1, r1
 80a41c2:	f411 1f80 	tst.w	r1, #1048576	; 0x100000
 80a41c6:	f1a4 0401 	sub.w	r4, r4, #1
 80a41ca:	d1e9      	bne.n	80a41a0 <__adddf3+0x10c>
 80a41cc:	f091 0f00 	teq	r1, #0
 80a41d0:	bf04      	itt	eq
 80a41d2:	4601      	moveq	r1, r0
 80a41d4:	2000      	moveq	r0, #0
 80a41d6:	fab1 f381 	clz	r3, r1
 80a41da:	bf08      	it	eq
 80a41dc:	3320      	addeq	r3, #32
 80a41de:	f1a3 030b 	sub.w	r3, r3, #11
 80a41e2:	f1b3 0220 	subs.w	r2, r3, #32
 80a41e6:	da0c      	bge.n	80a4202 <__adddf3+0x16e>
 80a41e8:	320c      	adds	r2, #12
 80a41ea:	dd08      	ble.n	80a41fe <__adddf3+0x16a>
 80a41ec:	f102 0c14 	add.w	ip, r2, #20
 80a41f0:	f1c2 020c 	rsb	r2, r2, #12
 80a41f4:	fa01 f00c 	lsl.w	r0, r1, ip
 80a41f8:	fa21 f102 	lsr.w	r1, r1, r2
 80a41fc:	e00c      	b.n	80a4218 <__adddf3+0x184>
 80a41fe:	f102 0214 	add.w	r2, r2, #20
 80a4202:	bfd8      	it	le
 80a4204:	f1c2 0c20 	rsble	ip, r2, #32
 80a4208:	fa01 f102 	lsl.w	r1, r1, r2
 80a420c:	fa20 fc0c 	lsr.w	ip, r0, ip
 80a4210:	bfdc      	itt	le
 80a4212:	ea41 010c 	orrle.w	r1, r1, ip
 80a4216:	4090      	lslle	r0, r2
 80a4218:	1ae4      	subs	r4, r4, r3
 80a421a:	bfa2      	ittt	ge
 80a421c:	eb01 5104 	addge.w	r1, r1, r4, lsl #20
 80a4220:	4329      	orrge	r1, r5
 80a4222:	bd30      	popge	{r4, r5, pc}
 80a4224:	ea6f 0404 	mvn.w	r4, r4
 80a4228:	3c1f      	subs	r4, #31
 80a422a:	da1c      	bge.n	80a4266 <__adddf3+0x1d2>
 80a422c:	340c      	adds	r4, #12
 80a422e:	dc0e      	bgt.n	80a424e <__adddf3+0x1ba>
 80a4230:	f104 0414 	add.w	r4, r4, #20
 80a4234:	f1c4 0220 	rsb	r2, r4, #32
 80a4238:	fa20 f004 	lsr.w	r0, r0, r4
 80a423c:	fa01 f302 	lsl.w	r3, r1, r2
 80a4240:	ea40 0003 	orr.w	r0, r0, r3
 80a4244:	fa21 f304 	lsr.w	r3, r1, r4
 80a4248:	ea45 0103 	orr.w	r1, r5, r3
 80a424c:	bd30      	pop	{r4, r5, pc}
 80a424e:	f1c4 040c 	rsb	r4, r4, #12
 80a4252:	f1c4 0220 	rsb	r2, r4, #32
 80a4256:	fa20 f002 	lsr.w	r0, r0, r2
 80a425a:	fa01 f304 	lsl.w	r3, r1, r4
 80a425e:	ea40 0003 	orr.w	r0, r0, r3
 80a4262:	4629      	mov	r1, r5
 80a4264:	bd30      	pop	{r4, r5, pc}
 80a4266:	fa21 f004 	lsr.w	r0, r1, r4
 80a426a:	4629      	mov	r1, r5
 80a426c:	bd30      	pop	{r4, r5, pc}
 80a426e:	f094 0f00 	teq	r4, #0
 80a4272:	f483 1380 	eor.w	r3, r3, #1048576	; 0x100000
 80a4276:	bf06      	itte	eq
 80a4278:	f481 1180 	eoreq.w	r1, r1, #1048576	; 0x100000
 80a427c:	3401      	addeq	r4, #1
 80a427e:	3d01      	subne	r5, #1
 80a4280:	e74e      	b.n	80a4120 <__adddf3+0x8c>
 80a4282:	ea7f 5c64 	mvns.w	ip, r4, asr #21
 80a4286:	bf18      	it	ne
 80a4288:	ea7f 5c65 	mvnsne.w	ip, r5, asr #21
 80a428c:	d029      	beq.n	80a42e2 <__adddf3+0x24e>
 80a428e:	ea94 0f05 	teq	r4, r5
 80a4292:	bf08      	it	eq
 80a4294:	ea90 0f02 	teqeq	r0, r2
 80a4298:	d005      	beq.n	80a42a6 <__adddf3+0x212>
 80a429a:	ea54 0c00 	orrs.w	ip, r4, r0
 80a429e:	bf04      	itt	eq
 80a42a0:	4619      	moveq	r1, r3
 80a42a2:	4610      	moveq	r0, r2
 80a42a4:	bd30      	pop	{r4, r5, pc}
 80a42a6:	ea91 0f03 	teq	r1, r3
 80a42aa:	bf1e      	ittt	ne
 80a42ac:	2100      	movne	r1, #0
 80a42ae:	2000      	movne	r0, #0
 80a42b0:	bd30      	popne	{r4, r5, pc}
 80a42b2:	ea5f 5c54 	movs.w	ip, r4, lsr #21
 80a42b6:	d105      	bne.n	80a42c4 <__adddf3+0x230>
 80a42b8:	0040      	lsls	r0, r0, #1
 80a42ba:	4149      	adcs	r1, r1
 80a42bc:	bf28      	it	cs
 80a42be:	f041 4100 	orrcs.w	r1, r1, #2147483648	; 0x80000000
 80a42c2:	bd30      	pop	{r4, r5, pc}
 80a42c4:	f514 0480 	adds.w	r4, r4, #4194304	; 0x400000
 80a42c8:	bf3c      	itt	cc
 80a42ca:	f501 1180 	addcc.w	r1, r1, #1048576	; 0x100000
 80a42ce:	bd30      	popcc	{r4, r5, pc}
 80a42d0:	f001 4500 	and.w	r5, r1, #2147483648	; 0x80000000
 80a42d4:	f045 41fe 	orr.w	r1, r5, #2130706432	; 0x7f000000
 80a42d8:	f441 0170 	orr.w	r1, r1, #15728640	; 0xf00000
 80a42dc:	f04f 0000 	mov.w	r0, #0
 80a42e0:	bd30      	pop	{r4, r5, pc}
 80a42e2:	ea7f 5c64 	mvns.w	ip, r4, asr #21
 80a42e6:	bf1a      	itte	ne
 80a42e8:	4619      	movne	r1, r3
 80a42ea:	4610      	movne	r0, r2
 80a42ec:	ea7f 5c65 	mvnseq.w	ip, r5, asr #21
 80a42f0:	bf1c      	itt	ne
 80a42f2:	460b      	movne	r3, r1
 80a42f4:	4602      	movne	r2, r0
 80a42f6:	ea50 3401 	orrs.w	r4, r0, r1, lsl #12
 80a42fa:	bf06      	itte	eq
 80a42fc:	ea52 3503 	orrseq.w	r5, r2, r3, lsl #12
 80a4300:	ea91 0f03 	teqeq	r1, r3
 80a4304:	f441 2100 	orrne.w	r1, r1, #524288	; 0x80000
 80a4308:	bd30      	pop	{r4, r5, pc}
 80a430a:	bf00      	nop

080a430c <__aeabi_ui2d>:
 80a430c:	f090 0f00 	teq	r0, #0
 80a4310:	bf04      	itt	eq
 80a4312:	2100      	moveq	r1, #0
 80a4314:	4770      	bxeq	lr
 80a4316:	b530      	push	{r4, r5, lr}
 80a4318:	f44f 6480 	mov.w	r4, #1024	; 0x400
 80a431c:	f104 0432 	add.w	r4, r4, #50	; 0x32
 80a4320:	f04f 0500 	mov.w	r5, #0
 80a4324:	f04f 0100 	mov.w	r1, #0
 80a4328:	e750      	b.n	80a41cc <__adddf3+0x138>
 80a432a:	bf00      	nop

080a432c <__aeabi_i2d>:
 80a432c:	f090 0f00 	teq	r0, #0
 80a4330:	bf04      	itt	eq
 80a4332:	2100      	moveq	r1, #0
 80a4334:	4770      	bxeq	lr
 80a4336:	b530      	push	{r4, r5, lr}
 80a4338:	f44f 6480 	mov.w	r4, #1024	; 0x400
 80a433c:	f104 0432 	add.w	r4, r4, #50	; 0x32
 80a4340:	f010 4500 	ands.w	r5, r0, #2147483648	; 0x80000000
 80a4344:	bf48      	it	mi
 80a4346:	4240      	negmi	r0, r0
 80a4348:	f04f 0100 	mov.w	r1, #0
 80a434c:	e73e      	b.n	80a41cc <__adddf3+0x138>
 80a434e:	bf00      	nop

080a4350 <__aeabi_f2d>:
 80a4350:	0042      	lsls	r2, r0, #1
 80a4352:	ea4f 01e2 	mov.w	r1, r2, asr #3
 80a4356:	ea4f 0131 	mov.w	r1, r1, rrx
 80a435a:	ea4f 7002 	mov.w	r0, r2, lsl #28
 80a435e:	bf1f      	itttt	ne
 80a4360:	f012 437f 	andsne.w	r3, r2, #4278190080	; 0xff000000
 80a4364:	f093 4f7f 	teqne	r3, #4278190080	; 0xff000000
 80a4368:	f081 5160 	eorne.w	r1, r1, #939524096	; 0x38000000
 80a436c:	4770      	bxne	lr
 80a436e:	f092 0f00 	teq	r2, #0
 80a4372:	bf14      	ite	ne
 80a4374:	f093 4f7f 	teqne	r3, #4278190080	; 0xff000000
 80a4378:	4770      	bxeq	lr
 80a437a:	b530      	push	{r4, r5, lr}
 80a437c:	f44f 7460 	mov.w	r4, #896	; 0x380
 80a4380:	f001 4500 	and.w	r5, r1, #2147483648	; 0x80000000
 80a4384:	f021 4100 	bic.w	r1, r1, #2147483648	; 0x80000000
 80a4388:	e720      	b.n	80a41cc <__adddf3+0x138>
 80a438a:	bf00      	nop

080a438c <__aeabi_ul2d>:
 80a438c:	ea50 0201 	orrs.w	r2, r0, r1
 80a4390:	bf08      	it	eq
 80a4392:	4770      	bxeq	lr
 80a4394:	b530      	push	{r4, r5, lr}
 80a4396:	f04f 0500 	mov.w	r5, #0
 80a439a:	e00a      	b.n	80a43b2 <__aeabi_l2d+0x16>

080a439c <__aeabi_l2d>:
 80a439c:	ea50 0201 	orrs.w	r2, r0, r1
 80a43a0:	bf08      	it	eq
 80a43a2:	4770      	bxeq	lr
 80a43a4:	b530      	push	{r4, r5, lr}
 80a43a6:	f011 4500 	ands.w	r5, r1, #2147483648	; 0x80000000
 80a43aa:	d502      	bpl.n	80a43b2 <__aeabi_l2d+0x16>
 80a43ac:	4240      	negs	r0, r0
 80a43ae:	eb61 0141 	sbc.w	r1, r1, r1, lsl #1
 80a43b2:	f44f 6480 	mov.w	r4, #1024	; 0x400
 80a43b6:	f104 0432 	add.w	r4, r4, #50	; 0x32
 80a43ba:	ea5f 5c91 	movs.w	ip, r1, lsr #22
 80a43be:	f43f aedc 	beq.w	80a417a <__adddf3+0xe6>
 80a43c2:	f04f 0203 	mov.w	r2, #3
 80a43c6:	ea5f 0cdc 	movs.w	ip, ip, lsr #3
 80a43ca:	bf18      	it	ne
 80a43cc:	3203      	addne	r2, #3
 80a43ce:	ea5f 0cdc 	movs.w	ip, ip, lsr #3
 80a43d2:	bf18      	it	ne
 80a43d4:	3203      	addne	r2, #3
 80a43d6:	eb02 02dc 	add.w	r2, r2, ip, lsr #3
 80a43da:	f1c2 0320 	rsb	r3, r2, #32
 80a43de:	fa00 fc03 	lsl.w	ip, r0, r3
 80a43e2:	fa20 f002 	lsr.w	r0, r0, r2
 80a43e6:	fa01 fe03 	lsl.w	lr, r1, r3
 80a43ea:	ea40 000e 	orr.w	r0, r0, lr
 80a43ee:	fa21 f102 	lsr.w	r1, r1, r2
 80a43f2:	4414      	add	r4, r2
 80a43f4:	e6c1      	b.n	80a417a <__adddf3+0xe6>
 80a43f6:	bf00      	nop

080a43f8 <__aeabi_dmul>:
 80a43f8:	b570      	push	{r4, r5, r6, lr}
 80a43fa:	f04f 0cff 	mov.w	ip, #255	; 0xff
 80a43fe:	f44c 6ce0 	orr.w	ip, ip, #1792	; 0x700
 80a4402:	ea1c 5411 	ands.w	r4, ip, r1, lsr #20
 80a4406:	bf1d      	ittte	ne
 80a4408:	ea1c 5513 	andsne.w	r5, ip, r3, lsr #20
 80a440c:	ea94 0f0c 	teqne	r4, ip
 80a4410:	ea95 0f0c 	teqne	r5, ip
 80a4414:	f000 f8de 	bleq	80a45d4 <__aeabi_dmul+0x1dc>
 80a4418:	442c      	add	r4, r5
 80a441a:	ea81 0603 	eor.w	r6, r1, r3
 80a441e:	ea21 514c 	bic.w	r1, r1, ip, lsl #21
 80a4422:	ea23 534c 	bic.w	r3, r3, ip, lsl #21
 80a4426:	ea50 3501 	orrs.w	r5, r0, r1, lsl #12
 80a442a:	bf18      	it	ne
 80a442c:	ea52 3503 	orrsne.w	r5, r2, r3, lsl #12
 80a4430:	f441 1180 	orr.w	r1, r1, #1048576	; 0x100000
 80a4434:	f443 1380 	orr.w	r3, r3, #1048576	; 0x100000
 80a4438:	d038      	beq.n	80a44ac <__aeabi_dmul+0xb4>
 80a443a:	fba0 ce02 	umull	ip, lr, r0, r2
 80a443e:	f04f 0500 	mov.w	r5, #0
 80a4442:	fbe1 e502 	umlal	lr, r5, r1, r2
 80a4446:	f006 4200 	and.w	r2, r6, #2147483648	; 0x80000000
 80a444a:	fbe0 e503 	umlal	lr, r5, r0, r3
 80a444e:	f04f 0600 	mov.w	r6, #0
 80a4452:	fbe1 5603 	umlal	r5, r6, r1, r3
 80a4456:	f09c 0f00 	teq	ip, #0
 80a445a:	bf18      	it	ne
 80a445c:	f04e 0e01 	orrne.w	lr, lr, #1
 80a4460:	f1a4 04ff 	sub.w	r4, r4, #255	; 0xff
 80a4464:	f5b6 7f00 	cmp.w	r6, #512	; 0x200
 80a4468:	f564 7440 	sbc.w	r4, r4, #768	; 0x300
 80a446c:	d204      	bcs.n	80a4478 <__aeabi_dmul+0x80>
 80a446e:	ea5f 0e4e 	movs.w	lr, lr, lsl #1
 80a4472:	416d      	adcs	r5, r5
 80a4474:	eb46 0606 	adc.w	r6, r6, r6
 80a4478:	ea42 21c6 	orr.w	r1, r2, r6, lsl #11
 80a447c:	ea41 5155 	orr.w	r1, r1, r5, lsr #21
 80a4480:	ea4f 20c5 	mov.w	r0, r5, lsl #11
 80a4484:	ea40 505e 	orr.w	r0, r0, lr, lsr #21
 80a4488:	ea4f 2ece 	mov.w	lr, lr, lsl #11
 80a448c:	f1b4 0cfd 	subs.w	ip, r4, #253	; 0xfd
 80a4490:	bf88      	it	hi
 80a4492:	f5bc 6fe0 	cmphi.w	ip, #1792	; 0x700
 80a4496:	d81e      	bhi.n	80a44d6 <__aeabi_dmul+0xde>
 80a4498:	f1be 4f00 	cmp.w	lr, #2147483648	; 0x80000000
 80a449c:	bf08      	it	eq
 80a449e:	ea5f 0e50 	movseq.w	lr, r0, lsr #1
 80a44a2:	f150 0000 	adcs.w	r0, r0, #0
 80a44a6:	eb41 5104 	adc.w	r1, r1, r4, lsl #20
 80a44aa:	bd70      	pop	{r4, r5, r6, pc}
 80a44ac:	f006 4600 	and.w	r6, r6, #2147483648	; 0x80000000
 80a44b0:	ea46 0101 	orr.w	r1, r6, r1
 80a44b4:	ea40 0002 	orr.w	r0, r0, r2
 80a44b8:	ea81 0103 	eor.w	r1, r1, r3
 80a44bc:	ebb4 045c 	subs.w	r4, r4, ip, lsr #1
 80a44c0:	bfc2      	ittt	gt
 80a44c2:	ebd4 050c 	rsbsgt	r5, r4, ip
 80a44c6:	ea41 5104 	orrgt.w	r1, r1, r4, lsl #20
 80a44ca:	bd70      	popgt	{r4, r5, r6, pc}
 80a44cc:	f441 1180 	orr.w	r1, r1, #1048576	; 0x100000
 80a44d0:	f04f 0e00 	mov.w	lr, #0
 80a44d4:	3c01      	subs	r4, #1
 80a44d6:	f300 80ab 	bgt.w	80a4630 <__aeabi_dmul+0x238>
 80a44da:	f114 0f36 	cmn.w	r4, #54	; 0x36
 80a44de:	bfde      	ittt	le
 80a44e0:	2000      	movle	r0, #0
 80a44e2:	f001 4100 	andle.w	r1, r1, #2147483648	; 0x80000000
 80a44e6:	bd70      	pople	{r4, r5, r6, pc}
 80a44e8:	f1c4 0400 	rsb	r4, r4, #0
 80a44ec:	3c20      	subs	r4, #32
 80a44ee:	da35      	bge.n	80a455c <__aeabi_dmul+0x164>
 80a44f0:	340c      	adds	r4, #12
 80a44f2:	dc1b      	bgt.n	80a452c <__aeabi_dmul+0x134>
 80a44f4:	f104 0414 	add.w	r4, r4, #20
 80a44f8:	f1c4 0520 	rsb	r5, r4, #32
 80a44fc:	fa00 f305 	lsl.w	r3, r0, r5
 80a4500:	fa20 f004 	lsr.w	r0, r0, r4
 80a4504:	fa01 f205 	lsl.w	r2, r1, r5
 80a4508:	ea40 0002 	orr.w	r0, r0, r2
 80a450c:	f001 4200 	and.w	r2, r1, #2147483648	; 0x80000000
 80a4510:	f021 4100 	bic.w	r1, r1, #2147483648	; 0x80000000
 80a4514:	eb10 70d3 	adds.w	r0, r0, r3, lsr #31
 80a4518:	fa21 f604 	lsr.w	r6, r1, r4
 80a451c:	eb42 0106 	adc.w	r1, r2, r6
 80a4520:	ea5e 0e43 	orrs.w	lr, lr, r3, lsl #1
 80a4524:	bf08      	it	eq
 80a4526:	ea20 70d3 	biceq.w	r0, r0, r3, lsr #31
 80a452a:	bd70      	pop	{r4, r5, r6, pc}
 80a452c:	f1c4 040c 	rsb	r4, r4, #12
 80a4530:	f1c4 0520 	rsb	r5, r4, #32
 80a4534:	fa00 f304 	lsl.w	r3, r0, r4
 80a4538:	fa20 f005 	lsr.w	r0, r0, r5
 80a453c:	fa01 f204 	lsl.w	r2, r1, r4
 80a4540:	ea40 0002 	orr.w	r0, r0, r2
 80a4544:	f001 4100 	and.w	r1, r1, #2147483648	; 0x80000000
 80a4548:	eb10 70d3 	adds.w	r0, r0, r3, lsr #31
 80a454c:	f141 0100 	adc.w	r1, r1, #0
 80a4550:	ea5e 0e43 	orrs.w	lr, lr, r3, lsl #1
 80a4554:	bf08      	it	eq
 80a4556:	ea20 70d3 	biceq.w	r0, r0, r3, lsr #31
 80a455a:	bd70      	pop	{r4, r5, r6, pc}
 80a455c:	f1c4 0520 	rsb	r5, r4, #32
 80a4560:	fa00 f205 	lsl.w	r2, r0, r5
 80a4564:	ea4e 0e02 	orr.w	lr, lr, r2
 80a4568:	fa20 f304 	lsr.w	r3, r0, r4
 80a456c:	fa01 f205 	lsl.w	r2, r1, r5
 80a4570:	ea43 0302 	orr.w	r3, r3, r2
 80a4574:	fa21 f004 	lsr.w	r0, r1, r4
 80a4578:	f001 4100 	and.w	r1, r1, #2147483648	; 0x80000000
 80a457c:	fa21 f204 	lsr.w	r2, r1, r4
 80a4580:	ea20 0002 	bic.w	r0, r0, r2
 80a4584:	eb00 70d3 	add.w	r0, r0, r3, lsr #31
 80a4588:	ea5e 0e43 	orrs.w	lr, lr, r3, lsl #1
 80a458c:	bf08      	it	eq
 80a458e:	ea20 70d3 	biceq.w	r0, r0, r3, lsr #31
 80a4592:	bd70      	pop	{r4, r5, r6, pc}
 80a4594:	f094 0f00 	teq	r4, #0
 80a4598:	d10f      	bne.n	80a45ba <__aeabi_dmul+0x1c2>
 80a459a:	f001 4600 	and.w	r6, r1, #2147483648	; 0x80000000
 80a459e:	0040      	lsls	r0, r0, #1
 80a45a0:	eb41 0101 	adc.w	r1, r1, r1
 80a45a4:	f411 1f80 	tst.w	r1, #1048576	; 0x100000
 80a45a8:	bf08      	it	eq
 80a45aa:	3c01      	subeq	r4, #1
 80a45ac:	d0f7      	beq.n	80a459e <__aeabi_dmul+0x1a6>
 80a45ae:	ea41 0106 	orr.w	r1, r1, r6
 80a45b2:	f095 0f00 	teq	r5, #0
 80a45b6:	bf18      	it	ne
 80a45b8:	4770      	bxne	lr
 80a45ba:	f003 4600 	and.w	r6, r3, #2147483648	; 0x80000000
 80a45be:	0052      	lsls	r2, r2, #1
 80a45c0:	eb43 0303 	adc.w	r3, r3, r3
 80a45c4:	f413 1f80 	tst.w	r3, #1048576	; 0x100000
 80a45c8:	bf08      	it	eq
 80a45ca:	3d01      	subeq	r5, #1
 80a45cc:	d0f7      	beq.n	80a45be <__aeabi_dmul+0x1c6>
 80a45ce:	ea43 0306 	orr.w	r3, r3, r6
 80a45d2:	4770      	bx	lr
 80a45d4:	ea94 0f0c 	teq	r4, ip
 80a45d8:	ea0c 5513 	and.w	r5, ip, r3, lsr #20
 80a45dc:	bf18      	it	ne
 80a45de:	ea95 0f0c 	teqne	r5, ip
 80a45e2:	d00c      	beq.n	80a45fe <__aeabi_dmul+0x206>
 80a45e4:	ea50 0641 	orrs.w	r6, r0, r1, lsl #1
 80a45e8:	bf18      	it	ne
 80a45ea:	ea52 0643 	orrsne.w	r6, r2, r3, lsl #1
 80a45ee:	d1d1      	bne.n	80a4594 <__aeabi_dmul+0x19c>
 80a45f0:	ea81 0103 	eor.w	r1, r1, r3
 80a45f4:	f001 4100 	and.w	r1, r1, #2147483648	; 0x80000000
 80a45f8:	f04f 0000 	mov.w	r0, #0
 80a45fc:	bd70      	pop	{r4, r5, r6, pc}
 80a45fe:	ea50 0641 	orrs.w	r6, r0, r1, lsl #1
 80a4602:	bf06      	itte	eq
 80a4604:	4610      	moveq	r0, r2
 80a4606:	4619      	moveq	r1, r3
 80a4608:	ea52 0643 	orrsne.w	r6, r2, r3, lsl #1
 80a460c:	d019      	beq.n	80a4642 <__aeabi_dmul+0x24a>
 80a460e:	ea94 0f0c 	teq	r4, ip
 80a4612:	d102      	bne.n	80a461a <__aeabi_dmul+0x222>
 80a4614:	ea50 3601 	orrs.w	r6, r0, r1, lsl #12
 80a4618:	d113      	bne.n	80a4642 <__aeabi_dmul+0x24a>
 80a461a:	ea95 0f0c 	teq	r5, ip
 80a461e:	d105      	bne.n	80a462c <__aeabi_dmul+0x234>
 80a4620:	ea52 3603 	orrs.w	r6, r2, r3, lsl #12
 80a4624:	bf1c      	itt	ne
 80a4626:	4610      	movne	r0, r2
 80a4628:	4619      	movne	r1, r3
 80a462a:	d10a      	bne.n	80a4642 <__aeabi_dmul+0x24a>
 80a462c:	ea81 0103 	eor.w	r1, r1, r3
 80a4630:	f001 4100 	and.w	r1, r1, #2147483648	; 0x80000000
 80a4634:	f041 41fe 	orr.w	r1, r1, #2130706432	; 0x7f000000
 80a4638:	f441 0170 	orr.w	r1, r1, #15728640	; 0xf00000
 80a463c:	f04f 0000 	mov.w	r0, #0
 80a4640:	bd70      	pop	{r4, r5, r6, pc}
 80a4642:	f041 41fe 	orr.w	r1, r1, #2130706432	; 0x7f000000
 80a4646:	f441 0178 	orr.w	r1, r1, #16252928	; 0xf80000
 80a464a:	bd70      	pop	{r4, r5, r6, pc}

080a464c <__aeabi_ddiv>:
 80a464c:	b570      	push	{r4, r5, r6, lr}
 80a464e:	f04f 0cff 	mov.w	ip, #255	; 0xff
 80a4652:	f44c 6ce0 	orr.w	ip, ip, #1792	; 0x700
 80a4656:	ea1c 5411 	ands.w	r4, ip, r1, lsr #20
 80a465a:	bf1d      	ittte	ne
 80a465c:	ea1c 5513 	andsne.w	r5, ip, r3, lsr #20
 80a4660:	ea94 0f0c 	teqne	r4, ip
 80a4664:	ea95 0f0c 	teqne	r5, ip
 80a4668:	f000 f8a7 	bleq	80a47ba <__aeabi_ddiv+0x16e>
 80a466c:	eba4 0405 	sub.w	r4, r4, r5
 80a4670:	ea81 0e03 	eor.w	lr, r1, r3
 80a4674:	ea52 3503 	orrs.w	r5, r2, r3, lsl #12
 80a4678:	ea4f 3101 	mov.w	r1, r1, lsl #12
 80a467c:	f000 8088 	beq.w	80a4790 <__aeabi_ddiv+0x144>
 80a4680:	ea4f 3303 	mov.w	r3, r3, lsl #12
 80a4684:	f04f 5580 	mov.w	r5, #268435456	; 0x10000000
 80a4688:	ea45 1313 	orr.w	r3, r5, r3, lsr #4
 80a468c:	ea43 6312 	orr.w	r3, r3, r2, lsr #24
 80a4690:	ea4f 2202 	mov.w	r2, r2, lsl #8
 80a4694:	ea45 1511 	orr.w	r5, r5, r1, lsr #4
 80a4698:	ea45 6510 	orr.w	r5, r5, r0, lsr #24
 80a469c:	ea4f 2600 	mov.w	r6, r0, lsl #8
 80a46a0:	f00e 4100 	and.w	r1, lr, #2147483648	; 0x80000000
 80a46a4:	429d      	cmp	r5, r3
 80a46a6:	bf08      	it	eq
 80a46a8:	4296      	cmpeq	r6, r2
 80a46aa:	f144 04fd 	adc.w	r4, r4, #253	; 0xfd
 80a46ae:	f504 7440 	add.w	r4, r4, #768	; 0x300
 80a46b2:	d202      	bcs.n	80a46ba <__aeabi_ddiv+0x6e>
 80a46b4:	085b      	lsrs	r3, r3, #1
 80a46b6:	ea4f 0232 	mov.w	r2, r2, rrx
 80a46ba:	1ab6      	subs	r6, r6, r2
 80a46bc:	eb65 0503 	sbc.w	r5, r5, r3
 80a46c0:	085b      	lsrs	r3, r3, #1
 80a46c2:	ea4f 0232 	mov.w	r2, r2, rrx
 80a46c6:	f44f 1080 	mov.w	r0, #1048576	; 0x100000
 80a46ca:	f44f 2c00 	mov.w	ip, #524288	; 0x80000
 80a46ce:	ebb6 0e02 	subs.w	lr, r6, r2
 80a46d2:	eb75 0e03 	sbcs.w	lr, r5, r3
 80a46d6:	bf22      	ittt	cs
 80a46d8:	1ab6      	subcs	r6, r6, r2
 80a46da:	4675      	movcs	r5, lr
 80a46dc:	ea40 000c 	orrcs.w	r0, r0, ip
 80a46e0:	085b      	lsrs	r3, r3, #1
 80a46e2:	ea4f 0232 	mov.w	r2, r2, rrx
 80a46e6:	ebb6 0e02 	subs.w	lr, r6, r2
 80a46ea:	eb75 0e03 	sbcs.w	lr, r5, r3
 80a46ee:	bf22      	ittt	cs
 80a46f0:	1ab6      	subcs	r6, r6, r2
 80a46f2:	4675      	movcs	r5, lr
 80a46f4:	ea40 005c 	orrcs.w	r0, r0, ip, lsr #1
 80a46f8:	085b      	lsrs	r3, r3, #1
 80a46fa:	ea4f 0232 	mov.w	r2, r2, rrx
 80a46fe:	ebb6 0e02 	subs.w	lr, r6, r2
 80a4702:	eb75 0e03 	sbcs.w	lr, r5, r3
 80a4706:	bf22      	ittt	cs
 80a4708:	1ab6      	subcs	r6, r6, r2
 80a470a:	4675      	movcs	r5, lr
 80a470c:	ea40 009c 	orrcs.w	r0, r0, ip, lsr #2
 80a4710:	085b      	lsrs	r3, r3, #1
 80a4712:	ea4f 0232 	mov.w	r2, r2, rrx
 80a4716:	ebb6 0e02 	subs.w	lr, r6, r2
 80a471a:	eb75 0e03 	sbcs.w	lr, r5, r3
 80a471e:	bf22      	ittt	cs
 80a4720:	1ab6      	subcs	r6, r6, r2
 80a4722:	4675      	movcs	r5, lr
 80a4724:	ea40 00dc 	orrcs.w	r0, r0, ip, lsr #3
 80a4728:	ea55 0e06 	orrs.w	lr, r5, r6
 80a472c:	d018      	beq.n	80a4760 <__aeabi_ddiv+0x114>
 80a472e:	ea4f 1505 	mov.w	r5, r5, lsl #4
 80a4732:	ea45 7516 	orr.w	r5, r5, r6, lsr #28
 80a4736:	ea4f 1606 	mov.w	r6, r6, lsl #4
 80a473a:	ea4f 03c3 	mov.w	r3, r3, lsl #3
 80a473e:	ea43 7352 	orr.w	r3, r3, r2, lsr #29
 80a4742:	ea4f 02c2 	mov.w	r2, r2, lsl #3
 80a4746:	ea5f 1c1c 	movs.w	ip, ip, lsr #4
 80a474a:	d1c0      	bne.n	80a46ce <__aeabi_ddiv+0x82>
 80a474c:	f411 1f80 	tst.w	r1, #1048576	; 0x100000
 80a4750:	d10b      	bne.n	80a476a <__aeabi_ddiv+0x11e>
 80a4752:	ea41 0100 	orr.w	r1, r1, r0
 80a4756:	f04f 0000 	mov.w	r0, #0
 80a475a:	f04f 4c00 	mov.w	ip, #2147483648	; 0x80000000
 80a475e:	e7b6      	b.n	80a46ce <__aeabi_ddiv+0x82>
 80a4760:	f411 1f80 	tst.w	r1, #1048576	; 0x100000
 80a4764:	bf04      	itt	eq
 80a4766:	4301      	orreq	r1, r0
 80a4768:	2000      	moveq	r0, #0
 80a476a:	f1b4 0cfd 	subs.w	ip, r4, #253	; 0xfd
 80a476e:	bf88      	it	hi
 80a4770:	f5bc 6fe0 	cmphi.w	ip, #1792	; 0x700
 80a4774:	f63f aeaf 	bhi.w	80a44d6 <__aeabi_dmul+0xde>
 80a4778:	ebb5 0c03 	subs.w	ip, r5, r3
 80a477c:	bf04      	itt	eq
 80a477e:	ebb6 0c02 	subseq.w	ip, r6, r2
 80a4782:	ea5f 0c50 	movseq.w	ip, r0, lsr #1
 80a4786:	f150 0000 	adcs.w	r0, r0, #0
 80a478a:	eb41 5104 	adc.w	r1, r1, r4, lsl #20
 80a478e:	bd70      	pop	{r4, r5, r6, pc}
 80a4790:	f00e 4e00 	and.w	lr, lr, #2147483648	; 0x80000000
 80a4794:	ea4e 3111 	orr.w	r1, lr, r1, lsr #12
 80a4798:	eb14 045c 	adds.w	r4, r4, ip, lsr #1
 80a479c:	bfc2      	ittt	gt
 80a479e:	ebd4 050c 	rsbsgt	r5, r4, ip
 80a47a2:	ea41 5104 	orrgt.w	r1, r1, r4, lsl #20
 80a47a6:	bd70      	popgt	{r4, r5, r6, pc}
 80a47a8:	f441 1180 	orr.w	r1, r1, #1048576	; 0x100000
 80a47ac:	f04f 0e00 	mov.w	lr, #0
 80a47b0:	3c01      	subs	r4, #1
 80a47b2:	e690      	b.n	80a44d6 <__aeabi_dmul+0xde>
 80a47b4:	ea45 0e06 	orr.w	lr, r5, r6
 80a47b8:	e68d      	b.n	80a44d6 <__aeabi_dmul+0xde>
 80a47ba:	ea0c 5513 	and.w	r5, ip, r3, lsr #20
 80a47be:	ea94 0f0c 	teq	r4, ip
 80a47c2:	bf08      	it	eq
 80a47c4:	ea95 0f0c 	teqeq	r5, ip
 80a47c8:	f43f af3b 	beq.w	80a4642 <__aeabi_dmul+0x24a>
 80a47cc:	ea94 0f0c 	teq	r4, ip
 80a47d0:	d10a      	bne.n	80a47e8 <__aeabi_ddiv+0x19c>
 80a47d2:	ea50 3401 	orrs.w	r4, r0, r1, lsl #12
 80a47d6:	f47f af34 	bne.w	80a4642 <__aeabi_dmul+0x24a>
 80a47da:	ea95 0f0c 	teq	r5, ip
 80a47de:	f47f af25 	bne.w	80a462c <__aeabi_dmul+0x234>
 80a47e2:	4610      	mov	r0, r2
 80a47e4:	4619      	mov	r1, r3
 80a47e6:	e72c      	b.n	80a4642 <__aeabi_dmul+0x24a>
 80a47e8:	ea95 0f0c 	teq	r5, ip
 80a47ec:	d106      	bne.n	80a47fc <__aeabi_ddiv+0x1b0>
 80a47ee:	ea52 3503 	orrs.w	r5, r2, r3, lsl #12
 80a47f2:	f43f aefd 	beq.w	80a45f0 <__aeabi_dmul+0x1f8>
 80a47f6:	4610      	mov	r0, r2
 80a47f8:	4619      	mov	r1, r3
 80a47fa:	e722      	b.n	80a4642 <__aeabi_dmul+0x24a>
 80a47fc:	ea50 0641 	orrs.w	r6, r0, r1, lsl #1
 80a4800:	bf18      	it	ne
 80a4802:	ea52 0643 	orrsne.w	r6, r2, r3, lsl #1
 80a4806:	f47f aec5 	bne.w	80a4594 <__aeabi_dmul+0x19c>
 80a480a:	ea50 0441 	orrs.w	r4, r0, r1, lsl #1
 80a480e:	f47f af0d 	bne.w	80a462c <__aeabi_dmul+0x234>
 80a4812:	ea52 0543 	orrs.w	r5, r2, r3, lsl #1
 80a4816:	f47f aeeb 	bne.w	80a45f0 <__aeabi_dmul+0x1f8>
 80a481a:	e712      	b.n	80a4642 <__aeabi_dmul+0x24a>

080a481c <__gedf2>:
 80a481c:	f04f 3cff 	mov.w	ip, #4294967295
 80a4820:	e006      	b.n	80a4830 <__cmpdf2+0x4>
 80a4822:	bf00      	nop

080a4824 <__ledf2>:
 80a4824:	f04f 0c01 	mov.w	ip, #1
 80a4828:	e002      	b.n	80a4830 <__cmpdf2+0x4>
 80a482a:	bf00      	nop

080a482c <__cmpdf2>:
 80a482c:	f04f 0c01 	mov.w	ip, #1
 80a4830:	f84d cd04 	str.w	ip, [sp, #-4]!
 80a4834:	ea4f 0c41 	mov.w	ip, r1, lsl #1
 80a4838:	ea7f 5c6c 	mvns.w	ip, ip, asr #21
 80a483c:	ea4f 0c43 	mov.w	ip, r3, lsl #1
 80a4840:	bf18      	it	ne
 80a4842:	ea7f 5c6c 	mvnsne.w	ip, ip, asr #21
 80a4846:	d01b      	beq.n	80a4880 <__cmpdf2+0x54>
 80a4848:	b001      	add	sp, #4
 80a484a:	ea50 0c41 	orrs.w	ip, r0, r1, lsl #1
 80a484e:	bf0c      	ite	eq
 80a4850:	ea52 0c43 	orrseq.w	ip, r2, r3, lsl #1
 80a4854:	ea91 0f03 	teqne	r1, r3
 80a4858:	bf02      	ittt	eq
 80a485a:	ea90 0f02 	teqeq	r0, r2
 80a485e:	2000      	moveq	r0, #0
 80a4860:	4770      	bxeq	lr
 80a4862:	f110 0f00 	cmn.w	r0, #0
 80a4866:	ea91 0f03 	teq	r1, r3
 80a486a:	bf58      	it	pl
 80a486c:	4299      	cmppl	r1, r3
 80a486e:	bf08      	it	eq
 80a4870:	4290      	cmpeq	r0, r2
 80a4872:	bf2c      	ite	cs
 80a4874:	17d8      	asrcs	r0, r3, #31
 80a4876:	ea6f 70e3 	mvncc.w	r0, r3, asr #31
 80a487a:	f040 0001 	orr.w	r0, r0, #1
 80a487e:	4770      	bx	lr
 80a4880:	ea4f 0c41 	mov.w	ip, r1, lsl #1
 80a4884:	ea7f 5c6c 	mvns.w	ip, ip, asr #21
 80a4888:	d102      	bne.n	80a4890 <__cmpdf2+0x64>
 80a488a:	ea50 3c01 	orrs.w	ip, r0, r1, lsl #12
 80a488e:	d107      	bne.n	80a48a0 <__cmpdf2+0x74>
 80a4890:	ea4f 0c43 	mov.w	ip, r3, lsl #1
 80a4894:	ea7f 5c6c 	mvns.w	ip, ip, asr #21
 80a4898:	d1d6      	bne.n	80a4848 <__cmpdf2+0x1c>
 80a489a:	ea52 3c03 	orrs.w	ip, r2, r3, lsl #12
 80a489e:	d0d3      	beq.n	80a4848 <__cmpdf2+0x1c>
 80a48a0:	f85d 0b04 	ldr.w	r0, [sp], #4
 80a48a4:	4770      	bx	lr
 80a48a6:	bf00      	nop

080a48a8 <__aeabi_cdrcmple>:
 80a48a8:	4684      	mov	ip, r0
 80a48aa:	4610      	mov	r0, r2
 80a48ac:	4662      	mov	r2, ip
 80a48ae:	468c      	mov	ip, r1
 80a48b0:	4619      	mov	r1, r3
 80a48b2:	4663      	mov	r3, ip
 80a48b4:	e000      	b.n	80a48b8 <__aeabi_cdcmpeq>
 80a48b6:	bf00      	nop

080a48b8 <__aeabi_cdcmpeq>:
 80a48b8:	b501      	push	{r0, lr}
 80a48ba:	f7ff ffb7 	bl	80a482c <__cmpdf2>
 80a48be:	2800      	cmp	r0, #0
 80a48c0:	bf48      	it	mi
 80a48c2:	f110 0f00 	cmnmi.w	r0, #0
 80a48c6:	bd01      	pop	{r0, pc}

080a48c8 <__aeabi_dcmpeq>:
 80a48c8:	f84d ed08 	str.w	lr, [sp, #-8]!
 80a48cc:	f7ff fff4 	bl	80a48b8 <__aeabi_cdcmpeq>
 80a48d0:	bf0c      	ite	eq
 80a48d2:	2001      	moveq	r0, #1
 80a48d4:	2000      	movne	r0, #0
 80a48d6:	f85d fb08 	ldr.w	pc, [sp], #8
 80a48da:	bf00      	nop

080a48dc <__aeabi_dcmplt>:
 80a48dc:	f84d ed08 	str.w	lr, [sp, #-8]!
 80a48e0:	f7ff ffea 	bl	80a48b8 <__aeabi_cdcmpeq>
 80a48e4:	bf34      	ite	cc
 80a48e6:	2001      	movcc	r0, #1
 80a48e8:	2000      	movcs	r0, #0
 80a48ea:	f85d fb08 	ldr.w	pc, [sp], #8
 80a48ee:	bf00      	nop

080a48f0 <__aeabi_dcmple>:
 80a48f0:	f84d ed08 	str.w	lr, [sp, #-8]!
 80a48f4:	f7ff ffe0 	bl	80a48b8 <__aeabi_cdcmpeq>
 80a48f8:	bf94      	ite	ls
 80a48fa:	2001      	movls	r0, #1
 80a48fc:	2000      	movhi	r0, #0
 80a48fe:	f85d fb08 	ldr.w	pc, [sp], #8
 80a4902:	bf00      	nop

080a4904 <__aeabi_dcmpge>:
 80a4904:	f84d ed08 	str.w	lr, [sp, #-8]!
 80a4908:	f7ff ffce 	bl	80a48a8 <__aeabi_cdrcmple>
 80a490c:	bf94      	ite	ls
 80a490e:	2001      	movls	r0, #1
 80a4910:	2000      	movhi	r0, #0
 80a4912:	f85d fb08 	ldr.w	pc, [sp], #8
 80a4916:	bf00      	nop

080a4918 <__aeabi_dcmpgt>:
 80a4918:	f84d ed08 	str.w	lr, [sp, #-8]!
 80a491c:	f7ff ffc4 	bl	80a48a8 <__aeabi_cdrcmple>
 80a4920:	bf34      	ite	cc
 80a4922:	2001      	movcc	r0, #1
 80a4924:	2000      	movcs	r0, #0
 80a4926:	f85d fb08 	ldr.w	pc, [sp], #8
 80a492a:	bf00      	nop

080a492c <__aeabi_d2f>:
 80a492c:	ea4f 0241 	mov.w	r2, r1, lsl #1
 80a4930:	f1b2 43e0 	subs.w	r3, r2, #1879048192	; 0x70000000
 80a4934:	bf24      	itt	cs
 80a4936:	f5b3 1c00 	subscs.w	ip, r3, #2097152	; 0x200000
 80a493a:	f1dc 5cfe 	rsbscs	ip, ip, #532676608	; 0x1fc00000
 80a493e:	d90d      	bls.n	80a495c <__aeabi_d2f+0x30>
 80a4940:	f001 4c00 	and.w	ip, r1, #2147483648	; 0x80000000
 80a4944:	ea4f 02c0 	mov.w	r2, r0, lsl #3
 80a4948:	ea4c 7050 	orr.w	r0, ip, r0, lsr #29
 80a494c:	f1b2 4f00 	cmp.w	r2, #2147483648	; 0x80000000
 80a4950:	eb40 0083 	adc.w	r0, r0, r3, lsl #2
 80a4954:	bf08      	it	eq
 80a4956:	f020 0001 	biceq.w	r0, r0, #1
 80a495a:	4770      	bx	lr
 80a495c:	f011 4f80 	tst.w	r1, #1073741824	; 0x40000000
 80a4960:	d121      	bne.n	80a49a6 <__aeabi_d2f+0x7a>
 80a4962:	f113 7238 	adds.w	r2, r3, #48234496	; 0x2e00000
 80a4966:	bfbc      	itt	lt
 80a4968:	f001 4000 	andlt.w	r0, r1, #2147483648	; 0x80000000
 80a496c:	4770      	bxlt	lr
 80a496e:	f441 1180 	orr.w	r1, r1, #1048576	; 0x100000
 80a4972:	ea4f 5252 	mov.w	r2, r2, lsr #21
 80a4976:	f1c2 0218 	rsb	r2, r2, #24
 80a497a:	f1c2 0c20 	rsb	ip, r2, #32
 80a497e:	fa10 f30c 	lsls.w	r3, r0, ip
 80a4982:	fa20 f002 	lsr.w	r0, r0, r2
 80a4986:	bf18      	it	ne
 80a4988:	f040 0001 	orrne.w	r0, r0, #1
 80a498c:	ea4f 23c1 	mov.w	r3, r1, lsl #11
 80a4990:	ea4f 23d3 	mov.w	r3, r3, lsr #11
 80a4994:	fa03 fc0c 	lsl.w	ip, r3, ip
 80a4998:	ea40 000c 	orr.w	r0, r0, ip
 80a499c:	fa23 f302 	lsr.w	r3, r3, r2
 80a49a0:	ea4f 0343 	mov.w	r3, r3, lsl #1
 80a49a4:	e7cc      	b.n	80a4940 <__aeabi_d2f+0x14>
 80a49a6:	ea7f 5362 	mvns.w	r3, r2, asr #21
 80a49aa:	d107      	bne.n	80a49bc <__aeabi_d2f+0x90>
 80a49ac:	ea50 3301 	orrs.w	r3, r0, r1, lsl #12
 80a49b0:	bf1e      	ittt	ne
 80a49b2:	f04f 40fe 	movne.w	r0, #2130706432	; 0x7f000000
 80a49b6:	f440 0040 	orrne.w	r0, r0, #12582912	; 0xc00000
 80a49ba:	4770      	bxne	lr
 80a49bc:	f001 4000 	and.w	r0, r1, #2147483648	; 0x80000000
 80a49c0:	f040 40fe 	orr.w	r0, r0, #2130706432	; 0x7f000000
 80a49c4:	f440 0000 	orr.w	r0, r0, #8388608	; 0x800000
 80a49c8:	4770      	bx	lr
 80a49ca:	bf00      	nop

080a49cc <__aeabi_frsub>:
 80a49cc:	f080 4000 	eor.w	r0, r0, #2147483648	; 0x80000000
 80a49d0:	e002      	b.n	80a49d8 <__addsf3>
 80a49d2:	bf00      	nop

080a49d4 <__aeabi_fsub>:
 80a49d4:	f081 4100 	eor.w	r1, r1, #2147483648	; 0x80000000

080a49d8 <__addsf3>:
 80a49d8:	0042      	lsls	r2, r0, #1
 80a49da:	bf1f      	itttt	ne
 80a49dc:	ea5f 0341 	movsne.w	r3, r1, lsl #1
 80a49e0:	ea92 0f03 	teqne	r2, r3
 80a49e4:	ea7f 6c22 	mvnsne.w	ip, r2, asr #24
 80a49e8:	ea7f 6c23 	mvnsne.w	ip, r3, asr #24
 80a49ec:	d06a      	beq.n	80a4ac4 <__addsf3+0xec>
 80a49ee:	ea4f 6212 	mov.w	r2, r2, lsr #24
 80a49f2:	ebd2 6313 	rsbs	r3, r2, r3, lsr #24
 80a49f6:	bfc1      	itttt	gt
 80a49f8:	18d2      	addgt	r2, r2, r3
 80a49fa:	4041      	eorgt	r1, r0
 80a49fc:	4048      	eorgt	r0, r1
 80a49fe:	4041      	eorgt	r1, r0
 80a4a00:	bfb8      	it	lt
 80a4a02:	425b      	neglt	r3, r3
 80a4a04:	2b19      	cmp	r3, #25
 80a4a06:	bf88      	it	hi
 80a4a08:	4770      	bxhi	lr
 80a4a0a:	f010 4f00 	tst.w	r0, #2147483648	; 0x80000000
 80a4a0e:	f440 0000 	orr.w	r0, r0, #8388608	; 0x800000
 80a4a12:	f020 407f 	bic.w	r0, r0, #4278190080	; 0xff000000
 80a4a16:	bf18      	it	ne
 80a4a18:	4240      	negne	r0, r0
 80a4a1a:	f011 4f00 	tst.w	r1, #2147483648	; 0x80000000
 80a4a1e:	f441 0100 	orr.w	r1, r1, #8388608	; 0x800000
 80a4a22:	f021 417f 	bic.w	r1, r1, #4278190080	; 0xff000000
 80a4a26:	bf18      	it	ne
 80a4a28:	4249      	negne	r1, r1
 80a4a2a:	ea92 0f03 	teq	r2, r3
 80a4a2e:	d03f      	beq.n	80a4ab0 <__addsf3+0xd8>
 80a4a30:	f1a2 0201 	sub.w	r2, r2, #1
 80a4a34:	fa41 fc03 	asr.w	ip, r1, r3
 80a4a38:	eb10 000c 	adds.w	r0, r0, ip
 80a4a3c:	f1c3 0320 	rsb	r3, r3, #32
 80a4a40:	fa01 f103 	lsl.w	r1, r1, r3
 80a4a44:	f000 4300 	and.w	r3, r0, #2147483648	; 0x80000000
 80a4a48:	d502      	bpl.n	80a4a50 <__addsf3+0x78>
 80a4a4a:	4249      	negs	r1, r1
 80a4a4c:	eb60 0040 	sbc.w	r0, r0, r0, lsl #1
 80a4a50:	f5b0 0f00 	cmp.w	r0, #8388608	; 0x800000
 80a4a54:	d313      	bcc.n	80a4a7e <__addsf3+0xa6>
 80a4a56:	f1b0 7f80 	cmp.w	r0, #16777216	; 0x1000000
 80a4a5a:	d306      	bcc.n	80a4a6a <__addsf3+0x92>
 80a4a5c:	0840      	lsrs	r0, r0, #1
 80a4a5e:	ea4f 0131 	mov.w	r1, r1, rrx
 80a4a62:	f102 0201 	add.w	r2, r2, #1
 80a4a66:	2afe      	cmp	r2, #254	; 0xfe
 80a4a68:	d251      	bcs.n	80a4b0e <__addsf3+0x136>
 80a4a6a:	f1b1 4f00 	cmp.w	r1, #2147483648	; 0x80000000
 80a4a6e:	eb40 50c2 	adc.w	r0, r0, r2, lsl #23
 80a4a72:	bf08      	it	eq
 80a4a74:	f020 0001 	biceq.w	r0, r0, #1
 80a4a78:	ea40 0003 	orr.w	r0, r0, r3
 80a4a7c:	4770      	bx	lr
 80a4a7e:	0049      	lsls	r1, r1, #1
 80a4a80:	eb40 0000 	adc.w	r0, r0, r0
 80a4a84:	f410 0f00 	tst.w	r0, #8388608	; 0x800000
 80a4a88:	f1a2 0201 	sub.w	r2, r2, #1
 80a4a8c:	d1ed      	bne.n	80a4a6a <__addsf3+0x92>
 80a4a8e:	fab0 fc80 	clz	ip, r0
 80a4a92:	f1ac 0c08 	sub.w	ip, ip, #8
 80a4a96:	ebb2 020c 	subs.w	r2, r2, ip
 80a4a9a:	fa00 f00c 	lsl.w	r0, r0, ip
 80a4a9e:	bfaa      	itet	ge
 80a4aa0:	eb00 50c2 	addge.w	r0, r0, r2, lsl #23
 80a4aa4:	4252      	neglt	r2, r2
 80a4aa6:	4318      	orrge	r0, r3
 80a4aa8:	bfbc      	itt	lt
 80a4aaa:	40d0      	lsrlt	r0, r2
 80a4aac:	4318      	orrlt	r0, r3
 80a4aae:	4770      	bx	lr
 80a4ab0:	f092 0f00 	teq	r2, #0
 80a4ab4:	f481 0100 	eor.w	r1, r1, #8388608	; 0x800000
 80a4ab8:	bf06      	itte	eq
 80a4aba:	f480 0000 	eoreq.w	r0, r0, #8388608	; 0x800000
 80a4abe:	3201      	addeq	r2, #1
 80a4ac0:	3b01      	subne	r3, #1
 80a4ac2:	e7b5      	b.n	80a4a30 <__addsf3+0x58>
 80a4ac4:	ea4f 0341 	mov.w	r3, r1, lsl #1
 80a4ac8:	ea7f 6c22 	mvns.w	ip, r2, asr #24
 80a4acc:	bf18      	it	ne
 80a4ace:	ea7f 6c23 	mvnsne.w	ip, r3, asr #24
 80a4ad2:	d021      	beq.n	80a4b18 <__addsf3+0x140>
 80a4ad4:	ea92 0f03 	teq	r2, r3
 80a4ad8:	d004      	beq.n	80a4ae4 <__addsf3+0x10c>
 80a4ada:	f092 0f00 	teq	r2, #0
 80a4ade:	bf08      	it	eq
 80a4ae0:	4608      	moveq	r0, r1
 80a4ae2:	4770      	bx	lr
 80a4ae4:	ea90 0f01 	teq	r0, r1
 80a4ae8:	bf1c      	itt	ne
 80a4aea:	2000      	movne	r0, #0
 80a4aec:	4770      	bxne	lr
 80a4aee:	f012 4f7f 	tst.w	r2, #4278190080	; 0xff000000
 80a4af2:	d104      	bne.n	80a4afe <__addsf3+0x126>
 80a4af4:	0040      	lsls	r0, r0, #1
 80a4af6:	bf28      	it	cs
 80a4af8:	f040 4000 	orrcs.w	r0, r0, #2147483648	; 0x80000000
 80a4afc:	4770      	bx	lr
 80a4afe:	f112 7200 	adds.w	r2, r2, #33554432	; 0x2000000
 80a4b02:	bf3c      	itt	cc
 80a4b04:	f500 0000 	addcc.w	r0, r0, #8388608	; 0x800000
 80a4b08:	4770      	bxcc	lr
 80a4b0a:	f000 4300 	and.w	r3, r0, #2147483648	; 0x80000000
 80a4b0e:	f043 40fe 	orr.w	r0, r3, #2130706432	; 0x7f000000
 80a4b12:	f440 0000 	orr.w	r0, r0, #8388608	; 0x800000
 80a4b16:	4770      	bx	lr
 80a4b18:	ea7f 6222 	mvns.w	r2, r2, asr #24
 80a4b1c:	bf16      	itet	ne
 80a4b1e:	4608      	movne	r0, r1
 80a4b20:	ea7f 6323 	mvnseq.w	r3, r3, asr #24
 80a4b24:	4601      	movne	r1, r0
 80a4b26:	0242      	lsls	r2, r0, #9
 80a4b28:	bf06      	itte	eq
 80a4b2a:	ea5f 2341 	movseq.w	r3, r1, lsl #9
 80a4b2e:	ea90 0f01 	teqeq	r0, r1
 80a4b32:	f440 0080 	orrne.w	r0, r0, #4194304	; 0x400000
 80a4b36:	4770      	bx	lr

080a4b38 <__aeabi_ui2f>:
 80a4b38:	f04f 0300 	mov.w	r3, #0
 80a4b3c:	e004      	b.n	80a4b48 <__aeabi_i2f+0x8>
 80a4b3e:	bf00      	nop

080a4b40 <__aeabi_i2f>:
 80a4b40:	f010 4300 	ands.w	r3, r0, #2147483648	; 0x80000000
 80a4b44:	bf48      	it	mi
 80a4b46:	4240      	negmi	r0, r0
 80a4b48:	ea5f 0c00 	movs.w	ip, r0
 80a4b4c:	bf08      	it	eq
 80a4b4e:	4770      	bxeq	lr
 80a4b50:	f043 4396 	orr.w	r3, r3, #1258291200	; 0x4b000000
 80a4b54:	4601      	mov	r1, r0
 80a4b56:	f04f 0000 	mov.w	r0, #0
 80a4b5a:	e01c      	b.n	80a4b96 <__aeabi_l2f+0x2a>

080a4b5c <__aeabi_ul2f>:
 80a4b5c:	ea50 0201 	orrs.w	r2, r0, r1
 80a4b60:	bf08      	it	eq
 80a4b62:	4770      	bxeq	lr
 80a4b64:	f04f 0300 	mov.w	r3, #0
 80a4b68:	e00a      	b.n	80a4b80 <__aeabi_l2f+0x14>
 80a4b6a:	bf00      	nop

080a4b6c <__aeabi_l2f>:
 80a4b6c:	ea50 0201 	orrs.w	r2, r0, r1
 80a4b70:	bf08      	it	eq
 80a4b72:	4770      	bxeq	lr
 80a4b74:	f011 4300 	ands.w	r3, r1, #2147483648	; 0x80000000
 80a4b78:	d502      	bpl.n	80a4b80 <__aeabi_l2f+0x14>
 80a4b7a:	4240      	negs	r0, r0
 80a4b7c:	eb61 0141 	sbc.w	r1, r1, r1, lsl #1
 80a4b80:	ea5f 0c01 	movs.w	ip, r1
 80a4b84:	bf02      	ittt	eq
 80a4b86:	4684      	moveq	ip, r0
 80a4b88:	4601      	moveq	r1, r0
 80a4b8a:	2000      	moveq	r0, #0
 80a4b8c:	f043 43b6 	orr.w	r3, r3, #1526726656	; 0x5b000000
 80a4b90:	bf08      	it	eq
 80a4b92:	f1a3 5380 	subeq.w	r3, r3, #268435456	; 0x10000000
 80a4b96:	f5a3 0300 	sub.w	r3, r3, #8388608	; 0x800000
 80a4b9a:	fabc f28c 	clz	r2, ip
 80a4b9e:	3a08      	subs	r2, #8
 80a4ba0:	eba3 53c2 	sub.w	r3, r3, r2, lsl #23
 80a4ba4:	db10      	blt.n	80a4bc8 <__aeabi_l2f+0x5c>
 80a4ba6:	fa01 fc02 	lsl.w	ip, r1, r2
 80a4baa:	4463      	add	r3, ip
 80a4bac:	fa00 fc02 	lsl.w	ip, r0, r2
 80a4bb0:	f1c2 0220 	rsb	r2, r2, #32
 80a4bb4:	f1bc 4f00 	cmp.w	ip, #2147483648	; 0x80000000
 80a4bb8:	fa20 f202 	lsr.w	r2, r0, r2
 80a4bbc:	eb43 0002 	adc.w	r0, r3, r2
 80a4bc0:	bf08      	it	eq
 80a4bc2:	f020 0001 	biceq.w	r0, r0, #1
 80a4bc6:	4770      	bx	lr
 80a4bc8:	f102 0220 	add.w	r2, r2, #32
 80a4bcc:	fa01 fc02 	lsl.w	ip, r1, r2
 80a4bd0:	f1c2 0220 	rsb	r2, r2, #32
 80a4bd4:	ea50 004c 	orrs.w	r0, r0, ip, lsl #1
 80a4bd8:	fa21 f202 	lsr.w	r2, r1, r2
 80a4bdc:	eb43 0002 	adc.w	r0, r3, r2
 80a4be0:	bf08      	it	eq
 80a4be2:	ea20 70dc 	biceq.w	r0, r0, ip, lsr #31
 80a4be6:	4770      	bx	lr

080a4be8 <__aeabi_fmul>:
 80a4be8:	f04f 0cff 	mov.w	ip, #255	; 0xff
 80a4bec:	ea1c 52d0 	ands.w	r2, ip, r0, lsr #23
 80a4bf0:	bf1e      	ittt	ne
 80a4bf2:	ea1c 53d1 	andsne.w	r3, ip, r1, lsr #23
 80a4bf6:	ea92 0f0c 	teqne	r2, ip
 80a4bfa:	ea93 0f0c 	teqne	r3, ip
 80a4bfe:	d06f      	beq.n	80a4ce0 <__aeabi_fmul+0xf8>
 80a4c00:	441a      	add	r2, r3
 80a4c02:	ea80 0c01 	eor.w	ip, r0, r1
 80a4c06:	0240      	lsls	r0, r0, #9
 80a4c08:	bf18      	it	ne
 80a4c0a:	ea5f 2141 	movsne.w	r1, r1, lsl #9
 80a4c0e:	d01e      	beq.n	80a4c4e <__aeabi_fmul+0x66>
 80a4c10:	f04f 6300 	mov.w	r3, #134217728	; 0x8000000
 80a4c14:	ea43 1050 	orr.w	r0, r3, r0, lsr #5
 80a4c18:	ea43 1151 	orr.w	r1, r3, r1, lsr #5
 80a4c1c:	fba0 3101 	umull	r3, r1, r0, r1
 80a4c20:	f00c 4000 	and.w	r0, ip, #2147483648	; 0x80000000
 80a4c24:	f5b1 0f00 	cmp.w	r1, #8388608	; 0x800000
 80a4c28:	bf3e      	ittt	cc
 80a4c2a:	0049      	lslcc	r1, r1, #1
 80a4c2c:	ea41 71d3 	orrcc.w	r1, r1, r3, lsr #31
 80a4c30:	005b      	lslcc	r3, r3, #1
 80a4c32:	ea40 0001 	orr.w	r0, r0, r1
 80a4c36:	f162 027f 	sbc.w	r2, r2, #127	; 0x7f
 80a4c3a:	2afd      	cmp	r2, #253	; 0xfd
 80a4c3c:	d81d      	bhi.n	80a4c7a <__aeabi_fmul+0x92>
 80a4c3e:	f1b3 4f00 	cmp.w	r3, #2147483648	; 0x80000000
 80a4c42:	eb40 50c2 	adc.w	r0, r0, r2, lsl #23
 80a4c46:	bf08      	it	eq
 80a4c48:	f020 0001 	biceq.w	r0, r0, #1
 80a4c4c:	4770      	bx	lr
 80a4c4e:	f090 0f00 	teq	r0, #0
 80a4c52:	f00c 4c00 	and.w	ip, ip, #2147483648	; 0x80000000
 80a4c56:	bf08      	it	eq
 80a4c58:	0249      	lsleq	r1, r1, #9
 80a4c5a:	ea4c 2050 	orr.w	r0, ip, r0, lsr #9
 80a4c5e:	ea40 2051 	orr.w	r0, r0, r1, lsr #9
 80a4c62:	3a7f      	subs	r2, #127	; 0x7f
 80a4c64:	bfc2      	ittt	gt
 80a4c66:	f1d2 03ff 	rsbsgt	r3, r2, #255	; 0xff
 80a4c6a:	ea40 50c2 	orrgt.w	r0, r0, r2, lsl #23
 80a4c6e:	4770      	bxgt	lr
 80a4c70:	f440 0000 	orr.w	r0, r0, #8388608	; 0x800000
 80a4c74:	f04f 0300 	mov.w	r3, #0
 80a4c78:	3a01      	subs	r2, #1
 80a4c7a:	dc5d      	bgt.n	80a4d38 <__aeabi_fmul+0x150>
 80a4c7c:	f112 0f19 	cmn.w	r2, #25
 80a4c80:	bfdc      	itt	le
 80a4c82:	f000 4000 	andle.w	r0, r0, #2147483648	; 0x80000000
 80a4c86:	4770      	bxle	lr
 80a4c88:	f1c2 0200 	rsb	r2, r2, #0
 80a4c8c:	0041      	lsls	r1, r0, #1
 80a4c8e:	fa21 f102 	lsr.w	r1, r1, r2
 80a4c92:	f1c2 0220 	rsb	r2, r2, #32
 80a4c96:	fa00 fc02 	lsl.w	ip, r0, r2
 80a4c9a:	ea5f 0031 	movs.w	r0, r1, rrx
 80a4c9e:	f140 0000 	adc.w	r0, r0, #0
 80a4ca2:	ea53 034c 	orrs.w	r3, r3, ip, lsl #1
 80a4ca6:	bf08      	it	eq
 80a4ca8:	ea20 70dc 	biceq.w	r0, r0, ip, lsr #31
 80a4cac:	4770      	bx	lr
 80a4cae:	f092 0f00 	teq	r2, #0
 80a4cb2:	f000 4c00 	and.w	ip, r0, #2147483648	; 0x80000000
 80a4cb6:	bf02      	ittt	eq
 80a4cb8:	0040      	lsleq	r0, r0, #1
 80a4cba:	f410 0f00 	tsteq.w	r0, #8388608	; 0x800000
 80a4cbe:	3a01      	subeq	r2, #1
 80a4cc0:	d0f9      	beq.n	80a4cb6 <__aeabi_fmul+0xce>
 80a4cc2:	ea40 000c 	orr.w	r0, r0, ip
 80a4cc6:	f093 0f00 	teq	r3, #0
 80a4cca:	f001 4c00 	and.w	ip, r1, #2147483648	; 0x80000000
 80a4cce:	bf02      	ittt	eq
 80a4cd0:	0049      	lsleq	r1, r1, #1
 80a4cd2:	f411 0f00 	tsteq.w	r1, #8388608	; 0x800000
 80a4cd6:	3b01      	subeq	r3, #1
 80a4cd8:	d0f9      	beq.n	80a4cce <__aeabi_fmul+0xe6>
 80a4cda:	ea41 010c 	orr.w	r1, r1, ip
 80a4cde:	e78f      	b.n	80a4c00 <__aeabi_fmul+0x18>
 80a4ce0:	ea0c 53d1 	and.w	r3, ip, r1, lsr #23
 80a4ce4:	ea92 0f0c 	teq	r2, ip
 80a4ce8:	bf18      	it	ne
 80a4cea:	ea93 0f0c 	teqne	r3, ip
 80a4cee:	d00a      	beq.n	80a4d06 <__aeabi_fmul+0x11e>
 80a4cf0:	f030 4c00 	bics.w	ip, r0, #2147483648	; 0x80000000
 80a4cf4:	bf18      	it	ne
 80a4cf6:	f031 4c00 	bicsne.w	ip, r1, #2147483648	; 0x80000000
 80a4cfa:	d1d8      	bne.n	80a4cae <__aeabi_fmul+0xc6>
 80a4cfc:	ea80 0001 	eor.w	r0, r0, r1
 80a4d00:	f000 4000 	and.w	r0, r0, #2147483648	; 0x80000000
 80a4d04:	4770      	bx	lr
 80a4d06:	f090 0f00 	teq	r0, #0
 80a4d0a:	bf17      	itett	ne
 80a4d0c:	f090 4f00 	teqne	r0, #2147483648	; 0x80000000
 80a4d10:	4608      	moveq	r0, r1
 80a4d12:	f091 0f00 	teqne	r1, #0
 80a4d16:	f091 4f00 	teqne	r1, #2147483648	; 0x80000000
 80a4d1a:	d014      	beq.n	80a4d46 <__aeabi_fmul+0x15e>
 80a4d1c:	ea92 0f0c 	teq	r2, ip
 80a4d20:	d101      	bne.n	80a4d26 <__aeabi_fmul+0x13e>
 80a4d22:	0242      	lsls	r2, r0, #9
 80a4d24:	d10f      	bne.n	80a4d46 <__aeabi_fmul+0x15e>
 80a4d26:	ea93 0f0c 	teq	r3, ip
 80a4d2a:	d103      	bne.n	80a4d34 <__aeabi_fmul+0x14c>
 80a4d2c:	024b      	lsls	r3, r1, #9
 80a4d2e:	bf18      	it	ne
 80a4d30:	4608      	movne	r0, r1
 80a4d32:	d108      	bne.n	80a4d46 <__aeabi_fmul+0x15e>
 80a4d34:	ea80 0001 	eor.w	r0, r0, r1
 80a4d38:	f000 4000 	and.w	r0, r0, #2147483648	; 0x80000000
 80a4d3c:	f040 40fe 	orr.w	r0, r0, #2130706432	; 0x7f000000
 80a4d40:	f440 0000 	orr.w	r0, r0, #8388608	; 0x800000
 80a4d44:	4770      	bx	lr
 80a4d46:	f040 40fe 	orr.w	r0, r0, #2130706432	; 0x7f000000
 80a4d4a:	f440 0040 	orr.w	r0, r0, #12582912	; 0xc00000
 80a4d4e:	4770      	bx	lr

080a4d50 <__aeabi_fdiv>:
 80a4d50:	f04f 0cff 	mov.w	ip, #255	; 0xff
 80a4d54:	ea1c 52d0 	ands.w	r2, ip, r0, lsr #23
 80a4d58:	bf1e      	ittt	ne
 80a4d5a:	ea1c 53d1 	andsne.w	r3, ip, r1, lsr #23
 80a4d5e:	ea92 0f0c 	teqne	r2, ip
 80a4d62:	ea93 0f0c 	teqne	r3, ip
 80a4d66:	d069      	beq.n	80a4e3c <__aeabi_fdiv+0xec>
 80a4d68:	eba2 0203 	sub.w	r2, r2, r3
 80a4d6c:	ea80 0c01 	eor.w	ip, r0, r1
 80a4d70:	0249      	lsls	r1, r1, #9
 80a4d72:	ea4f 2040 	mov.w	r0, r0, lsl #9
 80a4d76:	d037      	beq.n	80a4de8 <__aeabi_fdiv+0x98>
 80a4d78:	f04f 5380 	mov.w	r3, #268435456	; 0x10000000
 80a4d7c:	ea43 1111 	orr.w	r1, r3, r1, lsr #4
 80a4d80:	ea43 1310 	orr.w	r3, r3, r0, lsr #4
 80a4d84:	f00c 4000 	and.w	r0, ip, #2147483648	; 0x80000000
 80a4d88:	428b      	cmp	r3, r1
 80a4d8a:	bf38      	it	cc
 80a4d8c:	005b      	lslcc	r3, r3, #1
 80a4d8e:	f142 027d 	adc.w	r2, r2, #125	; 0x7d
 80a4d92:	f44f 0c00 	mov.w	ip, #8388608	; 0x800000
 80a4d96:	428b      	cmp	r3, r1
 80a4d98:	bf24      	itt	cs
 80a4d9a:	1a5b      	subcs	r3, r3, r1
 80a4d9c:	ea40 000c 	orrcs.w	r0, r0, ip
 80a4da0:	ebb3 0f51 	cmp.w	r3, r1, lsr #1
 80a4da4:	bf24      	itt	cs
 80a4da6:	eba3 0351 	subcs.w	r3, r3, r1, lsr #1
 80a4daa:	ea40 005c 	orrcs.w	r0, r0, ip, lsr #1
 80a4dae:	ebb3 0f91 	cmp.w	r3, r1, lsr #2
 80a4db2:	bf24      	itt	cs
 80a4db4:	eba3 0391 	subcs.w	r3, r3, r1, lsr #2
 80a4db8:	ea40 009c 	orrcs.w	r0, r0, ip, lsr #2
 80a4dbc:	ebb3 0fd1 	cmp.w	r3, r1, lsr #3
 80a4dc0:	bf24      	itt	cs
 80a4dc2:	eba3 03d1 	subcs.w	r3, r3, r1, lsr #3
 80a4dc6:	ea40 00dc 	orrcs.w	r0, r0, ip, lsr #3
 80a4dca:	011b      	lsls	r3, r3, #4
 80a4dcc:	bf18      	it	ne
 80a4dce:	ea5f 1c1c 	movsne.w	ip, ip, lsr #4
 80a4dd2:	d1e0      	bne.n	80a4d96 <__aeabi_fdiv+0x46>
 80a4dd4:	2afd      	cmp	r2, #253	; 0xfd
 80a4dd6:	f63f af50 	bhi.w	80a4c7a <__aeabi_fmul+0x92>
 80a4dda:	428b      	cmp	r3, r1
 80a4ddc:	eb40 50c2 	adc.w	r0, r0, r2, lsl #23
 80a4de0:	bf08      	it	eq
 80a4de2:	f020 0001 	biceq.w	r0, r0, #1
 80a4de6:	4770      	bx	lr
 80a4de8:	f00c 4c00 	and.w	ip, ip, #2147483648	; 0x80000000
 80a4dec:	ea4c 2050 	orr.w	r0, ip, r0, lsr #9
 80a4df0:	327f      	adds	r2, #127	; 0x7f
 80a4df2:	bfc2      	ittt	gt
 80a4df4:	f1d2 03ff 	rsbsgt	r3, r2, #255	; 0xff
 80a4df8:	ea40 50c2 	orrgt.w	r0, r0, r2, lsl #23
 80a4dfc:	4770      	bxgt	lr
 80a4dfe:	f440 0000 	orr.w	r0, r0, #8388608	; 0x800000
 80a4e02:	f04f 0300 	mov.w	r3, #0
 80a4e06:	3a01      	subs	r2, #1
 80a4e08:	e737      	b.n	80a4c7a <__aeabi_fmul+0x92>
 80a4e0a:	f092 0f00 	teq	r2, #0
 80a4e0e:	f000 4c00 	and.w	ip, r0, #2147483648	; 0x80000000
 80a4e12:	bf02      	ittt	eq
 80a4e14:	0040      	lsleq	r0, r0, #1
 80a4e16:	f410 0f00 	tsteq.w	r0, #8388608	; 0x800000
 80a4e1a:	3a01      	subeq	r2, #1
 80a4e1c:	d0f9      	beq.n	80a4e12 <__aeabi_fdiv+0xc2>
 80a4e1e:	ea40 000c 	orr.w	r0, r0, ip
 80a4e22:	f093 0f00 	teq	r3, #0
 80a4e26:	f001 4c00 	and.w	ip, r1, #2147483648	; 0x80000000
 80a4e2a:	bf02      	ittt	eq
 80a4e2c:	0049      	lsleq	r1, r1, #1
 80a4e2e:	f411 0f00 	tsteq.w	r1, #8388608	; 0x800000
 80a4e32:	3b01      	subeq	r3, #1
 80a4e34:	d0f9      	beq.n	80a4e2a <__aeabi_fdiv+0xda>
 80a4e36:	ea41 010c 	orr.w	r1, r1, ip
 80a4e3a:	e795      	b.n	80a4d68 <__aeabi_fdiv+0x18>
 80a4e3c:	ea0c 53d1 	and.w	r3, ip, r1, lsr #23
 80a4e40:	ea92 0f0c 	teq	r2, ip
 80a4e44:	d108      	bne.n	80a4e58 <__aeabi_fdiv+0x108>
 80a4e46:	0242      	lsls	r2, r0, #9
 80a4e48:	f47f af7d 	bne.w	80a4d46 <__aeabi_fmul+0x15e>
 80a4e4c:	ea93 0f0c 	teq	r3, ip
 80a4e50:	f47f af70 	bne.w	80a4d34 <__aeabi_fmul+0x14c>
 80a4e54:	4608      	mov	r0, r1
 80a4e56:	e776      	b.n	80a4d46 <__aeabi_fmul+0x15e>
 80a4e58:	ea93 0f0c 	teq	r3, ip
 80a4e5c:	d104      	bne.n	80a4e68 <__aeabi_fdiv+0x118>
 80a4e5e:	024b      	lsls	r3, r1, #9
 80a4e60:	f43f af4c 	beq.w	80a4cfc <__aeabi_fmul+0x114>
 80a4e64:	4608      	mov	r0, r1
 80a4e66:	e76e      	b.n	80a4d46 <__aeabi_fmul+0x15e>
 80a4e68:	f030 4c00 	bics.w	ip, r0, #2147483648	; 0x80000000
 80a4e6c:	bf18      	it	ne
 80a4e6e:	f031 4c00 	bicsne.w	ip, r1, #2147483648	; 0x80000000
 80a4e72:	d1ca      	bne.n	80a4e0a <__aeabi_fdiv+0xba>
 80a4e74:	f030 4200 	bics.w	r2, r0, #2147483648	; 0x80000000
 80a4e78:	f47f af5c 	bne.w	80a4d34 <__aeabi_fmul+0x14c>
 80a4e7c:	f031 4300 	bics.w	r3, r1, #2147483648	; 0x80000000
 80a4e80:	f47f af3c 	bne.w	80a4cfc <__aeabi_fmul+0x114>
 80a4e84:	e75f      	b.n	80a4d46 <__aeabi_fmul+0x15e>
 80a4e86:	bf00      	nop

080a4e88 <__gesf2>:
 80a4e88:	f04f 3cff 	mov.w	ip, #4294967295
 80a4e8c:	e006      	b.n	80a4e9c <__cmpsf2+0x4>
 80a4e8e:	bf00      	nop

080a4e90 <__lesf2>:
 80a4e90:	f04f 0c01 	mov.w	ip, #1
 80a4e94:	e002      	b.n	80a4e9c <__cmpsf2+0x4>
 80a4e96:	bf00      	nop

080a4e98 <__cmpsf2>:
 80a4e98:	f04f 0c01 	mov.w	ip, #1
 80a4e9c:	f84d cd04 	str.w	ip, [sp, #-4]!
 80a4ea0:	ea4f 0240 	mov.w	r2, r0, lsl #1
 80a4ea4:	ea4f 0341 	mov.w	r3, r1, lsl #1
 80a4ea8:	ea7f 6c22 	mvns.w	ip, r2, asr #24
 80a4eac:	bf18      	it	ne
 80a4eae:	ea7f 6c23 	mvnsne.w	ip, r3, asr #24
 80a4eb2:	d011      	beq.n	80a4ed8 <__cmpsf2+0x40>
 80a4eb4:	b001      	add	sp, #4
 80a4eb6:	ea52 0c53 	orrs.w	ip, r2, r3, lsr #1
 80a4eba:	bf18      	it	ne
 80a4ebc:	ea90 0f01 	teqne	r0, r1
 80a4ec0:	bf58      	it	pl
 80a4ec2:	ebb2 0003 	subspl.w	r0, r2, r3
 80a4ec6:	bf88      	it	hi
 80a4ec8:	17c8      	asrhi	r0, r1, #31
 80a4eca:	bf38      	it	cc
 80a4ecc:	ea6f 70e1 	mvncc.w	r0, r1, asr #31
 80a4ed0:	bf18      	it	ne
 80a4ed2:	f040 0001 	orrne.w	r0, r0, #1
 80a4ed6:	4770      	bx	lr
 80a4ed8:	ea7f 6c22 	mvns.w	ip, r2, asr #24
 80a4edc:	d102      	bne.n	80a4ee4 <__cmpsf2+0x4c>
 80a4ede:	ea5f 2c40 	movs.w	ip, r0, lsl #9
 80a4ee2:	d105      	bne.n	80a4ef0 <__cmpsf2+0x58>
 80a4ee4:	ea7f 6c23 	mvns.w	ip, r3, asr #24
 80a4ee8:	d1e4      	bne.n	80a4eb4 <__cmpsf2+0x1c>
 80a4eea:	ea5f 2c41 	movs.w	ip, r1, lsl #9
 80a4eee:	d0e1      	beq.n	80a4eb4 <__cmpsf2+0x1c>
 80a4ef0:	f85d 0b04 	ldr.w	r0, [sp], #4
 80a4ef4:	4770      	bx	lr
 80a4ef6:	bf00      	nop

080a4ef8 <__aeabi_cfrcmple>:
 80a4ef8:	4684      	mov	ip, r0
 80a4efa:	4608      	mov	r0, r1
 80a4efc:	4661      	mov	r1, ip
 80a4efe:	e7ff      	b.n	80a4f00 <__aeabi_cfcmpeq>

080a4f00 <__aeabi_cfcmpeq>:
 80a4f00:	b50f      	push	{r0, r1, r2, r3, lr}
 80a4f02:	f7ff ffc9 	bl	80a4e98 <__cmpsf2>
 80a4f06:	2800      	cmp	r0, #0
 80a4f08:	bf48      	it	mi
 80a4f0a:	f110 0f00 	cmnmi.w	r0, #0
 80a4f0e:	bd0f      	pop	{r0, r1, r2, r3, pc}

080a4f10 <__aeabi_fcmpeq>:
 80a4f10:	f84d ed08 	str.w	lr, [sp, #-8]!
 80a4f14:	f7ff fff4 	bl	80a4f00 <__aeabi_cfcmpeq>
 80a4f18:	bf0c      	ite	eq
 80a4f1a:	2001      	moveq	r0, #1
 80a4f1c:	2000      	movne	r0, #0
 80a4f1e:	f85d fb08 	ldr.w	pc, [sp], #8
 80a4f22:	bf00      	nop

080a4f24 <__aeabi_fcmplt>:
 80a4f24:	f84d ed08 	str.w	lr, [sp, #-8]!
 80a4f28:	f7ff ffea 	bl	80a4f00 <__aeabi_cfcmpeq>
 80a4f2c:	bf34      	ite	cc
 80a4f2e:	2001      	movcc	r0, #1
 80a4f30:	2000      	movcs	r0, #0
 80a4f32:	f85d fb08 	ldr.w	pc, [sp], #8
 80a4f36:	bf00      	nop

080a4f38 <__aeabi_fcmple>:
 80a4f38:	f84d ed08 	str.w	lr, [sp, #-8]!
 80a4f3c:	f7ff ffe0 	bl	80a4f00 <__aeabi_cfcmpeq>
 80a4f40:	bf94      	ite	ls
 80a4f42:	2001      	movls	r0, #1
 80a4f44:	2000      	movhi	r0, #0
 80a4f46:	f85d fb08 	ldr.w	pc, [sp], #8
 80a4f4a:	bf00      	nop

080a4f4c <__aeabi_fcmpge>:
 80a4f4c:	f84d ed08 	str.w	lr, [sp, #-8]!
 80a4f50:	f7ff ffd2 	bl	80a4ef8 <__aeabi_cfrcmple>
 80a4f54:	bf94      	ite	ls
 80a4f56:	2001      	movls	r0, #1
 80a4f58:	2000      	movhi	r0, #0
 80a4f5a:	f85d fb08 	ldr.w	pc, [sp], #8
 80a4f5e:	bf00      	nop

080a4f60 <__aeabi_fcmpgt>:
 80a4f60:	f84d ed08 	str.w	lr, [sp, #-8]!
 80a4f64:	f7ff ffc8 	bl	80a4ef8 <__aeabi_cfrcmple>
 80a4f68:	bf34      	ite	cc
 80a4f6a:	2001      	movcc	r0, #1
 80a4f6c:	2000      	movcs	r0, #0
 80a4f6e:	f85d fb08 	ldr.w	pc, [sp], #8
 80a4f72:	bf00      	nop

080a4f74 <__aeabi_f2uiz>:
 80a4f74:	0042      	lsls	r2, r0, #1
 80a4f76:	d20e      	bcs.n	80a4f96 <__aeabi_f2uiz+0x22>
 80a4f78:	f1b2 4ffe 	cmp.w	r2, #2130706432	; 0x7f000000
 80a4f7c:	d30b      	bcc.n	80a4f96 <__aeabi_f2uiz+0x22>
 80a4f7e:	f04f 039e 	mov.w	r3, #158	; 0x9e
 80a4f82:	ebb3 6212 	subs.w	r2, r3, r2, lsr #24
 80a4f86:	d409      	bmi.n	80a4f9c <__aeabi_f2uiz+0x28>
 80a4f88:	ea4f 2300 	mov.w	r3, r0, lsl #8
 80a4f8c:	f043 4300 	orr.w	r3, r3, #2147483648	; 0x80000000
 80a4f90:	fa23 f002 	lsr.w	r0, r3, r2
 80a4f94:	4770      	bx	lr
 80a4f96:	f04f 0000 	mov.w	r0, #0
 80a4f9a:	4770      	bx	lr
 80a4f9c:	f112 0f61 	cmn.w	r2, #97	; 0x61
 80a4fa0:	d101      	bne.n	80a4fa6 <__aeabi_f2uiz+0x32>
 80a4fa2:	0242      	lsls	r2, r0, #9
 80a4fa4:	d102      	bne.n	80a4fac <__aeabi_f2uiz+0x38>
 80a4fa6:	f04f 30ff 	mov.w	r0, #4294967295
 80a4faa:	4770      	bx	lr
 80a4fac:	f04f 0000 	mov.w	r0, #0
 80a4fb0:	4770      	bx	lr
 80a4fb2:	bf00      	nop

080a4fb4 <__cxa_atexit>:
 80a4fb4:	b510      	push	{r4, lr}
 80a4fb6:	4c05      	ldr	r4, [pc, #20]	; (80a4fcc <__cxa_atexit+0x18>)
 80a4fb8:	4613      	mov	r3, r2
 80a4fba:	b12c      	cbz	r4, 80a4fc8 <__cxa_atexit+0x14>
 80a4fbc:	460a      	mov	r2, r1
 80a4fbe:	4601      	mov	r1, r0
 80a4fc0:	2002      	movs	r0, #2
 80a4fc2:	f3af 8000 	nop.w
 80a4fc6:	bd10      	pop	{r4, pc}
 80a4fc8:	4620      	mov	r0, r4
 80a4fca:	bd10      	pop	{r4, pc}
 80a4fcc:	00000000 	.word	0x00000000

080a4fd0 <memcpy>:
 80a4fd0:	b510      	push	{r4, lr}
 80a4fd2:	1e43      	subs	r3, r0, #1
 80a4fd4:	440a      	add	r2, r1
 80a4fd6:	4291      	cmp	r1, r2
 80a4fd8:	d004      	beq.n	80a4fe4 <memcpy+0x14>
 80a4fda:	f811 4b01 	ldrb.w	r4, [r1], #1
 80a4fde:	f803 4f01 	strb.w	r4, [r3, #1]!
 80a4fe2:	e7f8      	b.n	80a4fd6 <memcpy+0x6>
 80a4fe4:	bd10      	pop	{r4, pc}

080a4fe6 <memset>:
 80a4fe6:	4603      	mov	r3, r0
 80a4fe8:	4402      	add	r2, r0
 80a4fea:	4293      	cmp	r3, r2
 80a4fec:	d002      	beq.n	80a4ff4 <memset+0xe>
 80a4fee:	f803 1b01 	strb.w	r1, [r3], #1
 80a4ff2:	e7fa      	b.n	80a4fea <memset+0x4>
 80a4ff4:	4770      	bx	lr

080a4ff6 <strlen>:
 80a4ff6:	4603      	mov	r3, r0
 80a4ff8:	f813 2b01 	ldrb.w	r2, [r3], #1
 80a4ffc:	2a00      	cmp	r2, #0
 80a4ffe:	d1fb      	bne.n	80a4ff8 <strlen+0x2>
 80a5000:	1a18      	subs	r0, r3, r0
 80a5002:	3801      	subs	r0, #1
 80a5004:	4770      	bx	lr

080a5006 <link_code_end>:
	...

080a5008 <dynalib_user>:
 80a5008:	001d 080a 005d 080a 0089 080a 008d 080a     ....]...........
 80a5018:	0000 0000 6157 7469 6e69 2067 6f66 2072     ....Waiting for 
 80a5028:	7453 7261 0074 7453 7261 6974 676e 6920     Start.Starting i
 80a5038:	206e 2035 6573 6f63 646e 2e73 2e2e 4600     n 5 seconds....F
 80a5048:	6c75 206c 654c 7466 5300 616d 6c6c 4c20     ull Left.Small L
 80a5058:	6665 0074 6543 746e 7265 5300 616d 6c6c     eft.Center.Small
 80a5068:	5220 6769 7468 4600 6c75 206c 6952 6867      Right.Full Righ
 80a5078:	0074 0000                                   t...

080a507c <_ZTV9LIS3DHI2C>:
	...
 80a5084:	21b1 080a 21b3 080a 2207 080a 21bf 080a     .!...!..."...!..

080a5094 <_ZTV8SPIClass>:
	...
 80a509c:	3425 080a 3427 080a 0066 6e6c 6600 006e     %4..'4..f.ln.fn.
 80a50ac:	6f63 6564 6400 7465 6961 006c 0a0d 2500     code.detail....%
 80a50bc:	3130 7530 0020 205d 2500 0064 202c 2800     010u .] .%d., .(
 80a50cc:	3a29 0020 5b20 6300 646f 2065 203d 2500     ): . [.code = .%
 80a50dc:	0069 6564 6174 6c69 2073 203d 6200 7561     i.details = .bau
 80a50ec:	0064 6553 6972 6c61 5500 4253 6553 6972     d.Serial.USBSeri
 80a50fc:	6c61 0031 7974 6570 7000 7261 6d61 6300     al1.type.param.c
 80a510c:	646d 6900 0064 6e68 0064 7473 6d72 6600     md.id.hnd.strm.f
 80a511c:	6c69 0074 766c 006c 6461 4864 6e61 6c64     ilt.lvl.addHandl
 80a512c:	7265 7200 6d65 766f 4865 6e61 6c64 7265     er.removeHandler
 80a513c:	6500 756e 486d 6e61 6c64 7265 0073 534a     .enumHandlers.JS
 80a514c:	4e4f 7453 6572 6d61 6f4c 4867 6e61 6c64     ONStreamLogHandl
 80a515c:	7265 6100 7070 6e00 6e6f 0065 7274 6361     er.app.none.trac
 80a516c:	0065 6e69 6f66 7700 7261 006e 7265 6f72     e.info.warn.erro
 80a517c:	0072 6170 696e 0063 6c61 006c 005a 2b25     r.panic.all.Z.%+
 80a518c:	3330 3a64 3025 7532 2500 2d59 6d25 252d     03d:%02u.%Y-%m-%
 80a519c:	5464 4825 253a 3a4d 5325 7a25 6100 6373     dT%H:%M:%S%z.asc
 80a51ac:	6974 656d 0000 0000                         time....

080a51b4 <_ZTV9IPAddress>:
	...
 80a51bc:	3883 080a 3875 080a 3877 080a               .8..u8..w8..

080a51c8 <_ZTV9USBSerial>:
	...
 80a51d0:	38ed 080a 3931 080a 390b 080a 35fd 080a     .8..19...9...5..
 80a51e0:	3905 080a 38ef 080a 38f7 080a 392b 080a     .9...8...8..+9..
 80a51f0:	38ff 080a 38e9 080a                         .8...8..

080a51f8 <_ZTV11USARTSerial>:
	...
 80a5200:	3aa5 080a 3ac9 080a 3ad5 080a 35fd 080a     .:...:...:...5..
 80a5210:	3ab1 080a 3abd 080a 3ab7 080a 3ac3 080a     .:...:...:...:..
 80a5220:	3aa7 080a 3aab 080a                         .:...:..

080a5228 <_ZTV7TwoWire>:
	...
 80a5230:	3b79 080a 3bc3 080a 3b9b 080a 3b7b 080a     y;...;...;..{;..
 80a5240:	3ba3 080a 3bab 080a 3bb3 080a 3bbb 080a     .;...;...;...;..

080a5250 <_ZTVN5spark9WiFiClassE>:
	...
 80a5258:	3c4b 080a                                   K<..

080a525c <link_const_variable_data_end>:
 80a525c:	080a152d 	.word	0x080a152d
 80a5260:	080a21ad 	.word	0x080a21ad
 80a5264:	080a2281 	.word	0x080a2281
 80a5268:	080a3521 	.word	0x080a3521
 80a526c:	080a36d5 	.word	0x080a36d5
 80a5270:	080a36e5 	.word	0x080a36e5
 80a5274:	080a3c55 	.word	0x080a3c55
 80a5278:	080a3d39 	.word	0x080a3d39
 80a527c:	080a3d7d 	.word	0x080a3d7d
 80a5280:	080a3df9 	.word	0x080a3df9
 80a5284:	080a3e7d 	.word	0x080a3e7d
 80a5288:	080a3f41 	.word	0x080a3f41
 80a528c:	080a4005 	.word	0x080a4005
