
C:/src/battlebots-sumo/v3/fuzzy/target/fuzzy.elf:     file format elf32-littlearm

Sections:
Idx Name          Size      VMA       LMA       File off  Algn
  0 .module_info  00000018  080a0000  080a0000  00010000  2**2
                  CONTENTS, ALLOC, LOAD, READONLY, DATA
  1 .text         00005398  080a0018  080a0018  00010018  2**3
                  CONTENTS, ALLOC, LOAD, READONLY, CODE
  2 .backup       00000004  40024000  080a53b0  00024000  2**2
                  CONTENTS, ALLOC, LOAD, DATA
  3 .data         00000060  20000300  080a53b4  00030300  2**2
                  CONTENTS, ALLOC, LOAD, DATA
  4 .bss          00000614  20000360  20000360  00040360  2**2
                  ALLOC
  5 .module_info_suffix 00000028  080a5414  080a5414  00035414  2**0
                  CONTENTS, ALLOC, LOAD, READONLY, DATA
  6 .module_info_crc 00000004  080a543c  080a543c  0003543c  2**0
                  CONTENTS, ALLOC, LOAD, READONLY, DATA
  7 .debug_info   0008e99f  00000000  00000000  00035440  2**0
                  CONTENTS, READONLY, DEBUGGING
  8 .debug_abbrev 0000f459  00000000  00000000  000c3ddf  2**0
                  CONTENTS, READONLY, DEBUGGING
  9 .debug_loc    000112b3  00000000  00000000  000d3238  2**0
                  CONTENTS, READONLY, DEBUGGING
 10 .debug_aranges 00001c58  00000000  00000000  000e44eb  2**0
                  CONTENTS, READONLY, DEBUGGING
 11 .debug_ranges 00002848  00000000  00000000  000e6143  2**0
                  CONTENTS, READONLY, DEBUGGING
 12 .debug_macro  00023bd8  00000000  00000000  000e898b  2**0
                  CONTENTS, READONLY, DEBUGGING
 13 .debug_line   00022114  00000000  00000000  0010c563  2**0
                  CONTENTS, READONLY, DEBUGGING
 14 .debug_str    00085e46  00000000  00000000  0012e677  2**0
                  CONTENTS, READONLY, DEBUGGING
 15 .debug_frame  0000ad24  00000000  00000000  001b44c0  2**2
                  CONTENTS, READONLY, DEBUGGING

Disassembly of section .text:

080a0018 <user_part_module>:
 80a0018:	78 50 0a 08                                         xP..

080a001c <module_user_pre_init>:
/**
 * Initializes this user module. Returns the start of the heap.
 */
void* module_user_pre_init() {

    if ( (&link_global_data_start!=&link_global_data_initial_values) && (link_global_data_size != 0))
 80a001c:	4809      	ldr	r0, [pc, #36]	; (80a0044 <module_user_pre_init+0x28>)
 80a001e:	490a      	ldr	r1, [pc, #40]	; (80a0048 <module_user_pre_init+0x2c>)
extern constructor_ptr_t link_constructors_end;

/**
 * Initializes this user module. Returns the start of the heap.
 */
void* module_user_pre_init() {
 80a0020:	b508      	push	{r3, lr}

    if ( (&link_global_data_start!=&link_global_data_initial_values) && (link_global_data_size != 0))
 80a0022:	4288      	cmp	r0, r1
 80a0024:	d005      	beq.n	80a0032 <module_user_pre_init+0x16>
 80a0026:	4a09      	ldr	r2, [pc, #36]	; (80a004c <module_user_pre_init+0x30>)
 80a0028:	4282      	cmp	r2, r0
 80a002a:	d002      	beq.n	80a0032 <module_user_pre_init+0x16>
    {
        memcpy(&link_global_data_start, &link_global_data_initial_values, link_global_data_size);
 80a002c:	1a12      	subs	r2, r2, r0
 80a002e:	f005 f807 	bl	80a5040 <memcpy>
    }

    memset(&link_bss_location, 0, link_bss_size );
 80a0032:	4807      	ldr	r0, [pc, #28]	; (80a0050 <module_user_pre_init+0x34>)
 80a0034:	4a07      	ldr	r2, [pc, #28]	; (80a0054 <module_user_pre_init+0x38>)
 80a0036:	2100      	movs	r1, #0
 80a0038:	1a12      	subs	r2, r2, r0
 80a003a:	f005 f80c 	bl	80a5056 <memset>
    return &link_heap_start;
}
 80a003e:	4806      	ldr	r0, [pc, #24]	; (80a0058 <module_user_pre_init+0x3c>)
 80a0040:	bd08      	pop	{r3, pc}
 80a0042:	bf00      	nop
 80a0044:	20000300 	.word	0x20000300
 80a0048:	080a53b4 	.word	0x080a53b4
 80a004c:	20000360 	.word	0x20000360
 80a0050:	20000360 	.word	0x20000360
 80a0054:	20000974 	.word	0x20000974
 80a0058:	20000974 	.word	0x20000974

080a005c <module_user_init>:
extern constructor_ptr_t link_constructors_location[];
extern constructor_ptr_t link_constructors_end;
#define link_constructors_size   ((unsigned long)&link_constructors_end  -  (unsigned long)&link_constructors_location )

void module_user_init()
{
 80a005c:	b570      	push	{r4, r5, r6, lr}
    module_user_init_hook();
 80a005e:	f003 fc19 	bl	80a3894 <module_user_init_hook>
 80a0062:	4b07      	ldr	r3, [pc, #28]	; (80a0080 <module_user_init+0x24>)
 80a0064:	4c07      	ldr	r4, [pc, #28]	; (80a0084 <module_user_init+0x28>)
 80a0066:	461e      	mov	r6, r3
 80a0068:	1ae4      	subs	r4, r4, r3
 80a006a:	08a4      	lsrs	r4, r4, #2

    // invoke constructors
    int ctor_num;
    for (ctor_num=0; ctor_num < link_constructors_size/sizeof(constructor_ptr_t); ctor_num++ )
 80a006c:	2500      	movs	r5, #0
 80a006e:	42a5      	cmp	r5, r4
 80a0070:	d004      	beq.n	80a007c <module_user_init+0x20>
    {
        link_constructors_location[ctor_num]();
 80a0072:	f856 3025 	ldr.w	r3, [r6, r5, lsl #2]
 80a0076:	4798      	blx	r3
{
    module_user_init_hook();

    // invoke constructors
    int ctor_num;
    for (ctor_num=0; ctor_num < link_constructors_size/sizeof(constructor_ptr_t); ctor_num++ )
 80a0078:	3501      	adds	r5, #1
 80a007a:	e7f8      	b.n	80a006e <module_user_init+0x12>
    {
        link_constructors_location[ctor_num]();
    }
}
 80a007c:	bd70      	pop	{r4, r5, r6, pc}
 80a007e:	bf00      	nop
 80a0080:	080a5370 	.word	0x080a5370
 80a0084:	080a53a4 	.word	0x080a53a4

080a0088 <module_user_setup>:

/**
 * Export these functions with a fuller name so they don't clash with the setup/loop wrappers in the system module.
 */
void module_user_setup() {
    setup();
 80a0088:	f001 b874 	b.w	80a1174 <setup>

080a008c <module_user_loop>:
}

void module_user_loop() {
 80a008c:	b508      	push	{r3, lr}
    loop();
 80a008e:	f001 f8ad 	bl	80a11ec <loop>
    _post_loop();
}
 80a0092:	e8bd 4008 	ldmia.w	sp!, {r3, lr}
    setup();
}

void module_user_loop() {
    loop();
    _post_loop();
 80a0096:	f003 bbbb 	b.w	80a3810 <_post_loop>

080a009a <_Znwj>:
 80a009a:	f003 b9f7 	b.w	80a348c <malloc>

080a009e <_ZdlPv>:
 80a009e:	f003 b9fd 	b.w	80a349c <free>

080a00a2 <__cxa_guard_acquire>:

/* Provide default implemenation for __cxa_guard_acquire() and
 * __cxa_guard_release(). Note: these must be revisited if a multitasking
 * OS is ported to this platform. */
__extension__ typedef int __guard __attribute__((mode (__DI__)));
int __cxa_guard_acquire(__guard *g) {return !*(char *)(g);};
 80a00a2:	7800      	ldrb	r0, [r0, #0]
 80a00a4:	fab0 f080 	clz	r0, r0
 80a00a8:	0940      	lsrs	r0, r0, #5
 80a00aa:	4770      	bx	lr

080a00ac <__cxa_guard_release>:
void __cxa_guard_release (__guard *g) {*(char *)g = 1;};
 80a00ac:	2301      	movs	r3, #1
 80a00ae:	7003      	strb	r3, [r0, #0]
 80a00b0:	4770      	bx	lr
	...

080a00b4 <_Z5FLISRv>:
// Accelerometer
const unsigned long PRINT_SAMPLE_PERIOD = 100;
LIS3DHI2C accel(Wire, 0, WKP);
unsigned long lastPrintSample = 0;

void FLISR() {
 80a00b4:	b508      	push	{r3, lr}
    FLflag = digitalRead(FL);
 80a00b6:	4b05      	ldr	r3, [pc, #20]	; (80a00cc <_Z5FLISRv+0x18>)
 80a00b8:	8818      	ldrh	r0, [r3, #0]
 80a00ba:	f003 fe61 	bl	80a3d80 <digitalRead>
 80a00be:	4b04      	ldr	r3, [pc, #16]	; (80a00d0 <_Z5FLISRv+0x1c>)
 80a00c0:	3000      	adds	r0, #0
 80a00c2:	bf18      	it	ne
 80a00c4:	2001      	movne	r0, #1
 80a00c6:	7018      	strb	r0, [r3, #0]
 80a00c8:	bd08      	pop	{r3, pc}
 80a00ca:	bf00      	nop
 80a00cc:	20000318 	.word	0x20000318
 80a00d0:	20000328 	.word	0x20000328

080a00d4 <_Z5FRISRv>:
}

void FRISR() {
 80a00d4:	b508      	push	{r3, lr}
    FRflag = digitalRead(FR);
 80a00d6:	4b05      	ldr	r3, [pc, #20]	; (80a00ec <_Z5FRISRv+0x18>)
 80a00d8:	8818      	ldrh	r0, [r3, #0]
 80a00da:	f003 fe51 	bl	80a3d80 <digitalRead>
 80a00de:	4b04      	ldr	r3, [pc, #16]	; (80a00f0 <_Z5FRISRv+0x1c>)
 80a00e0:	3000      	adds	r0, #0
 80a00e2:	bf18      	it	ne
 80a00e4:	2001      	movne	r0, #1
 80a00e6:	7018      	strb	r0, [r3, #0]
 80a00e8:	bd08      	pop	{r3, pc}
 80a00ea:	bf00      	nop
 80a00ec:	2000031c 	.word	0x2000031c
 80a00f0:	20000340 	.word	0x20000340

080a00f4 <_Z5BLISRv>:
}

void BLISR() {
 80a00f4:	b508      	push	{r3, lr}
    BLflag = digitalRead(BL);
 80a00f6:	4b05      	ldr	r3, [pc, #20]	; (80a010c <_Z5BLISRv+0x18>)
 80a00f8:	8818      	ldrh	r0, [r3, #0]
 80a00fa:	f003 fe41 	bl	80a3d80 <digitalRead>
 80a00fe:	4b04      	ldr	r3, [pc, #16]	; (80a0110 <_Z5BLISRv+0x1c>)
 80a0100:	3000      	adds	r0, #0
 80a0102:	bf18      	it	ne
 80a0104:	2001      	movne	r0, #1
 80a0106:	7018      	strb	r0, [r3, #0]
 80a0108:	bd08      	pop	{r3, pc}
 80a010a:	bf00      	nop
 80a010c:	20000320 	.word	0x20000320
 80a0110:	20000329 	.word	0x20000329

080a0114 <_Z5BRISRv>:
}

void BRISR() {
 80a0114:	b508      	push	{r3, lr}
    BRflag = digitalRead(BR);
 80a0116:	4b05      	ldr	r3, [pc, #20]	; (80a012c <_Z5BRISRv+0x18>)
 80a0118:	8818      	ldrh	r0, [r3, #0]
 80a011a:	f003 fe31 	bl	80a3d80 <digitalRead>
 80a011e:	4b04      	ldr	r3, [pc, #16]	; (80a0130 <_Z5BRISRv+0x1c>)
 80a0120:	3000      	adds	r0, #0
 80a0122:	bf18      	it	ne
 80a0124:	2001      	movne	r0, #1
 80a0126:	7018      	strb	r0, [r3, #0]
 80a0128:	bd08      	pop	{r3, pc}
 80a012a:	bf00      	nop
 80a012c:	20000324 	.word	0x20000324
 80a0130:	20000358 	.word	0x20000358

080a0134 <_Z5RSISRv>:
}

void RSISR() {
 80a0134:	b508      	push	{r3, lr}
    RSflag = digitalRead(RS);
 80a0136:	4b05      	ldr	r3, [pc, #20]	; (80a014c <_Z5RSISRv+0x18>)
 80a0138:	8818      	ldrh	r0, [r3, #0]
 80a013a:	f003 fe21 	bl	80a3d80 <digitalRead>
 80a013e:	4b04      	ldr	r3, [pc, #16]	; (80a0150 <_Z5RSISRv+0x1c>)
 80a0140:	3000      	adds	r0, #0
 80a0142:	bf18      	it	ne
 80a0144:	2001      	movne	r0, #1
 80a0146:	7018      	strb	r0, [r3, #0]
 80a0148:	bd08      	pop	{r3, pc}
 80a014a:	bf00      	nop
 80a014c:	20000300 	.word	0x20000300
 80a0150:	200003ec 	.word	0x200003ec

080a0154 <_Z8tof_initv>:
}

void tof_init() {
 80a0154:	e92d 41f0 	stmdb	sp!, {r4, r5, r6, r7, r8, lr}
    pinMode(A0, OUTPUT);
 80a0158:	2101      	movs	r1, #1
 80a015a:	200a      	movs	r0, #10
 80a015c:	f003 fde6 	bl	80a3d2c <pinMode>
    pinMode(A1, OUTPUT);
 80a0160:	2101      	movs	r1, #1
 80a0162:	200b      	movs	r0, #11
 80a0164:	f003 fde2 	bl	80a3d2c <pinMode>
    pinMode(A2, OUTPUT);
 80a0168:	2101      	movs	r1, #1
 80a016a:	200c      	movs	r0, #12
 80a016c:	f003 fdde 	bl	80a3d2c <pinMode>
    pinMode(A3, OUTPUT);
 80a0170:	2101      	movs	r1, #1
 80a0172:	200d      	movs	r0, #13
 80a0174:	f003 fdda 	bl	80a3d2c <pinMode>
    digitalWrite(A0, LOW);
 80a0178:	2100      	movs	r1, #0
 80a017a:	200a      	movs	r0, #10
 80a017c:	f003 fde7 	bl	80a3d4e <digitalWrite>
    digitalWrite(A1, LOW);
 80a0180:	2100      	movs	r1, #0
 80a0182:	200b      	movs	r0, #11
 80a0184:	f003 fde3 	bl	80a3d4e <digitalWrite>
    digitalWrite(A2, LOW);
 80a0188:	2100      	movs	r1, #0
 80a018a:	200c      	movs	r0, #12
 80a018c:	f003 fddf 	bl	80a3d4e <digitalWrite>
    digitalWrite(A3, LOW);
 80a0190:	2100      	movs	r1, #0
 80a0192:	200d      	movs	r0, #13
 80a0194:	f003 fddb 	bl	80a3d4e <digitalWrite>
    delay(500);
 80a0198:	f44f 70fa 	mov.w	r0, #500	; 0x1f4
 80a019c:	f003 fb02 	bl	80a37a4 <delay>

    Wire.setSpeed(CLOCK_SPEED_100KHZ);  // need to initialize i2c protocol after driving shdn pins low
 80a01a0:	f003 fe3c 	bl	80a3e1c <_Z19__fetch_global_Wirev>
 80a01a4:	4940      	ldr	r1, [pc, #256]	; (80a02a8 <_Z8tof_initv+0x154>)
 80a01a6:	f003 fd5d 	bl	80a3c64 <_ZN7TwoWire8setSpeedEm>
    Wire.begin();
 80a01aa:	f003 fe37 	bl	80a3e1c <_Z19__fetch_global_Wirev>
 80a01ae:	f003 fd5d 	bl	80a3c6c <_ZN7TwoWire5beginEv>

    delay(10);
 80a01b2:	200a      	movs	r0, #10
 80a01b4:	f003 faf6 	bl	80a37a4 <delay>
    digitalWrite(A0, HIGH);
 80a01b8:	2101      	movs	r1, #1
 80a01ba:	200a      	movs	r0, #10
 80a01bc:	f003 fdc7 	bl	80a3d4e <digitalWrite>
    digitalWrite(A1, HIGH);
 80a01c0:	2101      	movs	r1, #1
 80a01c2:	200b      	movs	r0, #11
 80a01c4:	f003 fdc3 	bl	80a3d4e <digitalWrite>
    digitalWrite(A2, HIGH);
 80a01c8:	2101      	movs	r1, #1
 80a01ca:	200c      	movs	r0, #12
 80a01cc:	f003 fdbf 	bl	80a3d4e <digitalWrite>
    digitalWrite(A3, HIGH);
 80a01d0:	2101      	movs	r1, #1
 80a01d2:	200d      	movs	r0, #13
 80a01d4:	f003 fdbb 	bl	80a3d4e <digitalWrite>
    delay(10);
 80a01d8:	200a      	movs	r0, #10
 80a01da:	f003 fae3 	bl	80a37a4 <delay>
    digitalWrite(A1, LOW);
 80a01de:	2100      	movs	r1, #0
 80a01e0:	200b      	movs	r0, #11
 80a01e2:	f003 fdb4 	bl	80a3d4e <digitalWrite>
    digitalWrite(A2, LOW);
    digitalWrite(A3, LOW);
    sensor0.init();
 80a01e6:	4f31      	ldr	r7, [pc, #196]	; (80a02ac <_Z8tof_initv+0x158>)
    digitalWrite(A1, HIGH);
    digitalWrite(A2, HIGH);
    digitalWrite(A3, HIGH);
    delay(10);
    digitalWrite(A1, LOW);
    digitalWrite(A2, LOW);
 80a01e8:	2100      	movs	r1, #0
 80a01ea:	200c      	movs	r0, #12
 80a01ec:	f003 fdaf 	bl	80a3d4e <digitalWrite>
    digitalWrite(A3, LOW);
 80a01f0:	2100      	movs	r1, #0
 80a01f2:	200d      	movs	r0, #13
 80a01f4:	f003 fdab 	bl	80a3d4e <digitalWrite>
    sensor0.init();
 80a01f8:	2101      	movs	r1, #1
 80a01fa:	4638      	mov	r0, r7
 80a01fc:	f001 fd0a 	bl	80a1c14 <_ZN7VL53L0X4initEb>
    void startContinuous(uint32_t period_ms = 0);
    void stopContinuous(void);
    uint16_t readRangeContinuousMillimeters(void);
    uint16_t readRangeSingleMillimeters(void);

    inline void setTimeout(uint16_t timeout) { io_timeout = timeout; }
 80a0200:	f44f 787a 	mov.w	r8, #1000	; 0x3e8
    sensor0.setAddress(0x30);
 80a0204:	2130      	movs	r1, #48	; 0x30
 80a0206:	4638      	mov	r0, r7
 80a0208:	f001 f9b5 	bl	80a1576 <_ZN7VL53L0X10setAddressEh>
    sensor0.setTimeout(1000);
    delay(10);
    digitalWrite(A1, HIGH);
    sensor1.init();
 80a020c:	4e28      	ldr	r6, [pc, #160]	; (80a02b0 <_Z8tof_initv+0x15c>)
 80a020e:	f8c7 8004 	str.w	r8, [r7, #4]
    digitalWrite(A2, LOW);
    digitalWrite(A3, LOW);
    sensor0.init();
    sensor0.setAddress(0x30);
    sensor0.setTimeout(1000);
    delay(10);
 80a0212:	200a      	movs	r0, #10
 80a0214:	f003 fac6 	bl	80a37a4 <delay>
    digitalWrite(A1, HIGH);
 80a0218:	2101      	movs	r1, #1
 80a021a:	200b      	movs	r0, #11
 80a021c:	f003 fd97 	bl	80a3d4e <digitalWrite>
    sensor1.init();
 80a0220:	2101      	movs	r1, #1
 80a0222:	4630      	mov	r0, r6
 80a0224:	f001 fcf6 	bl	80a1c14 <_ZN7VL53L0X4initEb>
    sensor1.setAddress(0x31);
 80a0228:	2131      	movs	r1, #49	; 0x31
 80a022a:	4630      	mov	r0, r6
 80a022c:	f001 f9a3 	bl	80a1576 <_ZN7VL53L0X10setAddressEh>
    sensor1.setTimeout(1000);
    delay(10);
    digitalWrite(A2, HIGH);
    sensor2.init();
 80a0230:	4d20      	ldr	r5, [pc, #128]	; (80a02b4 <_Z8tof_initv+0x160>)
    delay(10);
    digitalWrite(A1, HIGH);
    sensor1.init();
    sensor1.setAddress(0x31);
    sensor1.setTimeout(1000);
    delay(10);
 80a0232:	200a      	movs	r0, #10
 80a0234:	f8c6 8004 	str.w	r8, [r6, #4]
 80a0238:	f003 fab4 	bl	80a37a4 <delay>
    digitalWrite(A2, HIGH);
 80a023c:	2101      	movs	r1, #1
 80a023e:	200c      	movs	r0, #12
 80a0240:	f003 fd85 	bl	80a3d4e <digitalWrite>
    sensor2.init();
 80a0244:	2101      	movs	r1, #1
 80a0246:	4628      	mov	r0, r5
 80a0248:	f001 fce4 	bl	80a1c14 <_ZN7VL53L0X4initEb>
    sensor2.setAddress(0x32);
 80a024c:	2132      	movs	r1, #50	; 0x32
 80a024e:	4628      	mov	r0, r5
 80a0250:	f001 f991 	bl	80a1576 <_ZN7VL53L0X10setAddressEh>
    sensor2.setTimeout(1000);
    delay(10);
    digitalWrite(A3, HIGH);
    sensor3.init();
 80a0254:	4c18      	ldr	r4, [pc, #96]	; (80a02b8 <_Z8tof_initv+0x164>)
    delay(10);
    digitalWrite(A2, HIGH);
    sensor2.init();
    sensor2.setAddress(0x32);
    sensor2.setTimeout(1000);
    delay(10);
 80a0256:	200a      	movs	r0, #10
 80a0258:	f8c5 8004 	str.w	r8, [r5, #4]
 80a025c:	f003 faa2 	bl	80a37a4 <delay>
    digitalWrite(A3, HIGH);
 80a0260:	2101      	movs	r1, #1
 80a0262:	200d      	movs	r0, #13
 80a0264:	f003 fd73 	bl	80a3d4e <digitalWrite>
    sensor3.init();
 80a0268:	2101      	movs	r1, #1
 80a026a:	4620      	mov	r0, r4
 80a026c:	f001 fcd2 	bl	80a1c14 <_ZN7VL53L0X4initEb>
    sensor3.setAddress(0x33);
 80a0270:	2133      	movs	r1, #51	; 0x33
 80a0272:	4620      	mov	r0, r4
 80a0274:	f001 f97f 	bl	80a1576 <_ZN7VL53L0X10setAddressEh>
    sensor3.setTimeout(1000);
    delay(10);
 80a0278:	200a      	movs	r0, #10
 80a027a:	f8c4 8004 	str.w	r8, [r4, #4]
 80a027e:	f003 fa91 	bl	80a37a4 <delay>

    // Start continuous back-to-back mode (take readings as
    // fast as possible).  To use continuous timed mode
    // instead, provide a desired inter-measurement period in
    // ms (e.g. sensor.startContinuous(100)).
    sensor0.startContinuous(10);
 80a0282:	4638      	mov	r0, r7
 80a0284:	210a      	movs	r1, #10
 80a0286:	f001 fa92 	bl	80a17ae <_ZN7VL53L0X15startContinuousEm>
    sensor1.startContinuous(10);
 80a028a:	4630      	mov	r0, r6
 80a028c:	210a      	movs	r1, #10
 80a028e:	f001 fa8e 	bl	80a17ae <_ZN7VL53L0X15startContinuousEm>
    sensor2.startContinuous(10);
 80a0292:	4628      	mov	r0, r5
 80a0294:	210a      	movs	r1, #10
 80a0296:	f001 fa8a 	bl	80a17ae <_ZN7VL53L0X15startContinuousEm>
    sensor3.startContinuous(10);			
 80a029a:	4620      	mov	r0, r4
}
 80a029c:	e8bd 41f0 	ldmia.w	sp!, {r4, r5, r6, r7, r8, lr}
    // instead, provide a desired inter-measurement period in
    // ms (e.g. sensor.startContinuous(100)).
    sensor0.startContinuous(10);
    sensor1.startContinuous(10);
    sensor2.startContinuous(10);
    sensor3.startContinuous(10);			
 80a02a0:	210a      	movs	r1, #10
 80a02a2:	f001 ba84 	b.w	80a17ae <_ZN7VL53L0X15startContinuousEm>
 80a02a6:	bf00      	nop
 80a02a8:	000186a0 	.word	0x000186a0
 80a02ac:	20000394 	.word	0x20000394
 80a02b0:	200003f0 	.word	0x200003f0
 80a02b4:	200003ac 	.word	0x200003ac
 80a02b8:	200003c4 	.word	0x200003c4

080a02bc <_Z10accel_initv>:
}

void accel_init() {
 80a02bc:	b51f      	push	{r0, r1, r2, r3, r4, lr}
  LIS3DHConfig config;
 80a02be:	a801      	add	r0, sp, #4
 80a02c0:	f001 ff7d 	bl	80a21be <_ZN12LIS3DHConfigC1Ev>
  config.setAccelMode(LIS3DH::RATE_400_HZ);
 80a02c4:	2170      	movs	r1, #112	; 0x70
 80a02c6:	a801      	add	r0, sp, #4
 80a02c8:	f001 ff86 	bl	80a21d8 <_ZN12LIS3DHConfig12setAccelModeEh>

  bool setupSuccess = accel.setup(config);
 80a02cc:	a901      	add	r1, sp, #4
 80a02ce:	4806      	ldr	r0, [pc, #24]	; (80a02e8 <_Z10accel_initv+0x2c>)
 80a02d0:	f001 ffda 	bl	80a2288 <_ZN6LIS3DH5setupER12LIS3DHConfig>
 80a02d4:	4604      	mov	r4, r0
  Serial.printlnf("setupSuccess=%d", setupSuccess);
 80a02d6:	f003 fb93 	bl	80a3a00 <_Z16_fetch_usbserialv>
    }

    template <typename... Args>
    inline size_t printlnf(const char* format, Args... args)
    {
        return this->printf_impl(true, format, args...);
 80a02da:	4623      	mov	r3, r4
 80a02dc:	4a03      	ldr	r2, [pc, #12]	; (80a02ec <_Z10accel_initv+0x30>)
 80a02de:	2101      	movs	r1, #1
 80a02e0:	f003 fa14 	bl	80a370c <_ZN5Print11printf_implEbPKcz>
}
 80a02e4:	b004      	add	sp, #16
 80a02e6:	bd10      	pop	{r4, pc}
 80a02e8:	2000037c 	.word	0x2000037c
 80a02ec:	080a508c 	.word	0x080a508c

080a02f0 <_Z11others_initv>:

void others_init() {
 80a02f0:	b508      	push	{r3, lr}
	// Line sensors
  	pinMode(FL, INPUT);
 80a02f2:	4b15      	ldr	r3, [pc, #84]	; (80a0348 <_Z11others_initv+0x58>)
 80a02f4:	2100      	movs	r1, #0
 80a02f6:	8818      	ldrh	r0, [r3, #0]
 80a02f8:	f003 fd18 	bl	80a3d2c <pinMode>
  	pinMode(FR, INPUT);
 80a02fc:	4b13      	ldr	r3, [pc, #76]	; (80a034c <_Z11others_initv+0x5c>)
 80a02fe:	2100      	movs	r1, #0
 80a0300:	8818      	ldrh	r0, [r3, #0]
 80a0302:	f003 fd13 	bl	80a3d2c <pinMode>
  	pinMode(BL, INPUT);
 80a0306:	4b12      	ldr	r3, [pc, #72]	; (80a0350 <_Z11others_initv+0x60>)
 80a0308:	2100      	movs	r1, #0
 80a030a:	8818      	ldrh	r0, [r3, #0]
 80a030c:	f003 fd0e 	bl	80a3d2c <pinMode>
  	pinMode(BR, INPUT);
 80a0310:	4b10      	ldr	r3, [pc, #64]	; (80a0354 <_Z11others_initv+0x64>)
 80a0312:	2100      	movs	r1, #0
 80a0314:	8818      	ldrh	r0, [r3, #0]
 80a0316:	f003 fd09 	bl	80a3d2c <pinMode>
  	// Remote switch
  	pinMode(RS, INPUT);
 80a031a:	4b0f      	ldr	r3, [pc, #60]	; (80a0358 <_Z11others_initv+0x68>)
 80a031c:	2100      	movs	r1, #0
 80a031e:	8818      	ldrh	r0, [r3, #0]
 80a0320:	f003 fd04 	bl	80a3d2c <pinMode>
  	// Car ESCs
  	pinMode(Lmotor, OUTPUT);
 80a0324:	4b0d      	ldr	r3, [pc, #52]	; (80a035c <_Z11others_initv+0x6c>)
 80a0326:	2101      	movs	r1, #1
 80a0328:	8818      	ldrh	r0, [r3, #0]
 80a032a:	f003 fcff 	bl	80a3d2c <pinMode>
  	pinMode(Rmotor, OUTPUT);
 80a032e:	4b0c      	ldr	r3, [pc, #48]	; (80a0360 <_Z11others_initv+0x70>)
 80a0330:	2101      	movs	r1, #1
 80a0332:	8818      	ldrh	r0, [r3, #0]
 80a0334:	f003 fcfa 	bl	80a3d2c <pinMode>

  	// ***Remove for competition***
  	// ***Serial monitor***
  	Serial.begin(9600);	// *** need to modify before comp ***
 80a0338:	f003 fb62 	bl	80a3a00 <_Z16_fetch_usbserialv>
}
 80a033c:	e8bd 4008 	ldmia.w	sp!, {r3, lr}
  	pinMode(Lmotor, OUTPUT);
  	pinMode(Rmotor, OUTPUT);

  	// ***Remove for competition***
  	// ***Serial monitor***
  	Serial.begin(9600);	// *** need to modify before comp ***
 80a0340:	f44f 5116 	mov.w	r1, #9600	; 0x2580
 80a0344:	f003 bb42 	b.w	80a39cc <_ZN9USBSerial5beginEl>
 80a0348:	20000318 	.word	0x20000318
 80a034c:	2000031c 	.word	0x2000031c
 80a0350:	20000320 	.word	0x20000320
 80a0354:	20000324 	.word	0x20000324
 80a0358:	20000300 	.word	0x20000300
 80a035c:	20000344 	.word	0x20000344
 80a0360:	20000338 	.word	0x20000338

080a0364 <_Z14interrupt_initv>:
}

void interrupt_init() {
 80a0364:	b513      	push	{r0, r1, r4, lr}
	// Line sensors
	attachInterrupt(FL, FLISR, CHANGE);
 80a0366:	4b18      	ldr	r3, [pc, #96]	; (80a03c8 <_Z14interrupt_initv+0x64>)
 80a0368:	2400      	movs	r4, #0
 80a036a:	8818      	ldrh	r0, [r3, #0]
 80a036c:	4622      	mov	r2, r4
 80a036e:	9400      	str	r4, [sp, #0]
 80a0370:	f04f 33ff 	mov.w	r3, #4294967295
 80a0374:	4915      	ldr	r1, [pc, #84]	; (80a03cc <_Z14interrupt_initv+0x68>)
 80a0376:	f003 fba7 	bl	80a3ac8 <_Z15attachInterrupttPFvvE13InterruptModeah>
   	attachInterrupt(FR, FRISR, CHANGE);
 80a037a:	4b15      	ldr	r3, [pc, #84]	; (80a03d0 <_Z14interrupt_initv+0x6c>)
 80a037c:	4622      	mov	r2, r4
 80a037e:	8818      	ldrh	r0, [r3, #0]
 80a0380:	4914      	ldr	r1, [pc, #80]	; (80a03d4 <_Z14interrupt_initv+0x70>)
 80a0382:	9400      	str	r4, [sp, #0]
 80a0384:	f04f 33ff 	mov.w	r3, #4294967295
 80a0388:	f003 fb9e 	bl	80a3ac8 <_Z15attachInterrupttPFvvE13InterruptModeah>
   	attachInterrupt(BL, BLISR, CHANGE);
 80a038c:	4b12      	ldr	r3, [pc, #72]	; (80a03d8 <_Z14interrupt_initv+0x74>)
 80a038e:	4622      	mov	r2, r4
 80a0390:	8818      	ldrh	r0, [r3, #0]
 80a0392:	4912      	ldr	r1, [pc, #72]	; (80a03dc <_Z14interrupt_initv+0x78>)
 80a0394:	9400      	str	r4, [sp, #0]
 80a0396:	f04f 33ff 	mov.w	r3, #4294967295
 80a039a:	f003 fb95 	bl	80a3ac8 <_Z15attachInterrupttPFvvE13InterruptModeah>
   	attachInterrupt(BR, BRISR, CHANGE);
 80a039e:	4b10      	ldr	r3, [pc, #64]	; (80a03e0 <_Z14interrupt_initv+0x7c>)
 80a03a0:	4622      	mov	r2, r4
 80a03a2:	8818      	ldrh	r0, [r3, #0]
 80a03a4:	490f      	ldr	r1, [pc, #60]	; (80a03e4 <_Z14interrupt_initv+0x80>)
 80a03a6:	9400      	str	r4, [sp, #0]
 80a03a8:	f04f 33ff 	mov.w	r3, #4294967295
 80a03ac:	f003 fb8c 	bl	80a3ac8 <_Z15attachInterrupttPFvvE13InterruptModeah>
   	// Remote switch
   	attachInterrupt(RS, RSISR, CHANGE);
 80a03b0:	4b0d      	ldr	r3, [pc, #52]	; (80a03e8 <_Z14interrupt_initv+0x84>)
 80a03b2:	4622      	mov	r2, r4
 80a03b4:	8818      	ldrh	r0, [r3, #0]
 80a03b6:	490d      	ldr	r1, [pc, #52]	; (80a03ec <_Z14interrupt_initv+0x88>)
 80a03b8:	9400      	str	r4, [sp, #0]
 80a03ba:	f04f 33ff 	mov.w	r3, #4294967295
 80a03be:	f003 fb83 	bl	80a3ac8 <_Z15attachInterrupttPFvvE13InterruptModeah>
}
 80a03c2:	b002      	add	sp, #8
 80a03c4:	bd10      	pop	{r4, pc}
 80a03c6:	bf00      	nop
 80a03c8:	20000318 	.word	0x20000318
 80a03cc:	080a00b5 	.word	0x080a00b5
 80a03d0:	2000031c 	.word	0x2000031c
 80a03d4:	080a00d5 	.word	0x080a00d5
 80a03d8:	20000320 	.word	0x20000320
 80a03dc:	080a00f5 	.word	0x080a00f5
 80a03e0:	20000324 	.word	0x20000324
 80a03e4:	080a0115 	.word	0x080a0115
 80a03e8:	20000300 	.word	0x20000300
 80a03ec:	080a0135 	.word	0x080a0135

080a03f0 <_Z8ESC_initv>:

void ESC_init() {
 80a03f0:	b5f7      	push	{r0, r1, r2, r4, r5, r6, r7, lr}
	// Necessary for Servo objects
  	LESC.attach(Lmotor);
 80a03f2:	4b13      	ldr	r3, [pc, #76]	; (80a0440 <_Z8ESC_initv+0x50>)
 80a03f4:	4d13      	ldr	r5, [pc, #76]	; (80a0444 <_Z8ESC_initv+0x54>)
 80a03f6:	2600      	movs	r6, #0
 80a03f8:	27b4      	movs	r7, #180	; 0xb4
 80a03fa:	8819      	ldrh	r1, [r3, #0]
 80a03fc:	f44f 7208 	mov.w	r2, #544	; 0x220
 80a0400:	e88d 00c0 	stmia.w	sp, {r6, r7}
 80a0404:	f44f 6316 	mov.w	r3, #2400	; 0x960
 80a0408:	4628      	mov	r0, r5
 80a040a:	f003 f8aa 	bl	80a3562 <_ZN5Servo6attachEtttss>
  	RESC.attach(Rmotor);
 80a040e:	4c0e      	ldr	r4, [pc, #56]	; (80a0448 <_Z8ESC_initv+0x58>)
 80a0410:	4b0e      	ldr	r3, [pc, #56]	; (80a044c <_Z8ESC_initv+0x5c>)
 80a0412:	f44f 7208 	mov.w	r2, #544	; 0x220
 80a0416:	8819      	ldrh	r1, [r3, #0]
 80a0418:	4620      	mov	r0, r4
 80a041a:	f44f 6316 	mov.w	r3, #2400	; 0x960
 80a041e:	e88d 00c0 	stmia.w	sp, {r6, r7}
 80a0422:	f003 f89e 	bl	80a3562 <_ZN5Servo6attachEtttss>
  	// Write stop command
  	LESC.writeMicroseconds(1500);
 80a0426:	4628      	mov	r0, r5
 80a0428:	f240 51dc 	movw	r1, #1500	; 0x5dc
 80a042c:	f003 f865 	bl	80a34fa <_ZN5Servo17writeMicrosecondsEt>
  	RESC.writeMicroseconds(1500);
 80a0430:	f240 51dc 	movw	r1, #1500	; 0x5dc
 80a0434:	4620      	mov	r0, r4
}
 80a0436:	b003      	add	sp, #12
 80a0438:	e8bd 40f0 	ldmia.w	sp!, {r4, r5, r6, r7, lr}
	// Necessary for Servo objects
  	LESC.attach(Lmotor);
  	RESC.attach(Rmotor);
  	// Write stop command
  	LESC.writeMicroseconds(1500);
  	RESC.writeMicroseconds(1500);
 80a043c:	f003 b85d 	b.w	80a34fa <_ZN5Servo17writeMicrosecondsEt>
 80a0440:	20000344 	.word	0x20000344
 80a0444:	2000036c 	.word	0x2000036c
 80a0448:	200003dc 	.word	0x200003dc
 80a044c:	20000338 	.word	0x20000338

080a0450 <_Z10fuzzy_initv>:
}

void fuzzy_init() {
 80a0450:	e92d 4ff0 	stmdb	sp!, {r4, r5, r6, r7, r8, r9, sl, fp, lr}
  // low = far, high = close

  // INPUT: 1 of 4
  FuzzyInput* LL_input = new FuzzyInput(1);
 80a0454:	2010      	movs	r0, #16
  	// Write stop command
  	LESC.writeMicroseconds(1500);
  	RESC.writeMicroseconds(1500);
}

void fuzzy_init() {
 80a0456:	b099      	sub	sp, #100	; 0x64
  // low = far, high = close

  // INPUT: 1 of 4
  FuzzyInput* LL_input = new FuzzyInput(1);
 80a0458:	f7ff fe1f 	bl	80a009a <_Znwj>
 80a045c:	4604      	mov	r4, r0
 80a045e:	b110      	cbz	r0, 80a0466 <_Z10fuzzy_initv+0x16>
 80a0460:	2101      	movs	r1, #1
 80a0462:	f002 f9b0 	bl	80a27c6 <_ZN10FuzzyInputC1Ei>
  FuzzySet* LL_low = new FuzzySet(low1, low2, low3, low4);
 80a0466:	2014      	movs	r0, #20
 80a0468:	f7ff fe17 	bl	80a009a <_Znwj>
 80a046c:	4605      	mov	r5, r0
 80a046e:	b1c8      	cbz	r0, 80a04a4 <_Z10fuzzy_initv+0x54>
 80a0470:	4ba2      	ldr	r3, [pc, #648]	; (80a06fc <_Z10fuzzy_initv+0x2ac>)
 80a0472:	6818      	ldr	r0, [r3, #0]
 80a0474:	f004 fb9c 	bl	80a4bb0 <__aeabi_i2f>
 80a0478:	4ba1      	ldr	r3, [pc, #644]	; (80a0700 <_Z10fuzzy_initv+0x2b0>)
 80a047a:	4680      	mov	r8, r0
 80a047c:	6818      	ldr	r0, [r3, #0]
 80a047e:	f004 fb97 	bl	80a4bb0 <__aeabi_i2f>
 80a0482:	4ba0      	ldr	r3, [pc, #640]	; (80a0704 <_Z10fuzzy_initv+0x2b4>)
 80a0484:	4607      	mov	r7, r0
 80a0486:	6818      	ldr	r0, [r3, #0]
 80a0488:	f004 fb92 	bl	80a4bb0 <__aeabi_i2f>
 80a048c:	4b9e      	ldr	r3, [pc, #632]	; (80a0708 <_Z10fuzzy_initv+0x2b8>)
 80a048e:	4606      	mov	r6, r0
 80a0490:	6818      	ldr	r0, [r3, #0]
 80a0492:	f004 fb8d 	bl	80a4bb0 <__aeabi_i2f>
 80a0496:	4643      	mov	r3, r8
 80a0498:	9000      	str	r0, [sp, #0]
 80a049a:	463a      	mov	r2, r7
 80a049c:	4631      	mov	r1, r6
 80a049e:	4628      	mov	r0, r5
 80a04a0:	f002 fc0d 	bl	80a2cbe <_ZN8FuzzySetC1Effff>
  FuzzySet* LL_med = new FuzzySet(med1, med2, med3, med4);
 80a04a4:	2014      	movs	r0, #20
 80a04a6:	f7ff fdf8 	bl	80a009a <_Znwj>
 80a04aa:	4680      	mov	r8, r0
 80a04ac:	b1c8      	cbz	r0, 80a04e2 <_Z10fuzzy_initv+0x92>
 80a04ae:	4b97      	ldr	r3, [pc, #604]	; (80a070c <_Z10fuzzy_initv+0x2bc>)
 80a04b0:	6818      	ldr	r0, [r3, #0]
 80a04b2:	f004 fb7d 	bl	80a4bb0 <__aeabi_i2f>
 80a04b6:	4b96      	ldr	r3, [pc, #600]	; (80a0710 <_Z10fuzzy_initv+0x2c0>)
 80a04b8:	4681      	mov	r9, r0
 80a04ba:	6818      	ldr	r0, [r3, #0]
 80a04bc:	f004 fb78 	bl	80a4bb0 <__aeabi_i2f>
 80a04c0:	4b94      	ldr	r3, [pc, #592]	; (80a0714 <_Z10fuzzy_initv+0x2c4>)
 80a04c2:	4607      	mov	r7, r0
 80a04c4:	6818      	ldr	r0, [r3, #0]
 80a04c6:	f004 fb73 	bl	80a4bb0 <__aeabi_i2f>
 80a04ca:	4b93      	ldr	r3, [pc, #588]	; (80a0718 <_Z10fuzzy_initv+0x2c8>)
 80a04cc:	4606      	mov	r6, r0
 80a04ce:	6818      	ldr	r0, [r3, #0]
 80a04d0:	f004 fb6e 	bl	80a4bb0 <__aeabi_i2f>
 80a04d4:	464b      	mov	r3, r9
 80a04d6:	9000      	str	r0, [sp, #0]
 80a04d8:	463a      	mov	r2, r7
 80a04da:	4631      	mov	r1, r6
 80a04dc:	4640      	mov	r0, r8
 80a04de:	f002 fbee 	bl	80a2cbe <_ZN8FuzzySetC1Effff>
  FuzzySet* LL_high = new FuzzySet(high1, high2, high3, high4);
 80a04e2:	2014      	movs	r0, #20
 80a04e4:	f7ff fdd9 	bl	80a009a <_Znwj>
 80a04e8:	4607      	mov	r7, r0
 80a04ea:	b1c8      	cbz	r0, 80a0520 <_Z10fuzzy_initv+0xd0>
 80a04ec:	4b8b      	ldr	r3, [pc, #556]	; (80a071c <_Z10fuzzy_initv+0x2cc>)
 80a04ee:	6818      	ldr	r0, [r3, #0]
 80a04f0:	f004 fb5e 	bl	80a4bb0 <__aeabi_i2f>
 80a04f4:	4b8a      	ldr	r3, [pc, #552]	; (80a0720 <_Z10fuzzy_initv+0x2d0>)
 80a04f6:	4682      	mov	sl, r0
 80a04f8:	6818      	ldr	r0, [r3, #0]
 80a04fa:	f004 fb59 	bl	80a4bb0 <__aeabi_i2f>
 80a04fe:	4b89      	ldr	r3, [pc, #548]	; (80a0724 <_Z10fuzzy_initv+0x2d4>)
 80a0500:	4681      	mov	r9, r0
 80a0502:	6818      	ldr	r0, [r3, #0]
 80a0504:	f004 fb54 	bl	80a4bb0 <__aeabi_i2f>
 80a0508:	4b87      	ldr	r3, [pc, #540]	; (80a0728 <_Z10fuzzy_initv+0x2d8>)
 80a050a:	4606      	mov	r6, r0
 80a050c:	6818      	ldr	r0, [r3, #0]
 80a050e:	f004 fb4f 	bl	80a4bb0 <__aeabi_i2f>
 80a0512:	4653      	mov	r3, sl
 80a0514:	9000      	str	r0, [sp, #0]
 80a0516:	464a      	mov	r2, r9
 80a0518:	4631      	mov	r1, r6
 80a051a:	4638      	mov	r0, r7
 80a051c:	f002 fbcf 	bl	80a2cbe <_ZN8FuzzySetC1Effff>
  LL_input->addFuzzySet(LL_low);
 80a0520:	4629      	mov	r1, r5
 80a0522:	4620      	mov	r0, r4
 80a0524:	f002 f96b 	bl	80a27fe <_ZN7FuzzyIO11addFuzzySetEP8FuzzySet>
  LL_input->addFuzzySet(LL_med);
  LL_input->addFuzzySet(LL_high);
  fuzzy->addFuzzyInput(LL_input);
 80a0528:	4e80      	ldr	r6, [pc, #512]	; (80a072c <_Z10fuzzy_initv+0x2dc>)
  FuzzyInput* LL_input = new FuzzyInput(1);
  FuzzySet* LL_low = new FuzzySet(low1, low2, low3, low4);
  FuzzySet* LL_med = new FuzzySet(med1, med2, med3, med4);
  FuzzySet* LL_high = new FuzzySet(high1, high2, high3, high4);
  LL_input->addFuzzySet(LL_low);
  LL_input->addFuzzySet(LL_med);
 80a052a:	4641      	mov	r1, r8
 80a052c:	4620      	mov	r0, r4
 80a052e:	f002 f966 	bl	80a27fe <_ZN7FuzzyIO11addFuzzySetEP8FuzzySet>
  LL_input->addFuzzySet(LL_high);
 80a0532:	4639      	mov	r1, r7
 80a0534:	4620      	mov	r0, r4
 80a0536:	f002 f962 	bl	80a27fe <_ZN7FuzzyIO11addFuzzySetEP8FuzzySet>
  fuzzy->addFuzzyInput(LL_input);
 80a053a:	4621      	mov	r1, r4
 80a053c:	6830      	ldr	r0, [r6, #0]
 80a053e:	f002 fc92 	bl	80a2e66 <_ZN5Fuzzy13addFuzzyInputEP10FuzzyInput>

  // INPUT: 2 of 4
  FuzzyInput* LM_input = new FuzzyInput(2);
 80a0542:	2010      	movs	r0, #16
 80a0544:	f7ff fda9 	bl	80a009a <_Znwj>
 80a0548:	46b3      	mov	fp, r6
 80a054a:	4604      	mov	r4, r0
 80a054c:	b110      	cbz	r0, 80a0554 <_Z10fuzzy_initv+0x104>
 80a054e:	2102      	movs	r1, #2
 80a0550:	f002 f939 	bl	80a27c6 <_ZN10FuzzyInputC1Ei>
  FuzzySet* LM_low = new FuzzySet(low1, low2, low3, low4);
 80a0554:	2014      	movs	r0, #20
 80a0556:	f7ff fda0 	bl	80a009a <_Znwj>
 80a055a:	4606      	mov	r6, r0
 80a055c:	b1c8      	cbz	r0, 80a0592 <_Z10fuzzy_initv+0x142>
 80a055e:	4b67      	ldr	r3, [pc, #412]	; (80a06fc <_Z10fuzzy_initv+0x2ac>)
 80a0560:	6818      	ldr	r0, [r3, #0]
 80a0562:	f004 fb25 	bl	80a4bb0 <__aeabi_i2f>
 80a0566:	4a66      	ldr	r2, [pc, #408]	; (80a0700 <_Z10fuzzy_initv+0x2b0>)
 80a0568:	9003      	str	r0, [sp, #12]
 80a056a:	6810      	ldr	r0, [r2, #0]
 80a056c:	f004 fb20 	bl	80a4bb0 <__aeabi_i2f>
 80a0570:	4a64      	ldr	r2, [pc, #400]	; (80a0704 <_Z10fuzzy_initv+0x2b4>)
 80a0572:	4682      	mov	sl, r0
 80a0574:	6810      	ldr	r0, [r2, #0]
 80a0576:	f004 fb1b 	bl	80a4bb0 <__aeabi_i2f>
 80a057a:	4a63      	ldr	r2, [pc, #396]	; (80a0708 <_Z10fuzzy_initv+0x2b8>)
 80a057c:	4681      	mov	r9, r0
 80a057e:	6810      	ldr	r0, [r2, #0]
 80a0580:	f004 fb16 	bl	80a4bb0 <__aeabi_i2f>
 80a0584:	9b03      	ldr	r3, [sp, #12]
 80a0586:	9000      	str	r0, [sp, #0]
 80a0588:	4652      	mov	r2, sl
 80a058a:	4649      	mov	r1, r9
 80a058c:	4630      	mov	r0, r6
 80a058e:	f002 fb96 	bl	80a2cbe <_ZN8FuzzySetC1Effff>
  FuzzySet* LM_med = new FuzzySet(med1, med2, med3, med4);
 80a0592:	2014      	movs	r0, #20
 80a0594:	f7ff fd81 	bl	80a009a <_Znwj>
 80a0598:	4681      	mov	r9, r0
 80a059a:	b1c8      	cbz	r0, 80a05d0 <_Z10fuzzy_initv+0x180>
 80a059c:	4b5b      	ldr	r3, [pc, #364]	; (80a070c <_Z10fuzzy_initv+0x2bc>)
 80a059e:	6818      	ldr	r0, [r3, #0]
 80a05a0:	f004 fb06 	bl	80a4bb0 <__aeabi_i2f>
 80a05a4:	4a5a      	ldr	r2, [pc, #360]	; (80a0710 <_Z10fuzzy_initv+0x2c0>)
 80a05a6:	9004      	str	r0, [sp, #16]
 80a05a8:	6810      	ldr	r0, [r2, #0]
 80a05aa:	f004 fb01 	bl	80a4bb0 <__aeabi_i2f>
 80a05ae:	4959      	ldr	r1, [pc, #356]	; (80a0714 <_Z10fuzzy_initv+0x2c4>)
 80a05b0:	9003      	str	r0, [sp, #12]
 80a05b2:	6808      	ldr	r0, [r1, #0]
 80a05b4:	f004 fafc 	bl	80a4bb0 <__aeabi_i2f>
 80a05b8:	4957      	ldr	r1, [pc, #348]	; (80a0718 <_Z10fuzzy_initv+0x2c8>)
 80a05ba:	4682      	mov	sl, r0
 80a05bc:	6808      	ldr	r0, [r1, #0]
 80a05be:	f004 faf7 	bl	80a4bb0 <__aeabi_i2f>
 80a05c2:	9b04      	ldr	r3, [sp, #16]
 80a05c4:	9000      	str	r0, [sp, #0]
 80a05c6:	9a03      	ldr	r2, [sp, #12]
 80a05c8:	4651      	mov	r1, sl
 80a05ca:	4648      	mov	r0, r9
 80a05cc:	f002 fb77 	bl	80a2cbe <_ZN8FuzzySetC1Effff>
  FuzzySet* LM_high = new FuzzySet(high1, high2, high3, high4);
 80a05d0:	2014      	movs	r0, #20
 80a05d2:	f7ff fd62 	bl	80a009a <_Znwj>
 80a05d6:	4682      	mov	sl, r0
 80a05d8:	b1c0      	cbz	r0, 80a060c <_Z10fuzzy_initv+0x1bc>
 80a05da:	4b50      	ldr	r3, [pc, #320]	; (80a071c <_Z10fuzzy_initv+0x2cc>)
 80a05dc:	6818      	ldr	r0, [r3, #0]
 80a05de:	f004 fae7 	bl	80a4bb0 <__aeabi_i2f>
 80a05e2:	4a4f      	ldr	r2, [pc, #316]	; (80a0720 <_Z10fuzzy_initv+0x2d0>)
 80a05e4:	9005      	str	r0, [sp, #20]
 80a05e6:	6810      	ldr	r0, [r2, #0]
 80a05e8:	f004 fae2 	bl	80a4bb0 <__aeabi_i2f>
 80a05ec:	494d      	ldr	r1, [pc, #308]	; (80a0724 <_Z10fuzzy_initv+0x2d4>)
 80a05ee:	9004      	str	r0, [sp, #16]
 80a05f0:	6808      	ldr	r0, [r1, #0]
 80a05f2:	f004 fadd 	bl	80a4bb0 <__aeabi_i2f>
 80a05f6:	9003      	str	r0, [sp, #12]
 80a05f8:	484b      	ldr	r0, [pc, #300]	; (80a0728 <_Z10fuzzy_initv+0x2d8>)
 80a05fa:	6800      	ldr	r0, [r0, #0]
 80a05fc:	f004 fad8 	bl	80a4bb0 <__aeabi_i2f>
 80a0600:	a903      	add	r1, sp, #12
 80a0602:	9000      	str	r0, [sp, #0]
 80a0604:	c90e      	ldmia	r1, {r1, r2, r3}
 80a0606:	4650      	mov	r0, sl
 80a0608:	f002 fb59 	bl	80a2cbe <_ZN8FuzzySetC1Effff>
  LM_input->addFuzzySet(LM_low);
 80a060c:	4631      	mov	r1, r6
 80a060e:	4620      	mov	r0, r4
 80a0610:	f002 f8f5 	bl	80a27fe <_ZN7FuzzyIO11addFuzzySetEP8FuzzySet>
  LM_input->addFuzzySet(LM_med);
 80a0614:	4649      	mov	r1, r9
 80a0616:	4620      	mov	r0, r4
 80a0618:	f002 f8f1 	bl	80a27fe <_ZN7FuzzyIO11addFuzzySetEP8FuzzySet>
  LM_input->addFuzzySet(LM_high);
 80a061c:	4651      	mov	r1, sl
 80a061e:	4620      	mov	r0, r4
 80a0620:	f002 f8ed 	bl	80a27fe <_ZN7FuzzyIO11addFuzzySetEP8FuzzySet>
  fuzzy->addFuzzyInput(LM_input);
 80a0624:	4621      	mov	r1, r4
 80a0626:	f8db 0000 	ldr.w	r0, [fp]
 80a062a:	f002 fc1c 	bl	80a2e66 <_ZN5Fuzzy13addFuzzyInputEP10FuzzyInput>

  // INPUT: 3 of 4
  FuzzyInput* RM_input = new FuzzyInput(3);
 80a062e:	2010      	movs	r0, #16
 80a0630:	f7ff fd33 	bl	80a009a <_Znwj>
 80a0634:	4604      	mov	r4, r0
 80a0636:	b110      	cbz	r0, 80a063e <_Z10fuzzy_initv+0x1ee>
 80a0638:	2103      	movs	r1, #3
 80a063a:	f002 f8c4 	bl	80a27c6 <_ZN10FuzzyInputC1Ei>
  FuzzySet* RM_low = new FuzzySet(low1, low2, low3, low4);
 80a063e:	2014      	movs	r0, #20
 80a0640:	f7ff fd2b 	bl	80a009a <_Znwj>
 80a0644:	9003      	str	r0, [sp, #12]
 80a0646:	b1c8      	cbz	r0, 80a067c <_Z10fuzzy_initv+0x22c>
 80a0648:	4b2c      	ldr	r3, [pc, #176]	; (80a06fc <_Z10fuzzy_initv+0x2ac>)
 80a064a:	6818      	ldr	r0, [r3, #0]
 80a064c:	f004 fab0 	bl	80a4bb0 <__aeabi_i2f>
 80a0650:	4a2b      	ldr	r2, [pc, #172]	; (80a0700 <_Z10fuzzy_initv+0x2b0>)
 80a0652:	9005      	str	r0, [sp, #20]
 80a0654:	6810      	ldr	r0, [r2, #0]
 80a0656:	f004 faab 	bl	80a4bb0 <__aeabi_i2f>
 80a065a:	492a      	ldr	r1, [pc, #168]	; (80a0704 <_Z10fuzzy_initv+0x2b4>)
 80a065c:	9004      	str	r0, [sp, #16]
 80a065e:	6808      	ldr	r0, [r1, #0]
 80a0660:	f004 faa6 	bl	80a4bb0 <__aeabi_i2f>
 80a0664:	4928      	ldr	r1, [pc, #160]	; (80a0708 <_Z10fuzzy_initv+0x2b8>)
 80a0666:	4683      	mov	fp, r0
 80a0668:	6808      	ldr	r0, [r1, #0]
 80a066a:	f004 faa1 	bl	80a4bb0 <__aeabi_i2f>
 80a066e:	9b05      	ldr	r3, [sp, #20]
 80a0670:	9000      	str	r0, [sp, #0]
 80a0672:	9a04      	ldr	r2, [sp, #16]
 80a0674:	4659      	mov	r1, fp
 80a0676:	9803      	ldr	r0, [sp, #12]
 80a0678:	f002 fb21 	bl	80a2cbe <_ZN8FuzzySetC1Effff>
  FuzzySet* RM_med = new FuzzySet(med1, med2, med3, med4);
 80a067c:	2014      	movs	r0, #20
 80a067e:	f7ff fd0c 	bl	80a009a <_Znwj>
 80a0682:	9004      	str	r0, [sp, #16]
 80a0684:	b1c8      	cbz	r0, 80a06ba <_Z10fuzzy_initv+0x26a>
 80a0686:	4b21      	ldr	r3, [pc, #132]	; (80a070c <_Z10fuzzy_initv+0x2bc>)
 80a0688:	6818      	ldr	r0, [r3, #0]
 80a068a:	f004 fa91 	bl	80a4bb0 <__aeabi_i2f>
 80a068e:	4a20      	ldr	r2, [pc, #128]	; (80a0710 <_Z10fuzzy_initv+0x2c0>)
 80a0690:	9006      	str	r0, [sp, #24]
 80a0692:	6810      	ldr	r0, [r2, #0]
 80a0694:	f004 fa8c 	bl	80a4bb0 <__aeabi_i2f>
 80a0698:	491e      	ldr	r1, [pc, #120]	; (80a0714 <_Z10fuzzy_initv+0x2c4>)
 80a069a:	9005      	str	r0, [sp, #20]
 80a069c:	6808      	ldr	r0, [r1, #0]
 80a069e:	f004 fa87 	bl	80a4bb0 <__aeabi_i2f>
 80a06a2:	491d      	ldr	r1, [pc, #116]	; (80a0718 <_Z10fuzzy_initv+0x2c8>)
 80a06a4:	4683      	mov	fp, r0
 80a06a6:	6808      	ldr	r0, [r1, #0]
 80a06a8:	f004 fa82 	bl	80a4bb0 <__aeabi_i2f>
 80a06ac:	9b06      	ldr	r3, [sp, #24]
 80a06ae:	9000      	str	r0, [sp, #0]
 80a06b0:	9a05      	ldr	r2, [sp, #20]
 80a06b2:	4659      	mov	r1, fp
 80a06b4:	9804      	ldr	r0, [sp, #16]
 80a06b6:	f002 fb02 	bl	80a2cbe <_ZN8FuzzySetC1Effff>
  FuzzySet* RM_high = new FuzzySet(high1, high2, high3, high4);
 80a06ba:	2014      	movs	r0, #20
 80a06bc:	f7ff fced 	bl	80a009a <_Znwj>
 80a06c0:	9005      	str	r0, [sp, #20]
 80a06c2:	2800      	cmp	r0, #0
 80a06c4:	d034      	beq.n	80a0730 <_Z10fuzzy_initv+0x2e0>
 80a06c6:	4b15      	ldr	r3, [pc, #84]	; (80a071c <_Z10fuzzy_initv+0x2cc>)
 80a06c8:	6818      	ldr	r0, [r3, #0]
 80a06ca:	f004 fa71 	bl	80a4bb0 <__aeabi_i2f>
 80a06ce:	4a14      	ldr	r2, [pc, #80]	; (80a0720 <_Z10fuzzy_initv+0x2d0>)
 80a06d0:	9007      	str	r0, [sp, #28]
 80a06d2:	6810      	ldr	r0, [r2, #0]
 80a06d4:	f004 fa6c 	bl	80a4bb0 <__aeabi_i2f>
 80a06d8:	4912      	ldr	r1, [pc, #72]	; (80a0724 <_Z10fuzzy_initv+0x2d4>)
 80a06da:	9006      	str	r0, [sp, #24]
 80a06dc:	6808      	ldr	r0, [r1, #0]
 80a06de:	f004 fa67 	bl	80a4bb0 <__aeabi_i2f>
 80a06e2:	4911      	ldr	r1, [pc, #68]	; (80a0728 <_Z10fuzzy_initv+0x2d8>)
 80a06e4:	4683      	mov	fp, r0
 80a06e6:	6808      	ldr	r0, [r1, #0]
 80a06e8:	f004 fa62 	bl	80a4bb0 <__aeabi_i2f>
 80a06ec:	9b07      	ldr	r3, [sp, #28]
 80a06ee:	9000      	str	r0, [sp, #0]
 80a06f0:	9a06      	ldr	r2, [sp, #24]
 80a06f2:	4659      	mov	r1, fp
 80a06f4:	9805      	ldr	r0, [sp, #20]
 80a06f6:	f002 fae2 	bl	80a2cbe <_ZN8FuzzySetC1Effff>
 80a06fa:	e019      	b.n	80a0730 <_Z10fuzzy_initv+0x2e0>
 80a06fc:	20000310 	.word	0x20000310
 80a0700:	2000030c 	.word	0x2000030c
 80a0704:	20000308 	.word	0x20000308
 80a0708:	20000314 	.word	0x20000314
 80a070c:	20000350 	.word	0x20000350
 80a0710:	2000034c 	.word	0x2000034c
 80a0714:	20000348 	.word	0x20000348
 80a0718:	20000354 	.word	0x20000354
 80a071c:	2000032c 	.word	0x2000032c
 80a0720:	20000334 	.word	0x20000334
 80a0724:	20000408 	.word	0x20000408
 80a0728:	20000330 	.word	0x20000330
 80a072c:	20000390 	.word	0x20000390
  RM_input->addFuzzySet(RM_low);
 80a0730:	9903      	ldr	r1, [sp, #12]
 80a0732:	4620      	mov	r0, r4
 80a0734:	f002 f863 	bl	80a27fe <_ZN7FuzzyIO11addFuzzySetEP8FuzzySet>
  RM_input->addFuzzySet(RM_med);
 80a0738:	9904      	ldr	r1, [sp, #16]
 80a073a:	4620      	mov	r0, r4
 80a073c:	f002 f85f 	bl	80a27fe <_ZN7FuzzyIO11addFuzzySetEP8FuzzySet>
  RM_input->addFuzzySet(RM_high);
 80a0740:	9905      	ldr	r1, [sp, #20]
 80a0742:	4620      	mov	r0, r4
 80a0744:	f002 f85b 	bl	80a27fe <_ZN7FuzzyIO11addFuzzySetEP8FuzzySet>
  fuzzy->addFuzzyInput(RM_input);
 80a0748:	4ba9      	ldr	r3, [pc, #676]	; (80a09f0 <_Z10fuzzy_initv+0x5a0>)
 80a074a:	4621      	mov	r1, r4
 80a074c:	6818      	ldr	r0, [r3, #0]
 80a074e:	f002 fb8a 	bl	80a2e66 <_ZN5Fuzzy13addFuzzyInputEP10FuzzyInput>

  // INPUT: 4 of 4
  FuzzyInput* RR_input = new FuzzyInput(4);
 80a0752:	2010      	movs	r0, #16
 80a0754:	f7ff fca1 	bl	80a009a <_Znwj>
 80a0758:	4683      	mov	fp, r0
 80a075a:	b110      	cbz	r0, 80a0762 <_Z10fuzzy_initv+0x312>
 80a075c:	2104      	movs	r1, #4
 80a075e:	f002 f832 	bl	80a27c6 <_ZN10FuzzyInputC1Ei>
  FuzzySet* RR_low = new FuzzySet(low1, low2, low3, low4);
 80a0762:	2014      	movs	r0, #20
 80a0764:	f7ff fc99 	bl	80a009a <_Znwj>
 80a0768:	4604      	mov	r4, r0
 80a076a:	b1c0      	cbz	r0, 80a079e <_Z10fuzzy_initv+0x34e>
 80a076c:	4ba1      	ldr	r3, [pc, #644]	; (80a09f4 <_Z10fuzzy_initv+0x5a4>)
 80a076e:	6818      	ldr	r0, [r3, #0]
 80a0770:	f004 fa1e 	bl	80a4bb0 <__aeabi_i2f>
 80a0774:	4aa0      	ldr	r2, [pc, #640]	; (80a09f8 <_Z10fuzzy_initv+0x5a8>)
 80a0776:	9008      	str	r0, [sp, #32]
 80a0778:	6810      	ldr	r0, [r2, #0]
 80a077a:	f004 fa19 	bl	80a4bb0 <__aeabi_i2f>
 80a077e:	499f      	ldr	r1, [pc, #636]	; (80a09fc <_Z10fuzzy_initv+0x5ac>)
 80a0780:	9007      	str	r0, [sp, #28]
 80a0782:	6808      	ldr	r0, [r1, #0]
 80a0784:	f004 fa14 	bl	80a4bb0 <__aeabi_i2f>
 80a0788:	9006      	str	r0, [sp, #24]
 80a078a:	489d      	ldr	r0, [pc, #628]	; (80a0a00 <_Z10fuzzy_initv+0x5b0>)
 80a078c:	6800      	ldr	r0, [r0, #0]
 80a078e:	f004 fa0f 	bl	80a4bb0 <__aeabi_i2f>
 80a0792:	a906      	add	r1, sp, #24
 80a0794:	9000      	str	r0, [sp, #0]
 80a0796:	c90e      	ldmia	r1, {r1, r2, r3}
 80a0798:	4620      	mov	r0, r4
 80a079a:	f002 fa90 	bl	80a2cbe <_ZN8FuzzySetC1Effff>
  FuzzySet* RR_med = new FuzzySet(med1, med2, med3, med4);
 80a079e:	2014      	movs	r0, #20
 80a07a0:	f7ff fc7b 	bl	80a009a <_Znwj>
 80a07a4:	9006      	str	r0, [sp, #24]
 80a07a6:	b1b8      	cbz	r0, 80a07d8 <_Z10fuzzy_initv+0x388>
 80a07a8:	4b96      	ldr	r3, [pc, #600]	; (80a0a04 <_Z10fuzzy_initv+0x5b4>)
 80a07aa:	6818      	ldr	r0, [r3, #0]
 80a07ac:	f004 fa00 	bl	80a4bb0 <__aeabi_i2f>
 80a07b0:	4a95      	ldr	r2, [pc, #596]	; (80a0a08 <_Z10fuzzy_initv+0x5b8>)
 80a07b2:	9009      	str	r0, [sp, #36]	; 0x24
 80a07b4:	6810      	ldr	r0, [r2, #0]
 80a07b6:	f004 f9fb 	bl	80a4bb0 <__aeabi_i2f>
 80a07ba:	4994      	ldr	r1, [pc, #592]	; (80a0a0c <_Z10fuzzy_initv+0x5bc>)
 80a07bc:	9008      	str	r0, [sp, #32]
 80a07be:	6808      	ldr	r0, [r1, #0]
 80a07c0:	f004 f9f6 	bl	80a4bb0 <__aeabi_i2f>
 80a07c4:	9007      	str	r0, [sp, #28]
 80a07c6:	4892      	ldr	r0, [pc, #584]	; (80a0a10 <_Z10fuzzy_initv+0x5c0>)
 80a07c8:	6800      	ldr	r0, [r0, #0]
 80a07ca:	f004 f9f1 	bl	80a4bb0 <__aeabi_i2f>
 80a07ce:	9000      	str	r0, [sp, #0]
 80a07d0:	a806      	add	r0, sp, #24
 80a07d2:	c80f      	ldmia	r0, {r0, r1, r2, r3}
 80a07d4:	f002 fa73 	bl	80a2cbe <_ZN8FuzzySetC1Effff>
  FuzzySet* RR_high = new FuzzySet(high1, high2, high3, high4);
 80a07d8:	2014      	movs	r0, #20
 80a07da:	f7ff fc5e 	bl	80a009a <_Znwj>
 80a07de:	9007      	str	r0, [sp, #28]
 80a07e0:	b1b8      	cbz	r0, 80a0812 <_Z10fuzzy_initv+0x3c2>
 80a07e2:	4b8c      	ldr	r3, [pc, #560]	; (80a0a14 <_Z10fuzzy_initv+0x5c4>)
 80a07e4:	6818      	ldr	r0, [r3, #0]
 80a07e6:	f004 f9e3 	bl	80a4bb0 <__aeabi_i2f>
 80a07ea:	4a8b      	ldr	r2, [pc, #556]	; (80a0a18 <_Z10fuzzy_initv+0x5c8>)
 80a07ec:	900a      	str	r0, [sp, #40]	; 0x28
 80a07ee:	6810      	ldr	r0, [r2, #0]
 80a07f0:	f004 f9de 	bl	80a4bb0 <__aeabi_i2f>
 80a07f4:	4989      	ldr	r1, [pc, #548]	; (80a0a1c <_Z10fuzzy_initv+0x5cc>)
 80a07f6:	9009      	str	r0, [sp, #36]	; 0x24
 80a07f8:	6808      	ldr	r0, [r1, #0]
 80a07fa:	f004 f9d9 	bl	80a4bb0 <__aeabi_i2f>
 80a07fe:	9008      	str	r0, [sp, #32]
 80a0800:	4887      	ldr	r0, [pc, #540]	; (80a0a20 <_Z10fuzzy_initv+0x5d0>)
 80a0802:	6800      	ldr	r0, [r0, #0]
 80a0804:	f004 f9d4 	bl	80a4bb0 <__aeabi_i2f>
 80a0808:	9000      	str	r0, [sp, #0]
 80a080a:	a807      	add	r0, sp, #28
 80a080c:	c80f      	ldmia	r0, {r0, r1, r2, r3}
 80a080e:	f002 fa56 	bl	80a2cbe <_ZN8FuzzySetC1Effff>
  RR_input->addFuzzySet(RR_low);
 80a0812:	4621      	mov	r1, r4
 80a0814:	4658      	mov	r0, fp
 80a0816:	f001 fff2 	bl	80a27fe <_ZN7FuzzyIO11addFuzzySetEP8FuzzySet>
  RR_input->addFuzzySet(RR_med);
 80a081a:	9906      	ldr	r1, [sp, #24]
 80a081c:	4658      	mov	r0, fp
 80a081e:	f001 ffee 	bl	80a27fe <_ZN7FuzzyIO11addFuzzySetEP8FuzzySet>
  RR_input->addFuzzySet(RR_high);
 80a0822:	9907      	ldr	r1, [sp, #28]
 80a0824:	4658      	mov	r0, fp
 80a0826:	f001 ffea 	bl	80a27fe <_ZN7FuzzyIO11addFuzzySetEP8FuzzySet>
  fuzzy->addFuzzyInput(RR_input);
 80a082a:	4b71      	ldr	r3, [pc, #452]	; (80a09f0 <_Z10fuzzy_initv+0x5a0>)
 80a082c:	4659      	mov	r1, fp
 80a082e:	6818      	ldr	r0, [r3, #0]
 80a0830:	f002 fb19 	bl	80a2e66 <_ZN5Fuzzy13addFuzzyInputEP10FuzzyInput>

  // OUTPUT: 1 of 1 (Test 1 *********************************)
  FuzzyOutput* drive_state = new FuzzyOutput(1);
 80a0834:	2018      	movs	r0, #24
 80a0836:	f7ff fc30 	bl	80a009a <_Znwj>
 80a083a:	4683      	mov	fp, r0
 80a083c:	b110      	cbz	r0, 80a0844 <_Z10fuzzy_initv+0x3f4>
 80a083e:	2101      	movs	r1, #1
 80a0840:	f001 fff9 	bl	80a2836 <_ZN11FuzzyOutputC1Ei>
  FuzzySet* full_left = new FuzzySet(0, 5, 15, 20);
 80a0844:	2014      	movs	r0, #20
 80a0846:	f7ff fc28 	bl	80a009a <_Znwj>
 80a084a:	900f      	str	r0, [sp, #60]	; 0x3c
 80a084c:	b130      	cbz	r0, 80a085c <_Z10fuzzy_initv+0x40c>
 80a084e:	4b75      	ldr	r3, [pc, #468]	; (80a0a24 <_Z10fuzzy_initv+0x5d4>)
 80a0850:	4a75      	ldr	r2, [pc, #468]	; (80a0a28 <_Z10fuzzy_initv+0x5d8>)
 80a0852:	9300      	str	r3, [sp, #0]
 80a0854:	2100      	movs	r1, #0
 80a0856:	4b75      	ldr	r3, [pc, #468]	; (80a0a2c <_Z10fuzzy_initv+0x5dc>)
 80a0858:	f002 fa31 	bl	80a2cbe <_ZN8FuzzySetC1Effff>
  FuzzySet* small_left = new FuzzySet(25, 30, 35, 40);
 80a085c:	2014      	movs	r0, #20
 80a085e:	f7ff fc1c 	bl	80a009a <_Znwj>
 80a0862:	9010      	str	r0, [sp, #64]	; 0x40
 80a0864:	b130      	cbz	r0, 80a0874 <_Z10fuzzy_initv+0x424>
 80a0866:	4b72      	ldr	r3, [pc, #456]	; (80a0a30 <_Z10fuzzy_initv+0x5e0>)
 80a0868:	4a72      	ldr	r2, [pc, #456]	; (80a0a34 <_Z10fuzzy_initv+0x5e4>)
 80a086a:	9300      	str	r3, [sp, #0]
 80a086c:	4972      	ldr	r1, [pc, #456]	; (80a0a38 <_Z10fuzzy_initv+0x5e8>)
 80a086e:	4b73      	ldr	r3, [pc, #460]	; (80a0a3c <_Z10fuzzy_initv+0x5ec>)
 80a0870:	f002 fa25 	bl	80a2cbe <_ZN8FuzzySetC1Effff>
  FuzzySet* center = new FuzzySet(45, 50, 55, 60);
 80a0874:	2014      	movs	r0, #20
 80a0876:	f7ff fc10 	bl	80a009a <_Znwj>
 80a087a:	9011      	str	r0, [sp, #68]	; 0x44
 80a087c:	b130      	cbz	r0, 80a088c <_Z10fuzzy_initv+0x43c>
 80a087e:	4b70      	ldr	r3, [pc, #448]	; (80a0a40 <_Z10fuzzy_initv+0x5f0>)
 80a0880:	4a70      	ldr	r2, [pc, #448]	; (80a0a44 <_Z10fuzzy_initv+0x5f4>)
 80a0882:	9300      	str	r3, [sp, #0]
 80a0884:	4970      	ldr	r1, [pc, #448]	; (80a0a48 <_Z10fuzzy_initv+0x5f8>)
 80a0886:	4b71      	ldr	r3, [pc, #452]	; (80a0a4c <_Z10fuzzy_initv+0x5fc>)
 80a0888:	f002 fa19 	bl	80a2cbe <_ZN8FuzzySetC1Effff>
  FuzzySet* small_right = new FuzzySet(65, 70, 75, 80);
 80a088c:	2014      	movs	r0, #20
 80a088e:	f7ff fc04 	bl	80a009a <_Znwj>
 80a0892:	9012      	str	r0, [sp, #72]	; 0x48
 80a0894:	b130      	cbz	r0, 80a08a4 <_Z10fuzzy_initv+0x454>
 80a0896:	4b6e      	ldr	r3, [pc, #440]	; (80a0a50 <_Z10fuzzy_initv+0x600>)
 80a0898:	4a6e      	ldr	r2, [pc, #440]	; (80a0a54 <_Z10fuzzy_initv+0x604>)
 80a089a:	9300      	str	r3, [sp, #0]
 80a089c:	496e      	ldr	r1, [pc, #440]	; (80a0a58 <_Z10fuzzy_initv+0x608>)
 80a089e:	4b6f      	ldr	r3, [pc, #444]	; (80a0a5c <_Z10fuzzy_initv+0x60c>)
 80a08a0:	f002 fa0d 	bl	80a2cbe <_ZN8FuzzySetC1Effff>
  FuzzySet* full_right = new FuzzySet(85, 90, 95, 100);
 80a08a4:	2014      	movs	r0, #20
 80a08a6:	f7ff fbf8 	bl	80a009a <_Znwj>
 80a08aa:	9013      	str	r0, [sp, #76]	; 0x4c
 80a08ac:	b130      	cbz	r0, 80a08bc <_Z10fuzzy_initv+0x46c>
 80a08ae:	4b6c      	ldr	r3, [pc, #432]	; (80a0a60 <_Z10fuzzy_initv+0x610>)
 80a08b0:	4a6c      	ldr	r2, [pc, #432]	; (80a0a64 <_Z10fuzzy_initv+0x614>)
 80a08b2:	9300      	str	r3, [sp, #0]
 80a08b4:	496c      	ldr	r1, [pc, #432]	; (80a0a68 <_Z10fuzzy_initv+0x618>)
 80a08b6:	4b6d      	ldr	r3, [pc, #436]	; (80a0a6c <_Z10fuzzy_initv+0x61c>)
 80a08b8:	f002 fa01 	bl	80a2cbe <_ZN8FuzzySetC1Effff>
  drive_state->addFuzzySet(full_left);
 80a08bc:	990f      	ldr	r1, [sp, #60]	; 0x3c
 80a08be:	4658      	mov	r0, fp
 80a08c0:	f001 ff9d 	bl	80a27fe <_ZN7FuzzyIO11addFuzzySetEP8FuzzySet>
  drive_state->addFuzzySet(small_left);
 80a08c4:	9910      	ldr	r1, [sp, #64]	; 0x40
 80a08c6:	4658      	mov	r0, fp
 80a08c8:	f001 ff99 	bl	80a27fe <_ZN7FuzzyIO11addFuzzySetEP8FuzzySet>
  drive_state->addFuzzySet(center);
 80a08cc:	9911      	ldr	r1, [sp, #68]	; 0x44
 80a08ce:	4658      	mov	r0, fp
 80a08d0:	f001 ff95 	bl	80a27fe <_ZN7FuzzyIO11addFuzzySetEP8FuzzySet>
  drive_state->addFuzzySet(small_right);
 80a08d4:	9912      	ldr	r1, [sp, #72]	; 0x48
 80a08d6:	4658      	mov	r0, fp
 80a08d8:	f001 ff91 	bl	80a27fe <_ZN7FuzzyIO11addFuzzySetEP8FuzzySet>
  drive_state->addFuzzySet(full_right);
 80a08dc:	9913      	ldr	r1, [sp, #76]	; 0x4c
 80a08de:	4658      	mov	r0, fp
 80a08e0:	f001 ff8d 	bl	80a27fe <_ZN7FuzzyIO11addFuzzySetEP8FuzzySet>
  fuzzy->addFuzzyOutput(drive_state);
 80a08e4:	4b42      	ldr	r3, [pc, #264]	; (80a09f0 <_Z10fuzzy_initv+0x5a0>)
 80a08e6:	4659      	mov	r1, fp
 80a08e8:	6818      	ldr	r0, [r3, #0]
 80a08ea:	f002 facf 	bl	80a2e8c <_ZN5Fuzzy14addFuzzyOutputEP11FuzzyOutput>

  // Building Left FuzzyRuleAntecedents (ALL COMBINATIONS)
  FuzzyRuleAntecedent* left_low_high = new FuzzyRuleAntecedent();
 80a08ee:	2018      	movs	r0, #24
 80a08f0:	f7ff fbd3 	bl	80a009a <_Znwj>
 80a08f4:	900e      	str	r0, [sp, #56]	; 0x38
 80a08f6:	b108      	cbz	r0, 80a08fc <_Z10fuzzy_initv+0x4ac>
 80a08f8:	f002 fb40 	bl	80a2f7c <_ZN19FuzzyRuleAntecedentC1Ev>
  left_low_high->joinWithAND(LL_low, LM_high);
 80a08fc:	4652      	mov	r2, sl
 80a08fe:	4629      	mov	r1, r5
 80a0900:	980e      	ldr	r0, [sp, #56]	; 0x38
 80a0902:	f002 fb43 	bl	80a2f8c <_ZN19FuzzyRuleAntecedent11joinWithANDEP8FuzzySetS1_>
  FuzzyRuleAntecedent* left_med_high = new FuzzyRuleAntecedent();
 80a0906:	2018      	movs	r0, #24
 80a0908:	f7ff fbc7 	bl	80a009a <_Znwj>
 80a090c:	9009      	str	r0, [sp, #36]	; 0x24
 80a090e:	b108      	cbz	r0, 80a0914 <_Z10fuzzy_initv+0x4c4>
 80a0910:	f002 fb34 	bl	80a2f7c <_ZN19FuzzyRuleAntecedentC1Ev>
  left_med_high->joinWithAND(LL_med, LM_high);
 80a0914:	4652      	mov	r2, sl
 80a0916:	4641      	mov	r1, r8
 80a0918:	9809      	ldr	r0, [sp, #36]	; 0x24
 80a091a:	f002 fb37 	bl	80a2f8c <_ZN19FuzzyRuleAntecedent11joinWithANDEP8FuzzySetS1_>
  FuzzyRuleAntecedent* left_low_med = new FuzzyRuleAntecedent();
 80a091e:	2018      	movs	r0, #24
 80a0920:	f7ff fbbb 	bl	80a009a <_Znwj>
 80a0924:	900a      	str	r0, [sp, #40]	; 0x28
 80a0926:	b108      	cbz	r0, 80a092c <_Z10fuzzy_initv+0x4dc>
 80a0928:	f002 fb28 	bl	80a2f7c <_ZN19FuzzyRuleAntecedentC1Ev>
  left_low_med->joinWithAND(LL_low, LM_med);
 80a092c:	464a      	mov	r2, r9
 80a092e:	4629      	mov	r1, r5
 80a0930:	980a      	ldr	r0, [sp, #40]	; 0x28
 80a0932:	f002 fb2b 	bl	80a2f8c <_ZN19FuzzyRuleAntecedent11joinWithANDEP8FuzzySetS1_>
  FuzzyRuleAntecedent* left_med_med = new FuzzyRuleAntecedent();
 80a0936:	2018      	movs	r0, #24
 80a0938:	f7ff fbaf 	bl	80a009a <_Znwj>
 80a093c:	9008      	str	r0, [sp, #32]
 80a093e:	b108      	cbz	r0, 80a0944 <_Z10fuzzy_initv+0x4f4>
 80a0940:	f002 fb1c 	bl	80a2f7c <_ZN19FuzzyRuleAntecedentC1Ev>
  left_med_med->joinWithAND(LL_med, LM_med);
 80a0944:	464a      	mov	r2, r9
 80a0946:	4641      	mov	r1, r8
 80a0948:	9808      	ldr	r0, [sp, #32]
 80a094a:	f002 fb1f 	bl	80a2f8c <_ZN19FuzzyRuleAntecedent11joinWithANDEP8FuzzySetS1_>
  FuzzyRuleAntecedent* left_high_high = new FuzzyRuleAntecedent();
 80a094e:	2018      	movs	r0, #24
 80a0950:	f7ff fba3 	bl	80a009a <_Znwj>
 80a0954:	900d      	str	r0, [sp, #52]	; 0x34
 80a0956:	b108      	cbz	r0, 80a095c <_Z10fuzzy_initv+0x50c>
 80a0958:	f002 fb10 	bl	80a2f7c <_ZN19FuzzyRuleAntecedentC1Ev>
  left_high_high->joinWithAND(LL_high, LM_high);
 80a095c:	4652      	mov	r2, sl
 80a095e:	4639      	mov	r1, r7
 80a0960:	980d      	ldr	r0, [sp, #52]	; 0x34
 80a0962:	f002 fb13 	bl	80a2f8c <_ZN19FuzzyRuleAntecedent11joinWithANDEP8FuzzySetS1_>
  FuzzyRuleAntecedent* left_high_med = new FuzzyRuleAntecedent();
 80a0966:	2018      	movs	r0, #24
 80a0968:	f7ff fb97 	bl	80a009a <_Znwj>
 80a096c:	9014      	str	r0, [sp, #80]	; 0x50
 80a096e:	b108      	cbz	r0, 80a0974 <_Z10fuzzy_initv+0x524>
 80a0970:	f002 fb04 	bl	80a2f7c <_ZN19FuzzyRuleAntecedentC1Ev>
  left_high_med->joinWithAND(LL_high, LM_med);
 80a0974:	464a      	mov	r2, r9
 80a0976:	4639      	mov	r1, r7
 80a0978:	9814      	ldr	r0, [sp, #80]	; 0x50
 80a097a:	f002 fb07 	bl	80a2f8c <_ZN19FuzzyRuleAntecedent11joinWithANDEP8FuzzySetS1_>
  FuzzyRuleAntecedent* left_med_low = new FuzzyRuleAntecedent();
 80a097e:	2018      	movs	r0, #24
 80a0980:	f7ff fb8b 	bl	80a009a <_Znwj>
 80a0984:	9015      	str	r0, [sp, #84]	; 0x54
 80a0986:	b108      	cbz	r0, 80a098c <_Z10fuzzy_initv+0x53c>
 80a0988:	f002 faf8 	bl	80a2f7c <_ZN19FuzzyRuleAntecedentC1Ev>
  left_med_low->joinWithAND(LL_med, LM_low);
 80a098c:	4632      	mov	r2, r6
 80a098e:	4641      	mov	r1, r8
 80a0990:	9815      	ldr	r0, [sp, #84]	; 0x54
 80a0992:	f002 fafb 	bl	80a2f8c <_ZN19FuzzyRuleAntecedent11joinWithANDEP8FuzzySetS1_>
  FuzzyRuleAntecedent* left_high_low = new FuzzyRuleAntecedent();
 80a0996:	2018      	movs	r0, #24
 80a0998:	f7ff fb7f 	bl	80a009a <_Znwj>
 80a099c:	9016      	str	r0, [sp, #88]	; 0x58
 80a099e:	b108      	cbz	r0, 80a09a4 <_Z10fuzzy_initv+0x554>
 80a09a0:	f002 faec 	bl	80a2f7c <_ZN19FuzzyRuleAntecedentC1Ev>
  left_high_low->joinWithAND(LL_high, LM_low);
 80a09a4:	4639      	mov	r1, r7
 80a09a6:	4632      	mov	r2, r6
 80a09a8:	9816      	ldr	r0, [sp, #88]	; 0x58
 80a09aa:	f002 faef 	bl	80a2f8c <_ZN19FuzzyRuleAntecedent11joinWithANDEP8FuzzySetS1_>
  FuzzyRuleAntecedent* left_low_low = new FuzzyRuleAntecedent();
 80a09ae:	2018      	movs	r0, #24
 80a09b0:	f7ff fb73 	bl	80a009a <_Znwj>
 80a09b4:	4607      	mov	r7, r0
 80a09b6:	b108      	cbz	r0, 80a09bc <_Z10fuzzy_initv+0x56c>
 80a09b8:	f002 fae0 	bl	80a2f7c <_ZN19FuzzyRuleAntecedentC1Ev>
  left_low_low->joinWithAND(LL_low, LM_low);
 80a09bc:	4632      	mov	r2, r6
 80a09be:	4629      	mov	r1, r5
 80a09c0:	4638      	mov	r0, r7
 80a09c2:	f002 fae3 	bl	80a2f8c <_ZN19FuzzyRuleAntecedent11joinWithANDEP8FuzzySetS1_>

  // Building Right FuzzyRuleAntecedents
  FuzzyRuleAntecedent* right_high_low = new FuzzyRuleAntecedent();
 80a09c6:	2018      	movs	r0, #24
 80a09c8:	f7ff fb67 	bl	80a009a <_Znwj>
 80a09cc:	4606      	mov	r6, r0
 80a09ce:	b108      	cbz	r0, 80a09d4 <_Z10fuzzy_initv+0x584>
 80a09d0:	f002 fad4 	bl	80a2f7c <_ZN19FuzzyRuleAntecedentC1Ev>
  right_high_low->joinWithAND(RM_high, RR_low);
 80a09d4:	4622      	mov	r2, r4
 80a09d6:	9905      	ldr	r1, [sp, #20]
 80a09d8:	4630      	mov	r0, r6
 80a09da:	f002 fad7 	bl	80a2f8c <_ZN19FuzzyRuleAntecedent11joinWithANDEP8FuzzySetS1_>
  FuzzyRuleAntecedent* right_high_med = new FuzzyRuleAntecedent();
 80a09de:	2018      	movs	r0, #24
 80a09e0:	f7ff fb5b 	bl	80a009a <_Znwj>
 80a09e4:	900b      	str	r0, [sp, #44]	; 0x2c
 80a09e6:	2800      	cmp	r0, #0
 80a09e8:	d042      	beq.n	80a0a70 <_Z10fuzzy_initv+0x620>
 80a09ea:	f002 fac7 	bl	80a2f7c <_ZN19FuzzyRuleAntecedentC1Ev>
 80a09ee:	e03f      	b.n	80a0a70 <_Z10fuzzy_initv+0x620>
 80a09f0:	20000390 	.word	0x20000390
 80a09f4:	20000310 	.word	0x20000310
 80a09f8:	2000030c 	.word	0x2000030c
 80a09fc:	20000308 	.word	0x20000308
 80a0a00:	20000314 	.word	0x20000314
 80a0a04:	20000350 	.word	0x20000350
 80a0a08:	2000034c 	.word	0x2000034c
 80a0a0c:	20000348 	.word	0x20000348
 80a0a10:	20000354 	.word	0x20000354
 80a0a14:	2000032c 	.word	0x2000032c
 80a0a18:	20000334 	.word	0x20000334
 80a0a1c:	20000408 	.word	0x20000408
 80a0a20:	20000330 	.word	0x20000330
 80a0a24:	41a00000 	.word	0x41a00000
 80a0a28:	40a00000 	.word	0x40a00000
 80a0a2c:	41700000 	.word	0x41700000
 80a0a30:	42200000 	.word	0x42200000
 80a0a34:	41f00000 	.word	0x41f00000
 80a0a38:	41c80000 	.word	0x41c80000
 80a0a3c:	420c0000 	.word	0x420c0000
 80a0a40:	42700000 	.word	0x42700000
 80a0a44:	42480000 	.word	0x42480000
 80a0a48:	42340000 	.word	0x42340000
 80a0a4c:	425c0000 	.word	0x425c0000
 80a0a50:	42a00000 	.word	0x42a00000
 80a0a54:	428c0000 	.word	0x428c0000
 80a0a58:	42820000 	.word	0x42820000
 80a0a5c:	42960000 	.word	0x42960000
 80a0a60:	42c80000 	.word	0x42c80000
 80a0a64:	42b40000 	.word	0x42b40000
 80a0a68:	42aa0000 	.word	0x42aa0000
 80a0a6c:	42be0000 	.word	0x42be0000
  right_high_med->joinWithAND(RM_high, RR_med);
 80a0a70:	9a06      	ldr	r2, [sp, #24]
 80a0a72:	9905      	ldr	r1, [sp, #20]
 80a0a74:	980b      	ldr	r0, [sp, #44]	; 0x2c
 80a0a76:	f002 fa89 	bl	80a2f8c <_ZN19FuzzyRuleAntecedent11joinWithANDEP8FuzzySetS1_>
  FuzzyRuleAntecedent* right_med_low = new FuzzyRuleAntecedent();
 80a0a7a:	2018      	movs	r0, #24
 80a0a7c:	f7ff fb0d 	bl	80a009a <_Znwj>
 80a0a80:	900c      	str	r0, [sp, #48]	; 0x30
 80a0a82:	b108      	cbz	r0, 80a0a88 <_Z10fuzzy_initv+0x638>
 80a0a84:	f002 fa7a 	bl	80a2f7c <_ZN19FuzzyRuleAntecedentC1Ev>
  right_med_low->joinWithAND(RM_med, RR_low);
 80a0a88:	4622      	mov	r2, r4
 80a0a8a:	9904      	ldr	r1, [sp, #16]
 80a0a8c:	980c      	ldr	r0, [sp, #48]	; 0x30
 80a0a8e:	f002 fa7d 	bl	80a2f8c <_ZN19FuzzyRuleAntecedent11joinWithANDEP8FuzzySetS1_>
  FuzzyRuleAntecedent* right_low_med = new FuzzyRuleAntecedent();
 80a0a92:	2018      	movs	r0, #24
 80a0a94:	f7ff fb01 	bl	80a009a <_Znwj>
 80a0a98:	9017      	str	r0, [sp, #92]	; 0x5c
 80a0a9a:	b108      	cbz	r0, 80a0aa0 <_Z10fuzzy_initv+0x650>
 80a0a9c:	f002 fa6e 	bl	80a2f7c <_ZN19FuzzyRuleAntecedentC1Ev>
  right_low_med->joinWithAND(RM_low, RR_med);
 80a0aa0:	9a06      	ldr	r2, [sp, #24]
 80a0aa2:	9903      	ldr	r1, [sp, #12]
 80a0aa4:	9817      	ldr	r0, [sp, #92]	; 0x5c
 80a0aa6:	f002 fa71 	bl	80a2f8c <_ZN19FuzzyRuleAntecedent11joinWithANDEP8FuzzySetS1_>
  FuzzyRuleAntecedent* right_low_low = new FuzzyRuleAntecedent();
 80a0aaa:	2018      	movs	r0, #24
 80a0aac:	f7ff faf5 	bl	80a009a <_Znwj>
 80a0ab0:	4605      	mov	r5, r0
 80a0ab2:	b108      	cbz	r0, 80a0ab8 <_Z10fuzzy_initv+0x668>
 80a0ab4:	f002 fa62 	bl	80a2f7c <_ZN19FuzzyRuleAntecedentC1Ev>
  right_low_low->joinWithAND(RM_low, RR_low);
 80a0ab8:	4622      	mov	r2, r4
 80a0aba:	9903      	ldr	r1, [sp, #12]
 80a0abc:	4628      	mov	r0, r5
 80a0abe:	f002 fa65 	bl	80a2f8c <_ZN19FuzzyRuleAntecedent11joinWithANDEP8FuzzySetS1_>
  FuzzyRuleAntecedent* right_med_med = new FuzzyRuleAntecedent();
 80a0ac2:	2018      	movs	r0, #24
 80a0ac4:	f7ff fae9 	bl	80a009a <_Znwj>
 80a0ac8:	4683      	mov	fp, r0
 80a0aca:	b108      	cbz	r0, 80a0ad0 <_Z10fuzzy_initv+0x680>
 80a0acc:	f002 fa56 	bl	80a2f7c <_ZN19FuzzyRuleAntecedentC1Ev>
  right_med_med->joinWithAND(RM_med, RR_med);
 80a0ad0:	9a06      	ldr	r2, [sp, #24]
 80a0ad2:	9904      	ldr	r1, [sp, #16]
 80a0ad4:	4658      	mov	r0, fp
 80a0ad6:	f002 fa59 	bl	80a2f8c <_ZN19FuzzyRuleAntecedent11joinWithANDEP8FuzzySetS1_>
  FuzzyRuleAntecedent* right_low_high = new FuzzyRuleAntecedent();
 80a0ada:	2018      	movs	r0, #24
 80a0adc:	f7ff fadd 	bl	80a009a <_Znwj>
 80a0ae0:	9006      	str	r0, [sp, #24]
 80a0ae2:	b108      	cbz	r0, 80a0ae8 <_Z10fuzzy_initv+0x698>
 80a0ae4:	f002 fa4a 	bl	80a2f7c <_ZN19FuzzyRuleAntecedentC1Ev>
  right_low_high->joinWithAND(RM_low, RR_high);
 80a0ae8:	9a07      	ldr	r2, [sp, #28]
 80a0aea:	9903      	ldr	r1, [sp, #12]
 80a0aec:	9806      	ldr	r0, [sp, #24]
 80a0aee:	f002 fa4d 	bl	80a2f8c <_ZN19FuzzyRuleAntecedent11joinWithANDEP8FuzzySetS1_>
  FuzzyRuleAntecedent* right_high_high = new FuzzyRuleAntecedent();
 80a0af2:	2018      	movs	r0, #24
 80a0af4:	f7ff fad1 	bl	80a009a <_Znwj>
 80a0af8:	9003      	str	r0, [sp, #12]
 80a0afa:	b108      	cbz	r0, 80a0b00 <_Z10fuzzy_initv+0x6b0>
 80a0afc:	f002 fa3e 	bl	80a2f7c <_ZN19FuzzyRuleAntecedentC1Ev>
  right_high_high->joinWithAND(RM_high, RR_high);
 80a0b00:	9a07      	ldr	r2, [sp, #28]
 80a0b02:	9905      	ldr	r1, [sp, #20]
 80a0b04:	9803      	ldr	r0, [sp, #12]
 80a0b06:	f002 fa41 	bl	80a2f8c <_ZN19FuzzyRuleAntecedent11joinWithANDEP8FuzzySetS1_>
  FuzzyRuleAntecedent* right_med_high = new FuzzyRuleAntecedent();
 80a0b0a:	2018      	movs	r0, #24
 80a0b0c:	f7ff fac5 	bl	80a009a <_Znwj>
 80a0b10:	9005      	str	r0, [sp, #20]
 80a0b12:	b108      	cbz	r0, 80a0b18 <_Z10fuzzy_initv+0x6c8>
 80a0b14:	f002 fa32 	bl	80a2f7c <_ZN19FuzzyRuleAntecedentC1Ev>
  right_med_high->joinWithAND(RM_med, RR_high);
 80a0b18:	9a07      	ldr	r2, [sp, #28]
 80a0b1a:	9904      	ldr	r1, [sp, #16]
 80a0b1c:	9805      	ldr	r0, [sp, #20]
 80a0b1e:	f002 fa35 	bl	80a2f8c <_ZN19FuzzyRuleAntecedent11joinWithANDEP8FuzzySetS1_>

  // Building drive FuzzyRuleConsequents (Test 1 *********************************)
  // NOTE: you can add multiple outputs to 1 consequent
  FuzzyRuleConsequent* drive_center = new FuzzyRuleConsequent();
 80a0b22:	2008      	movs	r0, #8
 80a0b24:	f7ff fab9 	bl	80a009a <_Znwj>
 80a0b28:	4681      	mov	r9, r0
 80a0b2a:	b108      	cbz	r0, 80a0b30 <_Z10fuzzy_initv+0x6e0>
 80a0b2c:	f002 f970 	bl	80a2e10 <_ZN19FuzzyRuleConsequentC1Ev>
  drive_center->addOutput(center);
 80a0b30:	9911      	ldr	r1, [sp, #68]	; 0x44
 80a0b32:	4648      	mov	r0, r9
 80a0b34:	f002 f970 	bl	80a2e18 <_ZN19FuzzyRuleConsequent9addOutputEP8FuzzySet>
  FuzzyRuleConsequent* drive_small_left = new FuzzyRuleConsequent();
 80a0b38:	2008      	movs	r0, #8
 80a0b3a:	f7ff faae 	bl	80a009a <_Znwj>
 80a0b3e:	4680      	mov	r8, r0
 80a0b40:	b108      	cbz	r0, 80a0b46 <_Z10fuzzy_initv+0x6f6>
 80a0b42:	f002 f965 	bl	80a2e10 <_ZN19FuzzyRuleConsequentC1Ev>
  drive_small_left->addOutput(small_left);  
 80a0b46:	9910      	ldr	r1, [sp, #64]	; 0x40
 80a0b48:	4640      	mov	r0, r8
 80a0b4a:	f002 f965 	bl	80a2e18 <_ZN19FuzzyRuleConsequent9addOutputEP8FuzzySet>
  FuzzyRuleConsequent* drive_full_left = new FuzzyRuleConsequent();
 80a0b4e:	2008      	movs	r0, #8
 80a0b50:	f7ff faa3 	bl	80a009a <_Znwj>
 80a0b54:	9004      	str	r0, [sp, #16]
 80a0b56:	b108      	cbz	r0, 80a0b5c <_Z10fuzzy_initv+0x70c>
 80a0b58:	f002 f95a 	bl	80a2e10 <_ZN19FuzzyRuleConsequentC1Ev>
  drive_full_left->addOutput(full_left);
 80a0b5c:	990f      	ldr	r1, [sp, #60]	; 0x3c
 80a0b5e:	9804      	ldr	r0, [sp, #16]
 80a0b60:	f002 f95a 	bl	80a2e18 <_ZN19FuzzyRuleConsequent9addOutputEP8FuzzySet>
  FuzzyRuleConsequent* drive_full_right = new FuzzyRuleConsequent();
 80a0b64:	2008      	movs	r0, #8
 80a0b66:	f7ff fa98 	bl	80a009a <_Znwj>
 80a0b6a:	9007      	str	r0, [sp, #28]
 80a0b6c:	b108      	cbz	r0, 80a0b72 <_Z10fuzzy_initv+0x722>
 80a0b6e:	f002 f94f 	bl	80a2e10 <_ZN19FuzzyRuleConsequentC1Ev>
  drive_full_right->addOutput(full_right);
 80a0b72:	9913      	ldr	r1, [sp, #76]	; 0x4c
 80a0b74:	9807      	ldr	r0, [sp, #28]
 80a0b76:	f002 f94f 	bl	80a2e18 <_ZN19FuzzyRuleConsequent9addOutputEP8FuzzySet>
  FuzzyRuleConsequent* drive_small_right = new FuzzyRuleConsequent();
 80a0b7a:	2008      	movs	r0, #8
 80a0b7c:	f7ff fa8d 	bl	80a009a <_Znwj>
 80a0b80:	4604      	mov	r4, r0
 80a0b82:	b108      	cbz	r0, 80a0b88 <_Z10fuzzy_initv+0x738>
 80a0b84:	f002 f944 	bl	80a2e10 <_ZN19FuzzyRuleConsequentC1Ev>
  drive_small_right->addOutput(small_right);
 80a0b88:	9912      	ldr	r1, [sp, #72]	; 0x48
 80a0b8a:	4620      	mov	r0, r4
 80a0b8c:	f002 f944 	bl	80a2e18 <_ZN19FuzzyRuleConsequent9addOutputEP8FuzzySet>

  // Building Complete FuzzyRuleAntedecents (Test 1 *********************************)
  // Combining (2) Left and (2) Right antecedents, merging with (1) drive consequent
  // And adding the FuzzyRules
  FuzzyRuleAntecedent* LHHL = new FuzzyRuleAntecedent();
 80a0b90:	2018      	movs	r0, #24
 80a0b92:	f7ff fa82 	bl	80a009a <_Znwj>
 80a0b96:	4682      	mov	sl, r0
 80a0b98:	b108      	cbz	r0, 80a0b9e <_Z10fuzzy_initv+0x74e>
 80a0b9a:	f002 f9ef 	bl	80a2f7c <_ZN19FuzzyRuleAntecedentC1Ev>
  LHHL->joinWithAND(left_low_high, right_high_low);
 80a0b9e:	4632      	mov	r2, r6
 80a0ba0:	990e      	ldr	r1, [sp, #56]	; 0x38
 80a0ba2:	4650      	mov	r0, sl
 80a0ba4:	f002 fa01 	bl	80a2faa <_ZN19FuzzyRuleAntecedent11joinWithANDEPS_S0_>
  FuzzyRule* fr1 = new FuzzyRule(1, LHHL, drive_center);
 80a0ba8:	2010      	movs	r0, #16
 80a0baa:	f7ff fa76 	bl	80a009a <_Znwj>
 80a0bae:	900f      	str	r0, [sp, #60]	; 0x3c
 80a0bb0:	b120      	cbz	r0, 80a0bbc <_Z10fuzzy_initv+0x76c>
 80a0bb2:	464b      	mov	r3, r9
 80a0bb4:	4652      	mov	r2, sl
 80a0bb6:	2101      	movs	r1, #1
 80a0bb8:	f001 fbce 	bl	80a2358 <_ZN9FuzzyRuleC1EiP19FuzzyRuleAntecedentP19FuzzyRuleConsequent>
  fuzzy->addFuzzyRule(fr1);
 80a0bbc:	4bb5      	ldr	r3, [pc, #724]	; (80a0e94 <_Z10fuzzy_initv+0xa44>)
 80a0bbe:	990f      	ldr	r1, [sp, #60]	; 0x3c
 80a0bc0:	6818      	ldr	r0, [r3, #0]
 80a0bc2:	f002 f97b 	bl	80a2ebc <_ZN5Fuzzy12addFuzzyRuleEP9FuzzyRule>

  FuzzyRuleAntecedent* MHHL = new FuzzyRuleAntecedent();
 80a0bc6:	2018      	movs	r0, #24
 80a0bc8:	f7ff fa67 	bl	80a009a <_Znwj>
 80a0bcc:	4682      	mov	sl, r0
 80a0bce:	b108      	cbz	r0, 80a0bd4 <_Z10fuzzy_initv+0x784>
 80a0bd0:	f002 f9d4 	bl	80a2f7c <_ZN19FuzzyRuleAntecedentC1Ev>
  MHHL->joinWithAND(left_med_high, right_high_low);
 80a0bd4:	4632      	mov	r2, r6
 80a0bd6:	9909      	ldr	r1, [sp, #36]	; 0x24
 80a0bd8:	4650      	mov	r0, sl
 80a0bda:	f002 f9e6 	bl	80a2faa <_ZN19FuzzyRuleAntecedent11joinWithANDEPS_S0_>
  FuzzyRule* fr2 = new FuzzyRule(2, MHHL, drive_center);
 80a0bde:	2010      	movs	r0, #16
 80a0be0:	f7ff fa5b 	bl	80a009a <_Znwj>
 80a0be4:	4606      	mov	r6, r0
 80a0be6:	b120      	cbz	r0, 80a0bf2 <_Z10fuzzy_initv+0x7a2>
 80a0be8:	464b      	mov	r3, r9
 80a0bea:	4652      	mov	r2, sl
 80a0bec:	2102      	movs	r1, #2
 80a0bee:	f001 fbb3 	bl	80a2358 <_ZN9FuzzyRuleC1EiP19FuzzyRuleAntecedentP19FuzzyRuleConsequent>
  fuzzy->addFuzzyRule(fr2); 
 80a0bf2:	4ba8      	ldr	r3, [pc, #672]	; (80a0e94 <_Z10fuzzy_initv+0xa44>)
 80a0bf4:	4631      	mov	r1, r6
 80a0bf6:	6818      	ldr	r0, [r3, #0]
 80a0bf8:	f002 f960 	bl	80a2ebc <_ZN5Fuzzy12addFuzzyRuleEP9FuzzyRule>

  FuzzyRuleAntecedent* LHHM = new FuzzyRuleAntecedent();
 80a0bfc:	2018      	movs	r0, #24
 80a0bfe:	f7ff fa4c 	bl	80a009a <_Znwj>
 80a0c02:	4606      	mov	r6, r0
 80a0c04:	b108      	cbz	r0, 80a0c0a <_Z10fuzzy_initv+0x7ba>
 80a0c06:	f002 f9b9 	bl	80a2f7c <_ZN19FuzzyRuleAntecedentC1Ev>
  LHHM->joinWithAND(left_low_high, right_high_med);
 80a0c0a:	9a0b      	ldr	r2, [sp, #44]	; 0x2c
 80a0c0c:	990e      	ldr	r1, [sp, #56]	; 0x38
 80a0c0e:	4630      	mov	r0, r6
 80a0c10:	f002 f9cb 	bl	80a2faa <_ZN19FuzzyRuleAntecedent11joinWithANDEPS_S0_>
  FuzzyRule* fr3 = new FuzzyRule(3, LHHM, drive_center);
 80a0c14:	2010      	movs	r0, #16
 80a0c16:	f7ff fa40 	bl	80a009a <_Znwj>
 80a0c1a:	4682      	mov	sl, r0
 80a0c1c:	b120      	cbz	r0, 80a0c28 <_Z10fuzzy_initv+0x7d8>
 80a0c1e:	464b      	mov	r3, r9
 80a0c20:	4632      	mov	r2, r6
 80a0c22:	2103      	movs	r1, #3
 80a0c24:	f001 fb98 	bl	80a2358 <_ZN9FuzzyRuleC1EiP19FuzzyRuleAntecedentP19FuzzyRuleConsequent>
  fuzzy->addFuzzyRule(fr3);
 80a0c28:	4b9a      	ldr	r3, [pc, #616]	; (80a0e94 <_Z10fuzzy_initv+0xa44>)
 80a0c2a:	4651      	mov	r1, sl
 80a0c2c:	6818      	ldr	r0, [r3, #0]
 80a0c2e:	f002 f945 	bl	80a2ebc <_ZN5Fuzzy12addFuzzyRuleEP9FuzzyRule>

  FuzzyRuleAntecedent* LMML = new FuzzyRuleAntecedent();
 80a0c32:	2018      	movs	r0, #24
 80a0c34:	f7ff fa31 	bl	80a009a <_Znwj>
 80a0c38:	4606      	mov	r6, r0
 80a0c3a:	b108      	cbz	r0, 80a0c40 <_Z10fuzzy_initv+0x7f0>
 80a0c3c:	f002 f99e 	bl	80a2f7c <_ZN19FuzzyRuleAntecedentC1Ev>
  LMML->joinWithAND(left_low_med, right_med_low);
 80a0c40:	9a0c      	ldr	r2, [sp, #48]	; 0x30
 80a0c42:	990a      	ldr	r1, [sp, #40]	; 0x28
 80a0c44:	4630      	mov	r0, r6
 80a0c46:	f002 f9b0 	bl	80a2faa <_ZN19FuzzyRuleAntecedent11joinWithANDEPS_S0_>
  FuzzyRule* fr4 = new FuzzyRule(4, LMML, drive_center);
 80a0c4a:	2010      	movs	r0, #16
 80a0c4c:	f7ff fa25 	bl	80a009a <_Znwj>
 80a0c50:	4682      	mov	sl, r0
 80a0c52:	b120      	cbz	r0, 80a0c5e <_Z10fuzzy_initv+0x80e>
 80a0c54:	464b      	mov	r3, r9
 80a0c56:	4632      	mov	r2, r6
 80a0c58:	2104      	movs	r1, #4
 80a0c5a:	f001 fb7d 	bl	80a2358 <_ZN9FuzzyRuleC1EiP19FuzzyRuleAntecedentP19FuzzyRuleConsequent>
  fuzzy->addFuzzyRule(fr4);
 80a0c5e:	4b8d      	ldr	r3, [pc, #564]	; (80a0e94 <_Z10fuzzy_initv+0xa44>)
 80a0c60:	4651      	mov	r1, sl
 80a0c62:	6818      	ldr	r0, [r3, #0]
 80a0c64:	f002 f92a 	bl	80a2ebc <_ZN5Fuzzy12addFuzzyRuleEP9FuzzyRule>

  FuzzyRuleAntecedent* MMMM = new FuzzyRuleAntecedent();
 80a0c68:	2018      	movs	r0, #24
 80a0c6a:	f7ff fa16 	bl	80a009a <_Znwj>
 80a0c6e:	4606      	mov	r6, r0
 80a0c70:	b108      	cbz	r0, 80a0c76 <_Z10fuzzy_initv+0x826>
 80a0c72:	f002 f983 	bl	80a2f7c <_ZN19FuzzyRuleAntecedentC1Ev>
  MMMM->joinWithAND(left_med_med, right_med_med);
 80a0c76:	465a      	mov	r2, fp
 80a0c78:	9908      	ldr	r1, [sp, #32]
 80a0c7a:	4630      	mov	r0, r6
 80a0c7c:	f002 f995 	bl	80a2faa <_ZN19FuzzyRuleAntecedent11joinWithANDEPS_S0_>
  FuzzyRule* fr5 = new FuzzyRule(5, MMMM, drive_center);
 80a0c80:	2010      	movs	r0, #16
 80a0c82:	f7ff fa0a 	bl	80a009a <_Znwj>
 80a0c86:	4682      	mov	sl, r0
 80a0c88:	b120      	cbz	r0, 80a0c94 <_Z10fuzzy_initv+0x844>
 80a0c8a:	464b      	mov	r3, r9
 80a0c8c:	4632      	mov	r2, r6
 80a0c8e:	2105      	movs	r1, #5
 80a0c90:	f001 fb62 	bl	80a2358 <_ZN9FuzzyRuleC1EiP19FuzzyRuleAntecedentP19FuzzyRuleConsequent>
  fuzzy->addFuzzyRule(fr5);
 80a0c94:	4b7f      	ldr	r3, [pc, #508]	; (80a0e94 <_Z10fuzzy_initv+0xa44>)
 80a0c96:	4651      	mov	r1, sl
 80a0c98:	6818      	ldr	r0, [r3, #0]
 80a0c9a:	f002 f90f 	bl	80a2ebc <_ZN5Fuzzy12addFuzzyRuleEP9FuzzyRule>

  FuzzyRuleAntecedent* HHLL = new FuzzyRuleAntecedent();
 80a0c9e:	2018      	movs	r0, #24
 80a0ca0:	f7ff f9fb 	bl	80a009a <_Znwj>
 80a0ca4:	4606      	mov	r6, r0
 80a0ca6:	b108      	cbz	r0, 80a0cac <_Z10fuzzy_initv+0x85c>
 80a0ca8:	f002 f968 	bl	80a2f7c <_ZN19FuzzyRuleAntecedentC1Ev>
  HHLL->joinWithAND(left_high_high, right_low_low);
 80a0cac:	462a      	mov	r2, r5
 80a0cae:	990d      	ldr	r1, [sp, #52]	; 0x34
 80a0cb0:	4630      	mov	r0, r6
 80a0cb2:	f002 f97a 	bl	80a2faa <_ZN19FuzzyRuleAntecedent11joinWithANDEPS_S0_>
  FuzzyRule* fr6 = new FuzzyRule(6, HHLL, drive_small_left);
 80a0cb6:	2010      	movs	r0, #16
 80a0cb8:	f7ff f9ef 	bl	80a009a <_Znwj>
 80a0cbc:	4682      	mov	sl, r0
 80a0cbe:	b120      	cbz	r0, 80a0cca <_Z10fuzzy_initv+0x87a>
 80a0cc0:	4643      	mov	r3, r8
 80a0cc2:	4632      	mov	r2, r6
 80a0cc4:	2106      	movs	r1, #6
 80a0cc6:	f001 fb47 	bl	80a2358 <_ZN9FuzzyRuleC1EiP19FuzzyRuleAntecedentP19FuzzyRuleConsequent>
  fuzzy->addFuzzyRule(fr6);
 80a0cca:	4b72      	ldr	r3, [pc, #456]	; (80a0e94 <_Z10fuzzy_initv+0xa44>)
 80a0ccc:	4651      	mov	r1, sl
 80a0cce:	6818      	ldr	r0, [r3, #0]
 80a0cd0:	f002 f8f4 	bl	80a2ebc <_ZN5Fuzzy12addFuzzyRuleEP9FuzzyRule>

  FuzzyRuleAntecedent* HHML = new FuzzyRuleAntecedent();
 80a0cd4:	2018      	movs	r0, #24
 80a0cd6:	f7ff f9e0 	bl	80a009a <_Znwj>
 80a0cda:	4606      	mov	r6, r0
 80a0cdc:	b108      	cbz	r0, 80a0ce2 <_Z10fuzzy_initv+0x892>
 80a0cde:	f002 f94d 	bl	80a2f7c <_ZN19FuzzyRuleAntecedentC1Ev>
  HHML->joinWithAND(left_high_high, right_med_low);
 80a0ce2:	9a0c      	ldr	r2, [sp, #48]	; 0x30
 80a0ce4:	990d      	ldr	r1, [sp, #52]	; 0x34
 80a0ce6:	4630      	mov	r0, r6
 80a0ce8:	f002 f95f 	bl	80a2faa <_ZN19FuzzyRuleAntecedent11joinWithANDEPS_S0_>
  FuzzyRule* fr7 = new FuzzyRule(6, HHML, drive_small_left);
 80a0cec:	2010      	movs	r0, #16
 80a0cee:	f7ff f9d4 	bl	80a009a <_Znwj>
 80a0cf2:	4682      	mov	sl, r0
 80a0cf4:	b120      	cbz	r0, 80a0d00 <_Z10fuzzy_initv+0x8b0>
 80a0cf6:	4643      	mov	r3, r8
 80a0cf8:	4632      	mov	r2, r6
 80a0cfa:	2106      	movs	r1, #6
 80a0cfc:	f001 fb2c 	bl	80a2358 <_ZN9FuzzyRuleC1EiP19FuzzyRuleAntecedentP19FuzzyRuleConsequent>
  fuzzy->addFuzzyRule(fr7);
 80a0d00:	4b64      	ldr	r3, [pc, #400]	; (80a0e94 <_Z10fuzzy_initv+0xa44>)
 80a0d02:	4651      	mov	r1, sl
 80a0d04:	6818      	ldr	r0, [r3, #0]
 80a0d06:	f002 f8d9 	bl	80a2ebc <_ZN5Fuzzy12addFuzzyRuleEP9FuzzyRule>

  FuzzyRuleAntecedent* HHMM = new FuzzyRuleAntecedent();
 80a0d0a:	2018      	movs	r0, #24
 80a0d0c:	f7ff f9c5 	bl	80a009a <_Znwj>
 80a0d10:	4606      	mov	r6, r0
 80a0d12:	b108      	cbz	r0, 80a0d18 <_Z10fuzzy_initv+0x8c8>
 80a0d14:	f002 f932 	bl	80a2f7c <_ZN19FuzzyRuleAntecedentC1Ev>
  HHMM->joinWithAND(left_high_high, right_med_med);
 80a0d18:	465a      	mov	r2, fp
 80a0d1a:	990d      	ldr	r1, [sp, #52]	; 0x34
 80a0d1c:	4630      	mov	r0, r6
 80a0d1e:	f002 f944 	bl	80a2faa <_ZN19FuzzyRuleAntecedent11joinWithANDEPS_S0_>
  FuzzyRule* fr8 = new FuzzyRule(8, HHMM, drive_small_left);
 80a0d22:	2010      	movs	r0, #16
 80a0d24:	f7ff f9b9 	bl	80a009a <_Znwj>
 80a0d28:	4682      	mov	sl, r0
 80a0d2a:	b120      	cbz	r0, 80a0d36 <_Z10fuzzy_initv+0x8e6>
 80a0d2c:	4643      	mov	r3, r8
 80a0d2e:	4632      	mov	r2, r6
 80a0d30:	2108      	movs	r1, #8
 80a0d32:	f001 fb11 	bl	80a2358 <_ZN9FuzzyRuleC1EiP19FuzzyRuleAntecedentP19FuzzyRuleConsequent>
  fuzzy->addFuzzyRule(fr8);
 80a0d36:	4b57      	ldr	r3, [pc, #348]	; (80a0e94 <_Z10fuzzy_initv+0xa44>)
 80a0d38:	4651      	mov	r1, sl
 80a0d3a:	6818      	ldr	r0, [r3, #0]
 80a0d3c:	f002 f8be 	bl	80a2ebc <_ZN5Fuzzy12addFuzzyRuleEP9FuzzyRule>

  FuzzyRuleAntecedent* MHMM = new FuzzyRuleAntecedent();
 80a0d40:	2018      	movs	r0, #24
 80a0d42:	f7ff f9aa 	bl	80a009a <_Znwj>
 80a0d46:	4606      	mov	r6, r0
 80a0d48:	b108      	cbz	r0, 80a0d4e <_Z10fuzzy_initv+0x8fe>
 80a0d4a:	f002 f917 	bl	80a2f7c <_ZN19FuzzyRuleAntecedentC1Ev>
  MHMM->joinWithAND(left_med_high, right_med_med);
 80a0d4e:	465a      	mov	r2, fp
 80a0d50:	9909      	ldr	r1, [sp, #36]	; 0x24
 80a0d52:	4630      	mov	r0, r6
 80a0d54:	f002 f929 	bl	80a2faa <_ZN19FuzzyRuleAntecedent11joinWithANDEPS_S0_>
  FuzzyRule* fr9 = new FuzzyRule(9, MHMM, drive_small_left);
 80a0d58:	2010      	movs	r0, #16
 80a0d5a:	f7ff f99e 	bl	80a009a <_Znwj>
 80a0d5e:	4682      	mov	sl, r0
 80a0d60:	b120      	cbz	r0, 80a0d6c <_Z10fuzzy_initv+0x91c>
 80a0d62:	4643      	mov	r3, r8
 80a0d64:	4632      	mov	r2, r6
 80a0d66:	2109      	movs	r1, #9
 80a0d68:	f001 faf6 	bl	80a2358 <_ZN9FuzzyRuleC1EiP19FuzzyRuleAntecedentP19FuzzyRuleConsequent>
  fuzzy->addFuzzyRule(fr9);
 80a0d6c:	4b49      	ldr	r3, [pc, #292]	; (80a0e94 <_Z10fuzzy_initv+0xa44>)
 80a0d6e:	4651      	mov	r1, sl
 80a0d70:	6818      	ldr	r0, [r3, #0]
 80a0d72:	f002 f8a3 	bl	80a2ebc <_ZN5Fuzzy12addFuzzyRuleEP9FuzzyRule>

  FuzzyRuleAntecedent* MHML = new FuzzyRuleAntecedent();
 80a0d76:	2018      	movs	r0, #24
 80a0d78:	f7ff f98f 	bl	80a009a <_Znwj>
 80a0d7c:	4606      	mov	r6, r0
 80a0d7e:	b108      	cbz	r0, 80a0d84 <_Z10fuzzy_initv+0x934>
 80a0d80:	f002 f8fc 	bl	80a2f7c <_ZN19FuzzyRuleAntecedentC1Ev>
  MHML->joinWithAND(left_med_high, right_med_low);
 80a0d84:	9a0c      	ldr	r2, [sp, #48]	; 0x30
 80a0d86:	9909      	ldr	r1, [sp, #36]	; 0x24
 80a0d88:	4630      	mov	r0, r6
 80a0d8a:	f002 f90e 	bl	80a2faa <_ZN19FuzzyRuleAntecedent11joinWithANDEPS_S0_>
  FuzzyRule* fr10 = new FuzzyRule(10, MHML, drive_small_left);
 80a0d8e:	2010      	movs	r0, #16
 80a0d90:	f7ff f983 	bl	80a009a <_Znwj>
 80a0d94:	4682      	mov	sl, r0
 80a0d96:	b120      	cbz	r0, 80a0da2 <_Z10fuzzy_initv+0x952>
 80a0d98:	4643      	mov	r3, r8
 80a0d9a:	4632      	mov	r2, r6
 80a0d9c:	210a      	movs	r1, #10
 80a0d9e:	f001 fadb 	bl	80a2358 <_ZN9FuzzyRuleC1EiP19FuzzyRuleAntecedentP19FuzzyRuleConsequent>
  fuzzy->addFuzzyRule(fr10);
 80a0da2:	4b3c      	ldr	r3, [pc, #240]	; (80a0e94 <_Z10fuzzy_initv+0xa44>)
 80a0da4:	4651      	mov	r1, sl
 80a0da6:	6818      	ldr	r0, [r3, #0]
 80a0da8:	f002 f888 	bl	80a2ebc <_ZN5Fuzzy12addFuzzyRuleEP9FuzzyRule>

  FuzzyRuleAntecedent* MHLL = new FuzzyRuleAntecedent();
 80a0dac:	2018      	movs	r0, #24
 80a0dae:	f7ff f974 	bl	80a009a <_Znwj>
 80a0db2:	4606      	mov	r6, r0
 80a0db4:	b108      	cbz	r0, 80a0dba <_Z10fuzzy_initv+0x96a>
 80a0db6:	f002 f8e1 	bl	80a2f7c <_ZN19FuzzyRuleAntecedentC1Ev>
  MHLL->joinWithAND(left_med_high, right_low_low);
 80a0dba:	462a      	mov	r2, r5
 80a0dbc:	9909      	ldr	r1, [sp, #36]	; 0x24
 80a0dbe:	4630      	mov	r0, r6
 80a0dc0:	f002 f8f3 	bl	80a2faa <_ZN19FuzzyRuleAntecedent11joinWithANDEPS_S0_>
  FuzzyRule* fr11 = new FuzzyRule(11, MHLL, drive_small_left);
 80a0dc4:	2010      	movs	r0, #16
 80a0dc6:	f7ff f968 	bl	80a009a <_Znwj>
 80a0dca:	4682      	mov	sl, r0
 80a0dcc:	b120      	cbz	r0, 80a0dd8 <_Z10fuzzy_initv+0x988>
 80a0dce:	4643      	mov	r3, r8
 80a0dd0:	4632      	mov	r2, r6
 80a0dd2:	210b      	movs	r1, #11
 80a0dd4:	f001 fac0 	bl	80a2358 <_ZN9FuzzyRuleC1EiP19FuzzyRuleAntecedentP19FuzzyRuleConsequent>
  fuzzy->addFuzzyRule(fr11);
 80a0dd8:	4b2e      	ldr	r3, [pc, #184]	; (80a0e94 <_Z10fuzzy_initv+0xa44>)
 80a0dda:	4651      	mov	r1, sl
 80a0ddc:	6818      	ldr	r0, [r3, #0]
 80a0dde:	f002 f86d 	bl	80a2ebc <_ZN5Fuzzy12addFuzzyRuleEP9FuzzyRule>

  FuzzyRuleAntecedent* MMML = new FuzzyRuleAntecedent();
 80a0de2:	2018      	movs	r0, #24
 80a0de4:	f7ff f959 	bl	80a009a <_Znwj>
 80a0de8:	4606      	mov	r6, r0
 80a0dea:	b108      	cbz	r0, 80a0df0 <_Z10fuzzy_initv+0x9a0>
 80a0dec:	f002 f8c6 	bl	80a2f7c <_ZN19FuzzyRuleAntecedentC1Ev>
  MMML->joinWithAND(left_med_med, right_med_low);
 80a0df0:	9a0c      	ldr	r2, [sp, #48]	; 0x30
 80a0df2:	9908      	ldr	r1, [sp, #32]
 80a0df4:	4630      	mov	r0, r6
 80a0df6:	f002 f8d8 	bl	80a2faa <_ZN19FuzzyRuleAntecedent11joinWithANDEPS_S0_>
  FuzzyRule* fr12 = new FuzzyRule(12, MMML, drive_small_left);
 80a0dfa:	2010      	movs	r0, #16
 80a0dfc:	f7ff f94d 	bl	80a009a <_Znwj>
 80a0e00:	4682      	mov	sl, r0
 80a0e02:	b120      	cbz	r0, 80a0e0e <_Z10fuzzy_initv+0x9be>
 80a0e04:	4643      	mov	r3, r8
 80a0e06:	4632      	mov	r2, r6
 80a0e08:	210c      	movs	r1, #12
 80a0e0a:	f001 faa5 	bl	80a2358 <_ZN9FuzzyRuleC1EiP19FuzzyRuleAntecedentP19FuzzyRuleConsequent>
  fuzzy->addFuzzyRule(fr12);
 80a0e0e:	4b21      	ldr	r3, [pc, #132]	; (80a0e94 <_Z10fuzzy_initv+0xa44>)
 80a0e10:	4651      	mov	r1, sl
 80a0e12:	6818      	ldr	r0, [r3, #0]
 80a0e14:	f002 f852 	bl	80a2ebc <_ZN5Fuzzy12addFuzzyRuleEP9FuzzyRule>

  FuzzyRuleAntecedent* MMLL = new FuzzyRuleAntecedent();
 80a0e18:	2018      	movs	r0, #24
 80a0e1a:	f7ff f93e 	bl	80a009a <_Znwj>
 80a0e1e:	4606      	mov	r6, r0
 80a0e20:	b108      	cbz	r0, 80a0e26 <_Z10fuzzy_initv+0x9d6>
 80a0e22:	f002 f8ab 	bl	80a2f7c <_ZN19FuzzyRuleAntecedentC1Ev>
  MMLL->joinWithAND(left_med_med, right_low_low);
 80a0e26:	462a      	mov	r2, r5
 80a0e28:	9908      	ldr	r1, [sp, #32]
 80a0e2a:	4630      	mov	r0, r6
 80a0e2c:	f002 f8bd 	bl	80a2faa <_ZN19FuzzyRuleAntecedent11joinWithANDEPS_S0_>
  FuzzyRule* fr13 = new FuzzyRule(13, MMLL, drive_small_left);
 80a0e30:	2010      	movs	r0, #16
 80a0e32:	f7ff f932 	bl	80a009a <_Znwj>
 80a0e36:	4682      	mov	sl, r0
 80a0e38:	b120      	cbz	r0, 80a0e44 <_Z10fuzzy_initv+0x9f4>
 80a0e3a:	4643      	mov	r3, r8
 80a0e3c:	4632      	mov	r2, r6
 80a0e3e:	210d      	movs	r1, #13
 80a0e40:	f001 fa8a 	bl	80a2358 <_ZN9FuzzyRuleC1EiP19FuzzyRuleAntecedentP19FuzzyRuleConsequent>
  fuzzy->addFuzzyRule(fr13);
 80a0e44:	4b13      	ldr	r3, [pc, #76]	; (80a0e94 <_Z10fuzzy_initv+0xa44>)
 80a0e46:	4651      	mov	r1, sl
 80a0e48:	6818      	ldr	r0, [r3, #0]
 80a0e4a:	f002 f837 	bl	80a2ebc <_ZN5Fuzzy12addFuzzyRuleEP9FuzzyRule>

  FuzzyRuleAntecedent* HMLL = new FuzzyRuleAntecedent();
 80a0e4e:	2018      	movs	r0, #24
 80a0e50:	f7ff f923 	bl	80a009a <_Znwj>
 80a0e54:	4606      	mov	r6, r0
 80a0e56:	b108      	cbz	r0, 80a0e5c <_Z10fuzzy_initv+0xa0c>
 80a0e58:	f002 f890 	bl	80a2f7c <_ZN19FuzzyRuleAntecedentC1Ev>
  HMLL->joinWithAND(left_high_med, right_low_low);
 80a0e5c:	462a      	mov	r2, r5
 80a0e5e:	9914      	ldr	r1, [sp, #80]	; 0x50
 80a0e60:	4630      	mov	r0, r6
 80a0e62:	f002 f8a2 	bl	80a2faa <_ZN19FuzzyRuleAntecedent11joinWithANDEPS_S0_>
  FuzzyRule* fr14 = new FuzzyRule(14, HMLL, drive_small_left);
 80a0e66:	2010      	movs	r0, #16
 80a0e68:	f7ff f917 	bl	80a009a <_Znwj>
 80a0e6c:	4682      	mov	sl, r0
 80a0e6e:	b120      	cbz	r0, 80a0e7a <_Z10fuzzy_initv+0xa2a>
 80a0e70:	4643      	mov	r3, r8
 80a0e72:	4632      	mov	r2, r6
 80a0e74:	210e      	movs	r1, #14
 80a0e76:	f001 fa6f 	bl	80a2358 <_ZN9FuzzyRuleC1EiP19FuzzyRuleAntecedentP19FuzzyRuleConsequent>
  fuzzy->addFuzzyRule(fr14);
 80a0e7a:	4b06      	ldr	r3, [pc, #24]	; (80a0e94 <_Z10fuzzy_initv+0xa44>)
 80a0e7c:	4651      	mov	r1, sl
 80a0e7e:	6818      	ldr	r0, [r3, #0]
 80a0e80:	f002 f81c 	bl	80a2ebc <_ZN5Fuzzy12addFuzzyRuleEP9FuzzyRule>

  FuzzyRuleAntecedent* MLLL = new FuzzyRuleAntecedent();
 80a0e84:	2018      	movs	r0, #24
 80a0e86:	f7ff f908 	bl	80a009a <_Znwj>
 80a0e8a:	4606      	mov	r6, r0
 80a0e8c:	b120      	cbz	r0, 80a0e98 <_Z10fuzzy_initv+0xa48>
 80a0e8e:	f002 f875 	bl	80a2f7c <_ZN19FuzzyRuleAntecedentC1Ev>
 80a0e92:	e001      	b.n	80a0e98 <_Z10fuzzy_initv+0xa48>
 80a0e94:	20000390 	.word	0x20000390
  MLLL->joinWithAND(left_med_low, right_low_low);
 80a0e98:	462a      	mov	r2, r5
 80a0e9a:	9915      	ldr	r1, [sp, #84]	; 0x54
 80a0e9c:	4630      	mov	r0, r6
 80a0e9e:	f002 f884 	bl	80a2faa <_ZN19FuzzyRuleAntecedent11joinWithANDEPS_S0_>
  FuzzyRule* fr15 = new FuzzyRule(15, MLLL, drive_small_left);
 80a0ea2:	2010      	movs	r0, #16
 80a0ea4:	f7ff f8f9 	bl	80a009a <_Znwj>
 80a0ea8:	4682      	mov	sl, r0
 80a0eaa:	b120      	cbz	r0, 80a0eb6 <_Z10fuzzy_initv+0xa66>
 80a0eac:	4643      	mov	r3, r8
 80a0eae:	4632      	mov	r2, r6
 80a0eb0:	210f      	movs	r1, #15
 80a0eb2:	f001 fa51 	bl	80a2358 <_ZN9FuzzyRuleC1EiP19FuzzyRuleAntecedentP19FuzzyRuleConsequent>
  fuzzy->addFuzzyRule(fr15);
 80a0eb6:	4bae      	ldr	r3, [pc, #696]	; (80a1170 <_Z10fuzzy_initv+0xd20>)
 80a0eb8:	4651      	mov	r1, sl
 80a0eba:	6818      	ldr	r0, [r3, #0]
 80a0ebc:	f001 fffe 	bl	80a2ebc <_ZN5Fuzzy12addFuzzyRuleEP9FuzzyRule>

  FuzzyRuleAntecedent* HLLL = new FuzzyRuleAntecedent();
 80a0ec0:	2018      	movs	r0, #24
 80a0ec2:	f7ff f8ea 	bl	80a009a <_Znwj>
 80a0ec6:	4606      	mov	r6, r0
 80a0ec8:	b108      	cbz	r0, 80a0ece <_Z10fuzzy_initv+0xa7e>
 80a0eca:	f002 f857 	bl	80a2f7c <_ZN19FuzzyRuleAntecedentC1Ev>
  HLLL->joinWithAND(left_high_low, right_low_low);
 80a0ece:	462a      	mov	r2, r5
 80a0ed0:	9916      	ldr	r1, [sp, #88]	; 0x58
 80a0ed2:	4630      	mov	r0, r6
 80a0ed4:	f002 f869 	bl	80a2faa <_ZN19FuzzyRuleAntecedent11joinWithANDEPS_S0_>
  FuzzyRule* fr16 = new FuzzyRule(16, HLLL, drive_full_left);
 80a0ed8:	2010      	movs	r0, #16
 80a0eda:	f7ff f8de 	bl	80a009a <_Znwj>
 80a0ede:	4680      	mov	r8, r0
 80a0ee0:	b120      	cbz	r0, 80a0eec <_Z10fuzzy_initv+0xa9c>
 80a0ee2:	9b04      	ldr	r3, [sp, #16]
 80a0ee4:	4632      	mov	r2, r6
 80a0ee6:	2110      	movs	r1, #16
 80a0ee8:	f001 fa36 	bl	80a2358 <_ZN9FuzzyRuleC1EiP19FuzzyRuleAntecedentP19FuzzyRuleConsequent>
  fuzzy->addFuzzyRule(fr16);
 80a0eec:	4ea0      	ldr	r6, [pc, #640]	; (80a1170 <_Z10fuzzy_initv+0xd20>)
 80a0eee:	4641      	mov	r1, r8
 80a0ef0:	6830      	ldr	r0, [r6, #0]
 80a0ef2:	f001 ffe3 	bl	80a2ebc <_ZN5Fuzzy12addFuzzyRuleEP9FuzzyRule>

  FuzzyRuleAntecedent* LLLH = new FuzzyRuleAntecedent();
 80a0ef6:	2018      	movs	r0, #24
 80a0ef8:	f7ff f8cf 	bl	80a009a <_Znwj>
 80a0efc:	4680      	mov	r8, r0
 80a0efe:	b108      	cbz	r0, 80a0f04 <_Z10fuzzy_initv+0xab4>
 80a0f00:	f002 f83c 	bl	80a2f7c <_ZN19FuzzyRuleAntecedentC1Ev>
  LLLH->joinWithAND(left_low_low, right_low_high);
 80a0f04:	9a06      	ldr	r2, [sp, #24]
 80a0f06:	4639      	mov	r1, r7
 80a0f08:	4640      	mov	r0, r8
 80a0f0a:	f002 f84e 	bl	80a2faa <_ZN19FuzzyRuleAntecedent11joinWithANDEPS_S0_>
  FuzzyRule* fr17 = new FuzzyRule(17, LLLH, drive_full_right);
 80a0f0e:	2010      	movs	r0, #16
 80a0f10:	f7ff f8c3 	bl	80a009a <_Znwj>
 80a0f14:	4682      	mov	sl, r0
 80a0f16:	b120      	cbz	r0, 80a0f22 <_Z10fuzzy_initv+0xad2>
 80a0f18:	9b07      	ldr	r3, [sp, #28]
 80a0f1a:	4642      	mov	r2, r8
 80a0f1c:	2111      	movs	r1, #17
 80a0f1e:	f001 fa1b 	bl	80a2358 <_ZN9FuzzyRuleC1EiP19FuzzyRuleAntecedentP19FuzzyRuleConsequent>
  fuzzy->addFuzzyRule(fr17);
 80a0f22:	4651      	mov	r1, sl
 80a0f24:	6830      	ldr	r0, [r6, #0]
 80a0f26:	f001 ffc9 	bl	80a2ebc <_ZN5Fuzzy12addFuzzyRuleEP9FuzzyRule>

  FuzzyRuleAntecedent* LLHH = new FuzzyRuleAntecedent();
 80a0f2a:	2018      	movs	r0, #24
 80a0f2c:	f7ff f8b5 	bl	80a009a <_Znwj>
 80a0f30:	4606      	mov	r6, r0
 80a0f32:	b108      	cbz	r0, 80a0f38 <_Z10fuzzy_initv+0xae8>
 80a0f34:	f002 f822 	bl	80a2f7c <_ZN19FuzzyRuleAntecedentC1Ev>
  LLHH->joinWithAND(left_low_low, right_high_high);
 80a0f38:	9a03      	ldr	r2, [sp, #12]
 80a0f3a:	4639      	mov	r1, r7
 80a0f3c:	4630      	mov	r0, r6
 80a0f3e:	f002 f834 	bl	80a2faa <_ZN19FuzzyRuleAntecedent11joinWithANDEPS_S0_>
  FuzzyRule* fr18 = new FuzzyRule(18, LLHH, drive_small_right);
 80a0f42:	2010      	movs	r0, #16
 80a0f44:	f7ff f8a9 	bl	80a009a <_Znwj>
 80a0f48:	4680      	mov	r8, r0
 80a0f4a:	b120      	cbz	r0, 80a0f56 <_Z10fuzzy_initv+0xb06>
 80a0f4c:	4623      	mov	r3, r4
 80a0f4e:	4632      	mov	r2, r6
 80a0f50:	2112      	movs	r1, #18
 80a0f52:	f001 fa01 	bl	80a2358 <_ZN9FuzzyRuleC1EiP19FuzzyRuleAntecedentP19FuzzyRuleConsequent>
  fuzzy->addFuzzyRule(fr18);
 80a0f56:	4e86      	ldr	r6, [pc, #536]	; (80a1170 <_Z10fuzzy_initv+0xd20>)
 80a0f58:	4641      	mov	r1, r8
 80a0f5a:	6830      	ldr	r0, [r6, #0]
 80a0f5c:	f001 ffae 	bl	80a2ebc <_ZN5Fuzzy12addFuzzyRuleEP9FuzzyRule>

  FuzzyRuleAntecedent* LMHH = new FuzzyRuleAntecedent();
 80a0f60:	2018      	movs	r0, #24
 80a0f62:	f7ff f89a 	bl	80a009a <_Znwj>
 80a0f66:	4680      	mov	r8, r0
 80a0f68:	b108      	cbz	r0, 80a0f6e <_Z10fuzzy_initv+0xb1e>
 80a0f6a:	f002 f807 	bl	80a2f7c <_ZN19FuzzyRuleAntecedentC1Ev>
  LMHH->joinWithAND(left_low_med, right_high_high);
 80a0f6e:	9a03      	ldr	r2, [sp, #12]
 80a0f70:	990a      	ldr	r1, [sp, #40]	; 0x28
 80a0f72:	4640      	mov	r0, r8
 80a0f74:	f002 f819 	bl	80a2faa <_ZN19FuzzyRuleAntecedent11joinWithANDEPS_S0_>
  FuzzyRule* fr19 = new FuzzyRule(19, LMHH, drive_small_right);
 80a0f78:	2010      	movs	r0, #16
 80a0f7a:	f7ff f88e 	bl	80a009a <_Znwj>
 80a0f7e:	4682      	mov	sl, r0
 80a0f80:	b120      	cbz	r0, 80a0f8c <_Z10fuzzy_initv+0xb3c>
 80a0f82:	4623      	mov	r3, r4
 80a0f84:	4642      	mov	r2, r8
 80a0f86:	2113      	movs	r1, #19
 80a0f88:	f001 f9e6 	bl	80a2358 <_ZN9FuzzyRuleC1EiP19FuzzyRuleAntecedentP19FuzzyRuleConsequent>
  fuzzy->addFuzzyRule(fr19);
 80a0f8c:	4651      	mov	r1, sl
 80a0f8e:	6830      	ldr	r0, [r6, #0]
 80a0f90:	f001 ff94 	bl	80a2ebc <_ZN5Fuzzy12addFuzzyRuleEP9FuzzyRule>

  FuzzyRuleAntecedent* MMHH = new FuzzyRuleAntecedent();
 80a0f94:	2018      	movs	r0, #24
 80a0f96:	f7ff f880 	bl	80a009a <_Znwj>
 80a0f9a:	4606      	mov	r6, r0
 80a0f9c:	b108      	cbz	r0, 80a0fa2 <_Z10fuzzy_initv+0xb52>
 80a0f9e:	f001 ffed 	bl	80a2f7c <_ZN19FuzzyRuleAntecedentC1Ev>
  MMHH->joinWithAND(left_med_med, right_high_high);
 80a0fa2:	9a03      	ldr	r2, [sp, #12]
 80a0fa4:	9908      	ldr	r1, [sp, #32]
 80a0fa6:	4630      	mov	r0, r6
 80a0fa8:	f001 ffff 	bl	80a2faa <_ZN19FuzzyRuleAntecedent11joinWithANDEPS_S0_>
  FuzzyRule* fr20 = new FuzzyRule(20, MMHH, drive_small_right);
 80a0fac:	2010      	movs	r0, #16
 80a0fae:	f7ff f874 	bl	80a009a <_Znwj>
 80a0fb2:	4680      	mov	r8, r0
 80a0fb4:	b120      	cbz	r0, 80a0fc0 <_Z10fuzzy_initv+0xb70>
 80a0fb6:	4623      	mov	r3, r4
 80a0fb8:	4632      	mov	r2, r6
 80a0fba:	2114      	movs	r1, #20
 80a0fbc:	f001 f9cc 	bl	80a2358 <_ZN9FuzzyRuleC1EiP19FuzzyRuleAntecedentP19FuzzyRuleConsequent>
  fuzzy->addFuzzyRule(fr20);
 80a0fc0:	4e6b      	ldr	r6, [pc, #428]	; (80a1170 <_Z10fuzzy_initv+0xd20>)
 80a0fc2:	4641      	mov	r1, r8
 80a0fc4:	6830      	ldr	r0, [r6, #0]
 80a0fc6:	f001 ff79 	bl	80a2ebc <_ZN5Fuzzy12addFuzzyRuleEP9FuzzyRule>

  FuzzyRuleAntecedent* MMHM = new FuzzyRuleAntecedent();
 80a0fca:	2018      	movs	r0, #24
 80a0fcc:	f7ff f865 	bl	80a009a <_Znwj>
 80a0fd0:	4680      	mov	r8, r0
 80a0fd2:	b108      	cbz	r0, 80a0fd8 <_Z10fuzzy_initv+0xb88>
 80a0fd4:	f001 ffd2 	bl	80a2f7c <_ZN19FuzzyRuleAntecedentC1Ev>
  MMHM->joinWithAND(left_med_med, right_high_med);
 80a0fd8:	9a0b      	ldr	r2, [sp, #44]	; 0x2c
 80a0fda:	9908      	ldr	r1, [sp, #32]
 80a0fdc:	4640      	mov	r0, r8
 80a0fde:	f001 ffe4 	bl	80a2faa <_ZN19FuzzyRuleAntecedent11joinWithANDEPS_S0_>
  FuzzyRule* fr21 = new FuzzyRule(21, MMHM, drive_small_right);
 80a0fe2:	2010      	movs	r0, #16
 80a0fe4:	f7ff f859 	bl	80a009a <_Znwj>
 80a0fe8:	4682      	mov	sl, r0
 80a0fea:	b120      	cbz	r0, 80a0ff6 <_Z10fuzzy_initv+0xba6>
 80a0fec:	4623      	mov	r3, r4
 80a0fee:	4642      	mov	r2, r8
 80a0ff0:	2115      	movs	r1, #21
 80a0ff2:	f001 f9b1 	bl	80a2358 <_ZN9FuzzyRuleC1EiP19FuzzyRuleAntecedentP19FuzzyRuleConsequent>
  fuzzy->addFuzzyRule(fr21);
 80a0ff6:	4651      	mov	r1, sl
 80a0ff8:	6830      	ldr	r0, [r6, #0]
 80a0ffa:	f001 ff5f 	bl	80a2ebc <_ZN5Fuzzy12addFuzzyRuleEP9FuzzyRule>

  FuzzyRuleAntecedent* LMHM = new FuzzyRuleAntecedent();
 80a0ffe:	2018      	movs	r0, #24
 80a1000:	f7ff f84b 	bl	80a009a <_Znwj>
 80a1004:	4680      	mov	r8, r0
 80a1006:	b108      	cbz	r0, 80a100c <_Z10fuzzy_initv+0xbbc>
 80a1008:	f001 ffb8 	bl	80a2f7c <_ZN19FuzzyRuleAntecedentC1Ev>
  LMHM->joinWithAND(left_low_med, right_high_med);
 80a100c:	9a0b      	ldr	r2, [sp, #44]	; 0x2c
 80a100e:	990a      	ldr	r1, [sp, #40]	; 0x28
 80a1010:	4640      	mov	r0, r8
 80a1012:	f001 ffca 	bl	80a2faa <_ZN19FuzzyRuleAntecedent11joinWithANDEPS_S0_>
  FuzzyRule* fr22 = new FuzzyRule(22, LMHM, drive_small_right);
 80a1016:	2010      	movs	r0, #16
 80a1018:	f7ff f83f 	bl	80a009a <_Znwj>
 80a101c:	4682      	mov	sl, r0
 80a101e:	b120      	cbz	r0, 80a102a <_Z10fuzzy_initv+0xbda>
 80a1020:	4623      	mov	r3, r4
 80a1022:	4642      	mov	r2, r8
 80a1024:	2116      	movs	r1, #22
 80a1026:	f001 f997 	bl	80a2358 <_ZN9FuzzyRuleC1EiP19FuzzyRuleAntecedentP19FuzzyRuleConsequent>
  fuzzy->addFuzzyRule(fr22);
 80a102a:	4651      	mov	r1, sl
 80a102c:	6830      	ldr	r0, [r6, #0]
 80a102e:	f001 ff45 	bl	80a2ebc <_ZN5Fuzzy12addFuzzyRuleEP9FuzzyRule>

  FuzzyRuleAntecedent* LLHM = new FuzzyRuleAntecedent();
 80a1032:	2018      	movs	r0, #24
 80a1034:	f7ff f831 	bl	80a009a <_Znwj>
 80a1038:	4680      	mov	r8, r0
 80a103a:	b108      	cbz	r0, 80a1040 <_Z10fuzzy_initv+0xbf0>
 80a103c:	f001 ff9e 	bl	80a2f7c <_ZN19FuzzyRuleAntecedentC1Ev>
  LLHM->joinWithAND(left_low_low, right_high_med);
 80a1040:	9a0b      	ldr	r2, [sp, #44]	; 0x2c
 80a1042:	4639      	mov	r1, r7
 80a1044:	4640      	mov	r0, r8
 80a1046:	f001 ffb0 	bl	80a2faa <_ZN19FuzzyRuleAntecedent11joinWithANDEPS_S0_>
  FuzzyRule* fr23 = new FuzzyRule(23, LLHM, drive_small_right);
 80a104a:	2010      	movs	r0, #16
 80a104c:	f7ff f825 	bl	80a009a <_Znwj>
 80a1050:	4682      	mov	sl, r0
 80a1052:	b120      	cbz	r0, 80a105e <_Z10fuzzy_initv+0xc0e>
 80a1054:	4623      	mov	r3, r4
 80a1056:	4642      	mov	r2, r8
 80a1058:	2117      	movs	r1, #23
 80a105a:	f001 f97d 	bl	80a2358 <_ZN9FuzzyRuleC1EiP19FuzzyRuleAntecedentP19FuzzyRuleConsequent>
  fuzzy->addFuzzyRule(fr23);
 80a105e:	4651      	mov	r1, sl
 80a1060:	6830      	ldr	r0, [r6, #0]
 80a1062:	f001 ff2b 	bl	80a2ebc <_ZN5Fuzzy12addFuzzyRuleEP9FuzzyRule>

  FuzzyRuleAntecedent* LMMM = new FuzzyRuleAntecedent();
 80a1066:	2018      	movs	r0, #24
 80a1068:	f7ff f817 	bl	80a009a <_Znwj>
 80a106c:	4680      	mov	r8, r0
 80a106e:	b108      	cbz	r0, 80a1074 <_Z10fuzzy_initv+0xc24>
 80a1070:	f001 ff84 	bl	80a2f7c <_ZN19FuzzyRuleAntecedentC1Ev>
  LMMM->joinWithAND(left_low_med, right_med_med);
 80a1074:	465a      	mov	r2, fp
 80a1076:	990a      	ldr	r1, [sp, #40]	; 0x28
 80a1078:	4640      	mov	r0, r8
 80a107a:	f001 ff96 	bl	80a2faa <_ZN19FuzzyRuleAntecedent11joinWithANDEPS_S0_>
  FuzzyRule* fr24 = new FuzzyRule(24, LMMM, drive_small_right);
 80a107e:	2010      	movs	r0, #16
 80a1080:	f7ff f80b 	bl	80a009a <_Znwj>
 80a1084:	4682      	mov	sl, r0
 80a1086:	b120      	cbz	r0, 80a1092 <_Z10fuzzy_initv+0xc42>
 80a1088:	4623      	mov	r3, r4
 80a108a:	4642      	mov	r2, r8
 80a108c:	2118      	movs	r1, #24
 80a108e:	f001 f963 	bl	80a2358 <_ZN9FuzzyRuleC1EiP19FuzzyRuleAntecedentP19FuzzyRuleConsequent>
  fuzzy->addFuzzyRule(fr24);
 80a1092:	4651      	mov	r1, sl
 80a1094:	6830      	ldr	r0, [r6, #0]
 80a1096:	f001 ff11 	bl	80a2ebc <_ZN5Fuzzy12addFuzzyRuleEP9FuzzyRule>

  FuzzyRuleAntecedent* LLMM = new FuzzyRuleAntecedent();
 80a109a:	2018      	movs	r0, #24
 80a109c:	f7fe fffd 	bl	80a009a <_Znwj>
 80a10a0:	4680      	mov	r8, r0
 80a10a2:	b108      	cbz	r0, 80a10a8 <_Z10fuzzy_initv+0xc58>
 80a10a4:	f001 ff6a 	bl	80a2f7c <_ZN19FuzzyRuleAntecedentC1Ev>
  LLMM->joinWithAND(left_low_low, right_med_med);
 80a10a8:	465a      	mov	r2, fp
 80a10aa:	4639      	mov	r1, r7
 80a10ac:	4640      	mov	r0, r8
 80a10ae:	f001 ff7c 	bl	80a2faa <_ZN19FuzzyRuleAntecedent11joinWithANDEPS_S0_>
  FuzzyRule* fr25 = new FuzzyRule(25, LLMM, drive_small_right);
 80a10b2:	2010      	movs	r0, #16
 80a10b4:	f7fe fff1 	bl	80a009a <_Znwj>
 80a10b8:	4682      	mov	sl, r0
 80a10ba:	b120      	cbz	r0, 80a10c6 <_Z10fuzzy_initv+0xc76>
 80a10bc:	4623      	mov	r3, r4
 80a10be:	4642      	mov	r2, r8
 80a10c0:	2119      	movs	r1, #25
 80a10c2:	f001 f949 	bl	80a2358 <_ZN9FuzzyRuleC1EiP19FuzzyRuleAntecedentP19FuzzyRuleConsequent>
  fuzzy->addFuzzyRule(fr25);
 80a10c6:	4651      	mov	r1, sl
 80a10c8:	6830      	ldr	r0, [r6, #0]
 80a10ca:	f001 fef7 	bl	80a2ebc <_ZN5Fuzzy12addFuzzyRuleEP9FuzzyRule>

  FuzzyRuleAntecedent* LLMH = new FuzzyRuleAntecedent();
 80a10ce:	2018      	movs	r0, #24
 80a10d0:	f7fe ffe3 	bl	80a009a <_Znwj>
 80a10d4:	4680      	mov	r8, r0
 80a10d6:	b108      	cbz	r0, 80a10dc <_Z10fuzzy_initv+0xc8c>
 80a10d8:	f001 ff50 	bl	80a2f7c <_ZN19FuzzyRuleAntecedentC1Ev>
  LLMH->joinWithAND(left_low_low, right_med_high);
 80a10dc:	9a05      	ldr	r2, [sp, #20]
 80a10de:	4639      	mov	r1, r7
 80a10e0:	4640      	mov	r0, r8
 80a10e2:	f001 ff62 	bl	80a2faa <_ZN19FuzzyRuleAntecedent11joinWithANDEPS_S0_>
  FuzzyRule* fr26 = new FuzzyRule(26, LLMH, drive_small_right);
 80a10e6:	2010      	movs	r0, #16
 80a10e8:	f7fe ffd7 	bl	80a009a <_Znwj>
 80a10ec:	4682      	mov	sl, r0
 80a10ee:	b120      	cbz	r0, 80a10fa <_Z10fuzzy_initv+0xcaa>
 80a10f0:	4623      	mov	r3, r4
 80a10f2:	4642      	mov	r2, r8
 80a10f4:	211a      	movs	r1, #26
 80a10f6:	f001 f92f 	bl	80a2358 <_ZN9FuzzyRuleC1EiP19FuzzyRuleAntecedentP19FuzzyRuleConsequent>
  fuzzy->addFuzzyRule(fr26);
 80a10fa:	4651      	mov	r1, sl
 80a10fc:	6830      	ldr	r0, [r6, #0]
 80a10fe:	f001 fedd 	bl	80a2ebc <_ZN5Fuzzy12addFuzzyRuleEP9FuzzyRule>

  FuzzyRuleAntecedent* LLLM = new FuzzyRuleAntecedent();
 80a1102:	2018      	movs	r0, #24
 80a1104:	f7fe ffc9 	bl	80a009a <_Znwj>
 80a1108:	4680      	mov	r8, r0
 80a110a:	b108      	cbz	r0, 80a1110 <_Z10fuzzy_initv+0xcc0>
 80a110c:	f001 ff36 	bl	80a2f7c <_ZN19FuzzyRuleAntecedentC1Ev>
  LLLM->joinWithAND(left_low_low, right_low_med);
 80a1110:	9a17      	ldr	r2, [sp, #92]	; 0x5c
 80a1112:	4639      	mov	r1, r7
 80a1114:	4640      	mov	r0, r8
 80a1116:	f001 ff48 	bl	80a2faa <_ZN19FuzzyRuleAntecedent11joinWithANDEPS_S0_>
  FuzzyRule* fr27 = new FuzzyRule(27, LLLM, drive_small_right);
 80a111a:	2010      	movs	r0, #16
 80a111c:	f7fe ffbd 	bl	80a009a <_Znwj>
 80a1120:	4682      	mov	sl, r0
 80a1122:	b120      	cbz	r0, 80a112e <_Z10fuzzy_initv+0xcde>
 80a1124:	4623      	mov	r3, r4
 80a1126:	4642      	mov	r2, r8
 80a1128:	211b      	movs	r1, #27
 80a112a:	f001 f915 	bl	80a2358 <_ZN9FuzzyRuleC1EiP19FuzzyRuleAntecedentP19FuzzyRuleConsequent>
  fuzzy->addFuzzyRule(fr27);
 80a112e:	4651      	mov	r1, sl
 80a1130:	6830      	ldr	r0, [r6, #0]
 80a1132:	f001 fec3 	bl	80a2ebc <_ZN5Fuzzy12addFuzzyRuleEP9FuzzyRule>

  FuzzyRuleAntecedent* LLLL = new FuzzyRuleAntecedent();
 80a1136:	2018      	movs	r0, #24
 80a1138:	f7fe ffaf 	bl	80a009a <_Znwj>
 80a113c:	4604      	mov	r4, r0
 80a113e:	b108      	cbz	r0, 80a1144 <_Z10fuzzy_initv+0xcf4>
 80a1140:	f001 ff1c 	bl	80a2f7c <_ZN19FuzzyRuleAntecedentC1Ev>
  LLLL->joinWithAND(left_low_low, right_low_low);
 80a1144:	462a      	mov	r2, r5
 80a1146:	4639      	mov	r1, r7
 80a1148:	4620      	mov	r0, r4
 80a114a:	f001 ff2e 	bl	80a2faa <_ZN19FuzzyRuleAntecedent11joinWithANDEPS_S0_>
  FuzzyRule* fr28 = new FuzzyRule(28, LLLL, drive_center);
 80a114e:	2010      	movs	r0, #16
 80a1150:	f7fe ffa3 	bl	80a009a <_Znwj>
 80a1154:	4605      	mov	r5, r0
 80a1156:	b120      	cbz	r0, 80a1162 <_Z10fuzzy_initv+0xd12>
 80a1158:	464b      	mov	r3, r9
 80a115a:	4622      	mov	r2, r4
 80a115c:	211c      	movs	r1, #28
 80a115e:	f001 f8fb 	bl	80a2358 <_ZN9FuzzyRuleC1EiP19FuzzyRuleAntecedentP19FuzzyRuleConsequent>
  fuzzy->addFuzzyRule(fr28);
 80a1162:	4629      	mov	r1, r5
 80a1164:	6830      	ldr	r0, [r6, #0]
}
 80a1166:	b019      	add	sp, #100	; 0x64
 80a1168:	e8bd 4ff0 	ldmia.w	sp!, {r4, r5, r6, r7, r8, r9, sl, fp, lr}
  fuzzy->addFuzzyRule(fr27);

  FuzzyRuleAntecedent* LLLL = new FuzzyRuleAntecedent();
  LLLL->joinWithAND(left_low_low, right_low_low);
  FuzzyRule* fr28 = new FuzzyRule(28, LLLL, drive_center);
  fuzzy->addFuzzyRule(fr28);
 80a116c:	f001 bea6 	b.w	80a2ebc <_ZN5Fuzzy12addFuzzyRuleEP9FuzzyRule>
 80a1170:	20000390 	.word	0x20000390

080a1174 <setup>:
}

void setup() {
 80a1174:	b538      	push	{r3, r4, r5, lr}
	tof_init();			// ToF and I2C
 80a1176:	f7fe ffed 	bl	80a0154 <_Z8tof_initv>
	accel_init();		// accelerometer
 80a117a:	f7ff f89f 	bl	80a02bc <_Z10accel_initv>
	others_init();		// line, remote, esc, ***printing***
 80a117e:	f7ff f8b7 	bl	80a02f0 <_Z11others_initv>
	interrupt_init();	// interrupts for lines and remote
 80a1182:	f7ff f8ef 	bl	80a0364 <_Z14interrupt_initv>
	ESC_init();			// Car ESCs
 80a1186:	f7ff f933 	bl	80a03f0 <_Z8ESC_initv>
	// Particle.variable("distance", distance);
	// Particle.variable("Left_ESC", L_command);
	// Particle.variable("Right_ESC", R_command);
	// *********************************************

  while(!RSflag) {  // initial LOW
 80a118a:	4c14      	ldr	r4, [pc, #80]	; (80a11dc <setup+0x68>)
 80a118c:	7823      	ldrb	r3, [r4, #0]
 80a118e:	b92b      	cbnz	r3, 80a119c <setup+0x28>
    Serial.println("Waiting for Start");
 80a1190:	f002 fc36 	bl	80a3a00 <_Z16_fetch_usbserialv>
 80a1194:	4912      	ldr	r1, [pc, #72]	; (80a11e0 <setup+0x6c>)
 80a1196:	f002 fa4b 	bl	80a3630 <_ZN5Print7printlnEPKc>
	// Particle.variable("distance", distance);
	// Particle.variable("Left_ESC", L_command);
	// Particle.variable("Right_ESC", R_command);
	// *********************************************

  while(!RSflag) {  // initial LOW
 80a119a:	e7f7      	b.n	80a118c <setup+0x18>
    Serial.println("Waiting for Start");
    // Particle.publish("Waiting for Start");
  }
  Serial.println("Starting in 5 seconds...");
 80a119c:	f002 fc30 	bl	80a3a00 <_Z16_fetch_usbserialv>
 80a11a0:	4910      	ldr	r1, [pc, #64]	; (80a11e4 <setup+0x70>)
 80a11a2:	f002 fa45 	bl	80a3630 <_ZN5Print7printlnEPKc>
  // Particle.publish("Starting in 5 seconds...");
  delay(5000);
 80a11a6:	f241 3088 	movw	r0, #5000	; 0x1388
 80a11aa:	f002 fafb 	bl	80a37a4 <delay>
  Serial.println("GO!");
 80a11ae:	f002 fc27 	bl	80a3a00 <_Z16_fetch_usbserialv>
 80a11b2:	490d      	ldr	r1, [pc, #52]	; (80a11e8 <setup+0x74>)
 80a11b4:	f002 fa3c 	bl	80a3630 <_ZN5Print7printlnEPKc>
#endif

#include "timer_hal.h"
#include "delay_hal.h"

inline system_tick_t millis(void) { return HAL_Timer_Get_Milli_Seconds(); }
 80a11b8:	f002 f836 	bl	80a3228 <HAL_Timer_Get_Milli_Seconds>
 80a11bc:	4605      	mov	r5, r0
  // Particle.publish("GO!");

  // ***********TIME FUZZY**********************************
  unsigned long currentTime = millis();
  fuzzy_init();		// Fuzzy library************
 80a11be:	f7ff f947 	bl	80a0450 <_Z10fuzzy_initv>
  Serial.println(millis() - currentTime);
 80a11c2:	f002 fc1d 	bl	80a3a00 <_Z16_fetch_usbserialv>
 80a11c6:	4604      	mov	r4, r0
 80a11c8:	f002 f82e 	bl	80a3228 <HAL_Timer_Get_Milli_Seconds>
 80a11cc:	220a      	movs	r2, #10
 80a11ce:	1b41      	subs	r1, r0, r5
 80a11d0:	4620      	mov	r0, r4
  // Measured: 1ms to initialize.
}
 80a11d2:	e8bd 4038 	ldmia.w	sp!, {r3, r4, r5, lr}
  // Particle.publish("GO!");

  // ***********TIME FUZZY**********************************
  unsigned long currentTime = millis();
  fuzzy_init();		// Fuzzy library************
  Serial.println(millis() - currentTime);
 80a11d6:	f002 ba61 	b.w	80a369c <_ZN5Print7printlnEmi>
 80a11da:	bf00      	nop
 80a11dc:	200003ec 	.word	0x200003ec
 80a11e0:	080a509c 	.word	0x080a509c
 80a11e4:	080a50ae 	.word	0x080a50ae
 80a11e8:	080a50c7 	.word	0x080a50c7

080a11ec <loop>:
  // Measured: 1ms to initialize.
}

void loop(){
 80a11ec:	e92d 41f3 	stmdb	sp!, {r0, r1, r4, r5, r6, r7, r8, lr}
	// sensorx.readRangeContinuousMillimeters();
	RR_distance = sensor0.readRangeContinuousMillimeters();
 80a11f0:	4886      	ldr	r0, [pc, #536]	; (80a140c <loop+0x220>)
 80a11f2:	f000 fb17 	bl	80a1824 <_ZN7VL53L0X30readRangeContinuousMillimetersEv>
 80a11f6:	4d86      	ldr	r5, [pc, #536]	; (80a1410 <loop+0x224>)
	RM_distance = sensor1.readRangeContinuousMillimeters();
 80a11f8:	4e86      	ldr	r6, [pc, #536]	; (80a1414 <loop+0x228>)
  // Measured: 1ms to initialize.
}

void loop(){
	// sensorx.readRangeContinuousMillimeters();
	RR_distance = sensor0.readRangeContinuousMillimeters();
 80a11fa:	8028      	strh	r0, [r5, #0]
	RM_distance = sensor1.readRangeContinuousMillimeters();
 80a11fc:	4886      	ldr	r0, [pc, #536]	; (80a1418 <loop+0x22c>)
 80a11fe:	f000 fb11 	bl	80a1824 <_ZN7VL53L0X30readRangeContinuousMillimetersEv>
 80a1202:	8030      	strh	r0, [r6, #0]
	LM_distance = sensor2.readRangeContinuousMillimeters();
 80a1204:	4885      	ldr	r0, [pc, #532]	; (80a141c <loop+0x230>)
 80a1206:	f000 fb0d 	bl	80a1824 <_ZN7VL53L0X30readRangeContinuousMillimetersEv>
 80a120a:	4f85      	ldr	r7, [pc, #532]	; (80a1420 <loop+0x234>)
	LL_distance = sensor3.readRangeContinuousMillimeters();
 80a120c:	4c85      	ldr	r4, [pc, #532]	; (80a1424 <loop+0x238>)

void loop(){
	// sensorx.readRangeContinuousMillimeters();
	RR_distance = sensor0.readRangeContinuousMillimeters();
	RM_distance = sensor1.readRangeContinuousMillimeters();
	LM_distance = sensor2.readRangeContinuousMillimeters();
 80a120e:	8038      	strh	r0, [r7, #0]
	LL_distance = sensor3.readRangeContinuousMillimeters();
 80a1210:	4885      	ldr	r0, [pc, #532]	; (80a1428 <loop+0x23c>)
 80a1212:	f000 fb07 	bl	80a1824 <_ZN7VL53L0X30readRangeContinuousMillimetersEv>
 80a1216:	8020      	strh	r0, [r4, #0]

	if (sensor0.timeoutOccurred() || sensor1.timeoutOccurred() || sensor2.timeoutOccurred() || sensor3.timeoutOccurred()) { Serial.print(" SENSOR TIMEOUT"); }
 80a1218:	487c      	ldr	r0, [pc, #496]	; (80a140c <loop+0x220>)
 80a121a:	f000 fb29 	bl	80a1870 <_ZN7VL53L0X15timeoutOccurredEv>
 80a121e:	46a0      	mov	r8, r4
 80a1220:	2800      	cmp	r0, #0
 80a1222:	f040 80ec 	bne.w	80a13fe <loop+0x212>
 80a1226:	487c      	ldr	r0, [pc, #496]	; (80a1418 <loop+0x22c>)
 80a1228:	f000 fb22 	bl	80a1870 <_ZN7VL53L0X15timeoutOccurredEv>
 80a122c:	2800      	cmp	r0, #0
 80a122e:	f040 80e6 	bne.w	80a13fe <loop+0x212>
 80a1232:	487a      	ldr	r0, [pc, #488]	; (80a141c <loop+0x230>)
 80a1234:	f000 fb1c 	bl	80a1870 <_ZN7VL53L0X15timeoutOccurredEv>
 80a1238:	2800      	cmp	r0, #0
 80a123a:	f040 80e0 	bne.w	80a13fe <loop+0x212>
 80a123e:	487a      	ldr	r0, [pc, #488]	; (80a1428 <loop+0x23c>)
 80a1240:	f000 fb16 	bl	80a1870 <_ZN7VL53L0X15timeoutOccurredEv>
 80a1244:	2800      	cmp	r0, #0
 80a1246:	f040 80da 	bne.w	80a13fe <loop+0x212>
	// xESC.writeMicroseconds(yyyy);
	// ***TBD***
  
  	// FUZZY **************************************************

  	fuzzy->setInput(1, LL_distance);
 80a124a:	f8b8 0000 	ldrh.w	r0, [r8]
 80a124e:	f003 fcab 	bl	80a4ba8 <__aeabi_ui2f>
 80a1252:	4c76      	ldr	r4, [pc, #472]	; (80a142c <loop+0x240>)
 80a1254:	4602      	mov	r2, r0
 80a1256:	2101      	movs	r1, #1
 80a1258:	6820      	ldr	r0, [r4, #0]
 80a125a:	f001 fe42 	bl	80a2ee2 <_ZN5Fuzzy8setInputEif>
  	fuzzy->setInput(2, LM_distance);
 80a125e:	8838      	ldrh	r0, [r7, #0]
 80a1260:	f003 fca2 	bl	80a4ba8 <__aeabi_ui2f>
 80a1264:	2102      	movs	r1, #2
 80a1266:	4602      	mov	r2, r0
 80a1268:	6820      	ldr	r0, [r4, #0]
 80a126a:	f001 fe3a 	bl	80a2ee2 <_ZN5Fuzzy8setInputEif>
  	fuzzy->setInput(3, RM_distance);
 80a126e:	8830      	ldrh	r0, [r6, #0]
 80a1270:	f003 fc9a 	bl	80a4ba8 <__aeabi_ui2f>
 80a1274:	2103      	movs	r1, #3
 80a1276:	4602      	mov	r2, r0
 80a1278:	6820      	ldr	r0, [r4, #0]
 80a127a:	f001 fe32 	bl	80a2ee2 <_ZN5Fuzzy8setInputEif>
  	fuzzy->setInput(4, RR_distance);
 80a127e:	8828      	ldrh	r0, [r5, #0]
 80a1280:	f003 fc92 	bl	80a4ba8 <__aeabi_ui2f>
 80a1284:	2104      	movs	r1, #4
 80a1286:	4602      	mov	r2, r0
 80a1288:	6820      	ldr	r0, [r4, #0]
 80a128a:	f001 fe2a 	bl	80a2ee2 <_ZN5Fuzzy8setInputEif>
  
  	// CURRENT ISSUE: 8192, the max value that the ToF defaults to when it doesn't see
  	// is hard to process in the fuzzy logic since the highest "seen" value is ~1250
  	fuzzy->fuzzify();
 80a128e:	6820      	ldr	r0, [r4, #0]
 80a1290:	f001 fe3b 	bl	80a2f0a <_ZN5Fuzzy7fuzzifyEv>
  	output = fuzzy->defuzzify(1);
 80a1294:	2101      	movs	r1, #1
 80a1296:	6820      	ldr	r0, [r4, #0]
 80a1298:	f001 fe5e 	bl	80a2f58 <_ZN5Fuzzy9defuzzifyEi>
 80a129c:	4c64      	ldr	r4, [pc, #400]	; (80a1430 <loop+0x244>)
 80a129e:	6020      	str	r0, [r4, #0]

  	Serial.print("OUTPUT: ");
 80a12a0:	f002 fbae 	bl	80a3a00 <_Z16_fetch_usbserialv>
 80a12a4:	4963      	ldr	r1, [pc, #396]	; (80a1434 <loop+0x248>)
 80a12a6:	f002 f9b0 	bl	80a360a <_ZN5Print5printEPKc>

  	if((output >= 0) && (output < 20)) {
 80a12aa:	6824      	ldr	r4, [r4, #0]
 80a12ac:	2100      	movs	r1, #0
 80a12ae:	4620      	mov	r0, r4
 80a12b0:	f003 fe84 	bl	80a4fbc <__aeabi_fcmpge>
 80a12b4:	b140      	cbz	r0, 80a12c8 <loop+0xdc>
 80a12b6:	4960      	ldr	r1, [pc, #384]	; (80a1438 <loop+0x24c>)
 80a12b8:	4620      	mov	r0, r4
 80a12ba:	f003 fe6b 	bl	80a4f94 <__aeabi_fcmplt>
 80a12be:	b118      	cbz	r0, 80a12c8 <loop+0xdc>
  		Serial.print("Full Left");
 80a12c0:	f002 fb9e 	bl	80a3a00 <_Z16_fetch_usbserialv>
 80a12c4:	495d      	ldr	r1, [pc, #372]	; (80a143c <loop+0x250>)
 80a12c6:	e036      	b.n	80a1336 <loop+0x14a>
  	} else if((output >= 20) && (output < 40)) {
 80a12c8:	495b      	ldr	r1, [pc, #364]	; (80a1438 <loop+0x24c>)
 80a12ca:	4620      	mov	r0, r4
 80a12cc:	f003 fe76 	bl	80a4fbc <__aeabi_fcmpge>
 80a12d0:	b140      	cbz	r0, 80a12e4 <loop+0xf8>
 80a12d2:	495b      	ldr	r1, [pc, #364]	; (80a1440 <loop+0x254>)
 80a12d4:	4620      	mov	r0, r4
 80a12d6:	f003 fe5d 	bl	80a4f94 <__aeabi_fcmplt>
 80a12da:	b118      	cbz	r0, 80a12e4 <loop+0xf8>
  		Serial.print("Small Left");
 80a12dc:	f002 fb90 	bl	80a3a00 <_Z16_fetch_usbserialv>
 80a12e0:	4958      	ldr	r1, [pc, #352]	; (80a1444 <loop+0x258>)
 80a12e2:	e028      	b.n	80a1336 <loop+0x14a>
	} else if((output >= 40) && (output < 60)) {
 80a12e4:	4956      	ldr	r1, [pc, #344]	; (80a1440 <loop+0x254>)
 80a12e6:	4620      	mov	r0, r4
 80a12e8:	f003 fe68 	bl	80a4fbc <__aeabi_fcmpge>
 80a12ec:	b140      	cbz	r0, 80a1300 <loop+0x114>
 80a12ee:	4956      	ldr	r1, [pc, #344]	; (80a1448 <loop+0x25c>)
 80a12f0:	4620      	mov	r0, r4
 80a12f2:	f003 fe4f 	bl	80a4f94 <__aeabi_fcmplt>
 80a12f6:	b118      	cbz	r0, 80a1300 <loop+0x114>
		Serial.print("Center");
 80a12f8:	f002 fb82 	bl	80a3a00 <_Z16_fetch_usbserialv>
 80a12fc:	4953      	ldr	r1, [pc, #332]	; (80a144c <loop+0x260>)
 80a12fe:	e01a      	b.n	80a1336 <loop+0x14a>
	} else if((output >= 60) && (output < 80)) {
 80a1300:	4951      	ldr	r1, [pc, #324]	; (80a1448 <loop+0x25c>)
 80a1302:	4620      	mov	r0, r4
 80a1304:	f003 fe5a 	bl	80a4fbc <__aeabi_fcmpge>
 80a1308:	b140      	cbz	r0, 80a131c <loop+0x130>
 80a130a:	4951      	ldr	r1, [pc, #324]	; (80a1450 <loop+0x264>)
 80a130c:	4620      	mov	r0, r4
 80a130e:	f003 fe41 	bl	80a4f94 <__aeabi_fcmplt>
 80a1312:	b118      	cbz	r0, 80a131c <loop+0x130>
		Serial.print("Small Right");
 80a1314:	f002 fb74 	bl	80a3a00 <_Z16_fetch_usbserialv>
 80a1318:	494e      	ldr	r1, [pc, #312]	; (80a1454 <loop+0x268>)
 80a131a:	e00c      	b.n	80a1336 <loop+0x14a>
	} else if((output >= 80) && (output < 100)) {
 80a131c:	494c      	ldr	r1, [pc, #304]	; (80a1450 <loop+0x264>)
 80a131e:	4620      	mov	r0, r4
 80a1320:	f003 fe4c 	bl	80a4fbc <__aeabi_fcmpge>
 80a1324:	b148      	cbz	r0, 80a133a <loop+0x14e>
 80a1326:	494c      	ldr	r1, [pc, #304]	; (80a1458 <loop+0x26c>)
 80a1328:	4620      	mov	r0, r4
 80a132a:	f003 fe33 	bl	80a4f94 <__aeabi_fcmplt>
 80a132e:	b120      	cbz	r0, 80a133a <loop+0x14e>
		Serial.print("Full Right");
 80a1330:	f002 fb66 	bl	80a3a00 <_Z16_fetch_usbserialv>
 80a1334:	4949      	ldr	r1, [pc, #292]	; (80a145c <loop+0x270>)
 80a1336:	f002 f968 	bl	80a360a <_ZN5Print5printEPKc>
	}

  	// Serial.print("OUTPUT: ");
  	// Serial.print(output);
  	Serial.print(" | ");
 80a133a:	f002 fb61 	bl	80a3a00 <_Z16_fetch_usbserialv>
 80a133e:	4948      	ldr	r1, [pc, #288]	; (80a1460 <loop+0x274>)
 80a1340:	f002 f963 	bl	80a360a <_ZN5Print5printEPKc>

  	Serial.print("sensor 0:");
 80a1344:	f002 fb5c 	bl	80a3a00 <_Z16_fetch_usbserialv>
 80a1348:	4946      	ldr	r1, [pc, #280]	; (80a1464 <loop+0x278>)
 80a134a:	f002 f95e 	bl	80a360a <_ZN5Print5printEPKc>
  	Serial.print(RR_distance);
 80a134e:	f002 fb57 	bl	80a3a00 <_Z16_fetch_usbserialv>
 80a1352:	220a      	movs	r2, #10
 80a1354:	8829      	ldrh	r1, [r5, #0]
 80a1356:	f002 f9cd 	bl	80a36f4 <_ZN5Print5printEii>
  	Serial.print(" | ");
 80a135a:	f002 fb51 	bl	80a3a00 <_Z16_fetch_usbserialv>
 80a135e:	4940      	ldr	r1, [pc, #256]	; (80a1460 <loop+0x274>)
 80a1360:	f002 f953 	bl	80a360a <_ZN5Print5printEPKc>
  	Serial.print("sensor 1:");
 80a1364:	f002 fb4c 	bl	80a3a00 <_Z16_fetch_usbserialv>
 80a1368:	493f      	ldr	r1, [pc, #252]	; (80a1468 <loop+0x27c>)
 80a136a:	f002 f94e 	bl	80a360a <_ZN5Print5printEPKc>
  	Serial.print(RM_distance);
 80a136e:	f002 fb47 	bl	80a3a00 <_Z16_fetch_usbserialv>
 80a1372:	220a      	movs	r2, #10
 80a1374:	8831      	ldrh	r1, [r6, #0]
 80a1376:	f002 f9bd 	bl	80a36f4 <_ZN5Print5printEii>
  	Serial.print(" | ");
 80a137a:	f002 fb41 	bl	80a3a00 <_Z16_fetch_usbserialv>
 80a137e:	4938      	ldr	r1, [pc, #224]	; (80a1460 <loop+0x274>)
 80a1380:	f002 f943 	bl	80a360a <_ZN5Print5printEPKc>
  	Serial.print("sensor 2:");
 80a1384:	f002 fb3c 	bl	80a3a00 <_Z16_fetch_usbserialv>
 80a1388:	4938      	ldr	r1, [pc, #224]	; (80a146c <loop+0x280>)
 80a138a:	f002 f93e 	bl	80a360a <_ZN5Print5printEPKc>
  	Serial.print(LM_distance);
 80a138e:	f002 fb37 	bl	80a3a00 <_Z16_fetch_usbserialv>
 80a1392:	220a      	movs	r2, #10
 80a1394:	8839      	ldrh	r1, [r7, #0]
 80a1396:	f002 f9ad 	bl	80a36f4 <_ZN5Print5printEii>
  	Serial.print(" | ");
 80a139a:	f002 fb31 	bl	80a3a00 <_Z16_fetch_usbserialv>
 80a139e:	4930      	ldr	r1, [pc, #192]	; (80a1460 <loop+0x274>)
 80a13a0:	f002 f933 	bl	80a360a <_ZN5Print5printEPKc>
  	Serial.print("sensor 3:");
 80a13a4:	f002 fb2c 	bl	80a3a00 <_Z16_fetch_usbserialv>
 80a13a8:	4931      	ldr	r1, [pc, #196]	; (80a1470 <loop+0x284>)
 80a13aa:	f002 f92e 	bl	80a360a <_ZN5Print5printEPKc>
  	Serial.println(LL_distance);
 80a13ae:	f002 fb27 	bl	80a3a00 <_Z16_fetch_usbserialv>
 80a13b2:	f8b8 1000 	ldrh.w	r1, [r8]
 80a13b6:	220a      	movs	r2, #10
 80a13b8:	f002 f99e 	bl	80a36f8 <_ZN5Print7printlnEii>
  	delay(10);
 80a13bc:	200a      	movs	r0, #10
 80a13be:	f002 f9f1 	bl	80a37a4 <delay>
  	// FUZZY ***********************************************


  	// obligatory sampling from accelerometer
  	LIS3DHSample sample;
  	if(!accel.getSample(sample)) {
 80a13c2:	4669      	mov	r1, sp
 80a13c4:	482b      	ldr	r0, [pc, #172]	; (80a1474 <loop+0x288>)
 80a13c6:	f000 ff27 	bl	80a2218 <_ZN6LIS3DH9getSampleER12LIS3DHSample>
 80a13ca:	b920      	cbnz	r0, 80a13d6 <loop+0x1ea>
  		Serial.println("no sample"); // ********************************
 80a13cc:	f002 fb18 	bl	80a3a00 <_Z16_fetch_usbserialv>
 80a13d0:	4929      	ldr	r1, [pc, #164]	; (80a1478 <loop+0x28c>)
 80a13d2:	f002 f92d 	bl	80a3630 <_ZN5Print7printlnEPKc>
  		// Particle.publish("no sample");
  	}

  	if(RSflag == HIGH) {
 80a13d6:	4b29      	ldr	r3, [pc, #164]	; (80a147c <loop+0x290>)
 80a13d8:	4c29      	ldr	r4, [pc, #164]	; (80a1480 <loop+0x294>)
 80a13da:	781a      	ldrb	r2, [r3, #0]
 80a13dc:	4b29      	ldr	r3, [pc, #164]	; (80a1484 <loop+0x298>)
 80a13de:	b11a      	cbz	r2, 80a13e8 <loop+0x1fc>
  		L_command = 1500;
 80a13e0:	f240 52dc 	movw	r2, #1500	; 0x5dc
 80a13e4:	601a      	str	r2, [r3, #0]
    	R_command = 1500;
 80a13e6:	6022      	str	r2, [r4, #0]
  	}

  	LESC.writeMicroseconds(L_command);
 80a13e8:	8819      	ldrh	r1, [r3, #0]
 80a13ea:	4827      	ldr	r0, [pc, #156]	; (80a1488 <loop+0x29c>)
 80a13ec:	f002 f885 	bl	80a34fa <_ZN5Servo17writeMicrosecondsEt>
  	RESC.writeMicroseconds(R_command);
 80a13f0:	8821      	ldrh	r1, [r4, #0]
 80a13f2:	4826      	ldr	r0, [pc, #152]	; (80a148c <loop+0x2a0>)
 80a13f4:	f002 f881 	bl	80a34fa <_ZN5Servo17writeMicrosecondsEt>
 80a13f8:	b002      	add	sp, #8
 80a13fa:	e8bd 81f0 	ldmia.w	sp!, {r4, r5, r6, r7, r8, pc}
	RR_distance = sensor0.readRangeContinuousMillimeters();
	RM_distance = sensor1.readRangeContinuousMillimeters();
	LM_distance = sensor2.readRangeContinuousMillimeters();
	LL_distance = sensor3.readRangeContinuousMillimeters();

	if (sensor0.timeoutOccurred() || sensor1.timeoutOccurred() || sensor2.timeoutOccurred() || sensor3.timeoutOccurred()) { Serial.print(" SENSOR TIMEOUT"); }
 80a13fe:	f002 faff 	bl	80a3a00 <_Z16_fetch_usbserialv>
 80a1402:	4923      	ldr	r1, [pc, #140]	; (80a1490 <loop+0x2a4>)
 80a1404:	f002 f901 	bl	80a360a <_ZN5Print5printEPKc>
 80a1408:	e71f      	b.n	80a124a <loop+0x5e>
 80a140a:	bf00      	nop
 80a140c:	20000394 	.word	0x20000394
 80a1410:	20000368 	.word	0x20000368
 80a1414:	2000040c 	.word	0x2000040c
 80a1418:	200003f0 	.word	0x200003f0
 80a141c:	200003ac 	.word	0x200003ac
 80a1420:	200003ee 	.word	0x200003ee
 80a1424:	2000040e 	.word	0x2000040e
 80a1428:	200003c4 	.word	0x200003c4
 80a142c:	20000390 	.word	0x20000390
 80a1430:	20000364 	.word	0x20000364
 80a1434:	080a50cb 	.word	0x080a50cb
 80a1438:	41a00000 	.word	0x41a00000
 80a143c:	080a50d4 	.word	0x080a50d4
 80a1440:	42200000 	.word	0x42200000
 80a1444:	080a50de 	.word	0x080a50de
 80a1448:	42700000 	.word	0x42700000
 80a144c:	080a50e9 	.word	0x080a50e9
 80a1450:	42a00000 	.word	0x42a00000
 80a1454:	080a50f0 	.word	0x080a50f0
 80a1458:	42c80000 	.word	0x42c80000
 80a145c:	080a50fc 	.word	0x080a50fc
 80a1460:	080a5107 	.word	0x080a5107
 80a1464:	080a510b 	.word	0x080a510b
 80a1468:	080a5115 	.word	0x080a5115
 80a146c:	080a511f 	.word	0x080a511f
 80a1470:	080a5129 	.word	0x080a5129
 80a1474:	2000037c 	.word	0x2000037c
 80a1478:	080a5133 	.word	0x080a5133
 80a147c:	200003ec 	.word	0x200003ec
 80a1480:	20000304 	.word	0x20000304
 80a1484:	2000033c 	.word	0x2000033c
 80a1488:	2000036c 	.word	0x2000036c
 80a148c:	200003dc 	.word	0x200003dc
 80a1490:	080a513d 	.word	0x080a513d

080a1494 <_GLOBAL__sub_I_high1>:
    	R_command = 1500;
  	}

  	LESC.writeMicroseconds(L_command);
  	RESC.writeMicroseconds(R_command);
 80a1494:	b510      	push	{r4, lr}
inline int32_t pinReadFast(pin_t _pin)
{
	return ((PIN_MAP[_pin].gpio_peripheral->IDR & PIN_MAP[_pin].gpio_pin) == 0 ? LOW : HIGH);
}
#elif defined(STM32F2XX)
static STM32_Pin_Info* PIN_MAP = HAL_Pin_Map();
 80a1496:	f001 fe6f 	bl	80a3178 <HAL_Pin_Map>

#if !defined(PARTICLE)
#  include <Wire.h>
#endif

VL53L0X sensor0;	// RR
 80a149a:	4818      	ldr	r0, [pc, #96]	; (80a14fc <_GLOBAL__sub_I_high1+0x68>)
 80a149c:	f000 f84a 	bl	80a1534 <_ZN7VL53L0XC1Ev>
VL53L0X sensor1;	// RM
 80a14a0:	4817      	ldr	r0, [pc, #92]	; (80a1500 <_GLOBAL__sub_I_high1+0x6c>)
 80a14a2:	f000 f847 	bl	80a1534 <_ZN7VL53L0XC1Ev>
VL53L0X sensor2;	// LM
 80a14a6:	4817      	ldr	r0, [pc, #92]	; (80a1504 <_GLOBAL__sub_I_high1+0x70>)
 80a14a8:	f000 f844 	bl	80a1534 <_ZN7VL53L0XC1Ev>
VL53L0X sensor3;	// LL
 80a14ac:	4816      	ldr	r0, [pc, #88]	; (80a1508 <_GLOBAL__sub_I_high1+0x74>)
 80a14ae:	f000 f841 	bl	80a1534 <_ZN7VL53L0XC1Ev>
int BL = D5;
int BR = D6;

int RS = D4;

Servo LESC;
 80a14b2:	4816      	ldr	r0, [pc, #88]	; (80a150c <_GLOBAL__sub_I_high1+0x78>)
 80a14b4:	f002 f841 	bl	80a353a <_ZN5ServoC1Ev>
Servo RESC;
 80a14b8:	4815      	ldr	r0, [pc, #84]	; (80a1510 <_GLOBAL__sub_I_high1+0x7c>)
 80a14ba:	f002 f83e 	bl	80a353a <_ZN5ServoC1Ev>
boolean BLflag = true;
boolean BRflag = true;

boolean RSflag = false;

Fuzzy* fuzzy = new Fuzzy();
 80a14be:	2018      	movs	r0, #24
 80a14c0:	f7fe fdeb 	bl	80a009a <_Znwj>
 80a14c4:	4604      	mov	r4, r0
 80a14c6:	b108      	cbz	r0, 80a14cc <_GLOBAL__sub_I_high1+0x38>
 80a14c8:	f001 fcc5 	bl	80a2e56 <_ZN5FuzzyC1Ev>
 80a14cc:	4b11      	ldr	r3, [pc, #68]	; (80a1514 <_GLOBAL__sub_I_high1+0x80>)
float output;

SYSTEM_THREAD(ENABLED);
 80a14ce:	2100      	movs	r1, #0
 80a14d0:	2001      	movs	r0, #1
boolean BLflag = true;
boolean BRflag = true;

boolean RSflag = false;

Fuzzy* fuzzy = new Fuzzy();
 80a14d2:	601c      	str	r4, [r3, #0]
float output;

SYSTEM_THREAD(ENABLED);
 80a14d4:	f001 ffba 	bl	80a344c <system_thread_set_state>

class SystemClass {
public:

    SystemClass(System_Mode_TypeDef mode = DEFAULT) {
        set_system_mode(mode);
 80a14d8:	2003      	movs	r0, #3
 80a14da:	f001 ffa7 	bl	80a342c <set_system_mode>
// Try to print on web console**************************
SYSTEM_MODE(MANUAL);

// Accelerometer
const unsigned long PRINT_SAMPLE_PERIOD = 100;
LIS3DHI2C accel(Wire, 0, WKP);
 80a14de:	f002 fc9d 	bl	80a3e1c <_Z19__fetch_global_Wirev>
 80a14e2:	2200      	movs	r2, #0
 80a14e4:	4601      	mov	r1, r0
 80a14e6:	2311      	movs	r3, #17
 80a14e8:	480b      	ldr	r0, [pc, #44]	; (80a1518 <_GLOBAL__sub_I_high1+0x84>)
 80a14ea:	f000 ff29 	bl	80a2340 <_ZN9LIS3DHI2CC1ER7TwoWirehi>
    	R_command = 1500;
  	}

  	LESC.writeMicroseconds(L_command);
  	RESC.writeMicroseconds(R_command);
 80a14ee:	e8bd 4010 	ldmia.w	sp!, {r4, lr}
// Try to print on web console**************************
SYSTEM_MODE(MANUAL);

// Accelerometer
const unsigned long PRINT_SAMPLE_PERIOD = 100;
LIS3DHI2C accel(Wire, 0, WKP);
 80a14f2:	4a0a      	ldr	r2, [pc, #40]	; (80a151c <_GLOBAL__sub_I_high1+0x88>)
 80a14f4:	490a      	ldr	r1, [pc, #40]	; (80a1520 <_GLOBAL__sub_I_high1+0x8c>)
 80a14f6:	4808      	ldr	r0, [pc, #32]	; (80a1518 <_GLOBAL__sub_I_high1+0x84>)
 80a14f8:	f002 bcb0 	b.w	80a3e5c <__aeabi_atexit>
 80a14fc:	20000394 	.word	0x20000394
 80a1500:	200003f0 	.word	0x200003f0
 80a1504:	200003ac 	.word	0x200003ac
 80a1508:	200003c4 	.word	0x200003c4
 80a150c:	2000036c 	.word	0x2000036c
 80a1510:	200003dc 	.word	0x200003dc
 80a1514:	20000390 	.word	0x20000390
 80a1518:	2000037c 	.word	0x2000037c
 80a151c:	20000360 	.word	0x20000360
 80a1520:	080a2105 	.word	0x080a2105

080a1524 <_ZN7TwoWire5writeEm>:
  virtual int peek(void);
  virtual void flush(void);
  void onReceive(void (*)(int));
  void onRequest(void (*)(void));

  inline size_t write(unsigned long n) { return write((uint8_t)n); }
 80a1524:	6803      	ldr	r3, [r0, #0]
 80a1526:	b2c9      	uxtb	r1, r1
 80a1528:	689b      	ldr	r3, [r3, #8]
 80a152a:	4718      	bx	r3

080a152c <_ZN7TwoWire5writeEi>:
  inline size_t write(long n) { return write((uint8_t)n); }
  inline size_t write(unsigned int n) { return write((uint8_t)n); }
  inline size_t write(int n) { return write((uint8_t)n); }
 80a152c:	6803      	ldr	r3, [r0, #0]
 80a152e:	b2c9      	uxtb	r1, r1
 80a1530:	689b      	ldr	r3, [r3, #8]
 80a1532:	4718      	bx	r3

080a1534 <_ZN7VL53L0XC1Ev>:
// Constructors ////////////////////////////////////////////////////////////////

VL53L0X::VL53L0X(void)
  : address(ADDRESS_DEFAULT)
  , io_timeout(0) // no timeout
  , did_timeout(false)
 80a1534:	2229      	movs	r2, #41	; 0x29
 80a1536:	7042      	strb	r2, [r0, #1]
 80a1538:	2200      	movs	r2, #0
 80a153a:	6042      	str	r2, [r0, #4]
 80a153c:	7202      	strb	r2, [r0, #8]
{
}
 80a153e:	4770      	bx	lr

080a1540 <_ZN7VL53L0X8writeRegEhh>:
  return true;
}

// Write an 8-bit register
void VL53L0X::writeReg(uint8_t reg, uint8_t value)
{
 80a1540:	b570      	push	{r4, r5, r6, lr}
 80a1542:	4604      	mov	r4, r0
 80a1544:	4615      	mov	r5, r2
 80a1546:	460e      	mov	r6, r1
  Wire.beginTransmission(address);
 80a1548:	f002 fc68 	bl	80a3e1c <_Z19__fetch_global_Wirev>
 80a154c:	7861      	ldrb	r1, [r4, #1]
 80a154e:	f002 fba4 	bl	80a3c9a <_ZN7TwoWire17beginTransmissionEh>
  Wire.write(reg);
 80a1552:	f002 fc63 	bl	80a3e1c <_Z19__fetch_global_Wirev>
 80a1556:	6803      	ldr	r3, [r0, #0]
 80a1558:	4631      	mov	r1, r6
 80a155a:	689b      	ldr	r3, [r3, #8]
 80a155c:	4798      	blx	r3
  Wire.write(value);
 80a155e:	f002 fc5d 	bl	80a3e1c <_Z19__fetch_global_Wirev>
 80a1562:	6803      	ldr	r3, [r0, #0]
 80a1564:	4629      	mov	r1, r5
 80a1566:	689b      	ldr	r3, [r3, #8]
 80a1568:	4798      	blx	r3
  last_status = Wire.endTransmission();
 80a156a:	f002 fc57 	bl	80a3e1c <_Z19__fetch_global_Wirev>
 80a156e:	f002 fb9c 	bl	80a3caa <_ZN7TwoWire15endTransmissionEv>
 80a1572:	7020      	strb	r0, [r4, #0]
 80a1574:	bd70      	pop	{r4, r5, r6, pc}

080a1576 <_ZN7VL53L0X10setAddressEh>:
}

// Public Methods //////////////////////////////////////////////////////////////

void VL53L0X::setAddress(uint8_t new_addr)
{
 80a1576:	b538      	push	{r3, r4, r5, lr}
 80a1578:	4605      	mov	r5, r0
 80a157a:	460c      	mov	r4, r1
  writeReg(I2C_SLAVE_DEVICE_ADDRESS, new_addr & 0x7F);
 80a157c:	f001 027f 	and.w	r2, r1, #127	; 0x7f
 80a1580:	218a      	movs	r1, #138	; 0x8a
 80a1582:	f7ff ffdd 	bl	80a1540 <_ZN7VL53L0X8writeRegEhh>
  address = new_addr;
 80a1586:	706c      	strb	r4, [r5, #1]
 80a1588:	bd38      	pop	{r3, r4, r5, pc}

080a158a <_ZN7VL53L0X13writeReg16BitEht>:
  last_status = Wire.endTransmission();
}

// Write a 16-bit register
void VL53L0X::writeReg16Bit(uint8_t reg, uint16_t value)
{
 80a158a:	b570      	push	{r4, r5, r6, lr}
 80a158c:	4604      	mov	r4, r0
 80a158e:	4615      	mov	r5, r2
 80a1590:	460e      	mov	r6, r1
  Wire.beginTransmission(address);
 80a1592:	f002 fc43 	bl	80a3e1c <_Z19__fetch_global_Wirev>
 80a1596:	7861      	ldrb	r1, [r4, #1]
 80a1598:	f002 fb7f 	bl	80a3c9a <_ZN7TwoWire17beginTransmissionEh>
  Wire.write(reg);
 80a159c:	f002 fc3e 	bl	80a3e1c <_Z19__fetch_global_Wirev>
 80a15a0:	6803      	ldr	r3, [r0, #0]
 80a15a2:	4631      	mov	r1, r6
 80a15a4:	689b      	ldr	r3, [r3, #8]
 80a15a6:	4798      	blx	r3
  Wire.write((value >> 8) & 0xFF); // value high byte
 80a15a8:	f002 fc38 	bl	80a3e1c <_Z19__fetch_global_Wirev>
 80a15ac:	0a29      	lsrs	r1, r5, #8
 80a15ae:	f7ff ffbd 	bl	80a152c <_ZN7TwoWire5writeEi>
  Wire.write( value       & 0xFF); // value low byte
 80a15b2:	f002 fc33 	bl	80a3e1c <_Z19__fetch_global_Wirev>
 80a15b6:	b2e9      	uxtb	r1, r5
 80a15b8:	f7ff ffb8 	bl	80a152c <_ZN7TwoWire5writeEi>
  last_status = Wire.endTransmission();
 80a15bc:	f002 fc2e 	bl	80a3e1c <_Z19__fetch_global_Wirev>
 80a15c0:	f002 fb73 	bl	80a3caa <_ZN7TwoWire15endTransmissionEv>
 80a15c4:	7020      	strb	r0, [r4, #0]
 80a15c6:	bd70      	pop	{r4, r5, r6, pc}

080a15c8 <_ZN7VL53L0X13writeReg32BitEhm>:
}

// Write a 32-bit register
void VL53L0X::writeReg32Bit(uint8_t reg, uint32_t value)
{
 80a15c8:	b570      	push	{r4, r5, r6, lr}
 80a15ca:	4605      	mov	r5, r0
 80a15cc:	4614      	mov	r4, r2
 80a15ce:	460e      	mov	r6, r1
  Wire.beginTransmission(address);
 80a15d0:	f002 fc24 	bl	80a3e1c <_Z19__fetch_global_Wirev>
 80a15d4:	7869      	ldrb	r1, [r5, #1]
 80a15d6:	f002 fb60 	bl	80a3c9a <_ZN7TwoWire17beginTransmissionEh>
  Wire.write(reg);
 80a15da:	f002 fc1f 	bl	80a3e1c <_Z19__fetch_global_Wirev>
 80a15de:	6803      	ldr	r3, [r0, #0]
 80a15e0:	4631      	mov	r1, r6
 80a15e2:	689b      	ldr	r3, [r3, #8]
 80a15e4:	4798      	blx	r3
  Wire.write((value >> 24) & 0xFF); // value highest byte
 80a15e6:	f002 fc19 	bl	80a3e1c <_Z19__fetch_global_Wirev>
 80a15ea:	0e21      	lsrs	r1, r4, #24
 80a15ec:	f7ff ff9a 	bl	80a1524 <_ZN7TwoWire5writeEm>
  Wire.write((value >> 16) & 0xFF);
 80a15f0:	f002 fc14 	bl	80a3e1c <_Z19__fetch_global_Wirev>
 80a15f4:	f3c4 4107 	ubfx	r1, r4, #16, #8
 80a15f8:	f7ff ff94 	bl	80a1524 <_ZN7TwoWire5writeEm>
  Wire.write((value >>  8) & 0xFF);
 80a15fc:	f002 fc0e 	bl	80a3e1c <_Z19__fetch_global_Wirev>
 80a1600:	f3c4 2107 	ubfx	r1, r4, #8, #8
 80a1604:	f7ff ff8e 	bl	80a1524 <_ZN7TwoWire5writeEm>
  Wire.write( value        & 0xFF); // value lowest byte
 80a1608:	f002 fc08 	bl	80a3e1c <_Z19__fetch_global_Wirev>
 80a160c:	b2e1      	uxtb	r1, r4
 80a160e:	f7ff ff89 	bl	80a1524 <_ZN7TwoWire5writeEm>
  last_status = Wire.endTransmission();
 80a1612:	f002 fc03 	bl	80a3e1c <_Z19__fetch_global_Wirev>
 80a1616:	f002 fb48 	bl	80a3caa <_ZN7TwoWire15endTransmissionEv>
 80a161a:	7028      	strb	r0, [r5, #0]
 80a161c:	bd70      	pop	{r4, r5, r6, pc}

080a161e <_ZN7VL53L0X7readRegEh>:
}

// Read an 8-bit register
uint8_t VL53L0X::readReg(uint8_t reg)
{
 80a161e:	b538      	push	{r3, r4, r5, lr}
 80a1620:	4604      	mov	r4, r0
 80a1622:	460d      	mov	r5, r1
  uint8_t value;

  Wire.beginTransmission(address);
 80a1624:	f002 fbfa 	bl	80a3e1c <_Z19__fetch_global_Wirev>
 80a1628:	7861      	ldrb	r1, [r4, #1]
 80a162a:	f002 fb36 	bl	80a3c9a <_ZN7TwoWire17beginTransmissionEh>
  Wire.write(reg);
 80a162e:	f002 fbf5 	bl	80a3e1c <_Z19__fetch_global_Wirev>
 80a1632:	6803      	ldr	r3, [r0, #0]
 80a1634:	4629      	mov	r1, r5
 80a1636:	689b      	ldr	r3, [r3, #8]
 80a1638:	4798      	blx	r3
  last_status = Wire.endTransmission();
 80a163a:	f002 fbef 	bl	80a3e1c <_Z19__fetch_global_Wirev>
 80a163e:	f002 fb34 	bl	80a3caa <_ZN7TwoWire15endTransmissionEv>
 80a1642:	7020      	strb	r0, [r4, #0]

  Wire.requestFrom(address, (uint8_t)1);
 80a1644:	f002 fbea 	bl	80a3e1c <_Z19__fetch_global_Wirev>
 80a1648:	2201      	movs	r2, #1
 80a164a:	7861      	ldrb	r1, [r4, #1]
 80a164c:	f002 fb1d 	bl	80a3c8a <_ZN7TwoWire11requestFromEhh>
  value = Wire.read();
 80a1650:	f002 fbe4 	bl	80a3e1c <_Z19__fetch_global_Wirev>
 80a1654:	6803      	ldr	r3, [r0, #0]
 80a1656:	695b      	ldr	r3, [r3, #20]
 80a1658:	4798      	blx	r3

  return value;
}
 80a165a:	b2c0      	uxtb	r0, r0
 80a165c:	bd38      	pop	{r3, r4, r5, pc}

080a165e <_ZN7VL53L0X12readReg16BitEh>:

// Read a 16-bit register
uint16_t VL53L0X::readReg16Bit(uint8_t reg)
{
 80a165e:	b538      	push	{r3, r4, r5, lr}
 80a1660:	4604      	mov	r4, r0
 80a1662:	460d      	mov	r5, r1
  uint16_t value;

  Wire.beginTransmission(address);
 80a1664:	f002 fbda 	bl	80a3e1c <_Z19__fetch_global_Wirev>
 80a1668:	7861      	ldrb	r1, [r4, #1]
 80a166a:	f002 fb16 	bl	80a3c9a <_ZN7TwoWire17beginTransmissionEh>
  Wire.write(reg);
 80a166e:	f002 fbd5 	bl	80a3e1c <_Z19__fetch_global_Wirev>
 80a1672:	6803      	ldr	r3, [r0, #0]
 80a1674:	4629      	mov	r1, r5
 80a1676:	689b      	ldr	r3, [r3, #8]
 80a1678:	4798      	blx	r3
  last_status = Wire.endTransmission();
 80a167a:	f002 fbcf 	bl	80a3e1c <_Z19__fetch_global_Wirev>
 80a167e:	f002 fb14 	bl	80a3caa <_ZN7TwoWire15endTransmissionEv>
 80a1682:	7020      	strb	r0, [r4, #0]

  Wire.requestFrom(address, (uint8_t)2);
 80a1684:	f002 fbca 	bl	80a3e1c <_Z19__fetch_global_Wirev>
 80a1688:	7861      	ldrb	r1, [r4, #1]
 80a168a:	2202      	movs	r2, #2
 80a168c:	f002 fafd 	bl	80a3c8a <_ZN7TwoWire11requestFromEhh>
  value  = (uint16_t)Wire.read() << 8; // value high byte
 80a1690:	f002 fbc4 	bl	80a3e1c <_Z19__fetch_global_Wirev>
 80a1694:	6803      	ldr	r3, [r0, #0]
 80a1696:	695b      	ldr	r3, [r3, #20]
 80a1698:	4798      	blx	r3
 80a169a:	4604      	mov	r4, r0
  value |=           Wire.read();      // value low byte
 80a169c:	f002 fbbe 	bl	80a3e1c <_Z19__fetch_global_Wirev>
 80a16a0:	6803      	ldr	r3, [r0, #0]
 80a16a2:	695b      	ldr	r3, [r3, #20]
 80a16a4:	4798      	blx	r3
 80a16a6:	ea40 2004 	orr.w	r0, r0, r4, lsl #8

  return value;
}
 80a16aa:	b280      	uxth	r0, r0
 80a16ac:	bd38      	pop	{r3, r4, r5, pc}

080a16ae <_ZN7VL53L0X10writeMultiEhPKhh>:
}

// Write an arbitrary number of bytes from the given array to the sensor,
// starting at the given register
void VL53L0X::writeMulti(uint8_t reg, uint8_t const * src, uint8_t count)
{
 80a16ae:	b5f8      	push	{r3, r4, r5, r6, r7, lr}
 80a16b0:	4606      	mov	r6, r0
 80a16b2:	4614      	mov	r4, r2
 80a16b4:	461d      	mov	r5, r3
 80a16b6:	460f      	mov	r7, r1
  Wire.beginTransmission(address);
 80a16b8:	f002 fbb0 	bl	80a3e1c <_Z19__fetch_global_Wirev>
 80a16bc:	7871      	ldrb	r1, [r6, #1]
 80a16be:	f002 faec 	bl	80a3c9a <_ZN7TwoWire17beginTransmissionEh>
  Wire.write(reg);
 80a16c2:	f002 fbab 	bl	80a3e1c <_Z19__fetch_global_Wirev>
 80a16c6:	6803      	ldr	r3, [r0, #0]
 80a16c8:	4639      	mov	r1, r7
 80a16ca:	689b      	ldr	r3, [r3, #8]
 80a16cc:	4798      	blx	r3
 80a16ce:	4425      	add	r5, r4

  while (count-- > 0)
 80a16d0:	42ac      	cmp	r4, r5
 80a16d2:	d007      	beq.n	80a16e4 <_ZN7VL53L0X10writeMultiEhPKhh+0x36>
  {
    Wire.write(*(src++));
 80a16d4:	f002 fba2 	bl	80a3e1c <_Z19__fetch_global_Wirev>
 80a16d8:	6803      	ldr	r3, [r0, #0]
 80a16da:	f814 1b01 	ldrb.w	r1, [r4], #1
 80a16de:	689b      	ldr	r3, [r3, #8]
 80a16e0:	4798      	blx	r3
void VL53L0X::writeMulti(uint8_t reg, uint8_t const * src, uint8_t count)
{
  Wire.beginTransmission(address);
  Wire.write(reg);

  while (count-- > 0)
 80a16e2:	e7f5      	b.n	80a16d0 <_ZN7VL53L0X10writeMultiEhPKhh+0x22>
  {
    Wire.write(*(src++));
  }

  last_status = Wire.endTransmission();
 80a16e4:	f002 fb9a 	bl	80a3e1c <_Z19__fetch_global_Wirev>
 80a16e8:	f002 fadf 	bl	80a3caa <_ZN7TwoWire15endTransmissionEv>
 80a16ec:	7030      	strb	r0, [r6, #0]
 80a16ee:	bdf8      	pop	{r3, r4, r5, r6, r7, pc}

080a16f0 <_ZN7VL53L0X9readMultiEhPhh>:
}

// Read an arbitrary number of bytes from the sensor, starting at the given
// register, into the given array
void VL53L0X::readMulti(uint8_t reg, uint8_t * dst, uint8_t count)
{
 80a16f0:	b5f8      	push	{r3, r4, r5, r6, r7, lr}
 80a16f2:	4606      	mov	r6, r0
 80a16f4:	4614      	mov	r4, r2
 80a16f6:	461d      	mov	r5, r3
 80a16f8:	460f      	mov	r7, r1
  Wire.beginTransmission(address);
 80a16fa:	f002 fb8f 	bl	80a3e1c <_Z19__fetch_global_Wirev>
 80a16fe:	7871      	ldrb	r1, [r6, #1]
 80a1700:	f002 facb 	bl	80a3c9a <_ZN7TwoWire17beginTransmissionEh>
  Wire.write(reg);
 80a1704:	f002 fb8a 	bl	80a3e1c <_Z19__fetch_global_Wirev>
 80a1708:	6803      	ldr	r3, [r0, #0]
 80a170a:	4639      	mov	r1, r7
 80a170c:	689b      	ldr	r3, [r3, #8]
 80a170e:	4798      	blx	r3
  last_status = Wire.endTransmission();
 80a1710:	f002 fb84 	bl	80a3e1c <_Z19__fetch_global_Wirev>
 80a1714:	f002 fac9 	bl	80a3caa <_ZN7TwoWire15endTransmissionEv>
 80a1718:	7030      	strb	r0, [r6, #0]

  Wire.requestFrom(address, count);
 80a171a:	f002 fb7f 	bl	80a3e1c <_Z19__fetch_global_Wirev>
 80a171e:	462a      	mov	r2, r5
 80a1720:	7871      	ldrb	r1, [r6, #1]
 80a1722:	f002 fab2 	bl	80a3c8a <_ZN7TwoWire11requestFromEhh>
 80a1726:	4425      	add	r5, r4

  while (count-- > 0)
 80a1728:	42ac      	cmp	r4, r5
 80a172a:	d007      	beq.n	80a173c <_ZN7VL53L0X9readMultiEhPhh+0x4c>
  {
    *(dst++) = Wire.read();
 80a172c:	f002 fb76 	bl	80a3e1c <_Z19__fetch_global_Wirev>
 80a1730:	6803      	ldr	r3, [r0, #0]
 80a1732:	695b      	ldr	r3, [r3, #20]
 80a1734:	4798      	blx	r3
 80a1736:	f804 0b01 	strb.w	r0, [r4], #1
  Wire.write(reg);
  last_status = Wire.endTransmission();

  Wire.requestFrom(address, count);

  while (count-- > 0)
 80a173a:	e7f5      	b.n	80a1728 <_ZN7VL53L0X9readMultiEhPhh+0x38>
 80a173c:	bdf8      	pop	{r3, r4, r5, r6, r7, pc}
	...

080a1740 <_ZN7VL53L0X18setSignalRateLimitEf>:
// Setting a lower limit increases the potential range of the sensor but also
// seems to increase the likelihood of getting an inaccurate reading because of
// unwanted reflections from objects other than the intended target.
// Defaults to 0.25 MCPS as initialized by the ST API and this library.
bool VL53L0X::setSignalRateLimit(float limit_Mcps)
{
 80a1740:	b570      	push	{r4, r5, r6, lr}
 80a1742:	460d      	mov	r5, r1
 80a1744:	4606      	mov	r6, r0
  if (limit_Mcps < 0 || limit_Mcps > 511.99) { return false; }
 80a1746:	2100      	movs	r1, #0
 80a1748:	4628      	mov	r0, r5
 80a174a:	f003 fc23 	bl	80a4f94 <__aeabi_fcmplt>
 80a174e:	b9b0      	cbnz	r0, 80a177e <_ZN7VL53L0X18setSignalRateLimitEf+0x3e>
 80a1750:	4628      	mov	r0, r5
 80a1752:	f002 fe35 	bl	80a43c0 <__aeabi_f2d>
 80a1756:	a30c      	add	r3, pc, #48	; (adr r3, 80a1788 <_ZN7VL53L0X18setSignalRateLimitEf+0x48>)
 80a1758:	e9d3 2300 	ldrd	r2, r3, [r3]
 80a175c:	f003 f914 	bl	80a4988 <__aeabi_dcmpgt>
 80a1760:	b968      	cbnz	r0, 80a177e <_ZN7VL53L0X18setSignalRateLimitEf+0x3e>

  // Q9.7 fixed point format (9 integer bits, 7 fractional bits)
  writeReg16Bit(FINAL_RANGE_CONFIG_MIN_COUNT_RATE_RTN_LIMIT, limit_Mcps * (1 << 7));
 80a1762:	f04f 4186 	mov.w	r1, #1124073472	; 0x43000000
 80a1766:	4628      	mov	r0, r5
 80a1768:	f003 fa76 	bl	80a4c58 <__aeabi_fmul>
 80a176c:	f003 fc3a 	bl	80a4fe4 <__aeabi_f2uiz>
 80a1770:	2144      	movs	r1, #68	; 0x44
 80a1772:	b282      	uxth	r2, r0
 80a1774:	4630      	mov	r0, r6
 80a1776:	f7ff ff08 	bl	80a158a <_ZN7VL53L0X13writeReg16BitEht>
 80a177a:	2001      	movs	r0, #1
 80a177c:	bd70      	pop	{r4, r5, r6, pc}
// seems to increase the likelihood of getting an inaccurate reading because of
// unwanted reflections from objects other than the intended target.
// Defaults to 0.25 MCPS as initialized by the ST API and this library.
bool VL53L0X::setSignalRateLimit(float limit_Mcps)
{
  if (limit_Mcps < 0 || limit_Mcps > 511.99) { return false; }
 80a177e:	2000      	movs	r0, #0
 80a1780:	bd70      	pop	{r4, r5, r6, pc}
 80a1782:	bf00      	nop
 80a1784:	f3af 8000 	nop.w
 80a1788:	0a3d70a4 	.word	0x0a3d70a4
 80a178c:	407fffd7 	.word	0x407fffd7

080a1790 <_ZN7VL53L0X19getVcselPulsePeriodENS_15vcselPeriodTypeE>:
}

// Get the VCSEL pulse period in PCLKs for the given period type.
// based on VL53L0X_get_vcsel_pulse_period()
uint8_t VL53L0X::getVcselPulsePeriod(vcselPeriodType type)
{
 80a1790:	b508      	push	{r3, lr}
  if (type == VcselPeriodPreRange)
 80a1792:	b909      	cbnz	r1, 80a1798 <_ZN7VL53L0X19getVcselPulsePeriodENS_15vcselPeriodTypeE+0x8>
  {
    return decodeVcselPeriod(readReg(PRE_RANGE_CONFIG_VCSEL_PERIOD));
 80a1794:	2150      	movs	r1, #80	; 0x50
 80a1796:	e002      	b.n	80a179e <_ZN7VL53L0X19getVcselPulsePeriodENS_15vcselPeriodTypeE+0xe>
  }
  else if (type == VcselPeriodFinalRange)
 80a1798:	2901      	cmp	r1, #1
 80a179a:	d106      	bne.n	80a17aa <_ZN7VL53L0X19getVcselPulsePeriodENS_15vcselPeriodTypeE+0x1a>
  {
    return decodeVcselPeriod(readReg(FINAL_RANGE_CONFIG_VCSEL_PERIOD));
 80a179c:	2170      	movs	r1, #112	; 0x70
 80a179e:	f7ff ff3e 	bl	80a161e <_ZN7VL53L0X7readRegEh>
 80a17a2:	3001      	adds	r0, #1
 80a17a4:	0040      	lsls	r0, r0, #1
 80a17a6:	b2c0      	uxtb	r0, r0
 80a17a8:	bd08      	pop	{r3, pc}
  }
  else { return 255; }
 80a17aa:	20ff      	movs	r0, #255	; 0xff
}
 80a17ac:	bd08      	pop	{r3, pc}

080a17ae <_ZN7VL53L0X15startContinuousEm>:
// often as possible); otherwise, continuous timed mode is used, with the given
// inter-measurement period in milliseconds determining how often the sensor
// takes a measurement.
// based on VL53L0X_StartMeasurement()
void VL53L0X::startContinuous(uint32_t period_ms)
{
 80a17ae:	b538      	push	{r3, r4, r5, lr}
 80a17b0:	4604      	mov	r4, r0
 80a17b2:	460d      	mov	r5, r1
  writeReg(0x80, 0x01);
 80a17b4:	2201      	movs	r2, #1
 80a17b6:	2180      	movs	r1, #128	; 0x80
 80a17b8:	f7ff fec2 	bl	80a1540 <_ZN7VL53L0X8writeRegEhh>
  writeReg(0xFF, 0x01);
 80a17bc:	2201      	movs	r2, #1
 80a17be:	21ff      	movs	r1, #255	; 0xff
 80a17c0:	4620      	mov	r0, r4
 80a17c2:	f7ff febd 	bl	80a1540 <_ZN7VL53L0X8writeRegEhh>
  writeReg(0x00, 0x00);
 80a17c6:	2200      	movs	r2, #0
 80a17c8:	4611      	mov	r1, r2
 80a17ca:	4620      	mov	r0, r4
 80a17cc:	f7ff feb8 	bl	80a1540 <_ZN7VL53L0X8writeRegEhh>
  writeReg(0x91, stop_variable);
 80a17d0:	7c22      	ldrb	r2, [r4, #16]
 80a17d2:	2191      	movs	r1, #145	; 0x91
 80a17d4:	4620      	mov	r0, r4
 80a17d6:	f7ff feb3 	bl	80a1540 <_ZN7VL53L0X8writeRegEhh>
  writeReg(0x00, 0x01);
 80a17da:	2201      	movs	r2, #1
 80a17dc:	2100      	movs	r1, #0
 80a17de:	4620      	mov	r0, r4
 80a17e0:	f7ff feae 	bl	80a1540 <_ZN7VL53L0X8writeRegEhh>
  writeReg(0xFF, 0x00);
 80a17e4:	2200      	movs	r2, #0
 80a17e6:	21ff      	movs	r1, #255	; 0xff
 80a17e8:	4620      	mov	r0, r4
 80a17ea:	f7ff fea9 	bl	80a1540 <_ZN7VL53L0X8writeRegEhh>
  writeReg(0x80, 0x00);
 80a17ee:	2200      	movs	r2, #0
 80a17f0:	2180      	movs	r1, #128	; 0x80
 80a17f2:	4620      	mov	r0, r4
 80a17f4:	f7ff fea4 	bl	80a1540 <_ZN7VL53L0X8writeRegEhh>

  if (period_ms != 0)
 80a17f8:	b16d      	cbz	r5, 80a1816 <_ZN7VL53L0X15startContinuousEm+0x68>
  {
    // continuous timed mode

    // VL53L0X_SetInterMeasurementPeriodMilliSeconds() begin

    uint16_t osc_calibrate_val = readReg16Bit(OSC_CALIBRATE_VAL);
 80a17fa:	21f8      	movs	r1, #248	; 0xf8
 80a17fc:	4620      	mov	r0, r4
 80a17fe:	f7ff ff2e 	bl	80a165e <_ZN7VL53L0X12readReg16BitEh>

    if (osc_calibrate_val != 0)
 80a1802:	b100      	cbz	r0, 80a1806 <_ZN7VL53L0X15startContinuousEm+0x58>
    {
      period_ms *= osc_calibrate_val;
 80a1804:	4345      	muls	r5, r0
    }

    writeReg32Bit(SYSTEM_INTERMEASUREMENT_PERIOD, period_ms);
 80a1806:	462a      	mov	r2, r5
 80a1808:	2104      	movs	r1, #4
 80a180a:	4620      	mov	r0, r4
 80a180c:	f7ff fedc 	bl	80a15c8 <_ZN7VL53L0X13writeReg32BitEhm>

    // VL53L0X_SetInterMeasurementPeriodMilliSeconds() end

    writeReg(SYSRANGE_START, 0x04); // VL53L0X_REG_SYSRANGE_MODE_TIMED
 80a1810:	2204      	movs	r2, #4
 80a1812:	2100      	movs	r1, #0
 80a1814:	e001      	b.n	80a181a <_ZN7VL53L0X15startContinuousEm+0x6c>
  }
  else
  {
    // continuous back-to-back mode
    writeReg(SYSRANGE_START, 0x02); // VL53L0X_REG_SYSRANGE_MODE_BACKTOBACK
 80a1816:	4629      	mov	r1, r5
 80a1818:	2202      	movs	r2, #2
 80a181a:	4620      	mov	r0, r4
  }
}
 80a181c:	e8bd 4038 	ldmia.w	sp!, {r3, r4, r5, lr}
    writeReg(SYSRANGE_START, 0x04); // VL53L0X_REG_SYSRANGE_MODE_TIMED
  }
  else
  {
    // continuous back-to-back mode
    writeReg(SYSRANGE_START, 0x02); // VL53L0X_REG_SYSRANGE_MODE_BACKTOBACK
 80a1820:	f7ff be8e 	b.w	80a1540 <_ZN7VL53L0X8writeRegEhh>

080a1824 <_ZN7VL53L0X30readRangeContinuousMillimetersEv>:

// Returns a range reading in millimeters when continuous mode is active
// (readRangeSingleMillimeters() also calls this function after starting a
// single-shot range measurement)
uint16_t VL53L0X::readRangeContinuousMillimeters(void)
{
 80a1824:	b538      	push	{r3, r4, r5, lr}
 80a1826:	4604      	mov	r4, r0
 80a1828:	f001 fcfe 	bl	80a3228 <HAL_Timer_Get_Milli_Seconds>
  startTimeout();
 80a182c:	60e0      	str	r0, [r4, #12]
  while ((readReg(RESULT_INTERRUPT_STATUS) & 0x07) == 0)
 80a182e:	2113      	movs	r1, #19
 80a1830:	4620      	mov	r0, r4
 80a1832:	f7ff fef4 	bl	80a161e <_ZN7VL53L0X7readRegEh>
 80a1836:	0743      	lsls	r3, r0, #29
 80a1838:	d10e      	bne.n	80a1858 <_ZN7VL53L0X30readRangeContinuousMillimetersEv+0x34>
  {
    if (checkTimeoutExpired())
 80a183a:	6863      	ldr	r3, [r4, #4]
 80a183c:	2b00      	cmp	r3, #0
 80a183e:	d0f6      	beq.n	80a182e <_ZN7VL53L0X30readRangeContinuousMillimetersEv+0xa>
 80a1840:	f001 fcf2 	bl	80a3228 <HAL_Timer_Get_Milli_Seconds>
 80a1844:	68e3      	ldr	r3, [r4, #12]
 80a1846:	1ac0      	subs	r0, r0, r3
 80a1848:	6863      	ldr	r3, [r4, #4]
 80a184a:	4298      	cmp	r0, r3
 80a184c:	d9ef      	bls.n	80a182e <_ZN7VL53L0X30readRangeContinuousMillimetersEv+0xa>
    {
      did_timeout = true;
 80a184e:	2301      	movs	r3, #1
 80a1850:	7223      	strb	r3, [r4, #8]
      return 65535;
 80a1852:	f64f 70ff 	movw	r0, #65535	; 0xffff
  uint16_t range = readReg16Bit(RESULT_RANGE_STATUS + 10);

  writeReg(SYSTEM_INTERRUPT_CLEAR, 0x01);

  return range;
}
 80a1856:	bd38      	pop	{r3, r4, r5, pc}
    }
  }

  // assumptions: Linearity Corrective Gain is 1000 (default);
  // fractional ranging is not enabled
  uint16_t range = readReg16Bit(RESULT_RANGE_STATUS + 10);
 80a1858:	211e      	movs	r1, #30
 80a185a:	4620      	mov	r0, r4
 80a185c:	f7ff feff 	bl	80a165e <_ZN7VL53L0X12readReg16BitEh>
 80a1860:	4605      	mov	r5, r0

  writeReg(SYSTEM_INTERRUPT_CLEAR, 0x01);
 80a1862:	2201      	movs	r2, #1
 80a1864:	4620      	mov	r0, r4
 80a1866:	210b      	movs	r1, #11
 80a1868:	f7ff fe6a 	bl	80a1540 <_ZN7VL53L0X8writeRegEhh>
 80a186c:	4628      	mov	r0, r5
 80a186e:	bd38      	pop	{r3, r4, r5, pc}

080a1870 <_ZN7VL53L0X15timeoutOccurredEv>:
}

// Did a timeout occur in one of the read functions since the last call to
// timeoutOccurred()?
bool VL53L0X::timeoutOccurred()
{
 80a1870:	4603      	mov	r3, r0
  bool tmp = did_timeout;
  did_timeout = false;
 80a1872:	2200      	movs	r2, #0

// Did a timeout occur in one of the read functions since the last call to
// timeoutOccurred()?
bool VL53L0X::timeoutOccurred()
{
  bool tmp = did_timeout;
 80a1874:	7a00      	ldrb	r0, [r0, #8]
  did_timeout = false;
 80a1876:	721a      	strb	r2, [r3, #8]
  return tmp;
}
 80a1878:	4770      	bx	lr

080a187a <_ZN7VL53L0X11getSpadInfoEPhPb>:

// Get reference SPAD (single photon avalanche diode) count and type
// based on VL53L0X_get_info_from_device(),
// but only gets reference SPAD count and type
bool VL53L0X::getSpadInfo(uint8_t * count, bool * type_is_aperture)
{
 80a187a:	b5f8      	push	{r3, r4, r5, r6, r7, lr}
 80a187c:	4604      	mov	r4, r0
 80a187e:	460f      	mov	r7, r1
 80a1880:	4616      	mov	r6, r2
  uint8_t tmp;

  writeReg(0x80, 0x01);
 80a1882:	2180      	movs	r1, #128	; 0x80
 80a1884:	2201      	movs	r2, #1
 80a1886:	f7ff fe5b 	bl	80a1540 <_ZN7VL53L0X8writeRegEhh>
  writeReg(0xFF, 0x01);
 80a188a:	2201      	movs	r2, #1
 80a188c:	21ff      	movs	r1, #255	; 0xff
 80a188e:	4620      	mov	r0, r4
 80a1890:	f7ff fe56 	bl	80a1540 <_ZN7VL53L0X8writeRegEhh>
  writeReg(0x00, 0x00);
 80a1894:	2200      	movs	r2, #0
 80a1896:	4611      	mov	r1, r2
 80a1898:	4620      	mov	r0, r4
 80a189a:	f7ff fe51 	bl	80a1540 <_ZN7VL53L0X8writeRegEhh>

  writeReg(0xFF, 0x06);
 80a189e:	2206      	movs	r2, #6
 80a18a0:	21ff      	movs	r1, #255	; 0xff
 80a18a2:	4620      	mov	r0, r4
 80a18a4:	f7ff fe4c 	bl	80a1540 <_ZN7VL53L0X8writeRegEhh>
  writeReg(0x83, readReg(0x83) | 0x04);
 80a18a8:	2183      	movs	r1, #131	; 0x83
 80a18aa:	4620      	mov	r0, r4
 80a18ac:	f7ff feb7 	bl	80a161e <_ZN7VL53L0X7readRegEh>
 80a18b0:	f040 0204 	orr.w	r2, r0, #4
 80a18b4:	b2d2      	uxtb	r2, r2
 80a18b6:	2183      	movs	r1, #131	; 0x83
 80a18b8:	4620      	mov	r0, r4
 80a18ba:	f7ff fe41 	bl	80a1540 <_ZN7VL53L0X8writeRegEhh>
  writeReg(0xFF, 0x07);
 80a18be:	2207      	movs	r2, #7
 80a18c0:	21ff      	movs	r1, #255	; 0xff
 80a18c2:	4620      	mov	r0, r4
 80a18c4:	f7ff fe3c 	bl	80a1540 <_ZN7VL53L0X8writeRegEhh>
  writeReg(0x81, 0x01);
 80a18c8:	2201      	movs	r2, #1
 80a18ca:	2181      	movs	r1, #129	; 0x81
 80a18cc:	4620      	mov	r0, r4
 80a18ce:	f7ff fe37 	bl	80a1540 <_ZN7VL53L0X8writeRegEhh>

  writeReg(0x80, 0x01);
 80a18d2:	2201      	movs	r2, #1
 80a18d4:	2180      	movs	r1, #128	; 0x80
 80a18d6:	4620      	mov	r0, r4
 80a18d8:	f7ff fe32 	bl	80a1540 <_ZN7VL53L0X8writeRegEhh>

  writeReg(0x94, 0x6b);
 80a18dc:	226b      	movs	r2, #107	; 0x6b
 80a18de:	2194      	movs	r1, #148	; 0x94
 80a18e0:	4620      	mov	r0, r4
 80a18e2:	f7ff fe2d 	bl	80a1540 <_ZN7VL53L0X8writeRegEhh>
  writeReg(0x83, 0x00);
 80a18e6:	2200      	movs	r2, #0
 80a18e8:	2183      	movs	r1, #131	; 0x83
 80a18ea:	4620      	mov	r0, r4
 80a18ec:	f7ff fe28 	bl	80a1540 <_ZN7VL53L0X8writeRegEhh>
 80a18f0:	f001 fc9a 	bl	80a3228 <HAL_Timer_Get_Milli_Seconds>
  startTimeout();
 80a18f4:	60e0      	str	r0, [r4, #12]
  while (readReg(0x83) == 0x00)
 80a18f6:	2183      	movs	r1, #131	; 0x83
 80a18f8:	4620      	mov	r0, r4
 80a18fa:	f7ff fe90 	bl	80a161e <_ZN7VL53L0X7readRegEh>
 80a18fe:	4605      	mov	r5, r0
 80a1900:	b958      	cbnz	r0, 80a191a <_ZN7VL53L0X11getSpadInfoEPhPb+0xa0>
  {
    if (checkTimeoutExpired()) { return false; }
 80a1902:	6863      	ldr	r3, [r4, #4]
 80a1904:	2b00      	cmp	r3, #0
 80a1906:	d0f6      	beq.n	80a18f6 <_ZN7VL53L0X11getSpadInfoEPhPb+0x7c>
 80a1908:	f001 fc8e 	bl	80a3228 <HAL_Timer_Get_Milli_Seconds>
 80a190c:	68e3      	ldr	r3, [r4, #12]
 80a190e:	1ac0      	subs	r0, r0, r3
 80a1910:	6863      	ldr	r3, [r4, #4]
 80a1912:	4298      	cmp	r0, r3
 80a1914:	d9ef      	bls.n	80a18f6 <_ZN7VL53L0X11getSpadInfoEPhPb+0x7c>
 80a1916:	4628      	mov	r0, r5

  writeReg(0xFF, 0x00);
  writeReg(0x80, 0x00);

  return true;
}
 80a1918:	bdf8      	pop	{r3, r4, r5, r6, r7, pc}
  startTimeout();
  while (readReg(0x83) == 0x00)
  {
    if (checkTimeoutExpired()) { return false; }
  }
  writeReg(0x83, 0x01);
 80a191a:	2201      	movs	r2, #1
 80a191c:	4620      	mov	r0, r4
 80a191e:	2183      	movs	r1, #131	; 0x83
 80a1920:	f7ff fe0e 	bl	80a1540 <_ZN7VL53L0X8writeRegEhh>
  tmp = readReg(0x92);
 80a1924:	2192      	movs	r1, #146	; 0x92
 80a1926:	4620      	mov	r0, r4
 80a1928:	f7ff fe79 	bl	80a161e <_ZN7VL53L0X7readRegEh>

  *count = tmp & 0x7f;
 80a192c:	f000 037f 	and.w	r3, r0, #127	; 0x7f
  *type_is_aperture = (tmp >> 7) & 0x01;
 80a1930:	f3c0 10c0 	ubfx	r0, r0, #7, #1
    if (checkTimeoutExpired()) { return false; }
  }
  writeReg(0x83, 0x01);
  tmp = readReg(0x92);

  *count = tmp & 0x7f;
 80a1934:	703b      	strb	r3, [r7, #0]
  *type_is_aperture = (tmp >> 7) & 0x01;

  writeReg(0x81, 0x00);
 80a1936:	2200      	movs	r2, #0
  }
  writeReg(0x83, 0x01);
  tmp = readReg(0x92);

  *count = tmp & 0x7f;
  *type_is_aperture = (tmp >> 7) & 0x01;
 80a1938:	7030      	strb	r0, [r6, #0]

  writeReg(0x81, 0x00);
 80a193a:	2181      	movs	r1, #129	; 0x81
 80a193c:	4620      	mov	r0, r4
 80a193e:	f7ff fdff 	bl	80a1540 <_ZN7VL53L0X8writeRegEhh>
  writeReg(0xFF, 0x06);
 80a1942:	2206      	movs	r2, #6
 80a1944:	4620      	mov	r0, r4
 80a1946:	21ff      	movs	r1, #255	; 0xff
 80a1948:	f7ff fdfa 	bl	80a1540 <_ZN7VL53L0X8writeRegEhh>
  writeReg(0x83, readReg( 0x83  & ~0x04));
 80a194c:	2183      	movs	r1, #131	; 0x83
 80a194e:	4620      	mov	r0, r4
 80a1950:	f7ff fe65 	bl	80a161e <_ZN7VL53L0X7readRegEh>
 80a1954:	2183      	movs	r1, #131	; 0x83
 80a1956:	4602      	mov	r2, r0
 80a1958:	4620      	mov	r0, r4
 80a195a:	f7ff fdf1 	bl	80a1540 <_ZN7VL53L0X8writeRegEhh>
  writeReg(0xFF, 0x01);
 80a195e:	4620      	mov	r0, r4
 80a1960:	2201      	movs	r2, #1
 80a1962:	21ff      	movs	r1, #255	; 0xff
 80a1964:	f7ff fdec 	bl	80a1540 <_ZN7VL53L0X8writeRegEhh>
  writeReg(0x00, 0x01);
 80a1968:	4620      	mov	r0, r4
 80a196a:	2201      	movs	r2, #1
 80a196c:	2100      	movs	r1, #0
 80a196e:	f7ff fde7 	bl	80a1540 <_ZN7VL53L0X8writeRegEhh>

  writeReg(0xFF, 0x00);
 80a1972:	4620      	mov	r0, r4
 80a1974:	2200      	movs	r2, #0
 80a1976:	21ff      	movs	r1, #255	; 0xff
 80a1978:	f7ff fde2 	bl	80a1540 <_ZN7VL53L0X8writeRegEhh>
  writeReg(0x80, 0x00);
 80a197c:	4620      	mov	r0, r4
 80a197e:	2200      	movs	r2, #0
 80a1980:	2180      	movs	r1, #128	; 0x80
 80a1982:	f7ff fddd 	bl	80a1540 <_ZN7VL53L0X8writeRegEhh>

  return true;
 80a1986:	2001      	movs	r0, #1
 80a1988:	bdf8      	pop	{r3, r4, r5, r6, r7, pc}

080a198a <_ZN7VL53L0X22getSequenceStepEnablesEPNS_19SequenceStepEnablesE>:
}

// Get sequence step enables
// based on VL53L0X_GetSequenceStepEnables()
void VL53L0X::getSequenceStepEnables(SequenceStepEnables * enables)
{
 80a198a:	b510      	push	{r4, lr}
 80a198c:	460c      	mov	r4, r1
  uint8_t sequence_config = readReg(SYSTEM_SEQUENCE_CONFIG);
 80a198e:	2101      	movs	r1, #1
 80a1990:	f7ff fe45 	bl	80a161e <_ZN7VL53L0X7readRegEh>

  enables->tcc          = (sequence_config >> 4) & 0x1;
 80a1994:	f3c0 1300 	ubfx	r3, r0, #4, #1
 80a1998:	7023      	strb	r3, [r4, #0]
  enables->dss          = (sequence_config >> 3) & 0x1;
 80a199a:	f3c0 03c0 	ubfx	r3, r0, #3, #1
 80a199e:	70a3      	strb	r3, [r4, #2]
  enables->msrc         = (sequence_config >> 2) & 0x1;
 80a19a0:	f3c0 0380 	ubfx	r3, r0, #2, #1
 80a19a4:	7063      	strb	r3, [r4, #1]
  enables->pre_range    = (sequence_config >> 6) & 0x1;
 80a19a6:	f3c0 1380 	ubfx	r3, r0, #6, #1
  enables->final_range  = (sequence_config >> 7) & 0x1;
 80a19aa:	f3c0 10c0 	ubfx	r0, r0, #7, #1
  uint8_t sequence_config = readReg(SYSTEM_SEQUENCE_CONFIG);

  enables->tcc          = (sequence_config >> 4) & 0x1;
  enables->dss          = (sequence_config >> 3) & 0x1;
  enables->msrc         = (sequence_config >> 2) & 0x1;
  enables->pre_range    = (sequence_config >> 6) & 0x1;
 80a19ae:	70e3      	strb	r3, [r4, #3]
  enables->final_range  = (sequence_config >> 7) & 0x1;
 80a19b0:	7120      	strb	r0, [r4, #4]
 80a19b2:	bd10      	pop	{r4, pc}

080a19b4 <_ZN7VL53L0X13decodeTimeoutEm>:
// Decode sequence step timeout in MCLKs from register value
// based on VL53L0X_decode_timeout()
// Note: the original function returned a uint32_t, but the return value is
// always stored in a uint16_t.
uint16_t VL53L0X::decodeTimeout(uint32_t reg_val)
{
 80a19b4:	f64f 73ff 	movw	r3, #65535	; 0xffff
 80a19b8:	4298      	cmp	r0, r3
 80a19ba:	bf28      	it	cs
 80a19bc:	4618      	movcs	r0, r3
  if (reg_val > 0xFFFF) reg_val = 0xFFFF;
  // format: "(LSByte * 2^MSByte) + 1"
  return (uint16_t)((reg_val & 0x00FF) <<
         (uint16_t)((reg_val & 0xFF00) >> 8)) + 1;
 80a19be:	b2c3      	uxtb	r3, r0
 80a19c0:	0a00      	lsrs	r0, r0, #8
 80a19c2:	fa03 f000 	lsl.w	r0, r3, r0
 80a19c6:	3001      	adds	r0, #1
}
 80a19c8:	b280      	uxth	r0, r0
 80a19ca:	4770      	bx	lr

080a19cc <_ZN7VL53L0X13encodeTimeoutEm>:
// based on VL53L0X_encode_timeout()
// Note: the original function took a uint16_t, but the argument passed to it
// is always uint32_t with uint16_t values only.
uint16_t VL53L0X::encodeTimeout(uint32_t timeout_mclks)
{
  if (timeout_mclks > 0xFFFF) timeout_mclks = 0xFFFF;
 80a19cc:	f5b0 3f80 	cmp.w	r0, #65536	; 0x10000
 80a19d0:	d201      	bcs.n	80a19d6 <_ZN7VL53L0X13encodeTimeoutEm+0xa>

  // format: "(LSByte * 2^MSByte) + 1"
  uint32_t ls_byte = 0;
  uint16_t ms_byte = 0;

  if (timeout_mclks > 0)
 80a19d2:	b178      	cbz	r0, 80a19f4 <_ZN7VL53L0X13encodeTimeoutEm+0x28>
 80a19d4:	e001      	b.n	80a19da <_ZN7VL53L0X13encodeTimeoutEm+0xe>
// based on VL53L0X_encode_timeout()
// Note: the original function took a uint16_t, but the argument passed to it
// is always uint32_t with uint16_t values only.
uint16_t VL53L0X::encodeTimeout(uint32_t timeout_mclks)
{
  if (timeout_mclks > 0xFFFF) timeout_mclks = 0xFFFF;
 80a19d6:	f64f 70ff 	movw	r0, #65535	; 0xffff
  uint32_t ls_byte = 0;
  uint16_t ms_byte = 0;

  if (timeout_mclks > 0)
  {
    ls_byte = timeout_mclks - 1;
 80a19da:	3801      	subs	r0, #1
 80a19dc:	2300      	movs	r3, #0

    while ((ls_byte & 0xFFFFFF00) > 0)
 80a19de:	f030 01ff 	bics.w	r1, r0, #255	; 0xff
 80a19e2:	b29a      	uxth	r2, r3
 80a19e4:	f103 0301 	add.w	r3, r3, #1
 80a19e8:	d001      	beq.n	80a19ee <_ZN7VL53L0X13encodeTimeoutEm+0x22>
    {
      ls_byte >>= 1;
 80a19ea:	0840      	lsrs	r0, r0, #1

  if (timeout_mclks > 0)
  {
    ls_byte = timeout_mclks - 1;

    while ((ls_byte & 0xFFFFFF00) > 0)
 80a19ec:	e7f7      	b.n	80a19de <_ZN7VL53L0X13encodeTimeoutEm+0x12>
    {
      ls_byte >>= 1;
      ms_byte++;
    }

    return (ms_byte << 8) | (ls_byte & 0xFF);
 80a19ee:	ea40 2002 	orr.w	r0, r0, r2, lsl #8
 80a19f2:	b280      	uxth	r0, r0
  }
  else { return 0; }
}
 80a19f4:	4770      	bx	lr
	...

080a19f8 <_ZN7VL53L0X26timeoutMclksToMicrosecondsEmh>:

// Convert sequence step timeout from MCLKs to microseconds with given VCSEL period in PCLKs
// based on VL53L0X_calc_timeout_us()
uint32_t VL53L0X::timeoutMclksToMicroseconds(uint32_t timeout_period_mclks, uint8_t vcsel_period_pclks)
{
  uint32_t macro_period_ns = calcMacroPeriod(vcsel_period_pclks);
 80a19f8:	4b08      	ldr	r3, [pc, #32]	; (80a1a1c <_ZN7VL53L0X26timeoutMclksToMicrosecondsEmh+0x24>)

  return ((timeout_period_mclks * macro_period_ns) + (macro_period_ns / 2)) / 1000;
 80a19fa:	f44f 727a 	mov.w	r2, #1000	; 0x3e8

// Convert sequence step timeout from MCLKs to microseconds with given VCSEL period in PCLKs
// based on VL53L0X_calc_timeout_us()
uint32_t VL53L0X::timeoutMclksToMicroseconds(uint32_t timeout_period_mclks, uint8_t vcsel_period_pclks)
{
  uint32_t macro_period_ns = calcMacroPeriod(vcsel_period_pclks);
 80a19fe:	4359      	muls	r1, r3
}

// Convert sequence step timeout from MCLKs to microseconds with given VCSEL period in PCLKs
// based on VL53L0X_calc_timeout_us()
uint32_t VL53L0X::timeoutMclksToMicroseconds(uint32_t timeout_period_mclks, uint8_t vcsel_period_pclks)
{
 80a1a00:	b510      	push	{r4, lr}
  uint32_t macro_period_ns = calcMacroPeriod(vcsel_period_pclks);
 80a1a02:	f501 71fa 	add.w	r1, r1, #500	; 0x1f4

  return ((timeout_period_mclks * macro_period_ns) + (macro_period_ns / 2)) / 1000;
 80a1a06:	f44f 64fa 	mov.w	r4, #2000	; 0x7d0
 80a1a0a:	fbb1 f3f2 	udiv	r3, r1, r2
 80a1a0e:	fbb1 f1f4 	udiv	r1, r1, r4
 80a1a12:	fb00 1003 	mla	r0, r0, r3, r1
}
 80a1a16:	fbb0 f0f2 	udiv	r0, r0, r2
 80a1a1a:	bd10      	pop	{r4, pc}
 80a1a1c:	003a2f00 	.word	0x003a2f00

080a1a20 <_ZN7VL53L0X23getSequenceStepTimeoutsEPKNS_19SequenceStepEnablesEPNS_20SequenceStepTimeoutsE>:
// Get sequence step timeouts
// based on get_sequence_step_timeout(),
// but gets all timeouts instead of just the requested one, and also stores
// intermediate values
void VL53L0X::getSequenceStepTimeouts(SequenceStepEnables const * enables, SequenceStepTimeouts * timeouts)
{
 80a1a20:	b570      	push	{r4, r5, r6, lr}
 80a1a22:	460e      	mov	r6, r1
  timeouts->pre_range_vcsel_period_pclks = getVcselPulsePeriod(VcselPeriodPreRange);
 80a1a24:	2100      	movs	r1, #0
// Get sequence step timeouts
// based on get_sequence_step_timeout(),
// but gets all timeouts instead of just the requested one, and also stores
// intermediate values
void VL53L0X::getSequenceStepTimeouts(SequenceStepEnables const * enables, SequenceStepTimeouts * timeouts)
{
 80a1a26:	4614      	mov	r4, r2
 80a1a28:	4605      	mov	r5, r0
  timeouts->pre_range_vcsel_period_pclks = getVcselPulsePeriod(VcselPeriodPreRange);
 80a1a2a:	f7ff feb1 	bl	80a1790 <_ZN7VL53L0X19getVcselPulsePeriodENS_15vcselPeriodTypeE>

  timeouts->msrc_dss_tcc_mclks = readReg(MSRC_CONFIG_TIMEOUT_MACROP) + 1;
 80a1a2e:	2146      	movs	r1, #70	; 0x46
// based on get_sequence_step_timeout(),
// but gets all timeouts instead of just the requested one, and also stores
// intermediate values
void VL53L0X::getSequenceStepTimeouts(SequenceStepEnables const * enables, SequenceStepTimeouts * timeouts)
{
  timeouts->pre_range_vcsel_period_pclks = getVcselPulsePeriod(VcselPeriodPreRange);
 80a1a30:	8020      	strh	r0, [r4, #0]

  timeouts->msrc_dss_tcc_mclks = readReg(MSRC_CONFIG_TIMEOUT_MACROP) + 1;
 80a1a32:	4628      	mov	r0, r5
 80a1a34:	f7ff fdf3 	bl	80a161e <_ZN7VL53L0X7readRegEh>
 80a1a38:	3001      	adds	r0, #1
 80a1a3a:	b280      	uxth	r0, r0
  timeouts->msrc_dss_tcc_us =
    timeoutMclksToMicroseconds(timeouts->msrc_dss_tcc_mclks,
 80a1a3c:	7821      	ldrb	r1, [r4, #0]
// intermediate values
void VL53L0X::getSequenceStepTimeouts(SequenceStepEnables const * enables, SequenceStepTimeouts * timeouts)
{
  timeouts->pre_range_vcsel_period_pclks = getVcselPulsePeriod(VcselPeriodPreRange);

  timeouts->msrc_dss_tcc_mclks = readReg(MSRC_CONFIG_TIMEOUT_MACROP) + 1;
 80a1a3e:	80a0      	strh	r0, [r4, #4]
  timeouts->msrc_dss_tcc_us =
    timeoutMclksToMicroseconds(timeouts->msrc_dss_tcc_mclks,
 80a1a40:	f7ff ffda 	bl	80a19f8 <_ZN7VL53L0X26timeoutMclksToMicrosecondsEmh>
                               timeouts->pre_range_vcsel_period_pclks);

  timeouts->pre_range_mclks =
    decodeTimeout(readReg16Bit(PRE_RANGE_CONFIG_TIMEOUT_MACROP_HI));
 80a1a44:	2151      	movs	r1, #81	; 0x51
  timeouts->pre_range_vcsel_period_pclks = getVcselPulsePeriod(VcselPeriodPreRange);

  timeouts->msrc_dss_tcc_mclks = readReg(MSRC_CONFIG_TIMEOUT_MACROP) + 1;
  timeouts->msrc_dss_tcc_us =
    timeoutMclksToMicroseconds(timeouts->msrc_dss_tcc_mclks,
                               timeouts->pre_range_vcsel_period_pclks);
 80a1a46:	60e0      	str	r0, [r4, #12]

  timeouts->pre_range_mclks =
    decodeTimeout(readReg16Bit(PRE_RANGE_CONFIG_TIMEOUT_MACROP_HI));
 80a1a48:	4628      	mov	r0, r5
 80a1a4a:	f7ff fe08 	bl	80a165e <_ZN7VL53L0X12readReg16BitEh>
 80a1a4e:	f7ff ffb1 	bl	80a19b4 <_ZN7VL53L0X13decodeTimeoutEm>
  timeouts->pre_range_us =
    timeoutMclksToMicroseconds(timeouts->pre_range_mclks,
 80a1a52:	7821      	ldrb	r1, [r4, #0]
  timeouts->msrc_dss_tcc_us =
    timeoutMclksToMicroseconds(timeouts->msrc_dss_tcc_mclks,
                               timeouts->pre_range_vcsel_period_pclks);

  timeouts->pre_range_mclks =
    decodeTimeout(readReg16Bit(PRE_RANGE_CONFIG_TIMEOUT_MACROP_HI));
 80a1a54:	80e0      	strh	r0, [r4, #6]
  timeouts->pre_range_us =
    timeoutMclksToMicroseconds(timeouts->pre_range_mclks,
 80a1a56:	f7ff ffcf 	bl	80a19f8 <_ZN7VL53L0X26timeoutMclksToMicrosecondsEmh>
  {
    return decodeVcselPeriod(readReg(PRE_RANGE_CONFIG_VCSEL_PERIOD));
  }
  else if (type == VcselPeriodFinalRange)
  {
    return decodeVcselPeriod(readReg(FINAL_RANGE_CONFIG_VCSEL_PERIOD));
 80a1a5a:	2170      	movs	r1, #112	; 0x70

  timeouts->pre_range_mclks =
    decodeTimeout(readReg16Bit(PRE_RANGE_CONFIG_TIMEOUT_MACROP_HI));
  timeouts->pre_range_us =
    timeoutMclksToMicroseconds(timeouts->pre_range_mclks,
                               timeouts->pre_range_vcsel_period_pclks);
 80a1a5c:	6120      	str	r0, [r4, #16]
  {
    return decodeVcselPeriod(readReg(PRE_RANGE_CONFIG_VCSEL_PERIOD));
  }
  else if (type == VcselPeriodFinalRange)
  {
    return decodeVcselPeriod(readReg(FINAL_RANGE_CONFIG_VCSEL_PERIOD));
 80a1a5e:	4628      	mov	r0, r5
 80a1a60:	f7ff fddd 	bl	80a161e <_ZN7VL53L0X7readRegEh>
    decodeTimeout(readReg16Bit(PRE_RANGE_CONFIG_TIMEOUT_MACROP_HI));
  timeouts->pre_range_us =
    timeoutMclksToMicroseconds(timeouts->pre_range_mclks,
                               timeouts->pre_range_vcsel_period_pclks);

  timeouts->final_range_vcsel_period_pclks = getVcselPulsePeriod(VcselPeriodFinalRange);
 80a1a64:	3001      	adds	r0, #1
 80a1a66:	0040      	lsls	r0, r0, #1
 80a1a68:	b2c0      	uxtb	r0, r0
 80a1a6a:	8060      	strh	r0, [r4, #2]

  timeouts->final_range_mclks =
    decodeTimeout(readReg16Bit(FINAL_RANGE_CONFIG_TIMEOUT_MACROP_HI));
 80a1a6c:	2171      	movs	r1, #113	; 0x71
 80a1a6e:	4628      	mov	r0, r5
 80a1a70:	f7ff fdf5 	bl	80a165e <_ZN7VL53L0X12readReg16BitEh>
 80a1a74:	f7ff ff9e 	bl	80a19b4 <_ZN7VL53L0X13decodeTimeoutEm>
 80a1a78:	8120      	strh	r0, [r4, #8]

  if (enables->pre_range)
 80a1a7a:	78f3      	ldrb	r3, [r6, #3]
 80a1a7c:	b113      	cbz	r3, 80a1a84 <_ZN7VL53L0X23getSequenceStepTimeoutsEPKNS_19SequenceStepEnablesEPNS_20SequenceStepTimeoutsE+0x64>
  {
    timeouts->final_range_mclks -= timeouts->pre_range_mclks;
 80a1a7e:	88e3      	ldrh	r3, [r4, #6]
 80a1a80:	1ac0      	subs	r0, r0, r3
 80a1a82:	8120      	strh	r0, [r4, #8]
  }

  timeouts->final_range_us =
    timeoutMclksToMicroseconds(timeouts->final_range_mclks,
 80a1a84:	78a1      	ldrb	r1, [r4, #2]
 80a1a86:	8920      	ldrh	r0, [r4, #8]
 80a1a88:	f7ff ffb6 	bl	80a19f8 <_ZN7VL53L0X26timeoutMclksToMicrosecondsEmh>
                               timeouts->final_range_vcsel_period_pclks);
 80a1a8c:	6160      	str	r0, [r4, #20]
 80a1a8e:	bd70      	pop	{r4, r5, r6, pc}

080a1a90 <_ZN7VL53L0X26getMeasurementTimingBudgetEv>:

// Get the measurement timing budget in microseconds
// based on VL53L0X_get_measurement_timing_budget_micro_seconds()
// in us
uint32_t VL53L0X::getMeasurementTimingBudget(void)
{
 80a1a90:	b510      	push	{r4, lr}
 80a1a92:	4604      	mov	r4, r0
 80a1a94:	b088      	sub	sp, #32
  uint16_t const FinalRangeOverhead = 550;

  // "Start and end overhead times always present"
  uint32_t budget_us = StartOverhead + EndOverhead;

  getSequenceStepEnables(&enables);
 80a1a96:	4669      	mov	r1, sp
 80a1a98:	f7ff ff77 	bl	80a198a <_ZN7VL53L0X22getSequenceStepEnablesEPNS_19SequenceStepEnablesE>
  getSequenceStepTimeouts(&enables, &timeouts);
 80a1a9c:	aa02      	add	r2, sp, #8
 80a1a9e:	4669      	mov	r1, sp
 80a1aa0:	4620      	mov	r0, r4
 80a1aa2:	f7ff ffbd 	bl	80a1a20 <_ZN7VL53L0X23getSequenceStepTimeoutsEPKNS_19SequenceStepEnablesEPNS_20SequenceStepTimeoutsE>

  if (enables.tcc)
 80a1aa6:	f89d 3000 	ldrb.w	r3, [sp]
 80a1aaa:	b11b      	cbz	r3, 80a1ab4 <_ZN7VL53L0X26getMeasurementTimingBudgetEv+0x24>
  {
    budget_us += (timeouts.msrc_dss_tcc_us + TccOverhead);
 80a1aac:	9805      	ldr	r0, [sp, #20]
 80a1aae:	f600 5084 	addw	r0, r0, #3460	; 0xd84
 80a1ab2:	e001      	b.n	80a1ab8 <_ZN7VL53L0X26getMeasurementTimingBudgetEv+0x28>
  uint16_t const DssOverhead        = 690;
  uint16_t const PreRangeOverhead   = 660;
  uint16_t const FinalRangeOverhead = 550;

  // "Start and end overhead times always present"
  uint32_t budget_us = StartOverhead + EndOverhead;
 80a1ab4:	f640 3036 	movw	r0, #2870	; 0xb36
  if (enables.tcc)
  {
    budget_us += (timeouts.msrc_dss_tcc_us + TccOverhead);
  }

  if (enables.dss)
 80a1ab8:	f89d 3002 	ldrb.w	r3, [sp, #2]
 80a1abc:	b12b      	cbz	r3, 80a1aca <_ZN7VL53L0X26getMeasurementTimingBudgetEv+0x3a>
  {
    budget_us += 2 * (timeouts.msrc_dss_tcc_us + DssOverhead);
 80a1abe:	9b05      	ldr	r3, [sp, #20]
 80a1ac0:	f203 23b2 	addw	r3, r3, #690	; 0x2b2
 80a1ac4:	eb00 0043 	add.w	r0, r0, r3, lsl #1
 80a1ac8:	e006      	b.n	80a1ad8 <_ZN7VL53L0X26getMeasurementTimingBudgetEv+0x48>
  }
  else if (enables.msrc)
 80a1aca:	f89d 3001 	ldrb.w	r3, [sp, #1]
 80a1ace:	b11b      	cbz	r3, 80a1ad8 <_ZN7VL53L0X26getMeasurementTimingBudgetEv+0x48>
  {
    budget_us += (timeouts.msrc_dss_tcc_us + MsrcOverhead);
 80a1ad0:	9b05      	ldr	r3, [sp, #20]
 80a1ad2:	f503 7325 	add.w	r3, r3, #660	; 0x294
 80a1ad6:	4418      	add	r0, r3
  }

  if (enables.pre_range)
 80a1ad8:	f89d 3003 	ldrb.w	r3, [sp, #3]
 80a1adc:	b11b      	cbz	r3, 80a1ae6 <_ZN7VL53L0X26getMeasurementTimingBudgetEv+0x56>
  {
    budget_us += (timeouts.pre_range_us + PreRangeOverhead);
 80a1ade:	9b06      	ldr	r3, [sp, #24]
 80a1ae0:	f503 7325 	add.w	r3, r3, #660	; 0x294
 80a1ae4:	4418      	add	r0, r3
  }

  if (enables.final_range)
 80a1ae6:	f89d 3004 	ldrb.w	r3, [sp, #4]
 80a1aea:	b11b      	cbz	r3, 80a1af4 <_ZN7VL53L0X26getMeasurementTimingBudgetEv+0x64>
  {
    budget_us += (timeouts.final_range_us + FinalRangeOverhead);
 80a1aec:	9b07      	ldr	r3, [sp, #28]
 80a1aee:	f203 2326 	addw	r3, r3, #550	; 0x226
 80a1af2:	4418      	add	r0, r3
  }

  measurement_timing_budget_us = budget_us; // store for internal reuse
 80a1af4:	6160      	str	r0, [r4, #20]
  return budget_us;
}
 80a1af6:	b008      	add	sp, #32
 80a1af8:	bd10      	pop	{r4, pc}
	...

080a1afc <_ZN7VL53L0X26timeoutMicrosecondsToMclksEmh>:

// Convert sequence step timeout from microseconds to MCLKs with given VCSEL period in PCLKs
// based on VL53L0X_calc_timeout_mclks()
uint32_t VL53L0X::timeoutMicrosecondsToMclks(uint32_t timeout_period_us, uint8_t vcsel_period_pclks)
{
  uint32_t macro_period_ns = calcMacroPeriod(vcsel_period_pclks);
 80a1afc:	4b08      	ldr	r3, [pc, #32]	; (80a1b20 <_ZN7VL53L0X26timeoutMicrosecondsToMclksEmh+0x24>)

  return (((timeout_period_us * 1000) + (macro_period_ns / 2)) / macro_period_ns);
 80a1afe:	f44f 727a 	mov.w	r2, #1000	; 0x3e8

// Convert sequence step timeout from microseconds to MCLKs with given VCSEL period in PCLKs
// based on VL53L0X_calc_timeout_mclks()
uint32_t VL53L0X::timeoutMicrosecondsToMclks(uint32_t timeout_period_us, uint8_t vcsel_period_pclks)
{
  uint32_t macro_period_ns = calcMacroPeriod(vcsel_period_pclks);
 80a1b02:	4359      	muls	r1, r3

  return (((timeout_period_us * 1000) + (macro_period_ns / 2)) / macro_period_ns);
 80a1b04:	f44f 63fa 	mov.w	r3, #2000	; 0x7d0

// Convert sequence step timeout from microseconds to MCLKs with given VCSEL period in PCLKs
// based on VL53L0X_calc_timeout_mclks()
uint32_t VL53L0X::timeoutMicrosecondsToMclks(uint32_t timeout_period_us, uint8_t vcsel_period_pclks)
{
  uint32_t macro_period_ns = calcMacroPeriod(vcsel_period_pclks);
 80a1b08:	f501 71fa 	add.w	r1, r1, #500	; 0x1f4

  return (((timeout_period_us * 1000) + (macro_period_ns / 2)) / macro_period_ns);
 80a1b0c:	fbb1 f3f3 	udiv	r3, r1, r3
 80a1b10:	fbb1 f1f2 	udiv	r1, r1, r2
 80a1b14:	fb02 3000 	mla	r0, r2, r0, r3
}
 80a1b18:	fbb0 f0f1 	udiv	r0, r0, r1
 80a1b1c:	4770      	bx	lr
 80a1b1e:	bf00      	nop
 80a1b20:	003a2f00 	.word	0x003a2f00

080a1b24 <_ZN7VL53L0X26setMeasurementTimingBudgetEm>:
  uint16_t const PreRangeOverhead   = 660;
  uint16_t const FinalRangeOverhead = 550;

  uint32_t const MinTimingBudget = 20000;

  if (budget_us < MinTimingBudget) { return false; }
 80a1b24:	f644 631f 	movw	r3, #19999	; 0x4e1f
// budget allows for more accurate measurements. Increasing the budget by a
// factor of N decreases the range measurement standard deviation by a factor of
// sqrt(N). Defaults to about 33 milliseconds; the minimum is 20 ms.
// based on VL53L0X_set_measurement_timing_budget_micro_seconds()
bool VL53L0X::setMeasurementTimingBudget(uint32_t budget_us)
{
 80a1b28:	b5f0      	push	{r4, r5, r6, r7, lr}
  uint16_t const PreRangeOverhead   = 660;
  uint16_t const FinalRangeOverhead = 550;

  uint32_t const MinTimingBudget = 20000;

  if (budget_us < MinTimingBudget) { return false; }
 80a1b2a:	4299      	cmp	r1, r3
// budget allows for more accurate measurements. Increasing the budget by a
// factor of N decreases the range measurement standard deviation by a factor of
// sqrt(N). Defaults to about 33 milliseconds; the minimum is 20 ms.
// based on VL53L0X_set_measurement_timing_budget_micro_seconds()
bool VL53L0X::setMeasurementTimingBudget(uint32_t budget_us)
{
 80a1b2c:	b089      	sub	sp, #36	; 0x24
 80a1b2e:	4606      	mov	r6, r0
 80a1b30:	460d      	mov	r5, r1
  uint16_t const PreRangeOverhead   = 660;
  uint16_t const FinalRangeOverhead = 550;

  uint32_t const MinTimingBudget = 20000;

  if (budget_us < MinTimingBudget) { return false; }
 80a1b32:	d942      	bls.n	80a1bba <_ZN7VL53L0X26setMeasurementTimingBudgetEm+0x96>

  uint32_t used_budget_us = StartOverhead + EndOverhead;

  getSequenceStepEnables(&enables);
 80a1b34:	4669      	mov	r1, sp
 80a1b36:	f7ff ff28 	bl	80a198a <_ZN7VL53L0X22getSequenceStepEnablesEPNS_19SequenceStepEnablesE>
  getSequenceStepTimeouts(&enables, &timeouts);
 80a1b3a:	aa02      	add	r2, sp, #8
 80a1b3c:	4669      	mov	r1, sp
 80a1b3e:	4630      	mov	r0, r6
 80a1b40:	f7ff ff6e 	bl	80a1a20 <_ZN7VL53L0X23getSequenceStepTimeoutsEPKNS_19SequenceStepEnablesEPNS_20SequenceStepTimeoutsE>

  if (enables.tcc)
 80a1b44:	f89d 3000 	ldrb.w	r3, [sp]
 80a1b48:	b11b      	cbz	r3, 80a1b52 <_ZN7VL53L0X26setMeasurementTimingBudgetEm+0x2e>
  {
    used_budget_us += (timeouts.msrc_dss_tcc_us + TccOverhead);
 80a1b4a:	9805      	ldr	r0, [sp, #20]
 80a1b4c:	f600 3036 	addw	r0, r0, #2870	; 0xb36
 80a1b50:	e001      	b.n	80a1b56 <_ZN7VL53L0X26setMeasurementTimingBudgetEm+0x32>

  uint32_t const MinTimingBudget = 20000;

  if (budget_us < MinTimingBudget) { return false; }

  uint32_t used_budget_us = StartOverhead + EndOverhead;
 80a1b52:	f640 00e8 	movw	r0, #2280	; 0x8e8
  if (enables.tcc)
  {
    used_budget_us += (timeouts.msrc_dss_tcc_us + TccOverhead);
  }

  if (enables.dss)
 80a1b56:	f89d 3002 	ldrb.w	r3, [sp, #2]
 80a1b5a:	b12b      	cbz	r3, 80a1b68 <_ZN7VL53L0X26setMeasurementTimingBudgetEm+0x44>
  {
    used_budget_us += 2 * (timeouts.msrc_dss_tcc_us + DssOverhead);
 80a1b5c:	9b05      	ldr	r3, [sp, #20]
 80a1b5e:	f203 23b2 	addw	r3, r3, #690	; 0x2b2
 80a1b62:	eb00 0043 	add.w	r0, r0, r3, lsl #1
 80a1b66:	e006      	b.n	80a1b76 <_ZN7VL53L0X26setMeasurementTimingBudgetEm+0x52>
  }
  else if (enables.msrc)
 80a1b68:	f89d 3001 	ldrb.w	r3, [sp, #1]
 80a1b6c:	b11b      	cbz	r3, 80a1b76 <_ZN7VL53L0X26setMeasurementTimingBudgetEm+0x52>
  {
    used_budget_us += (timeouts.msrc_dss_tcc_us + MsrcOverhead);
 80a1b6e:	9b05      	ldr	r3, [sp, #20]
 80a1b70:	f503 7325 	add.w	r3, r3, #660	; 0x294
 80a1b74:	4418      	add	r0, r3
  }

  if (enables.pre_range)
 80a1b76:	f89d 7003 	ldrb.w	r7, [sp, #3]
 80a1b7a:	b11f      	cbz	r7, 80a1b84 <_ZN7VL53L0X26setMeasurementTimingBudgetEm+0x60>
  {
    used_budget_us += (timeouts.pre_range_us + PreRangeOverhead);
 80a1b7c:	9b06      	ldr	r3, [sp, #24]
 80a1b7e:	f503 7325 	add.w	r3, r3, #660	; 0x294
 80a1b82:	4418      	add	r0, r3
  }

  if (enables.final_range)
 80a1b84:	f89d 4004 	ldrb.w	r4, [sp, #4]
 80a1b88:	b1ac      	cbz	r4, 80a1bb6 <_ZN7VL53L0X26setMeasurementTimingBudgetEm+0x92>
  {
    used_budget_us += FinalRangeOverhead;
 80a1b8a:	f200 2026 	addw	r0, r0, #550	; 0x226
    // budget and the sum of all other timeouts within the sequence.
    // If there is no room for the final range timeout, then an error
    // will be set. Otherwise the remaining time will be applied to
    // the final range."

    if (used_budget_us > budget_us)
 80a1b8e:	4285      	cmp	r5, r0
 80a1b90:	d313      	bcc.n	80a1bba <_ZN7VL53L0X26setMeasurementTimingBudgetEm+0x96>
    //  timeouts must be expressed in macro periods MClks
    //  because they have different vcsel periods."

    uint32_t final_range_timeout_mclks =
      timeoutMicrosecondsToMclks(final_range_timeout_us,
                                 timeouts.final_range_vcsel_period_pclks);
 80a1b92:	f89d 100a 	ldrb.w	r1, [sp, #10]
 80a1b96:	1a28      	subs	r0, r5, r0
 80a1b98:	f7ff ffb0 	bl	80a1afc <_ZN7VL53L0X26timeoutMicrosecondsToMclksEmh>

    if (enables.pre_range)
 80a1b9c:	b117      	cbz	r7, 80a1ba4 <_ZN7VL53L0X26setMeasurementTimingBudgetEm+0x80>
    {
      final_range_timeout_mclks += timeouts.pre_range_mclks;
 80a1b9e:	f8bd 300e 	ldrh.w	r3, [sp, #14]
 80a1ba2:	4418      	add	r0, r3
    }

    writeReg16Bit(FINAL_RANGE_CONFIG_TIMEOUT_MACROP_HI,
 80a1ba4:	f7ff ff12 	bl	80a19cc <_ZN7VL53L0X13encodeTimeoutEm>
      encodeTimeout(final_range_timeout_mclks));
 80a1ba8:	2171      	movs	r1, #113	; 0x71
 80a1baa:	4602      	mov	r2, r0
 80a1bac:	4630      	mov	r0, r6
 80a1bae:	f7ff fcec 	bl	80a158a <_ZN7VL53L0X13writeReg16BitEht>

    // set_sequence_step_timeout() end

    measurement_timing_budget_us = budget_us; // store for internal reuse
 80a1bb2:	6175      	str	r5, [r6, #20]
 80a1bb4:	e002      	b.n	80a1bbc <_ZN7VL53L0X26setMeasurementTimingBudgetEm+0x98>
  }
  return true;
 80a1bb6:	2401      	movs	r4, #1
 80a1bb8:	e000      	b.n	80a1bbc <_ZN7VL53L0X26setMeasurementTimingBudgetEm+0x98>
  uint16_t const PreRangeOverhead   = 660;
  uint16_t const FinalRangeOverhead = 550;

  uint32_t const MinTimingBudget = 20000;

  if (budget_us < MinTimingBudget) { return false; }
 80a1bba:	2400      	movs	r4, #0
    // set_sequence_step_timeout() end

    measurement_timing_budget_us = budget_us; // store for internal reuse
  }
  return true;
}
 80a1bbc:	4620      	mov	r0, r4
 80a1bbe:	b009      	add	sp, #36	; 0x24
 80a1bc0:	bdf0      	pop	{r4, r5, r6, r7, pc}

080a1bc2 <_ZN7VL53L0X27performSingleRefCalibrationEh>:
}


// based on VL53L0X_perform_single_ref_calibration()
bool VL53L0X::performSingleRefCalibration(uint8_t vhv_init_byte)
{
 80a1bc2:	b538      	push	{r3, r4, r5, lr}
  writeReg(SYSRANGE_START, 0x01 | vhv_init_byte); // VL53L0X_REG_SYSRANGE_MODE_START_STOP
 80a1bc4:	f041 0201 	orr.w	r2, r1, #1
 80a1bc8:	2100      	movs	r1, #0
}


// based on VL53L0X_perform_single_ref_calibration()
bool VL53L0X::performSingleRefCalibration(uint8_t vhv_init_byte)
{
 80a1bca:	4604      	mov	r4, r0
  writeReg(SYSRANGE_START, 0x01 | vhv_init_byte); // VL53L0X_REG_SYSRANGE_MODE_START_STOP
 80a1bcc:	f7ff fcb8 	bl	80a1540 <_ZN7VL53L0X8writeRegEhh>
 80a1bd0:	f001 fb2a 	bl	80a3228 <HAL_Timer_Get_Milli_Seconds>

  startTimeout();
 80a1bd4:	60e0      	str	r0, [r4, #12]
  while ((readReg(RESULT_INTERRUPT_STATUS) & 0x07) == 0)
 80a1bd6:	2113      	movs	r1, #19
 80a1bd8:	4620      	mov	r0, r4
 80a1bda:	f7ff fd20 	bl	80a161e <_ZN7VL53L0X7readRegEh>
 80a1bde:	f010 0507 	ands.w	r5, r0, #7
 80a1be2:	d10b      	bne.n	80a1bfc <_ZN7VL53L0X27performSingleRefCalibrationEh+0x3a>
  {
    if (checkTimeoutExpired()) { return false; }
 80a1be4:	6863      	ldr	r3, [r4, #4]
 80a1be6:	2b00      	cmp	r3, #0
 80a1be8:	d0f5      	beq.n	80a1bd6 <_ZN7VL53L0X27performSingleRefCalibrationEh+0x14>
 80a1bea:	f001 fb1d 	bl	80a3228 <HAL_Timer_Get_Milli_Seconds>
 80a1bee:	68e3      	ldr	r3, [r4, #12]
 80a1bf0:	1ac0      	subs	r0, r0, r3
 80a1bf2:	6863      	ldr	r3, [r4, #4]
 80a1bf4:	4298      	cmp	r0, r3
 80a1bf6:	d9ee      	bls.n	80a1bd6 <_ZN7VL53L0X27performSingleRefCalibrationEh+0x14>
 80a1bf8:	4628      	mov	r0, r5
  writeReg(SYSTEM_INTERRUPT_CLEAR, 0x01);

  writeReg(SYSRANGE_START, 0x00);

  return true;
}
 80a1bfa:	bd38      	pop	{r3, r4, r5, pc}
  while ((readReg(RESULT_INTERRUPT_STATUS) & 0x07) == 0)
  {
    if (checkTimeoutExpired()) { return false; }
  }

  writeReg(SYSTEM_INTERRUPT_CLEAR, 0x01);
 80a1bfc:	4620      	mov	r0, r4
 80a1bfe:	2201      	movs	r2, #1
 80a1c00:	210b      	movs	r1, #11
 80a1c02:	f7ff fc9d 	bl	80a1540 <_ZN7VL53L0X8writeRegEhh>

  writeReg(SYSRANGE_START, 0x00);
 80a1c06:	2200      	movs	r2, #0
 80a1c08:	4620      	mov	r0, r4
 80a1c0a:	4611      	mov	r1, r2
 80a1c0c:	f7ff fc98 	bl	80a1540 <_ZN7VL53L0X8writeRegEhh>
 80a1c10:	2001      	movs	r0, #1
 80a1c12:	bd38      	pop	{r3, r4, r5, pc}

080a1c14 <_ZN7VL53L0X4initEb>:
// is performed by ST on the bare modules; it seems like that should work well
// enough unless a cover glass is added.
// If io_2v8 (optional) is true or not given, the sensor is configured for 2V8
// mode.
bool VL53L0X::init(bool io_2v8)
{
 80a1c14:	b5f0      	push	{r4, r5, r6, r7, lr}
 80a1c16:	4604      	mov	r4, r0
 80a1c18:	b085      	sub	sp, #20
  // VL53L0X_DataInit() begin

  // sensor uses 1V8 mode for I/O by default; switch to 2V8 mode if necessary
  if (io_2v8)
 80a1c1a:	b149      	cbz	r1, 80a1c30 <_ZN7VL53L0X4initEb+0x1c>
  {
    writeReg(VHV_CONFIG_PAD_SCL_SDA__EXTSUP_HV,
      readReg(VHV_CONFIG_PAD_SCL_SDA__EXTSUP_HV) | 0x01); // set bit 0
 80a1c1c:	2189      	movs	r1, #137	; 0x89
 80a1c1e:	f7ff fcfe 	bl	80a161e <_ZN7VL53L0X7readRegEh>
 80a1c22:	f040 0201 	orr.w	r2, r0, #1
 80a1c26:	b2d2      	uxtb	r2, r2
 80a1c28:	2189      	movs	r1, #137	; 0x89
 80a1c2a:	4620      	mov	r0, r4
 80a1c2c:	f7ff fc88 	bl	80a1540 <_ZN7VL53L0X8writeRegEhh>
  }

  // "Set I2C standard mode"
  writeReg(0x88, 0x00);
 80a1c30:	2200      	movs	r2, #0
 80a1c32:	2188      	movs	r1, #136	; 0x88
 80a1c34:	4620      	mov	r0, r4
 80a1c36:	f7ff fc83 	bl	80a1540 <_ZN7VL53L0X8writeRegEhh>

  writeReg(0x80, 0x01);
 80a1c3a:	2201      	movs	r2, #1
 80a1c3c:	2180      	movs	r1, #128	; 0x80
 80a1c3e:	4620      	mov	r0, r4
 80a1c40:	f7ff fc7e 	bl	80a1540 <_ZN7VL53L0X8writeRegEhh>
  writeReg(0xFF, 0x01);
 80a1c44:	2201      	movs	r2, #1
 80a1c46:	21ff      	movs	r1, #255	; 0xff
 80a1c48:	4620      	mov	r0, r4
 80a1c4a:	f7ff fc79 	bl	80a1540 <_ZN7VL53L0X8writeRegEhh>
  writeReg(0x00, 0x00);
 80a1c4e:	2200      	movs	r2, #0
 80a1c50:	4611      	mov	r1, r2
 80a1c52:	4620      	mov	r0, r4
 80a1c54:	f7ff fc74 	bl	80a1540 <_ZN7VL53L0X8writeRegEhh>
  stop_variable = readReg(0x91);
 80a1c58:	2191      	movs	r1, #145	; 0x91
 80a1c5a:	4620      	mov	r0, r4
 80a1c5c:	f7ff fcdf 	bl	80a161e <_ZN7VL53L0X7readRegEh>
  writeReg(0x00, 0x01);
 80a1c60:	2201      	movs	r2, #1
  writeReg(0x88, 0x00);

  writeReg(0x80, 0x01);
  writeReg(0xFF, 0x01);
  writeReg(0x00, 0x00);
  stop_variable = readReg(0x91);
 80a1c62:	7420      	strb	r0, [r4, #16]
  writeReg(0x00, 0x01);
 80a1c64:	2100      	movs	r1, #0
 80a1c66:	4620      	mov	r0, r4
 80a1c68:	f7ff fc6a 	bl	80a1540 <_ZN7VL53L0X8writeRegEhh>
  writeReg(0xFF, 0x00);
 80a1c6c:	2200      	movs	r2, #0
 80a1c6e:	21ff      	movs	r1, #255	; 0xff
 80a1c70:	4620      	mov	r0, r4
 80a1c72:	f7ff fc65 	bl	80a1540 <_ZN7VL53L0X8writeRegEhh>
  writeReg(0x80, 0x00);
 80a1c76:	2200      	movs	r2, #0
 80a1c78:	2180      	movs	r1, #128	; 0x80
 80a1c7a:	4620      	mov	r0, r4
 80a1c7c:	f7ff fc60 	bl	80a1540 <_ZN7VL53L0X8writeRegEhh>

  // disable SIGNAL_RATE_MSRC (bit 1) and SIGNAL_RATE_PRE_RANGE (bit 4) limit checks
  writeReg(MSRC_CONFIG_CONTROL, readReg(MSRC_CONFIG_CONTROL) | 0x12);
 80a1c80:	2160      	movs	r1, #96	; 0x60
 80a1c82:	4620      	mov	r0, r4
 80a1c84:	f7ff fccb 	bl	80a161e <_ZN7VL53L0X7readRegEh>
 80a1c88:	f040 0212 	orr.w	r2, r0, #18
 80a1c8c:	b2d2      	uxtb	r2, r2
 80a1c8e:	2160      	movs	r1, #96	; 0x60
 80a1c90:	4620      	mov	r0, r4
 80a1c92:	f7ff fc55 	bl	80a1540 <_ZN7VL53L0X8writeRegEhh>

  // set final range signal rate limit to 0.25 MCPS (million counts per second)
  setSignalRateLimit(0.25);
 80a1c96:	f04f 517a 	mov.w	r1, #1048576000	; 0x3e800000
 80a1c9a:	4620      	mov	r0, r4
 80a1c9c:	f7ff fd50 	bl	80a1740 <_ZN7VL53L0X18setSignalRateLimitEf>

  writeReg(SYSTEM_SEQUENCE_CONFIG, 0xFF);
 80a1ca0:	22ff      	movs	r2, #255	; 0xff
 80a1ca2:	2101      	movs	r1, #1
 80a1ca4:	4620      	mov	r0, r4
 80a1ca6:	f7ff fc4b 	bl	80a1540 <_ZN7VL53L0X8writeRegEhh>

  // VL53L0X_StaticInit() begin

  uint8_t spad_count;
  bool spad_type_is_aperture;
  if (!getSpadInfo(&spad_count, &spad_type_is_aperture)) { return false; }
 80a1caa:	f10d 0207 	add.w	r2, sp, #7
 80a1cae:	f10d 0106 	add.w	r1, sp, #6
 80a1cb2:	4620      	mov	r0, r4
 80a1cb4:	f7ff fde1 	bl	80a187a <_ZN7VL53L0X11getSpadInfoEPhPb>
 80a1cb8:	b908      	cbnz	r0, 80a1cbe <_ZN7VL53L0X4initEb+0xaa>
 80a1cba:	2500      	movs	r5, #0
 80a1cbc:	e21d      	b.n	80a20fa <_ZN7VL53L0X4initEb+0x4e6>

  // The SPAD map (RefGoodSpadMap) is read by VL53L0X_get_info_from_device() in
  // the API, but the same data seems to be more easily readable from
  // GLOBAL_CONFIG_SPAD_ENABLES_REF_0 through _6, so read it from there
  uint8_t ref_spad_map[6];
  readMulti(GLOBAL_CONFIG_SPAD_ENABLES_REF_0, ref_spad_map, 6);
 80a1cbe:	2306      	movs	r3, #6
 80a1cc0:	aa02      	add	r2, sp, #8
 80a1cc2:	21b0      	movs	r1, #176	; 0xb0
 80a1cc4:	4620      	mov	r0, r4
 80a1cc6:	f7ff fd13 	bl	80a16f0 <_ZN7VL53L0X9readMultiEhPhh>

  // -- VL53L0X_set_reference_spads() begin (assume NVM values are valid)

  writeReg(0xFF, 0x01);
 80a1cca:	2201      	movs	r2, #1
 80a1ccc:	21ff      	movs	r1, #255	; 0xff
 80a1cce:	4620      	mov	r0, r4
 80a1cd0:	f7ff fc36 	bl	80a1540 <_ZN7VL53L0X8writeRegEhh>
  writeReg(DYNAMIC_SPAD_REF_EN_START_OFFSET, 0x00);
 80a1cd4:	2200      	movs	r2, #0
 80a1cd6:	214f      	movs	r1, #79	; 0x4f
 80a1cd8:	4620      	mov	r0, r4
 80a1cda:	f7ff fc31 	bl	80a1540 <_ZN7VL53L0X8writeRegEhh>
  writeReg(DYNAMIC_SPAD_NUM_REQUESTED_REF_SPAD, 0x2C);
 80a1cde:	222c      	movs	r2, #44	; 0x2c
 80a1ce0:	214e      	movs	r1, #78	; 0x4e
 80a1ce2:	4620      	mov	r0, r4
 80a1ce4:	f7ff fc2c 	bl	80a1540 <_ZN7VL53L0X8writeRegEhh>
  writeReg(0xFF, 0x00);
 80a1ce8:	2200      	movs	r2, #0
 80a1cea:	21ff      	movs	r1, #255	; 0xff
 80a1cec:	4620      	mov	r0, r4
 80a1cee:	f7ff fc27 	bl	80a1540 <_ZN7VL53L0X8writeRegEhh>
  uint8_t first_spad_to_enable = spad_type_is_aperture ? 12 : 0; // 12 is the first aperture spad
  uint8_t spads_enabled = 0;

  for (uint8_t i = 0; i < 48; i++)
  {
    if (i < first_spad_to_enable || spads_enabled == spad_count)
 80a1cf2:	2500      	movs	r5, #0

  writeReg(0xFF, 0x01);
  writeReg(DYNAMIC_SPAD_REF_EN_START_OFFSET, 0x00);
  writeReg(DYNAMIC_SPAD_NUM_REQUESTED_REF_SPAD, 0x2C);
  writeReg(0xFF, 0x00);
  writeReg(GLOBAL_CONFIG_REF_EN_START_SELECT, 0xB4);
 80a1cf4:	4620      	mov	r0, r4
 80a1cf6:	21b6      	movs	r1, #182	; 0xb6
 80a1cf8:	22b4      	movs	r2, #180	; 0xb4
 80a1cfa:	f7ff fc21 	bl	80a1540 <_ZN7VL53L0X8writeRegEhh>

  uint8_t first_spad_to_enable = spad_type_is_aperture ? 12 : 0; // 12 is the first aperture spad
  uint8_t spads_enabled = 0;
 80a1cfe:	4629      	mov	r1, r5
  writeReg(DYNAMIC_SPAD_REF_EN_START_OFFSET, 0x00);
  writeReg(DYNAMIC_SPAD_NUM_REQUESTED_REF_SPAD, 0x2C);
  writeReg(0xFF, 0x00);
  writeReg(GLOBAL_CONFIG_REF_EN_START_SELECT, 0xB4);

  uint8_t first_spad_to_enable = spad_type_is_aperture ? 12 : 0; // 12 is the first aperture spad
 80a1d00:	f89d 3007 	ldrb.w	r3, [sp, #7]
  uint8_t spads_enabled = 0;

  for (uint8_t i = 0; i < 48; i++)
  {
    if (i < first_spad_to_enable || spads_enabled == spad_count)
 80a1d04:	f89d 6006 	ldrb.w	r6, [sp, #6]
  writeReg(DYNAMIC_SPAD_REF_EN_START_OFFSET, 0x00);
  writeReg(DYNAMIC_SPAD_NUM_REQUESTED_REF_SPAD, 0x2C);
  writeReg(0xFF, 0x00);
  writeReg(GLOBAL_CONFIG_REF_EN_START_SELECT, 0xB4);

  uint8_t first_spad_to_enable = spad_type_is_aperture ? 12 : 0; // 12 is the first aperture spad
 80a1d08:	2b00      	cmp	r3, #0
 80a1d0a:	bf14      	ite	ne
 80a1d0c:	200c      	movne	r0, #12
 80a1d0e:	2000      	moveq	r0, #0
  {
    if (i < first_spad_to_enable || spads_enabled == spad_count)
    {
      // This bit is lower than the first one that should be enabled, or
      // (reference_spad_count) bits have already been enabled, so zero this bit
      ref_spad_map[i / 8] &= ~(1 << (i % 8));
 80a1d10:	2701      	movs	r7, #1
 80a1d12:	b2eb      	uxtb	r3, r5
 80a1d14:	08da      	lsrs	r2, r3, #3
  uint8_t first_spad_to_enable = spad_type_is_aperture ? 12 : 0; // 12 is the first aperture spad
  uint8_t spads_enabled = 0;

  for (uint8_t i = 0; i < 48; i++)
  {
    if (i < first_spad_to_enable || spads_enabled == spad_count)
 80a1d16:	4298      	cmp	r0, r3
    {
      // This bit is lower than the first one that should be enabled, or
      // (reference_spad_count) bits have already been enabled, so zero this bit
      ref_spad_map[i / 8] &= ~(1 << (i % 8));
 80a1d18:	f10d 0e10 	add.w	lr, sp, #16
 80a1d1c:	f003 0307 	and.w	r3, r3, #7
 80a1d20:	4472      	add	r2, lr
  uint8_t first_spad_to_enable = spad_type_is_aperture ? 12 : 0; // 12 is the first aperture spad
  uint8_t spads_enabled = 0;

  for (uint8_t i = 0; i < 48; i++)
  {
    if (i < first_spad_to_enable || spads_enabled == spad_count)
 80a1d22:	d801      	bhi.n	80a1d28 <_ZN7VL53L0X4initEb+0x114>
 80a1d24:	428e      	cmp	r6, r1
 80a1d26:	d108      	bne.n	80a1d3a <_ZN7VL53L0X4initEb+0x126>
    {
      // This bit is lower than the first one that should be enabled, or
      // (reference_spad_count) bits have already been enabled, so zero this bit
      ref_spad_map[i / 8] &= ~(1 << (i % 8));
 80a1d28:	f812 ec08 	ldrb.w	lr, [r2, #-8]
 80a1d2c:	fa07 f303 	lsl.w	r3, r7, r3
 80a1d30:	ea2e 0303 	bic.w	r3, lr, r3
 80a1d34:	f802 3c08 	strb.w	r3, [r2, #-8]
 80a1d38:	e007      	b.n	80a1d4a <_ZN7VL53L0X4initEb+0x136>
    }
    else if ((ref_spad_map[i / 8] >> (i % 8)) & 0x1)
 80a1d3a:	f812 2c08 	ldrb.w	r2, [r2, #-8]
 80a1d3e:	fa42 f303 	asr.w	r3, r2, r3
 80a1d42:	07db      	lsls	r3, r3, #31
    {
      spads_enabled++;
 80a1d44:	bf44      	itt	mi
 80a1d46:	3101      	addmi	r1, #1
 80a1d48:	b2c9      	uxtbmi	r1, r1
 80a1d4a:	3501      	adds	r5, #1
  writeReg(GLOBAL_CONFIG_REF_EN_START_SELECT, 0xB4);

  uint8_t first_spad_to_enable = spad_type_is_aperture ? 12 : 0; // 12 is the first aperture spad
  uint8_t spads_enabled = 0;

  for (uint8_t i = 0; i < 48; i++)
 80a1d4c:	2d30      	cmp	r5, #48	; 0x30
 80a1d4e:	d1e0      	bne.n	80a1d12 <_ZN7VL53L0X4initEb+0xfe>
    {
      spads_enabled++;
    }
  }

  writeMulti(GLOBAL_CONFIG_SPAD_ENABLES_REF_0, ref_spad_map, 6);
 80a1d50:	2306      	movs	r3, #6
 80a1d52:	aa02      	add	r2, sp, #8
 80a1d54:	21b0      	movs	r1, #176	; 0xb0
 80a1d56:	4620      	mov	r0, r4
 80a1d58:	f7ff fca9 	bl	80a16ae <_ZN7VL53L0X10writeMultiEhPKhh>
  // -- VL53L0X_set_reference_spads() end

  // -- VL53L0X_load_tuning_settings() begin
  // DefaultTuningSettings from vl53l0x_tuning.h

  writeReg(0xFF, 0x01);
 80a1d5c:	2201      	movs	r2, #1
 80a1d5e:	21ff      	movs	r1, #255	; 0xff
 80a1d60:	4620      	mov	r0, r4
 80a1d62:	f7ff fbed 	bl	80a1540 <_ZN7VL53L0X8writeRegEhh>
  writeReg(0x00, 0x00);
 80a1d66:	2200      	movs	r2, #0
 80a1d68:	4611      	mov	r1, r2
 80a1d6a:	4620      	mov	r0, r4
 80a1d6c:	f7ff fbe8 	bl	80a1540 <_ZN7VL53L0X8writeRegEhh>

  writeReg(0xFF, 0x00);
 80a1d70:	2200      	movs	r2, #0
 80a1d72:	21ff      	movs	r1, #255	; 0xff
 80a1d74:	4620      	mov	r0, r4
 80a1d76:	f7ff fbe3 	bl	80a1540 <_ZN7VL53L0X8writeRegEhh>
  writeReg(0x09, 0x00);
 80a1d7a:	2200      	movs	r2, #0
 80a1d7c:	2109      	movs	r1, #9
 80a1d7e:	4620      	mov	r0, r4
 80a1d80:	f7ff fbde 	bl	80a1540 <_ZN7VL53L0X8writeRegEhh>
  writeReg(0x10, 0x00);
 80a1d84:	2200      	movs	r2, #0
 80a1d86:	2110      	movs	r1, #16
 80a1d88:	4620      	mov	r0, r4
 80a1d8a:	f7ff fbd9 	bl	80a1540 <_ZN7VL53L0X8writeRegEhh>
  writeReg(0x11, 0x00);
 80a1d8e:	2200      	movs	r2, #0
 80a1d90:	2111      	movs	r1, #17
 80a1d92:	4620      	mov	r0, r4
 80a1d94:	f7ff fbd4 	bl	80a1540 <_ZN7VL53L0X8writeRegEhh>

  writeReg(0x24, 0x01);
 80a1d98:	2201      	movs	r2, #1
 80a1d9a:	2124      	movs	r1, #36	; 0x24
 80a1d9c:	4620      	mov	r0, r4
 80a1d9e:	f7ff fbcf 	bl	80a1540 <_ZN7VL53L0X8writeRegEhh>
  writeReg(0x25, 0xFF);
 80a1da2:	22ff      	movs	r2, #255	; 0xff
 80a1da4:	2125      	movs	r1, #37	; 0x25
 80a1da6:	4620      	mov	r0, r4
 80a1da8:	f7ff fbca 	bl	80a1540 <_ZN7VL53L0X8writeRegEhh>
  writeReg(0x75, 0x00);
 80a1dac:	2200      	movs	r2, #0
 80a1dae:	2175      	movs	r1, #117	; 0x75
 80a1db0:	4620      	mov	r0, r4
 80a1db2:	f7ff fbc5 	bl	80a1540 <_ZN7VL53L0X8writeRegEhh>

  writeReg(0xFF, 0x01);
 80a1db6:	2201      	movs	r2, #1
 80a1db8:	21ff      	movs	r1, #255	; 0xff
 80a1dba:	4620      	mov	r0, r4
 80a1dbc:	f7ff fbc0 	bl	80a1540 <_ZN7VL53L0X8writeRegEhh>
  writeReg(0x4E, 0x2C);
 80a1dc0:	222c      	movs	r2, #44	; 0x2c
 80a1dc2:	214e      	movs	r1, #78	; 0x4e
 80a1dc4:	4620      	mov	r0, r4
 80a1dc6:	f7ff fbbb 	bl	80a1540 <_ZN7VL53L0X8writeRegEhh>
  writeReg(0x48, 0x00);
 80a1dca:	2200      	movs	r2, #0
 80a1dcc:	2148      	movs	r1, #72	; 0x48
 80a1dce:	4620      	mov	r0, r4
 80a1dd0:	f7ff fbb6 	bl	80a1540 <_ZN7VL53L0X8writeRegEhh>
  writeReg(0x30, 0x20);
 80a1dd4:	2220      	movs	r2, #32
 80a1dd6:	4629      	mov	r1, r5
 80a1dd8:	4620      	mov	r0, r4
 80a1dda:	f7ff fbb1 	bl	80a1540 <_ZN7VL53L0X8writeRegEhh>

  writeReg(0xFF, 0x00);
 80a1dde:	2200      	movs	r2, #0
 80a1de0:	21ff      	movs	r1, #255	; 0xff
 80a1de2:	4620      	mov	r0, r4
 80a1de4:	f7ff fbac 	bl	80a1540 <_ZN7VL53L0X8writeRegEhh>
  writeReg(0x30, 0x09);
 80a1de8:	2209      	movs	r2, #9
 80a1dea:	4629      	mov	r1, r5
 80a1dec:	4620      	mov	r0, r4
 80a1dee:	f7ff fba7 	bl	80a1540 <_ZN7VL53L0X8writeRegEhh>
  writeReg(0x54, 0x00);
 80a1df2:	2200      	movs	r2, #0
 80a1df4:	2154      	movs	r1, #84	; 0x54
 80a1df6:	4620      	mov	r0, r4
 80a1df8:	f7ff fba2 	bl	80a1540 <_ZN7VL53L0X8writeRegEhh>
  writeReg(0x31, 0x04);
 80a1dfc:	2204      	movs	r2, #4
 80a1dfe:	2131      	movs	r1, #49	; 0x31
 80a1e00:	4620      	mov	r0, r4
 80a1e02:	f7ff fb9d 	bl	80a1540 <_ZN7VL53L0X8writeRegEhh>
  writeReg(0x32, 0x03);
 80a1e06:	2203      	movs	r2, #3
 80a1e08:	2132      	movs	r1, #50	; 0x32
 80a1e0a:	4620      	mov	r0, r4
 80a1e0c:	f7ff fb98 	bl	80a1540 <_ZN7VL53L0X8writeRegEhh>
  writeReg(0x40, 0x83);
 80a1e10:	2283      	movs	r2, #131	; 0x83
 80a1e12:	2140      	movs	r1, #64	; 0x40
 80a1e14:	4620      	mov	r0, r4
 80a1e16:	f7ff fb93 	bl	80a1540 <_ZN7VL53L0X8writeRegEhh>
  writeReg(0x46, 0x25);
 80a1e1a:	2225      	movs	r2, #37	; 0x25
 80a1e1c:	2146      	movs	r1, #70	; 0x46
 80a1e1e:	4620      	mov	r0, r4
 80a1e20:	f7ff fb8e 	bl	80a1540 <_ZN7VL53L0X8writeRegEhh>
  writeReg(0x60, 0x00);
 80a1e24:	2200      	movs	r2, #0
 80a1e26:	2160      	movs	r1, #96	; 0x60
 80a1e28:	4620      	mov	r0, r4
 80a1e2a:	f7ff fb89 	bl	80a1540 <_ZN7VL53L0X8writeRegEhh>
  writeReg(0x27, 0x00);
 80a1e2e:	2200      	movs	r2, #0
 80a1e30:	2127      	movs	r1, #39	; 0x27
 80a1e32:	4620      	mov	r0, r4
 80a1e34:	f7ff fb84 	bl	80a1540 <_ZN7VL53L0X8writeRegEhh>
  writeReg(0x50, 0x06);
 80a1e38:	2206      	movs	r2, #6
 80a1e3a:	2150      	movs	r1, #80	; 0x50
 80a1e3c:	4620      	mov	r0, r4
 80a1e3e:	f7ff fb7f 	bl	80a1540 <_ZN7VL53L0X8writeRegEhh>
  writeReg(0x51, 0x00);
 80a1e42:	2200      	movs	r2, #0
 80a1e44:	2151      	movs	r1, #81	; 0x51
 80a1e46:	4620      	mov	r0, r4
 80a1e48:	f7ff fb7a 	bl	80a1540 <_ZN7VL53L0X8writeRegEhh>
  writeReg(0x52, 0x96);
 80a1e4c:	2296      	movs	r2, #150	; 0x96
 80a1e4e:	2152      	movs	r1, #82	; 0x52
 80a1e50:	4620      	mov	r0, r4
 80a1e52:	f7ff fb75 	bl	80a1540 <_ZN7VL53L0X8writeRegEhh>
  writeReg(0x56, 0x08);
 80a1e56:	2208      	movs	r2, #8
 80a1e58:	2156      	movs	r1, #86	; 0x56
 80a1e5a:	4620      	mov	r0, r4
 80a1e5c:	f7ff fb70 	bl	80a1540 <_ZN7VL53L0X8writeRegEhh>
  writeReg(0x57, 0x30);
 80a1e60:	462a      	mov	r2, r5
 80a1e62:	2157      	movs	r1, #87	; 0x57
 80a1e64:	4620      	mov	r0, r4
 80a1e66:	f7ff fb6b 	bl	80a1540 <_ZN7VL53L0X8writeRegEhh>
  writeReg(0x61, 0x00);
 80a1e6a:	2200      	movs	r2, #0
 80a1e6c:	2161      	movs	r1, #97	; 0x61
 80a1e6e:	4620      	mov	r0, r4
 80a1e70:	f7ff fb66 	bl	80a1540 <_ZN7VL53L0X8writeRegEhh>
  writeReg(0x62, 0x00);
 80a1e74:	2200      	movs	r2, #0
 80a1e76:	2162      	movs	r1, #98	; 0x62
 80a1e78:	4620      	mov	r0, r4
 80a1e7a:	f7ff fb61 	bl	80a1540 <_ZN7VL53L0X8writeRegEhh>
  writeReg(0x64, 0x00);
 80a1e7e:	2200      	movs	r2, #0
 80a1e80:	2164      	movs	r1, #100	; 0x64
 80a1e82:	4620      	mov	r0, r4
 80a1e84:	f7ff fb5c 	bl	80a1540 <_ZN7VL53L0X8writeRegEhh>
  writeReg(0x65, 0x00);
 80a1e88:	2200      	movs	r2, #0
 80a1e8a:	2165      	movs	r1, #101	; 0x65
 80a1e8c:	4620      	mov	r0, r4
 80a1e8e:	f7ff fb57 	bl	80a1540 <_ZN7VL53L0X8writeRegEhh>
  writeReg(0x66, 0xA0);
 80a1e92:	22a0      	movs	r2, #160	; 0xa0
 80a1e94:	2166      	movs	r1, #102	; 0x66
 80a1e96:	4620      	mov	r0, r4
 80a1e98:	f7ff fb52 	bl	80a1540 <_ZN7VL53L0X8writeRegEhh>

  writeReg(0xFF, 0x01);
 80a1e9c:	2201      	movs	r2, #1
 80a1e9e:	21ff      	movs	r1, #255	; 0xff
 80a1ea0:	4620      	mov	r0, r4
 80a1ea2:	f7ff fb4d 	bl	80a1540 <_ZN7VL53L0X8writeRegEhh>
  writeReg(0x22, 0x32);
 80a1ea6:	2232      	movs	r2, #50	; 0x32
 80a1ea8:	2122      	movs	r1, #34	; 0x22
 80a1eaa:	4620      	mov	r0, r4
 80a1eac:	f7ff fb48 	bl	80a1540 <_ZN7VL53L0X8writeRegEhh>
  writeReg(0x47, 0x14);
 80a1eb0:	2214      	movs	r2, #20
 80a1eb2:	2147      	movs	r1, #71	; 0x47
 80a1eb4:	4620      	mov	r0, r4
 80a1eb6:	f7ff fb43 	bl	80a1540 <_ZN7VL53L0X8writeRegEhh>
  writeReg(0x49, 0xFF);
 80a1eba:	22ff      	movs	r2, #255	; 0xff
 80a1ebc:	2149      	movs	r1, #73	; 0x49
 80a1ebe:	4620      	mov	r0, r4
 80a1ec0:	f7ff fb3e 	bl	80a1540 <_ZN7VL53L0X8writeRegEhh>
  writeReg(0x4A, 0x00);
 80a1ec4:	2200      	movs	r2, #0
 80a1ec6:	214a      	movs	r1, #74	; 0x4a
 80a1ec8:	4620      	mov	r0, r4
 80a1eca:	f7ff fb39 	bl	80a1540 <_ZN7VL53L0X8writeRegEhh>

  writeReg(0xFF, 0x00);
 80a1ece:	2200      	movs	r2, #0
 80a1ed0:	21ff      	movs	r1, #255	; 0xff
 80a1ed2:	4620      	mov	r0, r4
 80a1ed4:	f7ff fb34 	bl	80a1540 <_ZN7VL53L0X8writeRegEhh>
  writeReg(0x7A, 0x0A);
 80a1ed8:	220a      	movs	r2, #10
 80a1eda:	217a      	movs	r1, #122	; 0x7a
 80a1edc:	4620      	mov	r0, r4
 80a1ede:	f7ff fb2f 	bl	80a1540 <_ZN7VL53L0X8writeRegEhh>
  writeReg(0x7B, 0x00);
 80a1ee2:	2200      	movs	r2, #0
 80a1ee4:	217b      	movs	r1, #123	; 0x7b
 80a1ee6:	4620      	mov	r0, r4
 80a1ee8:	f7ff fb2a 	bl	80a1540 <_ZN7VL53L0X8writeRegEhh>
  writeReg(0x78, 0x21);
 80a1eec:	2221      	movs	r2, #33	; 0x21
 80a1eee:	2178      	movs	r1, #120	; 0x78
 80a1ef0:	4620      	mov	r0, r4
 80a1ef2:	f7ff fb25 	bl	80a1540 <_ZN7VL53L0X8writeRegEhh>

  writeReg(0xFF, 0x01);
 80a1ef6:	2201      	movs	r2, #1
 80a1ef8:	21ff      	movs	r1, #255	; 0xff
 80a1efa:	4620      	mov	r0, r4
 80a1efc:	f7ff fb20 	bl	80a1540 <_ZN7VL53L0X8writeRegEhh>
  writeReg(0x23, 0x34);
 80a1f00:	2234      	movs	r2, #52	; 0x34
 80a1f02:	2123      	movs	r1, #35	; 0x23
 80a1f04:	4620      	mov	r0, r4
 80a1f06:	f7ff fb1b 	bl	80a1540 <_ZN7VL53L0X8writeRegEhh>
  writeReg(0x42, 0x00);
 80a1f0a:	2200      	movs	r2, #0
 80a1f0c:	2142      	movs	r1, #66	; 0x42
 80a1f0e:	4620      	mov	r0, r4
 80a1f10:	f7ff fb16 	bl	80a1540 <_ZN7VL53L0X8writeRegEhh>
  writeReg(0x44, 0xFF);
 80a1f14:	22ff      	movs	r2, #255	; 0xff
 80a1f16:	2144      	movs	r1, #68	; 0x44
 80a1f18:	4620      	mov	r0, r4
 80a1f1a:	f7ff fb11 	bl	80a1540 <_ZN7VL53L0X8writeRegEhh>
  writeReg(0x45, 0x26);
 80a1f1e:	2226      	movs	r2, #38	; 0x26
 80a1f20:	2145      	movs	r1, #69	; 0x45
 80a1f22:	4620      	mov	r0, r4
 80a1f24:	f7ff fb0c 	bl	80a1540 <_ZN7VL53L0X8writeRegEhh>
  writeReg(0x46, 0x05);
 80a1f28:	2205      	movs	r2, #5
 80a1f2a:	2146      	movs	r1, #70	; 0x46
 80a1f2c:	4620      	mov	r0, r4
 80a1f2e:	f7ff fb07 	bl	80a1540 <_ZN7VL53L0X8writeRegEhh>
  writeReg(0x40, 0x40);
 80a1f32:	2240      	movs	r2, #64	; 0x40
 80a1f34:	4611      	mov	r1, r2
 80a1f36:	4620      	mov	r0, r4
 80a1f38:	f7ff fb02 	bl	80a1540 <_ZN7VL53L0X8writeRegEhh>
  writeReg(0x0E, 0x06);
 80a1f3c:	2206      	movs	r2, #6
 80a1f3e:	210e      	movs	r1, #14
 80a1f40:	4620      	mov	r0, r4
 80a1f42:	f7ff fafd 	bl	80a1540 <_ZN7VL53L0X8writeRegEhh>
  writeReg(0x20, 0x1A);
 80a1f46:	221a      	movs	r2, #26
 80a1f48:	2120      	movs	r1, #32
 80a1f4a:	4620      	mov	r0, r4
 80a1f4c:	f7ff faf8 	bl	80a1540 <_ZN7VL53L0X8writeRegEhh>
  writeReg(0x43, 0x40);
 80a1f50:	2240      	movs	r2, #64	; 0x40
 80a1f52:	2143      	movs	r1, #67	; 0x43
 80a1f54:	4620      	mov	r0, r4
 80a1f56:	f7ff faf3 	bl	80a1540 <_ZN7VL53L0X8writeRegEhh>

  writeReg(0xFF, 0x00);
 80a1f5a:	2200      	movs	r2, #0
 80a1f5c:	21ff      	movs	r1, #255	; 0xff
 80a1f5e:	4620      	mov	r0, r4
 80a1f60:	f7ff faee 	bl	80a1540 <_ZN7VL53L0X8writeRegEhh>
  writeReg(0x34, 0x03);
 80a1f64:	2203      	movs	r2, #3
 80a1f66:	2134      	movs	r1, #52	; 0x34
 80a1f68:	4620      	mov	r0, r4
 80a1f6a:	f7ff fae9 	bl	80a1540 <_ZN7VL53L0X8writeRegEhh>
  writeReg(0x35, 0x44);
 80a1f6e:	2244      	movs	r2, #68	; 0x44
 80a1f70:	2135      	movs	r1, #53	; 0x35
 80a1f72:	4620      	mov	r0, r4
 80a1f74:	f7ff fae4 	bl	80a1540 <_ZN7VL53L0X8writeRegEhh>

  writeReg(0xFF, 0x01);
 80a1f78:	2201      	movs	r2, #1
 80a1f7a:	21ff      	movs	r1, #255	; 0xff
 80a1f7c:	4620      	mov	r0, r4
 80a1f7e:	f7ff fadf 	bl	80a1540 <_ZN7VL53L0X8writeRegEhh>
  writeReg(0x31, 0x04);
 80a1f82:	2204      	movs	r2, #4
 80a1f84:	2131      	movs	r1, #49	; 0x31
 80a1f86:	4620      	mov	r0, r4
 80a1f88:	f7ff fada 	bl	80a1540 <_ZN7VL53L0X8writeRegEhh>
  writeReg(0x4B, 0x09);
 80a1f8c:	2209      	movs	r2, #9
 80a1f8e:	214b      	movs	r1, #75	; 0x4b
 80a1f90:	4620      	mov	r0, r4
 80a1f92:	f7ff fad5 	bl	80a1540 <_ZN7VL53L0X8writeRegEhh>
  writeReg(0x4C, 0x05);
 80a1f96:	2205      	movs	r2, #5
 80a1f98:	214c      	movs	r1, #76	; 0x4c
 80a1f9a:	4620      	mov	r0, r4
 80a1f9c:	f7ff fad0 	bl	80a1540 <_ZN7VL53L0X8writeRegEhh>
  writeReg(0x4D, 0x04);
 80a1fa0:	2204      	movs	r2, #4
 80a1fa2:	214d      	movs	r1, #77	; 0x4d
 80a1fa4:	4620      	mov	r0, r4
 80a1fa6:	f7ff facb 	bl	80a1540 <_ZN7VL53L0X8writeRegEhh>

  writeReg(0xFF, 0x00);
 80a1faa:	2200      	movs	r2, #0
 80a1fac:	21ff      	movs	r1, #255	; 0xff
 80a1fae:	4620      	mov	r0, r4
 80a1fb0:	f7ff fac6 	bl	80a1540 <_ZN7VL53L0X8writeRegEhh>
  writeReg(0x44, 0x00);
 80a1fb4:	2200      	movs	r2, #0
 80a1fb6:	2144      	movs	r1, #68	; 0x44
 80a1fb8:	4620      	mov	r0, r4
 80a1fba:	f7ff fac1 	bl	80a1540 <_ZN7VL53L0X8writeRegEhh>
  writeReg(0x45, 0x20);
 80a1fbe:	2220      	movs	r2, #32
 80a1fc0:	2145      	movs	r1, #69	; 0x45
 80a1fc2:	4620      	mov	r0, r4
 80a1fc4:	f7ff fabc 	bl	80a1540 <_ZN7VL53L0X8writeRegEhh>
  writeReg(0x47, 0x08);
 80a1fc8:	2208      	movs	r2, #8
 80a1fca:	2147      	movs	r1, #71	; 0x47
 80a1fcc:	4620      	mov	r0, r4
 80a1fce:	f7ff fab7 	bl	80a1540 <_ZN7VL53L0X8writeRegEhh>
  writeReg(0x48, 0x28);
 80a1fd2:	2228      	movs	r2, #40	; 0x28
 80a1fd4:	2148      	movs	r1, #72	; 0x48
 80a1fd6:	4620      	mov	r0, r4
 80a1fd8:	f7ff fab2 	bl	80a1540 <_ZN7VL53L0X8writeRegEhh>
  writeReg(0x67, 0x00);
 80a1fdc:	2200      	movs	r2, #0
 80a1fde:	2167      	movs	r1, #103	; 0x67
 80a1fe0:	4620      	mov	r0, r4
 80a1fe2:	f7ff faad 	bl	80a1540 <_ZN7VL53L0X8writeRegEhh>
  writeReg(0x70, 0x04);
 80a1fe6:	2204      	movs	r2, #4
 80a1fe8:	2170      	movs	r1, #112	; 0x70
 80a1fea:	4620      	mov	r0, r4
 80a1fec:	f7ff faa8 	bl	80a1540 <_ZN7VL53L0X8writeRegEhh>
  writeReg(0x71, 0x01);
 80a1ff0:	2201      	movs	r2, #1
 80a1ff2:	2171      	movs	r1, #113	; 0x71
 80a1ff4:	4620      	mov	r0, r4
 80a1ff6:	f7ff faa3 	bl	80a1540 <_ZN7VL53L0X8writeRegEhh>
  writeReg(0x72, 0xFE);
 80a1ffa:	22fe      	movs	r2, #254	; 0xfe
 80a1ffc:	2172      	movs	r1, #114	; 0x72
 80a1ffe:	4620      	mov	r0, r4
 80a2000:	f7ff fa9e 	bl	80a1540 <_ZN7VL53L0X8writeRegEhh>
  writeReg(0x76, 0x00);
 80a2004:	2200      	movs	r2, #0
 80a2006:	2176      	movs	r1, #118	; 0x76
 80a2008:	4620      	mov	r0, r4
 80a200a:	f7ff fa99 	bl	80a1540 <_ZN7VL53L0X8writeRegEhh>
  writeReg(0x77, 0x00);
 80a200e:	2200      	movs	r2, #0
 80a2010:	2177      	movs	r1, #119	; 0x77
 80a2012:	4620      	mov	r0, r4
 80a2014:	f7ff fa94 	bl	80a1540 <_ZN7VL53L0X8writeRegEhh>

  writeReg(0xFF, 0x01);
 80a2018:	2201      	movs	r2, #1
 80a201a:	21ff      	movs	r1, #255	; 0xff
 80a201c:	4620      	mov	r0, r4
 80a201e:	f7ff fa8f 	bl	80a1540 <_ZN7VL53L0X8writeRegEhh>
  writeReg(0x0D, 0x01);
 80a2022:	2201      	movs	r2, #1
 80a2024:	210d      	movs	r1, #13
 80a2026:	4620      	mov	r0, r4
 80a2028:	f7ff fa8a 	bl	80a1540 <_ZN7VL53L0X8writeRegEhh>

  writeReg(0xFF, 0x00);
 80a202c:	2200      	movs	r2, #0
 80a202e:	21ff      	movs	r1, #255	; 0xff
 80a2030:	4620      	mov	r0, r4
 80a2032:	f7ff fa85 	bl	80a1540 <_ZN7VL53L0X8writeRegEhh>
  writeReg(0x80, 0x01);
 80a2036:	2201      	movs	r2, #1
 80a2038:	2180      	movs	r1, #128	; 0x80
 80a203a:	4620      	mov	r0, r4
 80a203c:	f7ff fa80 	bl	80a1540 <_ZN7VL53L0X8writeRegEhh>
  writeReg(0x01, 0xF8);
 80a2040:	22f8      	movs	r2, #248	; 0xf8
 80a2042:	2101      	movs	r1, #1
 80a2044:	4620      	mov	r0, r4
 80a2046:	f7ff fa7b 	bl	80a1540 <_ZN7VL53L0X8writeRegEhh>

  writeReg(0xFF, 0x01);
 80a204a:	2201      	movs	r2, #1
 80a204c:	21ff      	movs	r1, #255	; 0xff
 80a204e:	4620      	mov	r0, r4
 80a2050:	f7ff fa76 	bl	80a1540 <_ZN7VL53L0X8writeRegEhh>
  writeReg(0x8E, 0x01);
 80a2054:	2201      	movs	r2, #1
 80a2056:	218e      	movs	r1, #142	; 0x8e
 80a2058:	4620      	mov	r0, r4
 80a205a:	f7ff fa71 	bl	80a1540 <_ZN7VL53L0X8writeRegEhh>
  writeReg(0x00, 0x01);
 80a205e:	2201      	movs	r2, #1
 80a2060:	2100      	movs	r1, #0
 80a2062:	4620      	mov	r0, r4
 80a2064:	f7ff fa6c 	bl	80a1540 <_ZN7VL53L0X8writeRegEhh>
  writeReg(0xFF, 0x00);
 80a2068:	2200      	movs	r2, #0
 80a206a:	21ff      	movs	r1, #255	; 0xff
 80a206c:	4620      	mov	r0, r4
 80a206e:	f7ff fa67 	bl	80a1540 <_ZN7VL53L0X8writeRegEhh>
  writeReg(0x80, 0x00);
 80a2072:	2200      	movs	r2, #0
 80a2074:	2180      	movs	r1, #128	; 0x80
 80a2076:	4620      	mov	r0, r4
 80a2078:	f7ff fa62 	bl	80a1540 <_ZN7VL53L0X8writeRegEhh>
  // -- VL53L0X_load_tuning_settings() end

  // "Set interrupt config to new sample ready"
  // -- VL53L0X_SetGpioConfig() begin

  writeReg(SYSTEM_INTERRUPT_CONFIG_GPIO, 0x04);
 80a207c:	2204      	movs	r2, #4
 80a207e:	210a      	movs	r1, #10
 80a2080:	4620      	mov	r0, r4
 80a2082:	f7ff fa5d 	bl	80a1540 <_ZN7VL53L0X8writeRegEhh>
  writeReg(GPIO_HV_MUX_ACTIVE_HIGH, readReg(GPIO_HV_MUX_ACTIVE_HIGH) & ~0x10); // active low
 80a2086:	2184      	movs	r1, #132	; 0x84
 80a2088:	4620      	mov	r0, r4
 80a208a:	f7ff fac8 	bl	80a161e <_ZN7VL53L0X7readRegEh>
 80a208e:	2184      	movs	r1, #132	; 0x84
 80a2090:	f000 02ef 	and.w	r2, r0, #239	; 0xef
 80a2094:	4620      	mov	r0, r4
 80a2096:	f7ff fa53 	bl	80a1540 <_ZN7VL53L0X8writeRegEhh>
  writeReg(SYSTEM_INTERRUPT_CLEAR, 0x01);
 80a209a:	2201      	movs	r2, #1
 80a209c:	210b      	movs	r1, #11
 80a209e:	4620      	mov	r0, r4
 80a20a0:	f7ff fa4e 	bl	80a1540 <_ZN7VL53L0X8writeRegEhh>

  // -- VL53L0X_SetGpioConfig() end

  measurement_timing_budget_us = getMeasurementTimingBudget();
 80a20a4:	4620      	mov	r0, r4
 80a20a6:	f7ff fcf3 	bl	80a1a90 <_ZN7VL53L0X26getMeasurementTimingBudgetEv>
  // "Disable MSRC and TCC by default"
  // MSRC = Minimum Signal Rate Check
  // TCC = Target CentreCheck
  // -- VL53L0X_SetSequenceStepEnable() begin

  writeReg(SYSTEM_SEQUENCE_CONFIG, 0xE8);
 80a20aa:	22e8      	movs	r2, #232	; 0xe8
  writeReg(GPIO_HV_MUX_ACTIVE_HIGH, readReg(GPIO_HV_MUX_ACTIVE_HIGH) & ~0x10); // active low
  writeReg(SYSTEM_INTERRUPT_CLEAR, 0x01);

  // -- VL53L0X_SetGpioConfig() end

  measurement_timing_budget_us = getMeasurementTimingBudget();
 80a20ac:	6160      	str	r0, [r4, #20]
  // "Disable MSRC and TCC by default"
  // MSRC = Minimum Signal Rate Check
  // TCC = Target CentreCheck
  // -- VL53L0X_SetSequenceStepEnable() begin

  writeReg(SYSTEM_SEQUENCE_CONFIG, 0xE8);
 80a20ae:	2101      	movs	r1, #1
 80a20b0:	4620      	mov	r0, r4
 80a20b2:	f7ff fa45 	bl	80a1540 <_ZN7VL53L0X8writeRegEhh>

  // -- VL53L0X_SetSequenceStepEnable() end

  // "Recalculate timing budget"
  setMeasurementTimingBudget(measurement_timing_budget_us);
 80a20b6:	6961      	ldr	r1, [r4, #20]
 80a20b8:	4620      	mov	r0, r4
 80a20ba:	f7ff fd33 	bl	80a1b24 <_ZN7VL53L0X26setMeasurementTimingBudgetEm>

  // VL53L0X_PerformRefCalibration() begin (VL53L0X_perform_ref_calibration())

  // -- VL53L0X_perform_vhv_calibration() begin

  writeReg(SYSTEM_SEQUENCE_CONFIG, 0x01);
 80a20be:	2201      	movs	r2, #1
 80a20c0:	4611      	mov	r1, r2
 80a20c2:	4620      	mov	r0, r4
 80a20c4:	f7ff fa3c 	bl	80a1540 <_ZN7VL53L0X8writeRegEhh>
  if (!performSingleRefCalibration(0x40)) { return false; }
 80a20c8:	2140      	movs	r1, #64	; 0x40
 80a20ca:	4620      	mov	r0, r4
 80a20cc:	f7ff fd79 	bl	80a1bc2 <_ZN7VL53L0X27performSingleRefCalibrationEh>
 80a20d0:	2800      	cmp	r0, #0
 80a20d2:	f43f adf2 	beq.w	80a1cba <_ZN7VL53L0X4initEb+0xa6>

  // -- VL53L0X_perform_vhv_calibration() end

  // -- VL53L0X_perform_phase_calibration() begin

  writeReg(SYSTEM_SEQUENCE_CONFIG, 0x02);
 80a20d6:	2202      	movs	r2, #2
 80a20d8:	2101      	movs	r1, #1
 80a20da:	4620      	mov	r0, r4
 80a20dc:	f7ff fa30 	bl	80a1540 <_ZN7VL53L0X8writeRegEhh>
  if (!performSingleRefCalibration(0x00)) { return false; }
 80a20e0:	2100      	movs	r1, #0
 80a20e2:	4620      	mov	r0, r4
 80a20e4:	f7ff fd6d 	bl	80a1bc2 <_ZN7VL53L0X27performSingleRefCalibrationEh>
 80a20e8:	4605      	mov	r5, r0
 80a20ea:	2800      	cmp	r0, #0
 80a20ec:	f43f ade5 	beq.w	80a1cba <_ZN7VL53L0X4initEb+0xa6>

  // -- VL53L0X_perform_phase_calibration() end

  // "restore the previous Sequence Config"
  writeReg(SYSTEM_SEQUENCE_CONFIG, 0xE8);
 80a20f0:	22e8      	movs	r2, #232	; 0xe8
 80a20f2:	2101      	movs	r1, #1
 80a20f4:	4620      	mov	r0, r4
 80a20f6:	f7ff fa23 	bl	80a1540 <_ZN7VL53L0X8writeRegEhh>

  // VL53L0X_PerformRefCalibration() end

  return true;
}
 80a20fa:	4628      	mov	r0, r5
 80a20fc:	b005      	add	sp, #20
 80a20fe:	bdf0      	pop	{r4, r5, r6, r7, pc}

080a2100 <_GLOBAL__sub_I__ZN7VL53L0XC2Ev>:
 80a2100:	f001 b83a 	b.w	80a3178 <HAL_Pin_Map>

080a2104 <_ZN9LIS3DHI2CD1Ev>:

}

LIS3DHI2C::~LIS3DHI2C() {

}
 80a2104:	4770      	bx	lr

080a2106 <_ZN9LIS3DHI2CD0Ev>:

LIS3DHI2C::LIS3DHI2C(TwoWire &wire, uint8_t sad0, int intPin) : LIS3DH(intPin), wire(wire), sad0(sad0) {

}

LIS3DHI2C::~LIS3DHI2C() {
 80a2106:	b510      	push	{r4, lr}
 80a2108:	4604      	mov	r4, r0

}
 80a210a:	f7fd ffc8 	bl	80a009e <_ZdlPv>
 80a210e:	4620      	mov	r0, r4
 80a2110:	bd10      	pop	{r4, pc}

080a2112 <_ZN9LIS3DHI2C9writeDataEhPKhj>:
		buf[ii] = wire.read();
	}
	return true;
}

bool LIS3DHI2C::writeData(uint8_t addr, const uint8_t *buf, size_t numBytes) {
 80a2112:	b5f8      	push	{r3, r4, r5, r6, r7, lr}
 80a2114:	4605      	mov	r5, r0
 80a2116:	461e      	mov	r6, r3
 80a2118:	460f      	mov	r7, r1

	wire.beginTransmission(getI2CAddr());
 80a211a:	7c01      	ldrb	r1, [r0, #16]
 80a211c:	68c0      	ldr	r0, [r0, #12]
 80a211e:	f041 0118 	orr.w	r1, r1, #24
		buf[ii] = wire.read();
	}
	return true;
}

bool LIS3DHI2C::writeData(uint8_t addr, const uint8_t *buf, size_t numBytes) {
 80a2122:	4614      	mov	r4, r2

	wire.beginTransmission(getI2CAddr());
 80a2124:	f001 fdb9 	bl	80a3c9a <_ZN7TwoWire17beginTransmissionEh>

	if (numBytes > 1) {
		addr |= I2C_INCREMENT;
	}
	wire.write(addr);
 80a2128:	68e8      	ldr	r0, [r5, #12]

bool LIS3DHI2C::writeData(uint8_t addr, const uint8_t *buf, size_t numBytes) {

	wire.beginTransmission(getI2CAddr());

	if (numBytes > 1) {
 80a212a:	2e01      	cmp	r6, #1
		addr |= I2C_INCREMENT;
	}
	wire.write(addr);
 80a212c:	6803      	ldr	r3, [r0, #0]
bool LIS3DHI2C::writeData(uint8_t addr, const uint8_t *buf, size_t numBytes) {

	wire.beginTransmission(getI2CAddr());

	if (numBytes > 1) {
		addr |= I2C_INCREMENT;
 80a212e:	bf88      	it	hi
 80a2130:	f047 0780 	orrhi.w	r7, r7, #128	; 0x80
	}
	wire.write(addr);
 80a2134:	689b      	ldr	r3, [r3, #8]
 80a2136:	4639      	mov	r1, r7
 80a2138:	4798      	blx	r3
 80a213a:	4426      	add	r6, r4
	for(size_t ii = 0; ii < numBytes; ii++) {
 80a213c:	42a6      	cmp	r6, r4
		wire.write(buf[ii]);
	}

	uint8_t res = wire.endTransmission();
 80a213e:	68e8      	ldr	r0, [r5, #12]

	if (numBytes > 1) {
		addr |= I2C_INCREMENT;
	}
	wire.write(addr);
	for(size_t ii = 0; ii < numBytes; ii++) {
 80a2140:	d005      	beq.n	80a214e <_ZN9LIS3DHI2C9writeDataEhPKhj+0x3c>
		wire.write(buf[ii]);
 80a2142:	6803      	ldr	r3, [r0, #0]
 80a2144:	f814 1b01 	ldrb.w	r1, [r4], #1
 80a2148:	689b      	ldr	r3, [r3, #8]
 80a214a:	4798      	blx	r3

	if (numBytes > 1) {
		addr |= I2C_INCREMENT;
	}
	wire.write(addr);
	for(size_t ii = 0; ii < numBytes; ii++) {
 80a214c:	e7f6      	b.n	80a213c <_ZN9LIS3DHI2C9writeDataEhPKhj+0x2a>
		wire.write(buf[ii]);
	}

	uint8_t res = wire.endTransmission();
 80a214e:	f001 fdac 	bl	80a3caa <_ZN7TwoWire15endTransmissionEv>

	return (res == 0);
}
 80a2152:	fab0 f080 	clz	r0, r0
 80a2156:	0940      	lsrs	r0, r0, #5
 80a2158:	bdf8      	pop	{r3, r4, r5, r6, r7, pc}

080a215a <_ZN9LIS3DHI2C8readDataEhPhj>:

LIS3DHI2C::LIS3DHI2C(uint8_t sad0, int intPin) : LIS3DH(intPin), wire(Wire), sad0(sad0) {

}

bool LIS3DHI2C::readData(uint8_t addr, uint8_t *buf, size_t numBytes) {
 80a215a:	b5f8      	push	{r3, r4, r5, r6, r7, lr}
 80a215c:	4604      	mov	r4, r0
 80a215e:	461e      	mov	r6, r3
 80a2160:	460f      	mov	r7, r1
	wire.beginTransmission(getI2CAddr());
 80a2162:	7c01      	ldrb	r1, [r0, #16]
 80a2164:	68c0      	ldr	r0, [r0, #12]
 80a2166:	f041 0118 	orr.w	r1, r1, #24

LIS3DHI2C::LIS3DHI2C(uint8_t sad0, int intPin) : LIS3DH(intPin), wire(Wire), sad0(sad0) {

}

bool LIS3DHI2C::readData(uint8_t addr, uint8_t *buf, size_t numBytes) {
 80a216a:	4615      	mov	r5, r2
	wire.beginTransmission(getI2CAddr());
 80a216c:	f001 fd95 	bl	80a3c9a <_ZN7TwoWire17beginTransmissionEh>

	if (numBytes > 1) {
		addr |= I2C_INCREMENT;
	}
	wire.write(addr);
 80a2170:	68e0      	ldr	r0, [r4, #12]
}

bool LIS3DHI2C::readData(uint8_t addr, uint8_t *buf, size_t numBytes) {
	wire.beginTransmission(getI2CAddr());

	if (numBytes > 1) {
 80a2172:	2e01      	cmp	r6, #1
		addr |= I2C_INCREMENT;
	}
	wire.write(addr);
 80a2174:	6803      	ldr	r3, [r0, #0]

bool LIS3DHI2C::readData(uint8_t addr, uint8_t *buf, size_t numBytes) {
	wire.beginTransmission(getI2CAddr());

	if (numBytes > 1) {
		addr |= I2C_INCREMENT;
 80a2176:	bf88      	it	hi
 80a2178:	f047 0780 	orrhi.w	r7, r7, #128	; 0x80
	}
	wire.write(addr);
 80a217c:	689b      	ldr	r3, [r3, #8]
 80a217e:	4639      	mov	r1, r7
 80a2180:	4798      	blx	r3

	uint8_t res = wire.endTransmission();
 80a2182:	68e0      	ldr	r0, [r4, #12]
 80a2184:	f001 fd91 	bl	80a3caa <_ZN7TwoWire15endTransmissionEv>
	if (res != 0) {
 80a2188:	b9a8      	cbnz	r0, 80a21b6 <_ZN9LIS3DHI2C8readDataEhPhj+0x5c>
		return false;
	}

	wire.requestFrom((int)getI2CAddr(), numBytes);
 80a218a:	7c21      	ldrb	r1, [r4, #16]
 80a218c:	4632      	mov	r2, r6
 80a218e:	f041 0118 	orr.w	r1, r1, #24
 80a2192:	68e0      	ldr	r0, [r4, #12]
 80a2194:	f001 fd7c 	bl	80a3c90 <_ZN7TwoWire11requestFromEii>
 80a2198:	442e      	add	r6, r5
	for(size_t ii = 0; ii < numBytes && wire.available(); ii++) {
 80a219a:	42ae      	cmp	r6, r5
 80a219c:	d00d      	beq.n	80a21ba <_ZN9LIS3DHI2C8readDataEhPhj+0x60>
 80a219e:	68e0      	ldr	r0, [r4, #12]
 80a21a0:	6803      	ldr	r3, [r0, #0]
 80a21a2:	691b      	ldr	r3, [r3, #16]
 80a21a4:	4798      	blx	r3
 80a21a6:	b140      	cbz	r0, 80a21ba <_ZN9LIS3DHI2C8readDataEhPhj+0x60>
		buf[ii] = wire.read();
 80a21a8:	68e0      	ldr	r0, [r4, #12]
 80a21aa:	6803      	ldr	r3, [r0, #0]
 80a21ac:	695b      	ldr	r3, [r3, #20]
 80a21ae:	4798      	blx	r3
 80a21b0:	f805 0b01 	strb.w	r0, [r5], #1
 80a21b4:	e7f1      	b.n	80a219a <_ZN9LIS3DHI2C8readDataEhPhj+0x40>
	}
	wire.write(addr);

	uint8_t res = wire.endTransmission();
	if (res != 0) {
		return false;
 80a21b6:	2000      	movs	r0, #0
 80a21b8:	bdf8      	pop	{r3, r4, r5, r6, r7, pc}
 80a21ba:	2001      	movs	r0, #1
	wire.requestFrom((int)getI2CAddr(), numBytes);
	for(size_t ii = 0; ii < numBytes && wire.available(); ii++) {
		buf[ii] = wire.read();
	}
	return true;
}
 80a21bc:	bdf8      	pop	{r3, r4, r5, r6, r7, pc}

080a21be <_ZN12LIS3DHConfigC1Ev>:
#include "LIS3DH.h"

// Official project location:
// https://github.com/rickkas7/LIS3DH

LIS3DHConfig::LIS3DHConfig() {
 80a21be:	2200      	movs	r2, #0
 80a21c0:	7002      	strb	r2, [r0, #0]
 80a21c2:	7042      	strb	r2, [r0, #1]
 80a21c4:	7082      	strb	r2, [r0, #2]
 80a21c6:	70c2      	strb	r2, [r0, #3]
 80a21c8:	7102      	strb	r2, [r0, #4]
 80a21ca:	7142      	strb	r2, [r0, #5]
 80a21cc:	7182      	strb	r2, [r0, #6]
 80a21ce:	71c2      	strb	r2, [r0, #7]
 80a21d0:	7202      	strb	r2, [r0, #8]
 80a21d2:	7242      	strb	r2, [r0, #9]
 80a21d4:	7282      	strb	r2, [r0, #10]
}
 80a21d6:	4770      	bx	lr

080a21d8 <_ZN12LIS3DHConfig12setAccelModeEh>:
}

LIS3DHConfig &LIS3DHConfig::setAccelMode(uint8_t rate) {

	// Enable specified rate, with XYZ detection enabled
	reg1 = rate | LIS3DH::CTRL_REG1_ZEN | LIS3DH::CTRL_REG1_YEN | LIS3DH::CTRL_REG1_XEN;
 80a21d8:	f041 0107 	orr.w	r1, r1, #7
 80a21dc:	7001      	strb	r1, [r0, #0]

	return *this;
}
 80a21de:	4770      	bx	lr

080a21e0 <_ZN6LIS3DH13readRegister8Eh>:

	return pos;
}


uint8_t LIS3DH::readRegister8(uint8_t addr) {
 80a21e0:	b513      	push	{r0, r1, r4, lr}

	uint8_t resp[1];
	readData(addr, resp, sizeof(resp));
 80a21e2:	6803      	ldr	r3, [r0, #0]
 80a21e4:	aa01      	add	r2, sp, #4
 80a21e6:	689c      	ldr	r4, [r3, #8]
 80a21e8:	2301      	movs	r3, #1
 80a21ea:	47a0      	blx	r4

	return resp[0];
}
 80a21ec:	f89d 0004 	ldrb.w	r0, [sp, #4]
 80a21f0:	b002      	add	sp, #8
 80a21f2:	bd10      	pop	{r4, pc}

080a21f4 <_ZN6LIS3DH9hasDeviceEv>:
LIS3DH::~LIS3DH() {

}


bool LIS3DH::hasDevice() {
 80a21f4:	b538      	push	{r3, r4, r5, lr}
 80a21f6:	4605      	mov	r5, r0
 80a21f8:	240a      	movs	r4, #10
	bool found = false;
	for(int tries = 0; tries < 10; tries++) {
		uint8_t whoami = readRegister8(REG_WHO_AM_I);
 80a21fa:	210f      	movs	r1, #15
 80a21fc:	4628      	mov	r0, r5
 80a21fe:	f7ff ffef 	bl	80a21e0 <_ZN6LIS3DH13readRegister8Eh>
		if (whoami == WHO_AM_I) {
 80a2202:	2833      	cmp	r0, #51	; 0x33
			found = true;
 80a2204:	f04f 0001 	mov.w	r0, #1

bool LIS3DH::hasDevice() {
	bool found = false;
	for(int tries = 0; tries < 10; tries++) {
		uint8_t whoami = readRegister8(REG_WHO_AM_I);
		if (whoami == WHO_AM_I) {
 80a2208:	d005      	beq.n	80a2216 <_ZN6LIS3DH9hasDeviceEv+0x22>
			found = true;
			break;
		}
		delay(1);
 80a220a:	f001 facb 	bl	80a37a4 <delay>
}


bool LIS3DH::hasDevice() {
	bool found = false;
	for(int tries = 0; tries < 10; tries++) {
 80a220e:	3c01      	subs	r4, #1
 80a2210:	d1f3      	bne.n	80a21fa <_ZN6LIS3DH9hasDeviceEv+0x6>

}


bool LIS3DH::hasDevice() {
	bool found = false;
 80a2212:	4620      	mov	r0, r4
 80a2214:	bd38      	pop	{r3, r4, r5, pc}
			break;
		}
		delay(1);
	}
	return found;
}
 80a2216:	bd38      	pop	{r3, r4, r5, pc}

080a2218 <_ZN6LIS3DH9getSampleER12LIS3DHSample>:

	return result;
}


bool LIS3DH::getSample(LIS3DHSample &sample) {
 80a2218:	b5f7      	push	{r0, r1, r2, r4, r5, r6, r7, lr}
 80a221a:	460c      	mov	r4, r1
	uint8_t statusAuxReg = readRegister8(REG_STATUS_AUX);
 80a221c:	2107      	movs	r1, #7

	return result;
}


bool LIS3DH::getSample(LIS3DHSample &sample) {
 80a221e:	4606      	mov	r6, r0
	uint8_t statusAuxReg = readRegister8(REG_STATUS_AUX);
 80a2220:	f7ff ffde 	bl	80a21e0 <_ZN6LIS3DH13readRegister8Eh>
 80a2224:	f000 0008 	and.w	r0, r0, #8

	bool hasData = ((statusAuxReg & STATUS_AUX_321DA) != 0);
 80a2228:	2800      	cmp	r0, #0
 80a222a:	bf14      	ite	ne
 80a222c:	2501      	movne	r5, #1
 80a222e:	2500      	moveq	r5, #0

	//Serial.printlnf("fifoSrcReg=0x%02x", fifoSrcReg);

	if (hasData) {
 80a2230:	d01b      	beq.n	80a226a <_ZN6LIS3DH9getSampleER12LIS3DHSample+0x52>
		uint8_t resp[6];
		readData(REG_OUT_X_L, resp, sizeof(resp));
 80a2232:	6833      	ldr	r3, [r6, #0]
 80a2234:	466a      	mov	r2, sp
 80a2236:	689f      	ldr	r7, [r3, #8]
 80a2238:	2128      	movs	r1, #40	; 0x28
 80a223a:	2306      	movs	r3, #6
 80a223c:	4630      	mov	r0, r6
 80a223e:	47b8      	blx	r7

		sample.x = (int16_t) (resp[0] | (((uint16_t)resp[1]) << 8));
 80a2240:	f89d 2001 	ldrb.w	r2, [sp, #1]
 80a2244:	f89d 3000 	ldrb.w	r3, [sp]
 80a2248:	ea43 2302 	orr.w	r3, r3, r2, lsl #8
 80a224c:	8023      	strh	r3, [r4, #0]
		sample.y = (int16_t) (resp[2] | (((uint16_t)resp[3]) << 8));
 80a224e:	f89d 2003 	ldrb.w	r2, [sp, #3]
 80a2252:	f89d 3002 	ldrb.w	r3, [sp, #2]
 80a2256:	ea43 2302 	orr.w	r3, r3, r2, lsl #8
 80a225a:	8063      	strh	r3, [r4, #2]
		sample.z = (int16_t) (resp[4] | (((uint16_t)resp[5]) << 8));
 80a225c:	f89d 2005 	ldrb.w	r2, [sp, #5]
 80a2260:	f89d 3004 	ldrb.w	r3, [sp, #4]
 80a2264:	ea43 2302 	orr.w	r3, r3, r2, lsl #8
 80a2268:	80a3      	strh	r3, [r4, #4]
	}
	return hasData;
}
 80a226a:	4628      	mov	r0, r5
 80a226c:	b003      	add	sp, #12
 80a226e:	bdf0      	pop	{r4, r5, r6, r7, pc}

080a2270 <_ZN6LIS3DH14writeRegister8Ehh>:

	return resp[0] | (((uint16_t)resp[1]) << 8);
}


void LIS3DH::writeRegister8(uint8_t addr, uint8_t value) {
 80a2270:	b537      	push	{r0, r1, r2, r4, r5, lr}
	// Serial.printlnf("writeRegister addr=%02x value=%02x", addr, value);

	uint8_t req[1];
	req[0] = value;
 80a2272:	ac02      	add	r4, sp, #8

	writeData(addr, req, sizeof(req));
 80a2274:	6803      	ldr	r3, [r0, #0]

void LIS3DH::writeRegister8(uint8_t addr, uint8_t value) {
	// Serial.printlnf("writeRegister addr=%02x value=%02x", addr, value);

	uint8_t req[1];
	req[0] = value;
 80a2276:	f804 2d04 	strb.w	r2, [r4, #-4]!

	writeData(addr, req, sizeof(req));
 80a227a:	68dd      	ldr	r5, [r3, #12]
 80a227c:	4622      	mov	r2, r4
 80a227e:	2301      	movs	r3, #1
 80a2280:	47a8      	blx	r5
}
 80a2282:	b003      	add	sp, #12
 80a2284:	bd30      	pop	{r4, r5, pc}
	...

080a2288 <_ZN6LIS3DH5setupER12LIS3DHConfig>:
		delay(1);
	}
	return found;
}

bool LIS3DH::setup(LIS3DHConfig &config) {
 80a2288:	b570      	push	{r4, r5, r6, lr}
 80a228a:	4604      	mov	r4, r0
 80a228c:	460d      	mov	r5, r1

	if (!hasDevice()) {
 80a228e:	f7ff ffb1 	bl	80a21f4 <_ZN6LIS3DH9hasDeviceEv>
 80a2292:	4606      	mov	r6, r0
 80a2294:	b928      	cbnz	r0, 80a22a2 <_ZN6LIS3DH5setupER12LIS3DHConfig+0x1a>
		Serial.println("device not found");
 80a2296:	f001 fbb3 	bl	80a3a00 <_Z16_fetch_usbserialv>
 80a229a:	4928      	ldr	r1, [pc, #160]	; (80a233c <_ZN6LIS3DH5setupER12LIS3DHConfig+0xb4>)
 80a229c:	f001 f9c8 	bl	80a3630 <_ZN5Print7printlnEPKc>
		return false;
 80a22a0:	e049      	b.n	80a2336 <_ZN6LIS3DH5setupER12LIS3DHConfig+0xae>
	}

	writeRegister8(REG_CTRL_REG1, config.reg1);
 80a22a2:	782a      	ldrb	r2, [r5, #0]
 80a22a4:	2120      	movs	r1, #32
 80a22a6:	4620      	mov	r0, r4
 80a22a8:	f7ff ffe2 	bl	80a2270 <_ZN6LIS3DH14writeRegister8Ehh>
	writeRegister8(REG_CTRL_REG2, config.reg2);
 80a22ac:	786a      	ldrb	r2, [r5, #1]
 80a22ae:	2121      	movs	r1, #33	; 0x21
 80a22b0:	4620      	mov	r0, r4
 80a22b2:	f7ff ffdd 	bl	80a2270 <_ZN6LIS3DH14writeRegister8Ehh>
	writeRegister8(REG_CTRL_REG3, config.reg3);
 80a22b6:	78aa      	ldrb	r2, [r5, #2]
 80a22b8:	2122      	movs	r1, #34	; 0x22
 80a22ba:	4620      	mov	r0, r4
 80a22bc:	f7ff ffd8 	bl	80a2270 <_ZN6LIS3DH14writeRegister8Ehh>
	writeRegister8(REG_CTRL_REG4, config.reg4);
 80a22c0:	78ea      	ldrb	r2, [r5, #3]
 80a22c2:	2123      	movs	r1, #35	; 0x23
 80a22c4:	4620      	mov	r0, r4
 80a22c6:	f7ff ffd3 	bl	80a2270 <_ZN6LIS3DH14writeRegister8Ehh>
	writeRegister8(REG_CTRL_REG5, config.reg5);
 80a22ca:	792a      	ldrb	r2, [r5, #4]
 80a22cc:	2124      	movs	r1, #36	; 0x24
 80a22ce:	4620      	mov	r0, r4
 80a22d0:	f7ff ffce 	bl	80a2270 <_ZN6LIS3DH14writeRegister8Ehh>
	writeRegister8(REG_CTRL_REG6, config.reg6);
 80a22d4:	796a      	ldrb	r2, [r5, #5]
 80a22d6:	2125      	movs	r1, #37	; 0x25
 80a22d8:	4620      	mov	r0, r4
 80a22da:	f7ff ffc9 	bl	80a2270 <_ZN6LIS3DH14writeRegister8Ehh>

	if (config.setReference) {
 80a22de:	79ab      	ldrb	r3, [r5, #6]
 80a22e0:	b11b      	cbz	r3, 80a22ea <_ZN6LIS3DH5setupER12LIS3DHConfig+0x62>
		// In normal mode, reading the reference register sets it for the current normal force
		// (the normal force of gravity acting on the device)
		readRegister8(REG_REFERENCE);
 80a22e2:	2126      	movs	r1, #38	; 0x26
 80a22e4:	4620      	mov	r0, r4
 80a22e6:	f7ff ff7b 	bl	80a21e0 <_ZN6LIS3DH13readRegister8Eh>
	}
	// Set FIFO mode
	writeRegister8(REG_FIFO_CTRL_REG, config.fifoCtrlReg);
 80a22ea:	7aaa      	ldrb	r2, [r5, #10]
 80a22ec:	212e      	movs	r1, #46	; 0x2e
 80a22ee:	4620      	mov	r0, r4
 80a22f0:	f7ff ffbe 	bl	80a2270 <_ZN6LIS3DH14writeRegister8Ehh>



	if ((config.reg3 & CTRL_REG3_I1_INT1) != 0) {
 80a22f4:	78ab      	ldrb	r3, [r5, #2]
 80a22f6:	065b      	lsls	r3, r3, #25
 80a22f8:	d51d      	bpl.n	80a2336 <_ZN6LIS3DH5setupER12LIS3DHConfig+0xae>

		writeRegister8(REG_INT1_THS, config.int1_ths);
 80a22fa:	79ea      	ldrb	r2, [r5, #7]
 80a22fc:	2132      	movs	r1, #50	; 0x32
 80a22fe:	4620      	mov	r0, r4
 80a2300:	f7ff ffb6 	bl	80a2270 <_ZN6LIS3DH14writeRegister8Ehh>
		writeRegister8(REG_INT1_DURATION, config.int1_duration);
 80a2304:	7a2a      	ldrb	r2, [r5, #8]
 80a2306:	2133      	movs	r1, #51	; 0x33
 80a2308:	4620      	mov	r0, r4
 80a230a:	f7ff ffb1 	bl	80a2270 <_ZN6LIS3DH14writeRegister8Ehh>

		if (intPin >= 0) {
 80a230e:	6863      	ldr	r3, [r4, #4]
 80a2310:	2b00      	cmp	r3, #0
 80a2312:	db0a      	blt.n	80a232a <_ZN6LIS3DH5setupER12LIS3DHConfig+0xa2>
			// as I can tell this never works. Merely setting the INT1_CFG does not ever generate an
			// interrupt for me.

			// Remember the INT1_CFG setting because we're apparently supposed to set it again after
			// clearing an interrupt.
			int1_cfg = config.int1_cfg;
 80a2314:	7a6a      	ldrb	r2, [r5, #9]
			writeRegister8(REG_INT1_CFG, int1_cfg);
 80a2316:	4620      	mov	r0, r4
			// as I can tell this never works. Merely setting the INT1_CFG does not ever generate an
			// interrupt for me.

			// Remember the INT1_CFG setting because we're apparently supposed to set it again after
			// clearing an interrupt.
			int1_cfg = config.int1_cfg;
 80a2318:	7222      	strb	r2, [r4, #8]
			writeRegister8(REG_INT1_CFG, int1_cfg);
 80a231a:	2130      	movs	r1, #48	; 0x30
 80a231c:	f7ff ffa8 	bl	80a2270 <_ZN6LIS3DH14writeRegister8Ehh>

			// Clear the interrupt just in case
			readRegister8(REG_INT1_SRC);
 80a2320:	2131      	movs	r1, #49	; 0x31
 80a2322:	4620      	mov	r0, r4
 80a2324:	f7ff ff5c 	bl	80a21e0 <_ZN6LIS3DH13readRegister8Eh>
 80a2328:	e005      	b.n	80a2336 <_ZN6LIS3DH5setupER12LIS3DHConfig+0xae>
		}
		else {
			int1_cfg = 0;
 80a232a:	2200      	movs	r2, #0
 80a232c:	7222      	strb	r2, [r4, #8]
			writeRegister8(REG_INT1_CFG, 0);
 80a232e:	2130      	movs	r1, #48	; 0x30
 80a2330:	4620      	mov	r0, r4
 80a2332:	f7ff ff9d 	bl	80a2270 <_ZN6LIS3DH14writeRegister8Ehh>




	return true;
}
 80a2336:	4630      	mov	r0, r6
 80a2338:	bd70      	pop	{r4, r5, r6, pc}
 80a233a:	bf00      	nop
 80a233c:	080a5168 	.word	0x080a5168

080a2340 <_ZN9LIS3DHI2CC1ER7TwoWirehi>:

//
//
//

LIS3DHI2C::LIS3DHI2C(TwoWire &wire, uint8_t sad0, int intPin) : LIS3DH(intPin), wire(wire), sad0(sad0) {
 80a2340:	b510      	push	{r4, lr}

	return *this;
}


LIS3DH::LIS3DH(int intPin) : intPin(intPin) {
 80a2342:	6043      	str	r3, [r0, #4]

//
//
//

LIS3DHI2C::LIS3DHI2C(TwoWire &wire, uint8_t sad0, int intPin) : LIS3DH(intPin), wire(wire), sad0(sad0) {
 80a2344:	4b02      	ldr	r3, [pc, #8]	; (80a2350 <_ZN9LIS3DHI2CC1ER7TwoWirehi+0x10>)
 80a2346:	60c1      	str	r1, [r0, #12]
 80a2348:	6003      	str	r3, [r0, #0]
 80a234a:	7402      	strb	r2, [r0, #16]

}
 80a234c:	bd10      	pop	{r4, pc}
 80a234e:	bf00      	nop
 80a2350:	080a5158 	.word	0x080a5158

080a2354 <_GLOBAL__sub_I__ZN12LIS3DHConfigC2Ev>:
 80a2354:	f000 bf10 	b.w	80a3178 <HAL_Pin_Map>

080a2358 <_ZN9FuzzyRuleC1EiP19FuzzyRuleAntecedentP19FuzzyRuleConsequent>:
#include "FuzzyRule.h"

FuzzyRule::FuzzyRule(){
}

FuzzyRule::FuzzyRule(int index, FuzzyRuleAntecedent* fuzzyRuleAntecedent, FuzzyRuleConsequent* fuzzyRuleConsequent){
 80a2358:	b510      	push	{r4, lr}
    this->index = index;
    this->fuzzyRuleAntecedent = fuzzyRuleAntecedent;
    this->fuzzyRuleConsequent = fuzzyRuleConsequent;
 80a235a:	60c3      	str	r3, [r0, #12]
    this->fired = false;
 80a235c:	2300      	movs	r3, #0

FuzzyRule::FuzzyRule(){
}

FuzzyRule::FuzzyRule(int index, FuzzyRuleAntecedent* fuzzyRuleAntecedent, FuzzyRuleConsequent* fuzzyRuleConsequent){
    this->index = index;
 80a235e:	6001      	str	r1, [r0, #0]
    this->fuzzyRuleAntecedent = fuzzyRuleAntecedent;
 80a2360:	6082      	str	r2, [r0, #8]
    this->fuzzyRuleConsequent = fuzzyRuleConsequent;
    this->fired = false;
 80a2362:	7103      	strb	r3, [r0, #4]
}
 80a2364:	bd10      	pop	{r4, pc}

080a2366 <_ZN9FuzzyRule18evaluateExpressionEv>:

int FuzzyRule::getIndex(){
    return this->index;
}

bool FuzzyRule::evaluateExpression(){
 80a2366:	b538      	push	{r3, r4, r5, lr}
 80a2368:	4604      	mov	r4, r0
    if (this->fuzzyRuleAntecedent != NULL){
 80a236a:	6880      	ldr	r0, [r0, #8]
 80a236c:	b170      	cbz	r0, 80a238c <_ZN9FuzzyRule18evaluateExpressionEv+0x26>
        float powerOfAntecedent = this->fuzzyRuleAntecedent->evaluate();
 80a236e:	f000 fe2b 	bl	80a2fc8 <_ZN19FuzzyRuleAntecedent8evaluateEv>

        (powerOfAntecedent > 0.0) ?    (this->fired = true) : (this->fired = false);
 80a2372:	2100      	movs	r1, #0
    return this->index;
}

bool FuzzyRule::evaluateExpression(){
    if (this->fuzzyRuleAntecedent != NULL){
        float powerOfAntecedent = this->fuzzyRuleAntecedent->evaluate();
 80a2374:	4605      	mov	r5, r0

        (powerOfAntecedent > 0.0) ?    (this->fired = true) : (this->fired = false);
 80a2376:	f002 fe2b 	bl	80a4fd0 <__aeabi_fcmpgt>
 80a237a:	b110      	cbz	r0, 80a2382 <_ZN9FuzzyRule18evaluateExpressionEv+0x1c>
 80a237c:	2301      	movs	r3, #1
 80a237e:	7123      	strb	r3, [r4, #4]
 80a2380:	e000      	b.n	80a2384 <_ZN9FuzzyRule18evaluateExpressionEv+0x1e>
 80a2382:	7120      	strb	r0, [r4, #4]
        
        this->fuzzyRuleConsequent->evaluate(powerOfAntecedent);
 80a2384:	4629      	mov	r1, r5
 80a2386:	68e0      	ldr	r0, [r4, #12]
 80a2388:	f000 fd59 	bl	80a2e3e <_ZN19FuzzyRuleConsequent8evaluateEf>
    }
    return this->fired;
}
 80a238c:	7920      	ldrb	r0, [r4, #4]
 80a238e:	bd38      	pop	{r3, r4, r5, pc}

080a2390 <_ZN16FuzzyCompositionC1Ev>:
#include "FuzzyComposition.h"
#include <math.h>

// CONSTRUTORES
FuzzyComposition::FuzzyComposition(){
    this->pointsCursor     = NULL;
 80a2390:	2200      	movs	r2, #0
 80a2392:	6002      	str	r2, [r0, #0]
    this->points         = NULL;
 80a2394:	6042      	str	r2, [r0, #4]
}
 80a2396:	4770      	bx	lr

080a2398 <_ZN16FuzzyComposition8addPointEff>:
// DESTRUTOR
FuzzyComposition::~FuzzyComposition(){
    this->cleanPoints(this->points);
}

bool FuzzyComposition::addPoint(float point, float pertinence){
 80a2398:	b570      	push	{r4, r5, r6, lr}
 80a239a:	4604      	mov	r4, r0
    pointsArray* aux;
    // Alocando espao na memria
    if((aux = (pointsArray* ) malloc(sizeof(pointsArray))) == NULL){
 80a239c:	2010      	movs	r0, #16
// DESTRUTOR
FuzzyComposition::~FuzzyComposition(){
    this->cleanPoints(this->points);
}

bool FuzzyComposition::addPoint(float point, float pertinence){
 80a239e:	460e      	mov	r6, r1
 80a23a0:	4615      	mov	r5, r2
    pointsArray* aux;
    // Alocando espao na memria
    if((aux = (pointsArray* ) malloc(sizeof(pointsArray))) == NULL){
 80a23a2:	f001 f873 	bl	80a348c <malloc>
 80a23a6:	2300      	movs	r3, #0
 80a23a8:	b170      	cbz	r0, 80a23c8 <_ZN16FuzzyComposition8addPointEff+0x30>
        return false;
    }
    aux->previous = NULL;
 80a23aa:	6003      	str	r3, [r0, #0]
    aux->point = point;
 80a23ac:	6046      	str	r6, [r0, #4]
    aux->pertinence = pertinence;
 80a23ae:	6085      	str	r5, [r0, #8]
    aux->next = NULL;
 80a23b0:	60c3      	str	r3, [r0, #12]

    if(this->points == NULL){
 80a23b2:	6863      	ldr	r3, [r4, #4]
 80a23b4:	b913      	cbnz	r3, 80a23bc <_ZN16FuzzyComposition8addPointEff+0x24>
        this->points = aux;
 80a23b6:	6060      	str	r0, [r4, #4]
        this->pointsCursor  = aux;
 80a23b8:	6020      	str	r0, [r4, #0]
 80a23ba:	e004      	b.n	80a23c6 <_ZN16FuzzyComposition8addPointEff+0x2e>
    }else{
        aux->previous = this->pointsCursor;
 80a23bc:	6823      	ldr	r3, [r4, #0]
 80a23be:	6003      	str	r3, [r0, #0]
        this->pointsCursor = aux;
 80a23c0:	6020      	str	r0, [r4, #0]
        aux->previous->next = this->pointsCursor;
 80a23c2:	6803      	ldr	r3, [r0, #0]
 80a23c4:	60d8      	str	r0, [r3, #12]
    }
    return true;
 80a23c6:	2001      	movs	r0, #1
}
 80a23c8:	bd70      	pop	{r4, r5, r6, pc}

080a23ca <_ZN16FuzzyComposition10checkPointEff>:

bool FuzzyComposition::checkPoint(float point, float pertinence){
 80a23ca:	b570      	push	{r4, r5, r6, lr}
 80a23cc:	460d      	mov	r5, r1
 80a23ce:	4616      	mov	r6, r2
    pointsArray* aux;
    aux = this->pointsCursor;
 80a23d0:	6804      	ldr	r4, [r0, #0]
    while(aux != NULL){
 80a23d2:	b15c      	cbz	r4, 80a23ec <_ZN16FuzzyComposition10checkPointEff+0x22>
        if(aux->point == point && aux->pertinence == pertinence){
 80a23d4:	4629      	mov	r1, r5
 80a23d6:	6860      	ldr	r0, [r4, #4]
 80a23d8:	f002 fdd2 	bl	80a4f80 <__aeabi_fcmpeq>
 80a23dc:	b120      	cbz	r0, 80a23e8 <_ZN16FuzzyComposition10checkPointEff+0x1e>
 80a23de:	4631      	mov	r1, r6
 80a23e0:	68a0      	ldr	r0, [r4, #8]
 80a23e2:	f002 fdcd 	bl	80a4f80 <__aeabi_fcmpeq>
 80a23e6:	b918      	cbnz	r0, 80a23f0 <_ZN16FuzzyComposition10checkPointEff+0x26>
            return true;
        }
        aux = aux->previous;
 80a23e8:	6824      	ldr	r4, [r4, #0]
}

bool FuzzyComposition::checkPoint(float point, float pertinence){
    pointsArray* aux;
    aux = this->pointsCursor;
    while(aux != NULL){
 80a23ea:	e7f2      	b.n	80a23d2 <_ZN16FuzzyComposition10checkPointEff+0x8>
        if(aux->point == point && aux->pertinence == pertinence){
            return true;
        }
        aux = aux->previous;
    }
    return false;
 80a23ec:	4620      	mov	r0, r4
 80a23ee:	bd70      	pop	{r4, r5, r6, pc}
bool FuzzyComposition::checkPoint(float point, float pertinence){
    pointsArray* aux;
    aux = this->pointsCursor;
    while(aux != NULL){
        if(aux->point == point && aux->pertinence == pertinence){
            return true;
 80a23f0:	2001      	movs	r0, #1
        }
        aux = aux->previous;
    }
    return false;
}
 80a23f2:	bd70      	pop	{r4, r5, r6, pc}

080a23f4 <_ZN16FuzzyComposition8avaliateEv>:
        aux = aux->next;
    }
    return true;
}

float FuzzyComposition::avaliate(){
 80a23f4:	e92d 4ff8 	stmdb	sp!, {r3, r4, r5, r6, r7, r8, r9, sl, fp, lr}
    pointsArray* aux;
    float numerator     = 0.0;
    float denominator   = 0.0;
 80a23f8:	2700      	movs	r7, #0
    return true;
}

float FuzzyComposition::avaliate(){
    pointsArray* aux;
    float numerator     = 0.0;
 80a23fa:	46ba      	mov	sl, r7
    float denominator   = 0.0;

    aux = this->points;
 80a23fc:	6845      	ldr	r5, [r0, #4]
    while(aux != NULL){
 80a23fe:	2d00      	cmp	r5, #0
 80a2400:	f000 80b1 	beq.w	80a2566 <_ZN16FuzzyComposition8avaliateEv+0x172>
        if(aux->next != NULL){
 80a2404:	68ee      	ldr	r6, [r5, #12]
 80a2406:	b90e      	cbnz	r6, 80a240c <_ZN16FuzzyComposition8avaliateEv+0x18>
        aux = aux->next;
    }
    return true;
}

float FuzzyComposition::avaliate(){
 80a2408:	4635      	mov	r5, r6
 80a240a:	e7f8      	b.n	80a23fe <_ZN16FuzzyComposition8avaliateEv+0xa>
    aux = this->points;
    while(aux != NULL){
        if(aux->next != NULL){
            float area = 0.0;
            float middle = 0.0;
            if(aux->point == aux->next->point){
 80a240c:	686c      	ldr	r4, [r5, #4]
 80a240e:	f8d6 8004 	ldr.w	r8, [r6, #4]
 80a2412:	4620      	mov	r0, r4
 80a2414:	4641      	mov	r1, r8
 80a2416:	f002 fdb3 	bl	80a4f80 <__aeabi_fcmpeq>
 80a241a:	f8d5 b008 	ldr.w	fp, [r5, #8]
 80a241e:	b108      	cbz	r0, 80a2424 <_ZN16FuzzyComposition8avaliateEv+0x30>
                // Se Singleton
                area     = aux->pertinence;
 80a2420:	465d      	mov	r5, fp
 80a2422:	e091      	b.n	80a2548 <_ZN16FuzzyComposition8avaliateEv+0x154>
                middle   = aux->point;
            }else if(aux->pertinence == 0.0 || aux->next->pertinence == 0.0){
 80a2424:	2100      	movs	r1, #0
 80a2426:	4658      	mov	r0, fp
 80a2428:	f002 fdaa 	bl	80a4f80 <__aeabi_fcmpeq>
 80a242c:	b930      	cbnz	r0, 80a243c <_ZN16FuzzyComposition8avaliateEv+0x48>
 80a242e:	68b5      	ldr	r5, [r6, #8]
 80a2430:	2100      	movs	r1, #0
 80a2432:	4628      	mov	r0, r5
 80a2434:	f002 fda4 	bl	80a4f80 <__aeabi_fcmpeq>
 80a2438:	2800      	cmp	r0, #0
 80a243a:	d036      	beq.n	80a24aa <_ZN16FuzzyComposition8avaliateEv+0xb6>
                // Se triangulo
                float pertinence;
                if(aux->pertinence > 0.0){
 80a243c:	2100      	movs	r1, #0
 80a243e:	4658      	mov	r0, fp
 80a2440:	f002 fdc6 	bl	80a4fd0 <__aeabi_fcmpgt>
 80a2444:	b908      	cbnz	r0, 80a244a <_ZN16FuzzyComposition8avaliateEv+0x56>
                    pertinence = aux->pertinence;
                }else{
                    pertinence = aux->next->pertinence;
 80a2446:	68b5      	ldr	r5, [r6, #8]
 80a2448:	e000      	b.n	80a244c <_ZN16FuzzyComposition8avaliateEv+0x58>
                middle   = aux->point;
            }else if(aux->pertinence == 0.0 || aux->next->pertinence == 0.0){
                // Se triangulo
                float pertinence;
                if(aux->pertinence > 0.0){
                    pertinence = aux->pertinence;
 80a244a:	465d      	mov	r5, fp
                }else{
                    pertinence = aux->next->pertinence;
                }
                area = ((aux->next->point - aux->point) * pertinence) / 2.0;
 80a244c:	4621      	mov	r1, r4
 80a244e:	4640      	mov	r0, r8
 80a2450:	f002 faf8 	bl	80a4a44 <__aeabi_fsub>
 80a2454:	4601      	mov	r1, r0
 80a2456:	4680      	mov	r8, r0
 80a2458:	4628      	mov	r0, r5
 80a245a:	f002 fbfd 	bl	80a4c58 <__aeabi_fmul>
 80a245e:	f04f 517c 	mov.w	r1, #1056964608	; 0x3f000000
 80a2462:	f002 fbf9 	bl	80a4c58 <__aeabi_fmul>
                if(aux->pertinence < aux->next->pertinence){
 80a2466:	68b1      	ldr	r1, [r6, #8]
                if(aux->pertinence > 0.0){
                    pertinence = aux->pertinence;
                }else{
                    pertinence = aux->next->pertinence;
                }
                area = ((aux->next->point - aux->point) * pertinence) / 2.0;
 80a2468:	4605      	mov	r5, r0
                if(aux->pertinence < aux->next->pertinence){
 80a246a:	4658      	mov	r0, fp
 80a246c:	f002 fd92 	bl	80a4f94 <__aeabi_fcmplt>
 80a2470:	b128      	cbz	r0, 80a247e <_ZN16FuzzyComposition8avaliateEv+0x8a>
                    middle = ((aux->next->point - aux->point) / 1.5) + aux->point;
 80a2472:	4640      	mov	r0, r8
 80a2474:	f001 ffa4 	bl	80a43c0 <__aeabi_f2d>
 80a2478:	2200      	movs	r2, #0
 80a247a:	4b42      	ldr	r3, [pc, #264]	; (80a2584 <_ZN16FuzzyComposition8avaliateEv+0x190>)
 80a247c:	e004      	b.n	80a2488 <_ZN16FuzzyComposition8avaliateEv+0x94>
                }else{
                    middle = ((aux->next->point - aux->point) / 3.0) + aux->point;
 80a247e:	4640      	mov	r0, r8
 80a2480:	f001 ff9e 	bl	80a43c0 <__aeabi_f2d>
 80a2484:	4b40      	ldr	r3, [pc, #256]	; (80a2588 <_ZN16FuzzyComposition8avaliateEv+0x194>)
 80a2486:	2200      	movs	r2, #0
 80a2488:	f002 f918 	bl	80a46bc <__aeabi_ddiv>
 80a248c:	4680      	mov	r8, r0
 80a248e:	4620      	mov	r0, r4
 80a2490:	4689      	mov	r9, r1
 80a2492:	f001 ff95 	bl	80a43c0 <__aeabi_f2d>
 80a2496:	4602      	mov	r2, r0
 80a2498:	460b      	mov	r3, r1
 80a249a:	4640      	mov	r0, r8
 80a249c:	4649      	mov	r1, r9
 80a249e:	f001 fe31 	bl	80a4104 <__adddf3>
 80a24a2:	f002 fa7b 	bl	80a499c <__aeabi_d2f>
 80a24a6:	4604      	mov	r4, r0
 80a24a8:	e04e      	b.n	80a2548 <_ZN16FuzzyComposition8avaliateEv+0x154>
                }
            }else if((aux->pertinence > 0.0 && aux->next->pertinence > 0.0) && (aux->pertinence == aux->next->pertinence)){
 80a24aa:	2100      	movs	r1, #0
 80a24ac:	4658      	mov	r0, fp
 80a24ae:	f002 fd8f 	bl	80a4fd0 <__aeabi_fcmpgt>
 80a24b2:	2100      	movs	r1, #0
 80a24b4:	b1c0      	cbz	r0, 80a24e8 <_ZN16FuzzyComposition8avaliateEv+0xf4>
 80a24b6:	4628      	mov	r0, r5
 80a24b8:	f002 fd8a 	bl	80a4fd0 <__aeabi_fcmpgt>
 80a24bc:	b1c0      	cbz	r0, 80a24f0 <_ZN16FuzzyComposition8avaliateEv+0xfc>
 80a24be:	4629      	mov	r1, r5
 80a24c0:	4658      	mov	r0, fp
 80a24c2:	f002 fd5d 	bl	80a4f80 <__aeabi_fcmpeq>
 80a24c6:	b1e8      	cbz	r0, 80a2504 <_ZN16FuzzyComposition8avaliateEv+0x110>
                // Se quadrado
                area = (aux->next->point - aux->point) * aux->pertinence;
 80a24c8:	4621      	mov	r1, r4
 80a24ca:	4640      	mov	r0, r8
 80a24cc:	f002 faba 	bl	80a4a44 <__aeabi_fsub>
 80a24d0:	4601      	mov	r1, r0
 80a24d2:	4680      	mov	r8, r0
 80a24d4:	4658      	mov	r0, fp
 80a24d6:	f002 fbbf 	bl	80a4c58 <__aeabi_fmul>
 80a24da:	4605      	mov	r5, r0
                middle = ((aux->next->point - aux->point) / 2.0) + aux->point;
 80a24dc:	4640      	mov	r0, r8
 80a24de:	f001 ff6f 	bl	80a43c0 <__aeabi_f2d>
 80a24e2:	2200      	movs	r2, #0
 80a24e4:	4b29      	ldr	r3, [pc, #164]	; (80a258c <_ZN16FuzzyComposition8avaliateEv+0x198>)
 80a24e6:	e02a      	b.n	80a253e <_ZN16FuzzyComposition8avaliateEv+0x14a>
            }else if((aux->pertinence > 0.0 && aux->next->pertinence > 0.0) && (aux->pertinence != aux->next->pertinence)){
 80a24e8:	4658      	mov	r0, fp
 80a24ea:	f002 fd71 	bl	80a4fd0 <__aeabi_fcmpgt>
 80a24ee:	b348      	cbz	r0, 80a2544 <_ZN16FuzzyComposition8avaliateEv+0x150>
 80a24f0:	2100      	movs	r1, #0
 80a24f2:	4628      	mov	r0, r5
 80a24f4:	f002 fd6c 	bl	80a4fd0 <__aeabi_fcmpgt>
 80a24f8:	b320      	cbz	r0, 80a2544 <_ZN16FuzzyComposition8avaliateEv+0x150>
 80a24fa:	4629      	mov	r1, r5
 80a24fc:	4658      	mov	r0, fp
 80a24fe:	f002 fd3f 	bl	80a4f80 <__aeabi_fcmpeq>
 80a2502:	b9f8      	cbnz	r0, 80a2544 <_ZN16FuzzyComposition8avaliateEv+0x150>
                // Se trapezio
                area = ((aux->pertinence + aux->next->pertinence) / 2.0) * (aux->next->point - aux->point);
 80a2504:	4621      	mov	r1, r4
 80a2506:	4640      	mov	r0, r8
 80a2508:	f002 fa9c 	bl	80a4a44 <__aeabi_fsub>
 80a250c:	f001 ff58 	bl	80a43c0 <__aeabi_f2d>
 80a2510:	4680      	mov	r8, r0
 80a2512:	4689      	mov	r9, r1
 80a2514:	4658      	mov	r0, fp
 80a2516:	4629      	mov	r1, r5
 80a2518:	f002 fa96 	bl	80a4a48 <__addsf3>
 80a251c:	f001 ff50 	bl	80a43c0 <__aeabi_f2d>
 80a2520:	2200      	movs	r2, #0
 80a2522:	4b1a      	ldr	r3, [pc, #104]	; (80a258c <_ZN16FuzzyComposition8avaliateEv+0x198>)
 80a2524:	f001 ffa0 	bl	80a4468 <__aeabi_dmul>
 80a2528:	4642      	mov	r2, r8
 80a252a:	464b      	mov	r3, r9
 80a252c:	f001 ff9c 	bl	80a4468 <__aeabi_dmul>
 80a2530:	f002 fa34 	bl	80a499c <__aeabi_d2f>
                middle = ((aux->next->point - aux->point) / 2.0) + aux->point;
 80a2534:	4649      	mov	r1, r9
                // Se quadrado
                area = (aux->next->point - aux->point) * aux->pertinence;
                middle = ((aux->next->point - aux->point) / 2.0) + aux->point;
            }else if((aux->pertinence > 0.0 && aux->next->pertinence > 0.0) && (aux->pertinence != aux->next->pertinence)){
                // Se trapezio
                area = ((aux->pertinence + aux->next->pertinence) / 2.0) * (aux->next->point - aux->point);
 80a2536:	4605      	mov	r5, r0
                middle = ((aux->next->point - aux->point) / 2.0) + aux->point;
 80a2538:	4640      	mov	r0, r8
 80a253a:	4b14      	ldr	r3, [pc, #80]	; (80a258c <_ZN16FuzzyComposition8avaliateEv+0x198>)
 80a253c:	2200      	movs	r2, #0
 80a253e:	f001 ff93 	bl	80a4468 <__aeabi_dmul>
 80a2542:	e7a3      	b.n	80a248c <_ZN16FuzzyComposition8avaliateEv+0x98>

    aux = this->points;
    while(aux != NULL){
        if(aux->next != NULL){
            float area = 0.0;
            float middle = 0.0;
 80a2544:	2400      	movs	r4, #0
    float denominator   = 0.0;

    aux = this->points;
    while(aux != NULL){
        if(aux->next != NULL){
            float area = 0.0;
 80a2546:	4625      	mov	r5, r4
            }else if((aux->pertinence > 0.0 && aux->next->pertinence > 0.0) && (aux->pertinence != aux->next->pertinence)){
                // Se trapezio
                area = ((aux->pertinence + aux->next->pertinence) / 2.0) * (aux->next->point - aux->point);
                middle = ((aux->next->point - aux->point) / 2.0) + aux->point;
            }
            numerator += middle * area;
 80a2548:	4621      	mov	r1, r4
 80a254a:	4628      	mov	r0, r5
 80a254c:	f002 fb84 	bl	80a4c58 <__aeabi_fmul>
 80a2550:	4601      	mov	r1, r0
 80a2552:	4650      	mov	r0, sl
 80a2554:	f002 fa78 	bl	80a4a48 <__addsf3>
            denominator += area;
 80a2558:	4629      	mov	r1, r5
            }else if((aux->pertinence > 0.0 && aux->next->pertinence > 0.0) && (aux->pertinence != aux->next->pertinence)){
                // Se trapezio
                area = ((aux->pertinence + aux->next->pertinence) / 2.0) * (aux->next->point - aux->point);
                middle = ((aux->next->point - aux->point) / 2.0) + aux->point;
            }
            numerator += middle * area;
 80a255a:	4682      	mov	sl, r0
            denominator += area;
 80a255c:	4638      	mov	r0, r7
 80a255e:	f002 fa73 	bl	80a4a48 <__addsf3>
 80a2562:	4607      	mov	r7, r0
 80a2564:	e750      	b.n	80a2408 <_ZN16FuzzyComposition8avaliateEv+0x14>
        }
        aux = aux->next;
    }

    if(denominator == 0.0){
 80a2566:	2100      	movs	r1, #0
 80a2568:	4638      	mov	r0, r7
 80a256a:	f002 fd09 	bl	80a4f80 <__aeabi_fcmpeq>
 80a256e:	b928      	cbnz	r0, 80a257c <_ZN16FuzzyComposition8avaliateEv+0x188>
        return 0.0;
    }else{
        return numerator / denominator;
 80a2570:	4639      	mov	r1, r7
 80a2572:	4650      	mov	r0, sl
 80a2574:	f002 fc24 	bl	80a4dc0 <__aeabi_fdiv>
 80a2578:	e8bd 8ff8 	ldmia.w	sp!, {r3, r4, r5, r6, r7, r8, r9, sl, fp, pc}
        }
        aux = aux->next;
    }

    if(denominator == 0.0){
        return 0.0;
 80a257c:	2000      	movs	r0, #0
    }else{
        return numerator / denominator;
    }
}
 80a257e:	e8bd 8ff8 	ldmia.w	sp!, {r3, r4, r5, r6, r7, r8, r9, sl, fp, pc}
 80a2582:	bf00      	nop
 80a2584:	3ff80000 	.word	0x3ff80000
 80a2588:	40080000 	.word	0x40080000
 80a258c:	3fe00000 	.word	0x3fe00000

080a2590 <_ZN16FuzzyComposition11cleanPointsEP11pointsArray>:
    this->pointsCursor = NULL;
    return true;
}

// MTODOS PRIVADOS
void FuzzyComposition::cleanPoints(pointsArray* aux){
 80a2590:	b510      	push	{r4, lr}
    if(aux != NULL){
 80a2592:	460c      	mov	r4, r1
 80a2594:	b139      	cbz	r1, 80a25a6 <_ZN16FuzzyComposition11cleanPointsEP11pointsArray+0x16>
        // Esvaziando a memria alocada
        this->cleanPoints(aux->next);
 80a2596:	68c9      	ldr	r1, [r1, #12]
 80a2598:	f7ff fffa 	bl	80a2590 <_ZN16FuzzyComposition11cleanPointsEP11pointsArray>
        free(aux);
 80a259c:	4620      	mov	r0, r4
    }
}
 80a259e:	e8bd 4010 	ldmia.w	sp!, {r4, lr}
// MTODOS PRIVADOS
void FuzzyComposition::cleanPoints(pointsArray* aux){
    if(aux != NULL){
        // Esvaziando a memria alocada
        this->cleanPoints(aux->next);
        free(aux);
 80a25a2:	f000 bf7b 	b.w	80a349c <free>
 80a25a6:	bd10      	pop	{r4, pc}

080a25a8 <_ZN16FuzzyComposition5emptyEv>:
    }else{
        return numerator / denominator;
    }
}

bool FuzzyComposition::empty(){
 80a25a8:	b510      	push	{r4, lr}
 80a25aa:	4604      	mov	r4, r0
    // limpando a memria
    this->cleanPoints(this->points);
 80a25ac:	6841      	ldr	r1, [r0, #4]
 80a25ae:	f7ff ffef 	bl	80a2590 <_ZN16FuzzyComposition11cleanPointsEP11pointsArray>
    // resetando os ponteiros
    this->points = NULL;
 80a25b2:	2300      	movs	r3, #0
 80a25b4:	6063      	str	r3, [r4, #4]
    this->pointsCursor = NULL;
 80a25b6:	6023      	str	r3, [r4, #0]
    return true;
}
 80a25b8:	2001      	movs	r0, #1
 80a25ba:	bd10      	pop	{r4, pc}

080a25bc <_ZN16FuzzyComposition8rmvPointEP11pointsArray>:

        return true;
    }
}

bool FuzzyComposition::rmvPoint(pointsArray* point){
 80a25bc:	b508      	push	{r3, lr}
    if(point != NULL){
 80a25be:	b111      	cbz	r1, 80a25c6 <_ZN16FuzzyComposition8rmvPointEP11pointsArray+0xa>
        free(point);
 80a25c0:	4608      	mov	r0, r1
 80a25c2:	f000 ff6b 	bl	80a349c <free>
    }
    return true;
}
 80a25c6:	2001      	movs	r0, #1
 80a25c8:	bd08      	pop	{r3, pc}
 80a25ca:	0000      	movs	r0, r0
 80a25cc:	0000      	movs	r0, r0
	...

080a25d0 <_ZN16FuzzyComposition7rebuildEP11pointsArrayS1_S1_S1_>:
        this->cleanPoints(aux->next);
        free(aux);
    }
}

bool FuzzyComposition::rebuild(pointsArray* aSegmentBegin, pointsArray* aSegmentEnd, pointsArray* bSegmentBegin, pointsArray* bSegmentEnd){
 80a25d0:	e92d 4ff0 	stmdb	sp!, {r4, r5, r6, r7, r8, r9, sl, fp, lr}
 80a25d4:	461e      	mov	r6, r3
    float x1 = aSegmentBegin->point;
 80a25d6:	684b      	ldr	r3, [r1, #4]
        this->cleanPoints(aux->next);
        free(aux);
    }
}

bool FuzzyComposition::rebuild(pointsArray* aSegmentBegin, pointsArray* aSegmentEnd, pointsArray* bSegmentBegin, pointsArray* bSegmentEnd){
 80a25d8:	b087      	sub	sp, #28
    float x1 = aSegmentBegin->point;
 80a25da:	9301      	str	r3, [sp, #4]
    float y1 = aSegmentBegin->pertinence;
 80a25dc:	688b      	ldr	r3, [r1, #8]
    float x2 = aSegmentEnd->point;
    float y2 = aSegmentEnd->pertinence;
    float x3 = bSegmentBegin->point;
    float y3 = bSegmentBegin->pertinence;
 80a25de:	f8d6 9008 	ldr.w	r9, [r6, #8]
    }
}

bool FuzzyComposition::rebuild(pointsArray* aSegmentBegin, pointsArray* aSegmentEnd, pointsArray* bSegmentBegin, pointsArray* bSegmentEnd){
    float x1 = aSegmentBegin->point;
    float y1 = aSegmentBegin->pertinence;
 80a25e2:	9302      	str	r3, [sp, #8]
    float y4 = bSegmentEnd->pertinence;
    float point, pertinence;
    float denom, numera, numerb;
    float mua, mub;

    denom  = (y4 - y3) * (x2 - x1) - (x4 - x3) * (y2 - y1);
 80a25e4:	9b10      	ldr	r3, [sp, #64]	; 0x40
        this->cleanPoints(aux->next);
        free(aux);
    }
}

bool FuzzyComposition::rebuild(pointsArray* aSegmentBegin, pointsArray* aSegmentEnd, pointsArray* bSegmentBegin, pointsArray* bSegmentEnd){
 80a25e6:	9005      	str	r0, [sp, #20]
 80a25e8:	460c      	mov	r4, r1
    float y4 = bSegmentEnd->pertinence;
    float point, pertinence;
    float denom, numera, numerb;
    float mua, mub;

    denom  = (y4 - y3) * (x2 - x1) - (x4 - x3) * (y2 - y1);
 80a25ea:	6898      	ldr	r0, [r3, #8]
 80a25ec:	4649      	mov	r1, r9
        this->cleanPoints(aux->next);
        free(aux);
    }
}

bool FuzzyComposition::rebuild(pointsArray* aSegmentBegin, pointsArray* aSegmentEnd, pointsArray* bSegmentBegin, pointsArray* bSegmentEnd){
 80a25ee:	4617      	mov	r7, r2
    float y4 = bSegmentEnd->pertinence;
    float point, pertinence;
    float denom, numera, numerb;
    float mua, mub;

    denom  = (y4 - y3) * (x2 - x1) - (x4 - x3) * (y2 - y1);
 80a25f0:	f002 fa28 	bl	80a4a44 <__aeabi_fsub>
 80a25f4:	9901      	ldr	r1, [sp, #4]
 80a25f6:	4682      	mov	sl, r0
 80a25f8:	6878      	ldr	r0, [r7, #4]
 80a25fa:	f002 fa23 	bl	80a4a44 <__aeabi_fsub>
bool FuzzyComposition::rebuild(pointsArray* aSegmentBegin, pointsArray* aSegmentEnd, pointsArray* bSegmentBegin, pointsArray* bSegmentEnd){
    float x1 = aSegmentBegin->point;
    float y1 = aSegmentBegin->pertinence;
    float x2 = aSegmentEnd->point;
    float y2 = aSegmentEnd->pertinence;
    float x3 = bSegmentBegin->point;
 80a25fe:	f8d6 8004 	ldr.w	r8, [r6, #4]
    float y4 = bSegmentEnd->pertinence;
    float point, pertinence;
    float denom, numera, numerb;
    float mua, mub;

    denom  = (y4 - y3) * (x2 - x1) - (x4 - x3) * (y2 - y1);
 80a2602:	9b10      	ldr	r3, [sp, #64]	; 0x40
 80a2604:	4641      	mov	r1, r8
 80a2606:	9003      	str	r0, [sp, #12]
 80a2608:	6858      	ldr	r0, [r3, #4]
 80a260a:	f002 fa1b 	bl	80a4a44 <__aeabi_fsub>
 80a260e:	9902      	ldr	r1, [sp, #8]
 80a2610:	4683      	mov	fp, r0
 80a2612:	68b8      	ldr	r0, [r7, #8]
 80a2614:	f002 fa16 	bl	80a4a44 <__aeabi_fsub>
 80a2618:	9903      	ldr	r1, [sp, #12]
 80a261a:	9004      	str	r0, [sp, #16]
 80a261c:	4650      	mov	r0, sl
 80a261e:	f002 fb1b 	bl	80a4c58 <__aeabi_fmul>
 80a2622:	9904      	ldr	r1, [sp, #16]
 80a2624:	4605      	mov	r5, r0
 80a2626:	4658      	mov	r0, fp
 80a2628:	f002 fb16 	bl	80a4c58 <__aeabi_fmul>
 80a262c:	4601      	mov	r1, r0
 80a262e:	4628      	mov	r0, r5
 80a2630:	f002 fa08 	bl	80a4a44 <__aeabi_fsub>
    numera = (x4 - x3) * (y1 - y3) - (y4 - y3) * (x1 - x3);
 80a2634:	4649      	mov	r1, r9
    float y4 = bSegmentEnd->pertinence;
    float point, pertinence;
    float denom, numera, numerb;
    float mua, mub;

    denom  = (y4 - y3) * (x2 - x1) - (x4 - x3) * (y2 - y1);
 80a2636:	4605      	mov	r5, r0
    numera = (x4 - x3) * (y1 - y3) - (y4 - y3) * (x1 - x3);
 80a2638:	9802      	ldr	r0, [sp, #8]
 80a263a:	f002 fa03 	bl	80a4a44 <__aeabi_fsub>
 80a263e:	4641      	mov	r1, r8
 80a2640:	4681      	mov	r9, r0
 80a2642:	9801      	ldr	r0, [sp, #4]
 80a2644:	f002 f9fe 	bl	80a4a44 <__aeabi_fsub>
 80a2648:	4649      	mov	r1, r9
 80a264a:	4680      	mov	r8, r0
 80a264c:	4658      	mov	r0, fp
 80a264e:	f002 fb03 	bl	80a4c58 <__aeabi_fmul>
 80a2652:	4641      	mov	r1, r8
 80a2654:	4683      	mov	fp, r0
 80a2656:	4650      	mov	r0, sl
 80a2658:	f002 fafe 	bl	80a4c58 <__aeabi_fmul>
 80a265c:	4601      	mov	r1, r0
 80a265e:	4658      	mov	r0, fp
 80a2660:	f002 f9f0 	bl	80a4a44 <__aeabi_fsub>
    numerb = (x2 - x1) * (y1 - y3) - (y2 - y1) * (x1 - x3);
 80a2664:	4649      	mov	r1, r9
    float point, pertinence;
    float denom, numera, numerb;
    float mua, mub;

    denom  = (y4 - y3) * (x2 - x1) - (x4 - x3) * (y2 - y1);
    numera = (x4 - x3) * (y1 - y3) - (y4 - y3) * (x1 - x3);
 80a2666:	4682      	mov	sl, r0
    numerb = (x2 - x1) * (y1 - y3) - (y2 - y1) * (x1 - x3);
 80a2668:	9803      	ldr	r0, [sp, #12]
 80a266a:	f002 faf5 	bl	80a4c58 <__aeabi_fmul>
 80a266e:	4641      	mov	r1, r8
 80a2670:	4681      	mov	r9, r0
 80a2672:	9804      	ldr	r0, [sp, #16]
 80a2674:	f002 faf0 	bl	80a4c58 <__aeabi_fmul>
 80a2678:	4601      	mov	r1, r0
 80a267a:	4648      	mov	r0, r9
 80a267c:	f002 f9e2 	bl	80a4a44 <__aeabi_fsub>

    if(denom < 0.0){
 80a2680:	2100      	movs	r1, #0
    float denom, numera, numerb;
    float mua, mub;

    denom  = (y4 - y3) * (x2 - x1) - (x4 - x3) * (y2 - y1);
    numera = (x4 - x3) * (y1 - y3) - (y4 - y3) * (x1 - x3);
    numerb = (x2 - x1) * (y1 - y3) - (y2 - y1) * (x1 - x3);
 80a2682:	4680      	mov	r8, r0

    if(denom < 0.0){
 80a2684:	4628      	mov	r0, r5
 80a2686:	f002 fc85 	bl	80a4f94 <__aeabi_fcmplt>
 80a268a:	b108      	cbz	r0, 80a2690 <_ZN16FuzzyComposition7rebuildEP11pointsArrayS1_S1_S1_+0xc0>
        denom *= -1.0;
 80a268c:	f105 4500 	add.w	r5, r5, #2147483648	; 0x80000000
    }
    if(numera < 0.0){
 80a2690:	2100      	movs	r1, #0
 80a2692:	4650      	mov	r0, sl
 80a2694:	f002 fc7e 	bl	80a4f94 <__aeabi_fcmplt>
 80a2698:	b108      	cbz	r0, 80a269e <_ZN16FuzzyComposition7rebuildEP11pointsArrayS1_S1_S1_+0xce>
        numera *= -1.0;
 80a269a:	f10a 4a00 	add.w	sl, sl, #2147483648	; 0x80000000
    }
    if(numerb < 0.0){
 80a269e:	2100      	movs	r1, #0
 80a26a0:	4640      	mov	r0, r8
 80a26a2:	f002 fc77 	bl	80a4f94 <__aeabi_fcmplt>
 80a26a6:	b108      	cbz	r0, 80a26ac <_ZN16FuzzyComposition7rebuildEP11pointsArrayS1_S1_S1_+0xdc>
        numerb *= -1.0;
 80a26a8:	f108 4800 	add.w	r8, r8, #2147483648	; 0x80000000
    }

    // Se os seguimentos forem paralelos, retornar falso
    if(denom < EPS){
 80a26ac:	4628      	mov	r0, r5
 80a26ae:	f001 fe87 	bl	80a43c0 <__aeabi_f2d>
 80a26b2:	a331      	add	r3, pc, #196	; (adr r3, 80a2778 <_ZN16FuzzyComposition7rebuildEP11pointsArrayS1_S1_S1_+0x1a8>)
 80a26b4:	e9d3 2300 	ldrd	r2, r3, [r3]
 80a26b8:	f002 f948 	bl	80a494c <__aeabi_dcmplt>
 80a26bc:	b108      	cbz	r0, 80a26c2 <_ZN16FuzzyComposition7rebuildEP11pointsArrayS1_S1_S1_+0xf2>
        return false;
 80a26be:	2000      	movs	r0, #0
 80a26c0:	e057      	b.n	80a2772 <_ZN16FuzzyComposition7rebuildEP11pointsArrayS1_S1_S1_+0x1a2>
    }

    // Verificar se h interseo ao longo do seguimento
    mua = numera / denom;
 80a26c2:	4629      	mov	r1, r5
 80a26c4:	4650      	mov	r0, sl
 80a26c6:	f002 fb7b 	bl	80a4dc0 <__aeabi_fdiv>
    mub = numerb / denom;
    if(mua < 0.0 || mua > 1.0 || mub < 0.0 || mub > 1.0){
 80a26ca:	2100      	movs	r1, #0
    if(denom < EPS){
        return false;
    }

    // Verificar se h interseo ao longo do seguimento
    mua = numera / denom;
 80a26cc:	4681      	mov	r9, r0
    mub = numerb / denom;
    if(mua < 0.0 || mua > 1.0 || mub < 0.0 || mub > 1.0){
 80a26ce:	f002 fc61 	bl	80a4f94 <__aeabi_fcmplt>
 80a26d2:	2800      	cmp	r0, #0
 80a26d4:	d1f3      	bne.n	80a26be <_ZN16FuzzyComposition7rebuildEP11pointsArrayS1_S1_S1_+0xee>
 80a26d6:	f04f 517e 	mov.w	r1, #1065353216	; 0x3f800000
 80a26da:	4648      	mov	r0, r9
 80a26dc:	f002 fc78 	bl	80a4fd0 <__aeabi_fcmpgt>
 80a26e0:	2800      	cmp	r0, #0
 80a26e2:	d1ec      	bne.n	80a26be <_ZN16FuzzyComposition7rebuildEP11pointsArrayS1_S1_S1_+0xee>
        return false;
    }

    // Verificar se h interseo ao longo do seguimento
    mua = numera / denom;
    mub = numerb / denom;
 80a26e4:	4629      	mov	r1, r5
 80a26e6:	4640      	mov	r0, r8
 80a26e8:	f002 fb6a 	bl	80a4dc0 <__aeabi_fdiv>
    if(mua < 0.0 || mua > 1.0 || mub < 0.0 || mub > 1.0){
 80a26ec:	2100      	movs	r1, #0
        return false;
    }

    // Verificar se h interseo ao longo do seguimento
    mua = numera / denom;
    mub = numerb / denom;
 80a26ee:	4605      	mov	r5, r0
    if(mua < 0.0 || mua > 1.0 || mub < 0.0 || mub > 1.0){
 80a26f0:	f002 fc50 	bl	80a4f94 <__aeabi_fcmplt>
 80a26f4:	2800      	cmp	r0, #0
 80a26f6:	d1e2      	bne.n	80a26be <_ZN16FuzzyComposition7rebuildEP11pointsArrayS1_S1_S1_+0xee>
 80a26f8:	f04f 517e 	mov.w	r1, #1065353216	; 0x3f800000
 80a26fc:	4628      	mov	r0, r5
 80a26fe:	f002 fc67 	bl	80a4fd0 <__aeabi_fcmpgt>
 80a2702:	2800      	cmp	r0, #0
 80a2704:	d1db      	bne.n	80a26be <_ZN16FuzzyComposition7rebuildEP11pointsArrayS1_S1_S1_+0xee>
        return false;
    }else{
        // Calculando o ponto e a pertinencia do novo elemento
        point         = x1 + mua * (x2 - x1);
 80a2706:	4649      	mov	r1, r9
 80a2708:	9803      	ldr	r0, [sp, #12]
 80a270a:	f002 faa5 	bl	80a4c58 <__aeabi_fmul>
 80a270e:	9901      	ldr	r1, [sp, #4]
 80a2710:	f002 f99a 	bl	80a4a48 <__addsf3>
        pertinence     = y1 + mua * (y2 - y1);
 80a2714:	4649      	mov	r1, r9
    mub = numerb / denom;
    if(mua < 0.0 || mua > 1.0 || mub < 0.0 || mub > 1.0){
        return false;
    }else{
        // Calculando o ponto e a pertinencia do novo elemento
        point         = x1 + mua * (x2 - x1);
 80a2716:	4605      	mov	r5, r0
        pertinence     = y1 + mua * (y2 - y1);
 80a2718:	9804      	ldr	r0, [sp, #16]
 80a271a:	f002 fa9d 	bl	80a4c58 <__aeabi_fmul>
 80a271e:	9902      	ldr	r1, [sp, #8]
 80a2720:	f002 f992 	bl	80a4a48 <__addsf3>
 80a2724:	4680      	mov	r8, r0

        // Adicionando um novo ponto
        pointsArray* aux;
        // Alocando espao na memria
        if((aux = (pointsArray *) malloc(sizeof(pointsArray))) == NULL){
 80a2726:	2010      	movs	r0, #16
 80a2728:	f000 feb0 	bl	80a348c <malloc>
 80a272c:	2800      	cmp	r0, #0
 80a272e:	d0c6      	beq.n	80a26be <_ZN16FuzzyComposition7rebuildEP11pointsArrayS1_S1_S1_+0xee>
            return false;
        }

        aux->previous = bSegmentEnd;
 80a2730:	9b10      	ldr	r3, [sp, #64]	; 0x40
        aux->point = point;
 80a2732:	6045      	str	r5, [r0, #4]
        // Alocando espao na memria
        if((aux = (pointsArray *) malloc(sizeof(pointsArray))) == NULL){
            return false;
        }

        aux->previous = bSegmentEnd;
 80a2734:	6003      	str	r3, [r0, #0]
        aux->point = point;
        aux->pertinence = pertinence;
 80a2736:	f8c0 8008 	str.w	r8, [r0, #8]
        aux->next = aSegmentEnd;
 80a273a:	60c7      	str	r7, [r0, #12]

        bSegmentEnd->next = aux;
 80a273c:	60d8      	str	r0, [r3, #12]
        aSegmentEnd->previous = aux;
 80a273e:	6038      	str	r0, [r7, #0]

        float stopPoint = bSegmentBegin->point;
 80a2740:	6877      	ldr	r7, [r6, #4]
        float stopPertinence = bSegmentBegin->pertinence;
 80a2742:	68b6      	ldr	r6, [r6, #8]

        pointsArray* temp = aSegmentBegin;
        pointsArray* excl;

        do{
            float pointToCompare = temp->point;
 80a2744:	f8d4 9004 	ldr.w	r9, [r4, #4]
            float pertinenceToCompare = temp->pertinence;

            excl = temp->previous;

            this->rmvPoint(temp);
 80a2748:	4621      	mov	r1, r4
 80a274a:	9805      	ldr	r0, [sp, #20]
        pointsArray* temp = aSegmentBegin;
        pointsArray* excl;

        do{
            float pointToCompare = temp->point;
            float pertinenceToCompare = temp->pertinence;
 80a274c:	f8d4 8008 	ldr.w	r8, [r4, #8]

            excl = temp->previous;
 80a2750:	6825      	ldr	r5, [r4, #0]

            this->rmvPoint(temp);
 80a2752:	f7ff ff33 	bl	80a25bc <_ZN16FuzzyComposition8rmvPointEP11pointsArray>

            temp = excl;

            if(stopPoint == pointToCompare && stopPertinence == pertinenceToCompare){
 80a2756:	4649      	mov	r1, r9
 80a2758:	4638      	mov	r0, r7
 80a275a:	f002 fc11 	bl	80a4f80 <__aeabi_fcmpeq>
 80a275e:	b120      	cbz	r0, 80a276a <_ZN16FuzzyComposition7rebuildEP11pointsArrayS1_S1_S1_+0x19a>
 80a2760:	4641      	mov	r1, r8
 80a2762:	4630      	mov	r0, r6
 80a2764:	f002 fc0c 	bl	80a4f80 <__aeabi_fcmpeq>
 80a2768:	b910      	cbnz	r0, 80a2770 <_ZN16FuzzyComposition7rebuildEP11pointsArrayS1_S1_S1_+0x1a0>
 80a276a:	462c      	mov	r4, r5
                break;
            }
        }while(temp != NULL);
 80a276c:	2d00      	cmp	r5, #0
 80a276e:	d1e9      	bne.n	80a2744 <_ZN16FuzzyComposition7rebuildEP11pointsArrayS1_S1_S1_+0x174>

        return true;
 80a2770:	2001      	movs	r0, #1
    }
}
 80a2772:	b007      	add	sp, #28
 80a2774:	e8bd 8ff0 	ldmia.w	sp!, {r4, r5, r6, r7, r8, r9, sl, fp, pc}
 80a2778:	d2f1a9fc 	.word	0xd2f1a9fc
 80a277c:	3f50624d 	.word	0x3f50624d

080a2780 <_ZN16FuzzyComposition5buildEv>:
        aux = aux->previous;
    }
    return false;
}

bool FuzzyComposition::build(){
 80a2780:	b5f7      	push	{r0, r1, r2, r4, r5, r6, r7, lr}
 80a2782:	4606      	mov	r6, r0
    pointsArray* aux;

    aux = this->points;
 80a2784:	6845      	ldr	r5, [r0, #4]
    while(aux != NULL){
 80a2786:	b1dd      	cbz	r5, 80a27c0 <_ZN16FuzzyComposition5buildEv+0x40>
 80a2788:	462c      	mov	r4, r5
        pointsArray* temp = aux;
        while(temp->previous != NULL){
 80a278a:	6827      	ldr	r7, [r4, #0]
 80a278c:	b1b7      	cbz	r7, 80a27bc <_ZN16FuzzyComposition5buildEv+0x3c>
            if(temp->point < temp->previous->point){
 80a278e:	6879      	ldr	r1, [r7, #4]
 80a2790:	6860      	ldr	r0, [r4, #4]
 80a2792:	f002 fbff 	bl	80a4f94 <__aeabi_fcmplt>
 80a2796:	b908      	cbnz	r0, 80a279c <_ZN16FuzzyComposition5buildEv+0x1c>
 80a2798:	463c      	mov	r4, r7
 80a279a:	e7f6      	b.n	80a278a <_ZN16FuzzyComposition5buildEv+0xa>
 80a279c:	4627      	mov	r7, r4
            temp = temp->previous;
        }
        pointsArray* zPoint;
        if(temp != NULL){
            zPoint = temp;
            while(temp->previous != NULL){
 80a279e:	683b      	ldr	r3, [r7, #0]
 80a27a0:	b163      	cbz	r3, 80a27bc <_ZN16FuzzyComposition5buildEv+0x3c>
                bool result = false;
                if(temp->previous->previous != NULL){
 80a27a2:	681a      	ldr	r2, [r3, #0]
 80a27a4:	b142      	cbz	r2, 80a27b8 <_ZN16FuzzyComposition5buildEv+0x38>
                    result = rebuild(zPoint, zPoint->next, temp->previous, temp->previous->previous);
 80a27a6:	9200      	str	r2, [sp, #0]
 80a27a8:	68e2      	ldr	r2, [r4, #12]
 80a27aa:	4621      	mov	r1, r4
 80a27ac:	4630      	mov	r0, r6
 80a27ae:	f7ff ff0f 	bl	80a25d0 <_ZN16FuzzyComposition7rebuildEP11pointsArrayS1_S1_S1_>
                }
                if(result == true){
 80a27b2:	b108      	cbz	r0, 80a27b8 <_ZN16FuzzyComposition5buildEv+0x38>
                    aux = this->points;
 80a27b4:	6875      	ldr	r5, [r6, #4]
                    break;
 80a27b6:	e001      	b.n	80a27bc <_ZN16FuzzyComposition5buildEv+0x3c>
                }
                temp = temp->previous;
 80a27b8:	683f      	ldr	r7, [r7, #0]
            temp = temp->previous;
        }
        pointsArray* zPoint;
        if(temp != NULL){
            zPoint = temp;
            while(temp->previous != NULL){
 80a27ba:	e7f0      	b.n	80a279e <_ZN16FuzzyComposition5buildEv+0x1e>
                    break;
                }
                temp = temp->previous;
            }
        }
        aux = aux->next;
 80a27bc:	68ed      	ldr	r5, [r5, #12]

bool FuzzyComposition::build(){
    pointsArray* aux;

    aux = this->points;
    while(aux != NULL){
 80a27be:	e7e2      	b.n	80a2786 <_ZN16FuzzyComposition5buildEv+0x6>
            }
        }
        aux = aux->next;
    }
    return true;
}
 80a27c0:	2001      	movs	r0, #1
 80a27c2:	b003      	add	sp, #12
 80a27c4:	bdf0      	pop	{r4, r5, r6, r7, pc}

080a27c6 <_ZN10FuzzyInputC1Ei>:

// CONSTRUTORES
FuzzyInput::FuzzyInput() : FuzzyIO(){
}

FuzzyInput::FuzzyInput(int index) : FuzzyIO(index){
 80a27c6:	b510      	push	{r4, lr}
 80a27c8:	4604      	mov	r4, r0
 80a27ca:	f000 f80f 	bl	80a27ec <_ZN7FuzzyIOC1Ei>
}
 80a27ce:	4620      	mov	r0, r4
 80a27d0:	bd10      	pop	{r4, pc}

080a27d2 <_ZN10FuzzyInput28calculateFuzzySetPertinencesEv>:
// DESTRUTOR
FuzzyInput::~FuzzyInput(){
}

// MTODOS PBLICOS
bool FuzzyInput::calculateFuzzySetPertinences(){
 80a27d2:	b538      	push	{r3, r4, r5, lr}
 80a27d4:	4605      	mov	r5, r0
    fuzzySetArray *aux;
    aux = this->fuzzySets;
 80a27d6:	6884      	ldr	r4, [r0, #8]

    while(aux != NULL){
 80a27d8:	b134      	cbz	r4, 80a27e8 <_ZN10FuzzyInput28calculateFuzzySetPertinencesEv+0x16>
        if (aux->fuzzySet != NULL){
 80a27da:	6820      	ldr	r0, [r4, #0]
 80a27dc:	b110      	cbz	r0, 80a27e4 <_ZN10FuzzyInput28calculateFuzzySetPertinencesEv+0x12>
            aux->fuzzySet->calculatePertinence(this->crispInput);
 80a27de:	6869      	ldr	r1, [r5, #4]
 80a27e0:	f000 fa7e 	bl	80a2ce0 <_ZN8FuzzySet19calculatePertinenceEf>
        }
        aux = aux->next;
 80a27e4:	6864      	ldr	r4, [r4, #4]
// MTODOS PBLICOS
bool FuzzyInput::calculateFuzzySetPertinences(){
    fuzzySetArray *aux;
    aux = this->fuzzySets;

    while(aux != NULL){
 80a27e6:	e7f7      	b.n	80a27d8 <_ZN10FuzzyInput28calculateFuzzySetPertinencesEv+0x6>
        }
        aux = aux->next;
    }
    
    return true;
 80a27e8:	2001      	movs	r0, #1
 80a27ea:	bd38      	pop	{r3, r4, r5, pc}

080a27ec <_ZN7FuzzyIOC1Ei>:
}

FuzzyIO::FuzzyIO(int index){
    this->index = index;
    // Iniciando os ponteiros como nulo
    this->fuzzySets          = NULL;
 80a27ec:	2200      	movs	r2, #0
// CONSTRUTORES
FuzzyIO::FuzzyIO(){
}

FuzzyIO::FuzzyIO(int index){
    this->index = index;
 80a27ee:	6001      	str	r1, [r0, #0]
    // Iniciando os ponteiros como nulo
    this->fuzzySets          = NULL;
 80a27f0:	6082      	str	r2, [r0, #8]
    this->fuzzySetsCursor    = NULL;
 80a27f2:	60c2      	str	r2, [r0, #12]
}
 80a27f4:	4770      	bx	lr

080a27f6 <_ZN7FuzzyIO8getIndexEv>:
}

// MTODOS PBLICOS
int FuzzyIO::getIndex(){
    return this->index;
}
 80a27f6:	6800      	ldr	r0, [r0, #0]
 80a27f8:	4770      	bx	lr

080a27fa <_ZN7FuzzyIO13setCrispInputEf>:

void FuzzyIO::setCrispInput(float crispInput){
    this->crispInput = crispInput;
 80a27fa:	6041      	str	r1, [r0, #4]
 80a27fc:	4770      	bx	lr

080a27fe <_ZN7FuzzyIO11addFuzzySetEP8FuzzySet>:

float FuzzyIO::getCrispInput(){
    return this->crispInput;
}

bool FuzzyIO::addFuzzySet(FuzzySet* fuzzySet){
 80a27fe:	b538      	push	{r3, r4, r5, lr}
 80a2800:	4604      	mov	r4, r0
    fuzzySetArray *aux;
    // Alocando espao na memria
    if((aux = (fuzzySetArray *) malloc(sizeof(fuzzySetArray))) == NULL){
 80a2802:	2008      	movs	r0, #8

float FuzzyIO::getCrispInput(){
    return this->crispInput;
}

bool FuzzyIO::addFuzzySet(FuzzySet* fuzzySet){
 80a2804:	460d      	mov	r5, r1
    fuzzySetArray *aux;
    // Alocando espao na memria
    if((aux = (fuzzySetArray *) malloc(sizeof(fuzzySetArray))) == NULL){
 80a2806:	f000 fe41 	bl	80a348c <malloc>
 80a280a:	b150      	cbz	r0, 80a2822 <_ZN7FuzzyIO11addFuzzySetEP8FuzzySet+0x24>
        return false;
    }
    aux->fuzzySet     = fuzzySet;
    aux->next         = NULL;
 80a280c:	2300      	movs	r3, #0
    fuzzySetArray *aux;
    // Alocando espao na memria
    if((aux = (fuzzySetArray *) malloc(sizeof(fuzzySetArray))) == NULL){
        return false;
    }
    aux->fuzzySet     = fuzzySet;
 80a280e:	6005      	str	r5, [r0, #0]
    aux->next         = NULL;
 80a2810:	6043      	str	r3, [r0, #4]

    if(this->fuzzySets == NULL){
 80a2812:	68a3      	ldr	r3, [r4, #8]
 80a2814:	b90b      	cbnz	r3, 80a281a <_ZN7FuzzyIO11addFuzzySetEP8FuzzySet+0x1c>
        this->fuzzySets = aux;
 80a2816:	60a0      	str	r0, [r4, #8]
 80a2818:	e001      	b.n	80a281e <_ZN7FuzzyIO11addFuzzySetEP8FuzzySet+0x20>
        this->fuzzySetsCursor = aux;
    }else{
        this->fuzzySetsCursor->next = aux;
 80a281a:	68e3      	ldr	r3, [r4, #12]
 80a281c:	6058      	str	r0, [r3, #4]
        this->fuzzySetsCursor = aux;
 80a281e:	60e0      	str	r0, [r4, #12]
    }
    return true;
 80a2820:	2001      	movs	r0, #1
}
 80a2822:	bd38      	pop	{r3, r4, r5, pc}

080a2824 <_ZN7FuzzyIO14resetFuzzySetsEv>:

void FuzzyIO::resetFuzzySets(){
 80a2824:	b510      	push	{r4, lr}
    fuzzySetArray* fuzzySetsAux;
    fuzzySetsAux = this->fuzzySets;
 80a2826:	6884      	ldr	r4, [r0, #8]
    // Calculando as pertinncias de totos os FuzzyInputs
    while(fuzzySetsAux != NULL){
 80a2828:	b124      	cbz	r4, 80a2834 <_ZN7FuzzyIO14resetFuzzySetsEv+0x10>
        fuzzySetsAux->fuzzySet->reset();
 80a282a:	6820      	ldr	r0, [r4, #0]
 80a282c:	f000 faed 	bl	80a2e0a <_ZN8FuzzySet5resetEv>
        fuzzySetsAux = fuzzySetsAux->next;
 80a2830:	6864      	ldr	r4, [r4, #4]

void FuzzyIO::resetFuzzySets(){
    fuzzySetArray* fuzzySetsAux;
    fuzzySetsAux = this->fuzzySets;
    // Calculando as pertinncias de totos os FuzzyInputs
    while(fuzzySetsAux != NULL){
 80a2832:	e7f9      	b.n	80a2828 <_ZN7FuzzyIO14resetFuzzySetsEv+0x4>
 80a2834:	bd10      	pop	{r4, pc}

080a2836 <_ZN11FuzzyOutputC1Ei>:

// CONSTRUTORES
FuzzyOutput::FuzzyOutput() : FuzzyIO(){
}

FuzzyOutput::FuzzyOutput(int index) : FuzzyIO(index){
 80a2836:	b510      	push	{r4, lr}
 80a2838:	4604      	mov	r4, r0
 80a283a:	f7ff ffd7 	bl	80a27ec <_ZN7FuzzyIOC1Ei>
 80a283e:	f104 0010 	add.w	r0, r4, #16
 80a2842:	f7ff fda5 	bl	80a2390 <_ZN16FuzzyCompositionC1Ev>
}
 80a2846:	4620      	mov	r0, r4
 80a2848:	bd10      	pop	{r4, pc}

080a284a <_ZN11FuzzyOutput14getCrispOutputEv>:

    return true;
}

float FuzzyOutput::getCrispOutput(){
    return this->fuzzyComposition.avaliate();
 80a284a:	3010      	adds	r0, #16
 80a284c:	f7ff bdd2 	b.w	80a23f4 <_ZN16FuzzyComposition8avaliateEv>

080a2850 <_ZN11FuzzyOutput5orderEv>:
}

// Um simples Bubble Sort
bool FuzzyOutput::order(){
 80a2850:	b5f8      	push	{r3, r4, r5, r6, r7, lr}
    fuzzySetArray *aux1;
    fuzzySetArray *aux2;

    aux1 = this->fuzzySets;
 80a2852:	6884      	ldr	r4, [r0, #8]
float FuzzyOutput::getCrispOutput(){
    return this->fuzzyComposition.avaliate();
}

// Um simples Bubble Sort
bool FuzzyOutput::order(){
 80a2854:	4606      	mov	r6, r0
    fuzzySetArray *aux1;
    fuzzySetArray *aux2;

    aux1 = this->fuzzySets;
 80a2856:	4625      	mov	r5, r4
    aux2 = this->fuzzySets;

    while(aux1 != NULL){
 80a2858:	b1cd      	cbz	r5, 80a288e <_ZN11FuzzyOutput5orderEv+0x3e>
        while(aux2 != NULL){
 80a285a:	b1ac      	cbz	r4, 80a2888 <_ZN11FuzzyOutput5orderEv+0x38>
            if(aux2->next != NULL){
 80a285c:	6863      	ldr	r3, [r4, #4]
 80a285e:	b18b      	cbz	r3, 80a2884 <_ZN11FuzzyOutput5orderEv+0x34>
                if(aux2->fuzzySet->getPointA() > aux2->next->fuzzySet->getPointA()){
 80a2860:	6820      	ldr	r0, [r4, #0]
 80a2862:	f000 fa35 	bl	80a2cd0 <_ZN8FuzzySet9getPointAEv>
 80a2866:	6863      	ldr	r3, [r4, #4]
 80a2868:	4607      	mov	r7, r0
 80a286a:	6818      	ldr	r0, [r3, #0]
 80a286c:	f000 fa30 	bl	80a2cd0 <_ZN8FuzzySet9getPointAEv>
 80a2870:	4601      	mov	r1, r0
 80a2872:	4638      	mov	r0, r7
 80a2874:	f002 fbac 	bl	80a4fd0 <__aeabi_fcmpgt>
 80a2878:	b120      	cbz	r0, 80a2884 <_ZN11FuzzyOutput5orderEv+0x34>

// MTODOS PRIVADOS
bool FuzzyOutput::swap(fuzzySetArray* fuzzySetA, fuzzySetArray* fuzzySetB){
    FuzzySet* aux;
    
    aux = fuzzySetA->fuzzySet;
 80a287a:	e894 000c 	ldmia.w	r4, {r2, r3}
    fuzzySetA->fuzzySet = fuzzySetB->fuzzySet;
 80a287e:	6819      	ldr	r1, [r3, #0]
 80a2880:	6021      	str	r1, [r4, #0]
    fuzzySetB->fuzzySet = aux;
 80a2882:	601a      	str	r2, [r3, #0]
            if(aux2->next != NULL){
                if(aux2->fuzzySet->getPointA() > aux2->next->fuzzySet->getPointA()){
                    this->swap(aux2, aux2->next);
                }
            }
            aux2 = aux2->next;
 80a2884:	6864      	ldr	r4, [r4, #4]

    aux1 = this->fuzzySets;
    aux2 = this->fuzzySets;

    while(aux1 != NULL){
        while(aux2 != NULL){
 80a2886:	e7e8      	b.n	80a285a <_ZN11FuzzyOutput5orderEv+0xa>
                    this->swap(aux2, aux2->next);
                }
            }
            aux2 = aux2->next;
        }
        aux2 = this->fuzzySets;
 80a2888:	68b4      	ldr	r4, [r6, #8]
        aux1 = aux1->next;
 80a288a:	686d      	ldr	r5, [r5, #4]
    fuzzySetArray *aux2;

    aux1 = this->fuzzySets;
    aux2 = this->fuzzySets;

    while(aux1 != NULL){
 80a288c:	e7e4      	b.n	80a2858 <_ZN11FuzzyOutput5orderEv+0x8>
        }
        aux2 = this->fuzzySets;
        aux1 = aux1->next;
    }
    return true;
}
 80a288e:	2001      	movs	r0, #1
 80a2890:	bdf8      	pop	{r3, r4, r5, r6, r7, pc}
 80a2892:	0000      	movs	r0, r0
 80a2894:	0000      	movs	r0, r0
	...

080a2898 <_ZN11FuzzyOutput7rebuildEffffffffPfS0_>:
    fuzzySetB->fuzzySet = aux;

    return true;
}

bool FuzzyOutput::rebuild(float x1, float y1, float x2, float y2, float x3, float y3, float x4, float y4, float* point, float* pertinence){
 80a2898:	e92d 4ff7 	stmdb	sp!, {r0, r1, r2, r4, r5, r6, r7, r8, r9, sl, fp, lr}
    float denom, numera, numerb;
    float mua, mub;

    denom  = (y4 - y3) * (x2 - x1) - (x4 - x3) * (y2 - y1);
 80a289c:	9810      	ldr	r0, [sp, #64]	; 0x40
    fuzzySetB->fuzzySet = aux;

    return true;
}

bool FuzzyOutput::rebuild(float x1, float y1, float x2, float y2, float x3, float y3, float x4, float y4, float* point, float* pertinence){
 80a289e:	460f      	mov	r7, r1
    float denom, numera, numerb;
    float mua, mub;

    denom  = (y4 - y3) * (x2 - x1) - (x4 - x3) * (y2 - y1);
 80a28a0:	990e      	ldr	r1, [sp, #56]	; 0x38
    fuzzySetB->fuzzySet = aux;

    return true;
}

bool FuzzyOutput::rebuild(float x1, float y1, float x2, float y2, float x3, float y3, float x4, float y4, float* point, float* pertinence){
 80a28a2:	4615      	mov	r5, r2
 80a28a4:	461c      	mov	r4, r3
    float denom, numera, numerb;
    float mua, mub;

    denom  = (y4 - y3) * (x2 - x1) - (x4 - x3) * (y2 - y1);
 80a28a6:	f002 f8cd 	bl	80a4a44 <__aeabi_fsub>
 80a28aa:	4639      	mov	r1, r7
 80a28ac:	4682      	mov	sl, r0
 80a28ae:	4620      	mov	r0, r4
 80a28b0:	f002 f8c8 	bl	80a4a44 <__aeabi_fsub>
 80a28b4:	990d      	ldr	r1, [sp, #52]	; 0x34
 80a28b6:	4680      	mov	r8, r0
 80a28b8:	980f      	ldr	r0, [sp, #60]	; 0x3c
 80a28ba:	f002 f8c3 	bl	80a4a44 <__aeabi_fsub>
 80a28be:	4629      	mov	r1, r5
 80a28c0:	4683      	mov	fp, r0
 80a28c2:	980c      	ldr	r0, [sp, #48]	; 0x30
 80a28c4:	f002 f8be 	bl	80a4a44 <__aeabi_fsub>
 80a28c8:	4641      	mov	r1, r8
 80a28ca:	4606      	mov	r6, r0
 80a28cc:	4650      	mov	r0, sl
 80a28ce:	f002 f9c3 	bl	80a4c58 <__aeabi_fmul>
 80a28d2:	4631      	mov	r1, r6
 80a28d4:	4604      	mov	r4, r0
 80a28d6:	4658      	mov	r0, fp
 80a28d8:	f002 f9be 	bl	80a4c58 <__aeabi_fmul>
 80a28dc:	4601      	mov	r1, r0
 80a28de:	4620      	mov	r0, r4
 80a28e0:	f002 f8b0 	bl	80a4a44 <__aeabi_fsub>
    numera = (x4 - x3) * (y1 - y3) - (y4 - y3) * (x1 - x3);
 80a28e4:	990e      	ldr	r1, [sp, #56]	; 0x38

bool FuzzyOutput::rebuild(float x1, float y1, float x2, float y2, float x3, float y3, float x4, float y4, float* point, float* pertinence){
    float denom, numera, numerb;
    float mua, mub;

    denom  = (y4 - y3) * (x2 - x1) - (x4 - x3) * (y2 - y1);
 80a28e6:	4604      	mov	r4, r0
    numera = (x4 - x3) * (y1 - y3) - (y4 - y3) * (x1 - x3);
 80a28e8:	4628      	mov	r0, r5
 80a28ea:	f002 f8ab 	bl	80a4a44 <__aeabi_fsub>
 80a28ee:	990d      	ldr	r1, [sp, #52]	; 0x34
 80a28f0:	4681      	mov	r9, r0
 80a28f2:	4638      	mov	r0, r7
 80a28f4:	f002 f8a6 	bl	80a4a44 <__aeabi_fsub>
 80a28f8:	4649      	mov	r1, r9
 80a28fa:	9001      	str	r0, [sp, #4]
 80a28fc:	4658      	mov	r0, fp
 80a28fe:	f002 f9ab 	bl	80a4c58 <__aeabi_fmul>
 80a2902:	9901      	ldr	r1, [sp, #4]
 80a2904:	4683      	mov	fp, r0
 80a2906:	4650      	mov	r0, sl
 80a2908:	f002 f9a6 	bl	80a4c58 <__aeabi_fmul>
 80a290c:	4601      	mov	r1, r0
 80a290e:	4658      	mov	r0, fp
 80a2910:	f002 f898 	bl	80a4a44 <__aeabi_fsub>
    numerb = (x2 - x1) * (y1 - y3) - (y2 - y1) * (x1 - x3);
 80a2914:	4649      	mov	r1, r9
bool FuzzyOutput::rebuild(float x1, float y1, float x2, float y2, float x3, float y3, float x4, float y4, float* point, float* pertinence){
    float denom, numera, numerb;
    float mua, mub;

    denom  = (y4 - y3) * (x2 - x1) - (x4 - x3) * (y2 - y1);
    numera = (x4 - x3) * (y1 - y3) - (y4 - y3) * (x1 - x3);
 80a2916:	4682      	mov	sl, r0
    numerb = (x2 - x1) * (y1 - y3) - (y2 - y1) * (x1 - x3);
 80a2918:	4640      	mov	r0, r8
 80a291a:	f002 f99d 	bl	80a4c58 <__aeabi_fmul>
 80a291e:	9901      	ldr	r1, [sp, #4]
 80a2920:	4681      	mov	r9, r0
 80a2922:	4630      	mov	r0, r6
 80a2924:	f002 f998 	bl	80a4c58 <__aeabi_fmul>
 80a2928:	4601      	mov	r1, r0
 80a292a:	4648      	mov	r0, r9
 80a292c:	f002 f88a 	bl	80a4a44 <__aeabi_fsub>

    if(denom < 0.0){
 80a2930:	2100      	movs	r1, #0
    float denom, numera, numerb;
    float mua, mub;

    denom  = (y4 - y3) * (x2 - x1) - (x4 - x3) * (y2 - y1);
    numera = (x4 - x3) * (y1 - y3) - (y4 - y3) * (x1 - x3);
    numerb = (x2 - x1) * (y1 - y3) - (y2 - y1) * (x1 - x3);
 80a2932:	4681      	mov	r9, r0

    if(denom < 0.0){
 80a2934:	4620      	mov	r0, r4
 80a2936:	f002 fb2d 	bl	80a4f94 <__aeabi_fcmplt>
 80a293a:	b108      	cbz	r0, 80a2940 <_ZN11FuzzyOutput7rebuildEffffffffPfS0_+0xa8>
        denom *= -1.0;
 80a293c:	f104 4400 	add.w	r4, r4, #2147483648	; 0x80000000
    }
    if(numera < 0.0){
 80a2940:	2100      	movs	r1, #0
 80a2942:	4650      	mov	r0, sl
 80a2944:	f002 fb26 	bl	80a4f94 <__aeabi_fcmplt>
 80a2948:	b108      	cbz	r0, 80a294e <_ZN11FuzzyOutput7rebuildEffffffffPfS0_+0xb6>
        numera *= -1.0;
 80a294a:	f10a 4a00 	add.w	sl, sl, #2147483648	; 0x80000000
    }
    if(numerb < 0.0){
 80a294e:	2100      	movs	r1, #0
 80a2950:	4648      	mov	r0, r9
 80a2952:	f002 fb1f 	bl	80a4f94 <__aeabi_fcmplt>
 80a2956:	b108      	cbz	r0, 80a295c <_ZN11FuzzyOutput7rebuildEffffffffPfS0_+0xc4>
        numerb *= -1.0;
 80a2958:	f109 4900 	add.w	r9, r9, #2147483648	; 0x80000000
    }

    // Se os seguimentos forem paralelos, retornar falso
    if(denom < EPS){
 80a295c:	4620      	mov	r0, r4
 80a295e:	f001 fd2f 	bl	80a43c0 <__aeabi_f2d>
 80a2962:	a321      	add	r3, pc, #132	; (adr r3, 80a29e8 <_ZN11FuzzyOutput7rebuildEffffffffPfS0_+0x150>)
 80a2964:	e9d3 2300 	ldrd	r2, r3, [r3]
 80a2968:	f001 fff0 	bl	80a494c <__aeabi_dcmplt>
 80a296c:	9001      	str	r0, [sp, #4]
 80a296e:	2800      	cmp	r0, #0
 80a2970:	d133      	bne.n	80a29da <_ZN11FuzzyOutput7rebuildEffffffffPfS0_+0x142>
        return false;
    }

    // Verificar se h interseo ao longo do seguimento
    mua = numera / denom;
 80a2972:	4621      	mov	r1, r4
 80a2974:	4650      	mov	r0, sl
 80a2976:	f002 fa23 	bl	80a4dc0 <__aeabi_fdiv>
    mub = numerb / denom;
    if(mua < 0.0 || mua > 1.0 || mub < 0.0 || mub > 1.0){
 80a297a:	2100      	movs	r1, #0
    if(denom < EPS){
        return false;
    }

    // Verificar se h interseo ao longo do seguimento
    mua = numera / denom;
 80a297c:	4682      	mov	sl, r0
    mub = numerb / denom;
    if(mua < 0.0 || mua > 1.0 || mub < 0.0 || mub > 1.0){
 80a297e:	f002 fb09 	bl	80a4f94 <__aeabi_fcmplt>
 80a2982:	bb50      	cbnz	r0, 80a29da <_ZN11FuzzyOutput7rebuildEffffffffPfS0_+0x142>
 80a2984:	f04f 517e 	mov.w	r1, #1065353216	; 0x3f800000
 80a2988:	4650      	mov	r0, sl
 80a298a:	f002 fb21 	bl	80a4fd0 <__aeabi_fcmpgt>
 80a298e:	bb20      	cbnz	r0, 80a29da <_ZN11FuzzyOutput7rebuildEffffffffPfS0_+0x142>
        return false;
    }

    // Verificar se h interseo ao longo do seguimento
    mua = numera / denom;
    mub = numerb / denom;
 80a2990:	4621      	mov	r1, r4
 80a2992:	9001      	str	r0, [sp, #4]
 80a2994:	4648      	mov	r0, r9
 80a2996:	f002 fa13 	bl	80a4dc0 <__aeabi_fdiv>
    if(mua < 0.0 || mua > 1.0 || mub < 0.0 || mub > 1.0){
 80a299a:	2100      	movs	r1, #0
        return false;
    }

    // Verificar se h interseo ao longo do seguimento
    mua = numera / denom;
    mub = numerb / denom;
 80a299c:	4681      	mov	r9, r0
    if(mua < 0.0 || mua > 1.0 || mub < 0.0 || mub > 1.0){
 80a299e:	f002 faf9 	bl	80a4f94 <__aeabi_fcmplt>
 80a29a2:	4604      	mov	r4, r0
 80a29a4:	b9c8      	cbnz	r0, 80a29da <_ZN11FuzzyOutput7rebuildEffffffffPfS0_+0x142>
 80a29a6:	f04f 517e 	mov.w	r1, #1065353216	; 0x3f800000
 80a29aa:	4648      	mov	r0, r9
 80a29ac:	f002 fb10 	bl	80a4fd0 <__aeabi_fcmpgt>
 80a29b0:	b9a8      	cbnz	r0, 80a29de <_ZN11FuzzyOutput7rebuildEffffffffPfS0_+0x146>
        return false;
    }else{
        // Calculando o ponto e a pertinencia do novo elemento
        *point      = x1 + mua * (x2 - x1);
 80a29b2:	4651      	mov	r1, sl
 80a29b4:	4640      	mov	r0, r8
 80a29b6:	f002 f94f 	bl	80a4c58 <__aeabi_fmul>
 80a29ba:	4639      	mov	r1, r7
 80a29bc:	f002 f844 	bl	80a4a48 <__addsf3>
 80a29c0:	9b11      	ldr	r3, [sp, #68]	; 0x44
        *pertinence = y1 + mua * (y2 - y1);
 80a29c2:	4651      	mov	r1, sl
    mub = numerb / denom;
    if(mua < 0.0 || mua > 1.0 || mub < 0.0 || mub > 1.0){
        return false;
    }else{
        // Calculando o ponto e a pertinencia do novo elemento
        *point      = x1 + mua * (x2 - x1);
 80a29c4:	6018      	str	r0, [r3, #0]
        *pertinence = y1 + mua * (y2 - y1);
 80a29c6:	4630      	mov	r0, r6
 80a29c8:	f002 f946 	bl	80a4c58 <__aeabi_fmul>
 80a29cc:	4629      	mov	r1, r5
 80a29ce:	f002 f83b 	bl	80a4a48 <__addsf3>
 80a29d2:	9b12      	ldr	r3, [sp, #72]	; 0x48
 80a29d4:	6018      	str	r0, [r3, #0]

        return true;
 80a29d6:	2001      	movs	r0, #1
 80a29d8:	e002      	b.n	80a29e0 <_ZN11FuzzyOutput7rebuildEffffffffPfS0_+0x148>
        numerb *= -1.0;
    }

    // Se os seguimentos forem paralelos, retornar falso
    if(denom < EPS){
        return false;
 80a29da:	2000      	movs	r0, #0
 80a29dc:	e000      	b.n	80a29e0 <_ZN11FuzzyOutput7rebuildEffffffffPfS0_+0x148>
 80a29de:	4620      	mov	r0, r4
        *point      = x1 + mua * (x2 - x1);
        *pertinence = y1 + mua * (y2 - y1);

        return true;
    }
 80a29e0:	b003      	add	sp, #12
 80a29e2:	e8bd 8ff0 	ldmia.w	sp!, {r4, r5, r6, r7, r8, r9, sl, fp, pc}
 80a29e6:	bf00      	nop
 80a29e8:	d2f1a9fc 	.word	0xd2f1a9fc
 80a29ec:	3f50624d 	.word	0x3f50624d

080a29f0 <_ZN11FuzzyOutput8truncateEv>:
FuzzyOutput::~FuzzyOutput(){
    this->fuzzyComposition.empty();
}

// MTODOS PBLICOS
bool FuzzyOutput::truncate(){
 80a29f0:	e92d 4ff0 	stmdb	sp!, {r4, r5, r6, r7, r8, r9, sl, fp, lr}
 80a29f4:	4606      	mov	r6, r0
    // esvaziando a composio
    this->fuzzyComposition.empty();
 80a29f6:	f100 0510 	add.w	r5, r0, #16
FuzzyOutput::~FuzzyOutput(){
    this->fuzzyComposition.empty();
}

// MTODOS PBLICOS
bool FuzzyOutput::truncate(){
 80a29fa:	b091      	sub	sp, #68	; 0x44
    // esvaziando a composio
    this->fuzzyComposition.empty();
 80a29fc:	4628      	mov	r0, r5
 80a29fe:	f7ff fdd3 	bl	80a25a8 <_ZN16FuzzyComposition5emptyEv>

    fuzzySetArray *aux;
    aux = this->fuzzySets;
 80a2a02:	68b4      	ldr	r4, [r6, #8]
                        this->fuzzyComposition.addPoint(newPointC, newPertinenceC);
                    }
                }
            }else if(aux->fuzzySet->getPointB() != aux->fuzzySet->getPointC()){
                // se trapezio
                if(aux->fuzzySet->getPertinence() == 1.0){
 80a2a04:	f04f 597e 	mov.w	r9, #1065353216	; 0x3f800000
                    }
                }else{
                    float newPointB         = aux->fuzzySet->getPointB();
                    float newPertinenceB    = aux->fuzzySet->getPertinence();

                    rebuild(aux->fuzzySet->getPointA(), 0.0, aux->fuzzySet->getPointB(), 1.0, aux->fuzzySet->getPointA(), aux->fuzzySet->getPertinence(), aux->fuzzySet->getPointD(), aux->fuzzySet->getPertinence(), &newPointB, &newPertinenceB);
 80a2a08:	af0d      	add	r7, sp, #52	; 0x34
    // esvaziando a composio
    this->fuzzyComposition.empty();

    fuzzySetArray *aux;
    aux = this->fuzzySets;
    while(aux != NULL){
 80a2a0a:	2c00      	cmp	r4, #0
 80a2a0c:	f000 8150 	beq.w	80a2cb0 <_ZN11FuzzyOutput8truncateEv+0x2c0>
        if(aux->fuzzySet->getPertinence() > 0.0){
 80a2a10:	6820      	ldr	r0, [r4, #0]
 80a2a12:	f000 f9f8 	bl	80a2e06 <_ZN8FuzzySet13getPertinenceEv>
 80a2a16:	2100      	movs	r1, #0
 80a2a18:	f002 fada 	bl	80a4fd0 <__aeabi_fcmpgt>
 80a2a1c:	2800      	cmp	r0, #0
 80a2a1e:	f000 80d8 	beq.w	80a2bd2 <_ZN11FuzzyOutput8truncateEv+0x1e2>
            // Se no for trapezio iniciado com pertinencia 1 (sem o triangulo esquerdo)
            if(aux->fuzzySet->getPointA() != aux->fuzzySet->getPointB()){
 80a2a22:	6820      	ldr	r0, [r4, #0]
 80a2a24:	f000 f954 	bl	80a2cd0 <_ZN8FuzzySet9getPointAEv>
 80a2a28:	4680      	mov	r8, r0
 80a2a2a:	6820      	ldr	r0, [r4, #0]
 80a2a2c:	f000 f952 	bl	80a2cd4 <_ZN8FuzzySet9getPointBEv>
 80a2a30:	4601      	mov	r1, r0
 80a2a32:	4640      	mov	r0, r8
 80a2a34:	f002 faa4 	bl	80a4f80 <__aeabi_fcmpeq>
 80a2a38:	b980      	cbnz	r0, 80a2a5c <_ZN11FuzzyOutput8truncateEv+0x6c>
                if(this->fuzzyComposition.checkPoint(aux->fuzzySet->getPointA(), 0.0) == false){
 80a2a3a:	6820      	ldr	r0, [r4, #0]
 80a2a3c:	f000 f948 	bl	80a2cd0 <_ZN8FuzzySet9getPointAEv>
 80a2a40:	2200      	movs	r2, #0
 80a2a42:	4601      	mov	r1, r0
 80a2a44:	4628      	mov	r0, r5
 80a2a46:	f7ff fcc0 	bl	80a23ca <_ZN16FuzzyComposition10checkPointEff>
 80a2a4a:	b938      	cbnz	r0, 80a2a5c <_ZN11FuzzyOutput8truncateEv+0x6c>
                    this->fuzzyComposition.addPoint(aux->fuzzySet->getPointA(), 0.0);
 80a2a4c:	6820      	ldr	r0, [r4, #0]
 80a2a4e:	f000 f93f 	bl	80a2cd0 <_ZN8FuzzySet9getPointAEv>
 80a2a52:	2200      	movs	r2, #0
 80a2a54:	4601      	mov	r1, r0
 80a2a56:	4628      	mov	r0, r5
 80a2a58:	f7ff fc9e 	bl	80a2398 <_ZN16FuzzyComposition8addPointEff>
                }
            }

            if(aux->fuzzySet->getPointB() == aux->fuzzySet->getPointC() && aux->fuzzySet->getPointA() != aux->fuzzySet->getPointD()){
 80a2a5c:	6820      	ldr	r0, [r4, #0]
 80a2a5e:	f000 f939 	bl	80a2cd4 <_ZN8FuzzySet9getPointBEv>
 80a2a62:	4680      	mov	r8, r0
 80a2a64:	6820      	ldr	r0, [r4, #0]
 80a2a66:	f000 f937 	bl	80a2cd8 <_ZN8FuzzySet9getPointCEv>
 80a2a6a:	4601      	mov	r1, r0
 80a2a6c:	4640      	mov	r0, r8
 80a2a6e:	f002 fa87 	bl	80a4f80 <__aeabi_fcmpeq>
 80a2a72:	b168      	cbz	r0, 80a2a90 <_ZN11FuzzyOutput8truncateEv+0xa0>
 80a2a74:	6820      	ldr	r0, [r4, #0]
 80a2a76:	f000 f92b 	bl	80a2cd0 <_ZN8FuzzySet9getPointAEv>
 80a2a7a:	4680      	mov	r8, r0
 80a2a7c:	6820      	ldr	r0, [r4, #0]
 80a2a7e:	f000 f92d 	bl	80a2cdc <_ZN8FuzzySet9getPointDEv>
 80a2a82:	4601      	mov	r1, r0
 80a2a84:	4640      	mov	r0, r8
 80a2a86:	f002 fa7b 	bl	80a4f80 <__aeabi_fcmpeq>
 80a2a8a:	2800      	cmp	r0, #0
 80a2a8c:	f000 80a3 	beq.w	80a2bd6 <_ZN11FuzzyOutput8truncateEv+0x1e6>

                    if(this->fuzzyComposition.checkPoint(newPointC, newPertinenceC) == false){
                        this->fuzzyComposition.addPoint(newPointC, newPertinenceC);
                    }
                }
            }else if(aux->fuzzySet->getPointB() != aux->fuzzySet->getPointC()){
 80a2a90:	6820      	ldr	r0, [r4, #0]
 80a2a92:	f000 f91f 	bl	80a2cd4 <_ZN8FuzzySet9getPointBEv>
 80a2a96:	4680      	mov	r8, r0
 80a2a98:	6820      	ldr	r0, [r4, #0]
 80a2a9a:	f000 f91d 	bl	80a2cd8 <_ZN8FuzzySet9getPointCEv>
 80a2a9e:	4601      	mov	r1, r0
 80a2aa0:	4640      	mov	r0, r8
 80a2aa2:	f002 fa6d 	bl	80a4f80 <__aeabi_fcmpeq>
 80a2aa6:	2800      	cmp	r0, #0
 80a2aa8:	f040 809f 	bne.w	80a2bea <_ZN11FuzzyOutput8truncateEv+0x1fa>
                // se trapezio
                if(aux->fuzzySet->getPertinence() == 1.0){
 80a2aac:	6820      	ldr	r0, [r4, #0]
 80a2aae:	f000 f9aa 	bl	80a2e06 <_ZN8FuzzySet13getPertinenceEv>
 80a2ab2:	f04f 517e 	mov.w	r1, #1065353216	; 0x3f800000
 80a2ab6:	f002 fa63 	bl	80a4f80 <__aeabi_fcmpeq>
 80a2aba:	2800      	cmp	r0, #0
 80a2abc:	f040 80c4 	bne.w	80a2c48 <_ZN11FuzzyOutput8truncateEv+0x258>

                    if(this->fuzzyComposition.checkPoint(aux->fuzzySet->getPointC(), aux->fuzzySet->getPertinence()) == false){
                        this->fuzzyComposition.addPoint(aux->fuzzySet->getPointC(), aux->fuzzySet->getPertinence());
                    }
                }else{
                    float newPointB         = aux->fuzzySet->getPointB();
 80a2ac0:	6820      	ldr	r0, [r4, #0]
 80a2ac2:	f000 f907 	bl	80a2cd4 <_ZN8FuzzySet9getPointBEv>
 80a2ac6:	900c      	str	r0, [sp, #48]	; 0x30
                    float newPertinenceB    = aux->fuzzySet->getPertinence();
 80a2ac8:	6820      	ldr	r0, [r4, #0]
 80a2aca:	f000 f99c 	bl	80a2e06 <_ZN8FuzzySet13getPertinenceEv>
 80a2ace:	900d      	str	r0, [sp, #52]	; 0x34

                    rebuild(aux->fuzzySet->getPointA(), 0.0, aux->fuzzySet->getPointB(), 1.0, aux->fuzzySet->getPointA(), aux->fuzzySet->getPertinence(), aux->fuzzySet->getPointD(), aux->fuzzySet->getPertinence(), &newPointB, &newPertinenceB);
 80a2ad0:	6820      	ldr	r0, [r4, #0]
 80a2ad2:	f000 f8fd 	bl	80a2cd0 <_ZN8FuzzySet9getPointAEv>
 80a2ad6:	4680      	mov	r8, r0
 80a2ad8:	6820      	ldr	r0, [r4, #0]
 80a2ada:	f000 f8fb 	bl	80a2cd4 <_ZN8FuzzySet9getPointBEv>
 80a2ade:	4682      	mov	sl, r0
 80a2ae0:	6820      	ldr	r0, [r4, #0]
 80a2ae2:	f000 f8f5 	bl	80a2cd0 <_ZN8FuzzySet9getPointAEv>
 80a2ae6:	4683      	mov	fp, r0
 80a2ae8:	6820      	ldr	r0, [r4, #0]
 80a2aea:	f000 f98c 	bl	80a2e06 <_ZN8FuzzySet13getPertinenceEv>
 80a2aee:	900a      	str	r0, [sp, #40]	; 0x28
 80a2af0:	6820      	ldr	r0, [r4, #0]
 80a2af2:	f000 f8f3 	bl	80a2cdc <_ZN8FuzzySet9getPointDEv>
 80a2af6:	9009      	str	r0, [sp, #36]	; 0x24
 80a2af8:	6820      	ldr	r0, [r4, #0]
 80a2afa:	f000 f984 	bl	80a2e06 <_ZN8FuzzySet13getPertinenceEv>
 80a2afe:	9a09      	ldr	r2, [sp, #36]	; 0x24
 80a2b00:	9b0a      	ldr	r3, [sp, #40]	; 0x28
 80a2b02:	a90c      	add	r1, sp, #48	; 0x30
 80a2b04:	9105      	str	r1, [sp, #20]
 80a2b06:	9004      	str	r0, [sp, #16]
 80a2b08:	9203      	str	r2, [sp, #12]
 80a2b0a:	9302      	str	r3, [sp, #8]
 80a2b0c:	2200      	movs	r2, #0
 80a2b0e:	4641      	mov	r1, r8
 80a2b10:	9706      	str	r7, [sp, #24]
 80a2b12:	f8cd b004 	str.w	fp, [sp, #4]
 80a2b16:	f8cd 9000 	str.w	r9, [sp]
 80a2b1a:	4653      	mov	r3, sl
 80a2b1c:	4630      	mov	r0, r6
 80a2b1e:	f7ff febb 	bl	80a2898 <_ZN11FuzzyOutput7rebuildEffffffffPfS0_>

                    if(this->fuzzyComposition.checkPoint(newPointB, newPertinenceB) == false){
 80a2b22:	9a0d      	ldr	r2, [sp, #52]	; 0x34
 80a2b24:	990c      	ldr	r1, [sp, #48]	; 0x30
 80a2b26:	4628      	mov	r0, r5
 80a2b28:	f7ff fc4f 	bl	80a23ca <_ZN16FuzzyComposition10checkPointEff>
 80a2b2c:	b920      	cbnz	r0, 80a2b38 <_ZN11FuzzyOutput8truncateEv+0x148>
                        this->fuzzyComposition.addPoint(newPointB, newPertinenceB);
 80a2b2e:	9a0d      	ldr	r2, [sp, #52]	; 0x34
 80a2b30:	990c      	ldr	r1, [sp, #48]	; 0x30
 80a2b32:	4628      	mov	r0, r5
 80a2b34:	f7ff fc30 	bl	80a2398 <_ZN16FuzzyComposition8addPointEff>
                    }

                    float newPointC         = aux->fuzzySet->getPointB();
 80a2b38:	6820      	ldr	r0, [r4, #0]
 80a2b3a:	f000 f8cb 	bl	80a2cd4 <_ZN8FuzzySet9getPointBEv>
 80a2b3e:	900e      	str	r0, [sp, #56]	; 0x38
                    float newPertinenceC    = aux->fuzzySet->getPertinence();
 80a2b40:	6820      	ldr	r0, [r4, #0]
 80a2b42:	f000 f960 	bl	80a2e06 <_ZN8FuzzySet13getPertinenceEv>
 80a2b46:	f10d 0840 	add.w	r8, sp, #64	; 0x40
 80a2b4a:	f848 0d04 	str.w	r0, [r8, #-4]!

                    rebuild(aux->fuzzySet->getPointC(), 1.0, aux->fuzzySet->getPointD(), 0.0, aux->fuzzySet->getPointA(), aux->fuzzySet->getPertinence(), aux->fuzzySet->getPointD(), aux->fuzzySet->getPertinence(), &newPointC, &newPertinenceC);
 80a2b4e:	6820      	ldr	r0, [r4, #0]
 80a2b50:	f000 f8c2 	bl	80a2cd8 <_ZN8FuzzySet9getPointCEv>
 80a2b54:	4682      	mov	sl, r0
 80a2b56:	6820      	ldr	r0, [r4, #0]
 80a2b58:	f000 f8c0 	bl	80a2cdc <_ZN8FuzzySet9getPointDEv>
 80a2b5c:	4683      	mov	fp, r0
 80a2b5e:	6820      	ldr	r0, [r4, #0]
 80a2b60:	f000 f8b6 	bl	80a2cd0 <_ZN8FuzzySet9getPointAEv>
 80a2b64:	9009      	str	r0, [sp, #36]	; 0x24
 80a2b66:	6820      	ldr	r0, [r4, #0]
 80a2b68:	f000 f94d 	bl	80a2e06 <_ZN8FuzzySet13getPertinenceEv>
 80a2b6c:	900b      	str	r0, [sp, #44]	; 0x2c
 80a2b6e:	6820      	ldr	r0, [r4, #0]
 80a2b70:	f000 f8b4 	bl	80a2cdc <_ZN8FuzzySet9getPointDEv>
 80a2b74:	900a      	str	r0, [sp, #40]	; 0x28
 80a2b76:	6820      	ldr	r0, [r4, #0]
 80a2b78:	f000 f945 	bl	80a2e06 <_ZN8FuzzySet13getPertinenceEv>
 80a2b7c:	ab0e      	add	r3, sp, #56	; 0x38
 80a2b7e:	9305      	str	r3, [sp, #20]
 80a2b80:	9b09      	ldr	r3, [sp, #36]	; 0x24
 80a2b82:	990a      	ldr	r1, [sp, #40]	; 0x28
 80a2b84:	9a0b      	ldr	r2, [sp, #44]	; 0x2c
 80a2b86:	9301      	str	r3, [sp, #4]
 80a2b88:	2300      	movs	r3, #0
 80a2b8a:	9004      	str	r0, [sp, #16]
 80a2b8c:	9103      	str	r1, [sp, #12]
 80a2b8e:	9202      	str	r2, [sp, #8]
 80a2b90:	9300      	str	r3, [sp, #0]
 80a2b92:	f04f 527e 	mov.w	r2, #1065353216	; 0x3f800000
 80a2b96:	4651      	mov	r1, sl
 80a2b98:	f8cd 8018 	str.w	r8, [sp, #24]
 80a2b9c:	465b      	mov	r3, fp
 80a2b9e:	4630      	mov	r0, r6
 80a2ba0:	f7ff fe7a 	bl	80a2898 <_ZN11FuzzyOutput7rebuildEffffffffPfS0_>

                    if(this->fuzzyComposition.checkPoint(newPointC, newPertinenceC) == false){
 80a2ba4:	9a0f      	ldr	r2, [sp, #60]	; 0x3c
 80a2ba6:	990e      	ldr	r1, [sp, #56]	; 0x38
 80a2ba8:	4628      	mov	r0, r5
 80a2baa:	f7ff fc0e 	bl	80a23ca <_ZN16FuzzyComposition10checkPointEff>
 80a2bae:	b920      	cbnz	r0, 80a2bba <_ZN11FuzzyOutput8truncateEv+0x1ca>
                        this->fuzzyComposition.addPoint(newPointC, newPertinenceC);
 80a2bb0:	9a0f      	ldr	r2, [sp, #60]	; 0x3c
 80a2bb2:	990e      	ldr	r1, [sp, #56]	; 0x38
                    }
                }
            }else{
                //senao singleton
                if(this->fuzzyComposition.checkPoint(aux->fuzzySet->getPointB(), aux->fuzzySet->getPertinence()) == false){
                    this->fuzzyComposition.addPoint(aux->fuzzySet->getPointB(), aux->fuzzySet->getPertinence());
 80a2bb4:	4628      	mov	r0, r5
 80a2bb6:	f7ff fbef 	bl	80a2398 <_ZN16FuzzyComposition8addPointEff>
                }
            }
            
            //Se no for trapezio iniciado com pertinencia 1 (sem o triangulo direito)
            if(aux->fuzzySet->getPointC() != aux->fuzzySet->getPointD()){
 80a2bba:	6820      	ldr	r0, [r4, #0]
 80a2bbc:	f000 f88c 	bl	80a2cd8 <_ZN8FuzzySet9getPointCEv>
 80a2bc0:	4680      	mov	r8, r0
 80a2bc2:	6820      	ldr	r0, [r4, #0]
 80a2bc4:	f000 f88a 	bl	80a2cdc <_ZN8FuzzySet9getPointDEv>
 80a2bc8:	4601      	mov	r1, r0
 80a2bca:	4640      	mov	r0, r8
 80a2bcc:	f002 f9d8 	bl	80a4f80 <__aeabi_fcmpeq>
 80a2bd0:	b318      	cbz	r0, 80a2c1a <_ZN11FuzzyOutput8truncateEv+0x22a>
                if(this->fuzzyComposition.checkPoint(aux->fuzzySet->getPointD(), 0.0) == false || aux->fuzzySet->getPointD() == aux->fuzzySet->getPointA()){
                    this->fuzzyComposition.addPoint(aux->fuzzySet->getPointD(), 0.0);
                }
            }
        }
        aux = aux->next;
 80a2bd2:	6864      	ldr	r4, [r4, #4]
    // esvaziando a composio
    this->fuzzyComposition.empty();

    fuzzySetArray *aux;
    aux = this->fuzzySets;
    while(aux != NULL){
 80a2bd4:	e719      	b.n	80a2a0a <_ZN11FuzzyOutput8truncateEv+0x1a>
                }
            }

            if(aux->fuzzySet->getPointB() == aux->fuzzySet->getPointC() && aux->fuzzySet->getPointA() != aux->fuzzySet->getPointD()){
                // se trinagulo
                if(aux->fuzzySet->getPertinence() == 1.0){
 80a2bd6:	6820      	ldr	r0, [r4, #0]
 80a2bd8:	f000 f915 	bl	80a2e06 <_ZN8FuzzySet13getPertinenceEv>
 80a2bdc:	f04f 517e 	mov.w	r1, #1065353216	; 0x3f800000
 80a2be0:	f002 f9ce 	bl	80a4f80 <__aeabi_fcmpeq>
 80a2be4:	2800      	cmp	r0, #0
 80a2be6:	f43f af6b 	beq.w	80a2ac0 <_ZN11FuzzyOutput8truncateEv+0xd0>
                        this->fuzzyComposition.addPoint(newPointC, newPertinenceC);
                    }
                }
            }else{
                //senao singleton
                if(this->fuzzyComposition.checkPoint(aux->fuzzySet->getPointB(), aux->fuzzySet->getPertinence()) == false){
 80a2bea:	6820      	ldr	r0, [r4, #0]
 80a2bec:	f000 f872 	bl	80a2cd4 <_ZN8FuzzySet9getPointBEv>
 80a2bf0:	4680      	mov	r8, r0
 80a2bf2:	6820      	ldr	r0, [r4, #0]
 80a2bf4:	f000 f907 	bl	80a2e06 <_ZN8FuzzySet13getPertinenceEv>
 80a2bf8:	4641      	mov	r1, r8
 80a2bfa:	4602      	mov	r2, r0
 80a2bfc:	4628      	mov	r0, r5
 80a2bfe:	f7ff fbe4 	bl	80a23ca <_ZN16FuzzyComposition10checkPointEff>
 80a2c02:	2800      	cmp	r0, #0
 80a2c04:	d1d9      	bne.n	80a2bba <_ZN11FuzzyOutput8truncateEv+0x1ca>
                    this->fuzzyComposition.addPoint(aux->fuzzySet->getPointB(), aux->fuzzySet->getPertinence());
 80a2c06:	6820      	ldr	r0, [r4, #0]
 80a2c08:	f000 f864 	bl	80a2cd4 <_ZN8FuzzySet9getPointBEv>
 80a2c0c:	4680      	mov	r8, r0
 80a2c0e:	6820      	ldr	r0, [r4, #0]
 80a2c10:	f000 f8f9 	bl	80a2e06 <_ZN8FuzzySet13getPertinenceEv>
 80a2c14:	4641      	mov	r1, r8
 80a2c16:	4602      	mov	r2, r0
 80a2c18:	e7cc      	b.n	80a2bb4 <_ZN11FuzzyOutput8truncateEv+0x1c4>
                }
            }
            
            //Se no for trapezio iniciado com pertinencia 1 (sem o triangulo direito)
            if(aux->fuzzySet->getPointC() != aux->fuzzySet->getPointD()){
                if(this->fuzzyComposition.checkPoint(aux->fuzzySet->getPointD(), 0.0) == false || aux->fuzzySet->getPointD() == aux->fuzzySet->getPointA()){
 80a2c1a:	6820      	ldr	r0, [r4, #0]
 80a2c1c:	f000 f85e 	bl	80a2cdc <_ZN8FuzzySet9getPointDEv>
 80a2c20:	2200      	movs	r2, #0
 80a2c22:	4601      	mov	r1, r0
 80a2c24:	4628      	mov	r0, r5
 80a2c26:	f7ff fbd0 	bl	80a23ca <_ZN16FuzzyComposition10checkPointEff>
 80a2c2a:	2800      	cmp	r0, #0
 80a2c2c:	d037      	beq.n	80a2c9e <_ZN11FuzzyOutput8truncateEv+0x2ae>
 80a2c2e:	6820      	ldr	r0, [r4, #0]
 80a2c30:	f000 f854 	bl	80a2cdc <_ZN8FuzzySet9getPointDEv>
 80a2c34:	4680      	mov	r8, r0
 80a2c36:	6820      	ldr	r0, [r4, #0]
 80a2c38:	f000 f84a 	bl	80a2cd0 <_ZN8FuzzySet9getPointAEv>
 80a2c3c:	4601      	mov	r1, r0
 80a2c3e:	4640      	mov	r0, r8
 80a2c40:	f002 f99e 	bl	80a4f80 <__aeabi_fcmpeq>
 80a2c44:	bb58      	cbnz	r0, 80a2c9e <_ZN11FuzzyOutput8truncateEv+0x2ae>
 80a2c46:	e7c4      	b.n	80a2bd2 <_ZN11FuzzyOutput8truncateEv+0x1e2>
                    }
                }
            }else if(aux->fuzzySet->getPointB() != aux->fuzzySet->getPointC()){
                // se trapezio
                if(aux->fuzzySet->getPertinence() == 1.0){
                    if(this->fuzzyComposition.checkPoint(aux->fuzzySet->getPointB(), aux->fuzzySet->getPertinence()) == false){
 80a2c48:	6820      	ldr	r0, [r4, #0]
 80a2c4a:	f000 f843 	bl	80a2cd4 <_ZN8FuzzySet9getPointBEv>
 80a2c4e:	4680      	mov	r8, r0
 80a2c50:	6820      	ldr	r0, [r4, #0]
 80a2c52:	f000 f8d8 	bl	80a2e06 <_ZN8FuzzySet13getPertinenceEv>
 80a2c56:	4641      	mov	r1, r8
 80a2c58:	4602      	mov	r2, r0
 80a2c5a:	4628      	mov	r0, r5
 80a2c5c:	f7ff fbb5 	bl	80a23ca <_ZN16FuzzyComposition10checkPointEff>
 80a2c60:	b958      	cbnz	r0, 80a2c7a <_ZN11FuzzyOutput8truncateEv+0x28a>
                        this->fuzzyComposition.addPoint(aux->fuzzySet->getPointB(), aux->fuzzySet->getPertinence());
 80a2c62:	6820      	ldr	r0, [r4, #0]
 80a2c64:	f000 f836 	bl	80a2cd4 <_ZN8FuzzySet9getPointBEv>
 80a2c68:	4680      	mov	r8, r0
 80a2c6a:	6820      	ldr	r0, [r4, #0]
 80a2c6c:	f000 f8cb 	bl	80a2e06 <_ZN8FuzzySet13getPertinenceEv>
 80a2c70:	4641      	mov	r1, r8
 80a2c72:	4602      	mov	r2, r0
 80a2c74:	4628      	mov	r0, r5
 80a2c76:	f7ff fb8f 	bl	80a2398 <_ZN16FuzzyComposition8addPointEff>
                    }

                    if(this->fuzzyComposition.checkPoint(aux->fuzzySet->getPointC(), aux->fuzzySet->getPertinence()) == false){
 80a2c7a:	6820      	ldr	r0, [r4, #0]
 80a2c7c:	f000 f82c 	bl	80a2cd8 <_ZN8FuzzySet9getPointCEv>
 80a2c80:	4680      	mov	r8, r0
 80a2c82:	6820      	ldr	r0, [r4, #0]
 80a2c84:	f000 f8bf 	bl	80a2e06 <_ZN8FuzzySet13getPertinenceEv>
 80a2c88:	4641      	mov	r1, r8
 80a2c8a:	4602      	mov	r2, r0
 80a2c8c:	4628      	mov	r0, r5
 80a2c8e:	f7ff fb9c 	bl	80a23ca <_ZN16FuzzyComposition10checkPointEff>
 80a2c92:	2800      	cmp	r0, #0
 80a2c94:	d191      	bne.n	80a2bba <_ZN11FuzzyOutput8truncateEv+0x1ca>
                        this->fuzzyComposition.addPoint(aux->fuzzySet->getPointC(), aux->fuzzySet->getPertinence());
 80a2c96:	6820      	ldr	r0, [r4, #0]
 80a2c98:	f000 f81e 	bl	80a2cd8 <_ZN8FuzzySet9getPointCEv>
 80a2c9c:	e7b6      	b.n	80a2c0c <_ZN11FuzzyOutput8truncateEv+0x21c>
            }
            
            //Se no for trapezio iniciado com pertinencia 1 (sem o triangulo direito)
            if(aux->fuzzySet->getPointC() != aux->fuzzySet->getPointD()){
                if(this->fuzzyComposition.checkPoint(aux->fuzzySet->getPointD(), 0.0) == false || aux->fuzzySet->getPointD() == aux->fuzzySet->getPointA()){
                    this->fuzzyComposition.addPoint(aux->fuzzySet->getPointD(), 0.0);
 80a2c9e:	6820      	ldr	r0, [r4, #0]
 80a2ca0:	f000 f81c 	bl	80a2cdc <_ZN8FuzzySet9getPointDEv>
 80a2ca4:	2200      	movs	r2, #0
 80a2ca6:	4601      	mov	r1, r0
 80a2ca8:	4628      	mov	r0, r5
 80a2caa:	f7ff fb75 	bl	80a2398 <_ZN16FuzzyComposition8addPointEff>
 80a2cae:	e790      	b.n	80a2bd2 <_ZN11FuzzyOutput8truncateEv+0x1e2>
            }
        }
        aux = aux->next;
    }

    this->fuzzyComposition.build();
 80a2cb0:	4628      	mov	r0, r5
 80a2cb2:	f7ff fd65 	bl	80a2780 <_ZN16FuzzyComposition5buildEv>

    return true;
}
 80a2cb6:	2001      	movs	r0, #1
 80a2cb8:	b011      	add	sp, #68	; 0x44
 80a2cba:	e8bd 8ff0 	ldmia.w	sp!, {r4, r5, r6, r7, r8, r9, sl, fp, pc}

080a2cbe <_ZN8FuzzySetC1Effff>:
#include "FuzzySet.h"

FuzzySet::FuzzySet(){
}

FuzzySet::FuzzySet(float a, float b, float c, float d){
 80a2cbe:	b510      	push	{r4, lr}
    this->a = a;
    this->b = b;
    this->c = c;
 80a2cc0:	6083      	str	r3, [r0, #8]
    this->d = d;
 80a2cc2:	9b02      	ldr	r3, [sp, #8]

FuzzySet::FuzzySet(){
}

FuzzySet::FuzzySet(float a, float b, float c, float d){
    this->a = a;
 80a2cc4:	6001      	str	r1, [r0, #0]
    this->b = b;
    this->c = c;
    this->d = d;
 80a2cc6:	60c3      	str	r3, [r0, #12]
    this->pertinence = 0.0;
 80a2cc8:	2300      	movs	r3, #0
FuzzySet::FuzzySet(){
}

FuzzySet::FuzzySet(float a, float b, float c, float d){
    this->a = a;
    this->b = b;
 80a2cca:	6042      	str	r2, [r0, #4]
    this->c = c;
    this->d = d;
    this->pertinence = 0.0;
 80a2ccc:	6103      	str	r3, [r0, #16]
}
 80a2cce:	bd10      	pop	{r4, pc}

080a2cd0 <_ZN8FuzzySet9getPointAEv>:

float FuzzySet::getPointA(){
    return this->a;
}
 80a2cd0:	6800      	ldr	r0, [r0, #0]
 80a2cd2:	4770      	bx	lr

080a2cd4 <_ZN8FuzzySet9getPointBEv>:

float FuzzySet::getPointB(){
    return this->b;
}
 80a2cd4:	6840      	ldr	r0, [r0, #4]
 80a2cd6:	4770      	bx	lr

080a2cd8 <_ZN8FuzzySet9getPointCEv>:

float FuzzySet::getPointC(){
    return this->c;
}
 80a2cd8:	6880      	ldr	r0, [r0, #8]
 80a2cda:	4770      	bx	lr

080a2cdc <_ZN8FuzzySet9getPointDEv>:

float FuzzySet::getPointD(){
    return this->d;
}
 80a2cdc:	68c0      	ldr	r0, [r0, #12]
 80a2cde:	4770      	bx	lr

080a2ce0 <_ZN8FuzzySet19calculatePertinenceEf>:

bool FuzzySet::calculatePertinence(float crispValue){
 80a2ce0:	e92d 43f8 	stmdb	sp!, {r3, r4, r5, r6, r7, r8, r9, lr}
    float slope;

    if (crispValue < this->a){
 80a2ce4:	6807      	ldr	r7, [r0, #0]

float FuzzySet::getPointD(){
    return this->d;
}

bool FuzzySet::calculatePertinence(float crispValue){
 80a2ce6:	4604      	mov	r4, r0
    float slope;

    if (crispValue < this->a){
 80a2ce8:	4638      	mov	r0, r7

float FuzzySet::getPointD(){
    return this->d;
}

bool FuzzySet::calculatePertinence(float crispValue){
 80a2cea:	460d      	mov	r5, r1
    float slope;

    if (crispValue < this->a){
 80a2cec:	f002 f970 	bl	80a4fd0 <__aeabi_fcmpgt>
 80a2cf0:	6866      	ldr	r6, [r4, #4]
 80a2cf2:	b198      	cbz	r0, 80a2d1c <_ZN8FuzzySet19calculatePertinenceEf+0x3c>
        if (this->a == this->b && this->b != this->c && this->c != this->d){
 80a2cf4:	4631      	mov	r1, r6
 80a2cf6:	4638      	mov	r0, r7
 80a2cf8:	f002 f942 	bl	80a4f80 <__aeabi_fcmpeq>
 80a2cfc:	2800      	cmp	r0, #0
 80a2cfe:	d02e      	beq.n	80a2d5e <_ZN8FuzzySet19calculatePertinenceEf+0x7e>
 80a2d00:	68a5      	ldr	r5, [r4, #8]
 80a2d02:	4630      	mov	r0, r6
 80a2d04:	4629      	mov	r1, r5
 80a2d06:	f002 f93b 	bl	80a4f80 <__aeabi_fcmpeq>
 80a2d0a:	bb40      	cbnz	r0, 80a2d5e <_ZN8FuzzySet19calculatePertinenceEf+0x7e>
 80a2d0c:	4628      	mov	r0, r5
 80a2d0e:	68e1      	ldr	r1, [r4, #12]
 80a2d10:	f002 f936 	bl	80a4f80 <__aeabi_fcmpeq>
 80a2d14:	bb18      	cbnz	r0, 80a2d5e <_ZN8FuzzySet19calculatePertinenceEf+0x7e>
            this->pertinence = 1.0;
 80a2d16:	f04f 537e 	mov.w	r3, #1065353216	; 0x3f800000
 80a2d1a:	e021      	b.n	80a2d60 <_ZN8FuzzySet19calculatePertinenceEf+0x80>
        }else{
            this->pertinence = 0.0;
        }
    }else if (crispValue >= this->a && crispValue < this->b){
 80a2d1c:	4629      	mov	r1, r5
 80a2d1e:	4638      	mov	r0, r7
 80a2d20:	f002 f942 	bl	80a4fa8 <__aeabi_fcmple>
 80a2d24:	b9f0      	cbnz	r0, 80a2d64 <_ZN8FuzzySet19calculatePertinenceEf+0x84>
        slope = 1.0 / (this->b - this->a);
        this->pertinence = slope * (crispValue - this->b) + 1.0;
    }else if (crispValue >= this->b && crispValue <= this->c){
 80a2d26:	4631      	mov	r1, r6
 80a2d28:	4628      	mov	r0, r5
 80a2d2a:	f002 f947 	bl	80a4fbc <__aeabi_fcmpge>
 80a2d2e:	2800      	cmp	r0, #0
 80a2d30:	d12f      	bne.n	80a2d92 <_ZN8FuzzySet19calculatePertinenceEf+0xb2>
        this->pertinence = 1.0;
    }else if (crispValue > this->c && crispValue <= this->d){
 80a2d32:	f8d4 8008 	ldr.w	r8, [r4, #8]
 80a2d36:	4628      	mov	r0, r5
 80a2d38:	4641      	mov	r1, r8
 80a2d3a:	f002 f949 	bl	80a4fd0 <__aeabi_fcmpgt>
 80a2d3e:	f8d4 900c 	ldr.w	r9, [r4, #12]
 80a2d42:	2800      	cmp	r0, #0
 80a2d44:	d12c      	bne.n	80a2da0 <_ZN8FuzzySet19calculatePertinenceEf+0xc0>
        slope = 1.0 / (this->c - this->d);
        this->pertinence = slope * (crispValue - this->c) + 1.0;
    }else if (crispValue > this->d){
 80a2d46:	4649      	mov	r1, r9
 80a2d48:	4628      	mov	r0, r5
 80a2d4a:	f002 f941 	bl	80a4fd0 <__aeabi_fcmpgt>
 80a2d4e:	2800      	cmp	r0, #0
 80a2d50:	d04d      	beq.n	80a2dee <_ZN8FuzzySet19calculatePertinenceEf+0x10e>
        if (this->c == this->d && this->c != this->b && this->b != this->a){
 80a2d52:	4649      	mov	r1, r9
 80a2d54:	4640      	mov	r0, r8
 80a2d56:	f002 f913 	bl	80a4f80 <__aeabi_fcmpeq>
 80a2d5a:	2800      	cmp	r0, #0
 80a2d5c:	d13e      	bne.n	80a2ddc <_ZN8FuzzySet19calculatePertinenceEf+0xfc>

    if (crispValue < this->a){
        if (this->a == this->b && this->b != this->c && this->c != this->d){
            this->pertinence = 1.0;
        }else{
            this->pertinence = 0.0;
 80a2d5e:	2300      	movs	r3, #0
 80a2d60:	6123      	str	r3, [r4, #16]
 80a2d62:	e044      	b.n	80a2dee <_ZN8FuzzySet19calculatePertinenceEf+0x10e>
        }
    }else if (crispValue >= this->a && crispValue < this->b){
 80a2d64:	4631      	mov	r1, r6
 80a2d66:	4628      	mov	r0, r5
 80a2d68:	f002 f914 	bl	80a4f94 <__aeabi_fcmplt>
 80a2d6c:	2800      	cmp	r0, #0
 80a2d6e:	d0da      	beq.n	80a2d26 <_ZN8FuzzySet19calculatePertinenceEf+0x46>
        slope = 1.0 / (this->b - this->a);
        this->pertinence = slope * (crispValue - this->b) + 1.0;
 80a2d70:	4639      	mov	r1, r7
 80a2d72:	4630      	mov	r0, r6
 80a2d74:	f001 fe66 	bl	80a4a44 <__aeabi_fsub>
 80a2d78:	4601      	mov	r1, r0
 80a2d7a:	f04f 507e 	mov.w	r0, #1065353216	; 0x3f800000
 80a2d7e:	f002 f81f 	bl	80a4dc0 <__aeabi_fdiv>
 80a2d82:	4631      	mov	r1, r6
 80a2d84:	4607      	mov	r7, r0
 80a2d86:	4628      	mov	r0, r5
 80a2d88:	f001 fe5c 	bl	80a4a44 <__aeabi_fsub>
 80a2d8c:	4601      	mov	r1, r0
 80a2d8e:	4638      	mov	r0, r7
 80a2d90:	e01c      	b.n	80a2dcc <_ZN8FuzzySet19calculatePertinenceEf+0xec>
    }else if (crispValue >= this->b && crispValue <= this->c){
 80a2d92:	68a1      	ldr	r1, [r4, #8]
 80a2d94:	4628      	mov	r0, r5
 80a2d96:	f002 f907 	bl	80a4fa8 <__aeabi_fcmple>
 80a2d9a:	2800      	cmp	r0, #0
 80a2d9c:	d0c9      	beq.n	80a2d32 <_ZN8FuzzySet19calculatePertinenceEf+0x52>
 80a2d9e:	e7ba      	b.n	80a2d16 <_ZN8FuzzySet19calculatePertinenceEf+0x36>
        this->pertinence = 1.0;
    }else if (crispValue > this->c && crispValue <= this->d){
 80a2da0:	4649      	mov	r1, r9
 80a2da2:	4628      	mov	r0, r5
 80a2da4:	f002 f900 	bl	80a4fa8 <__aeabi_fcmple>
 80a2da8:	2800      	cmp	r0, #0
 80a2daa:	d0cc      	beq.n	80a2d46 <_ZN8FuzzySet19calculatePertinenceEf+0x66>
        slope = 1.0 / (this->c - this->d);
        this->pertinence = slope * (crispValue - this->c) + 1.0;
 80a2dac:	4649      	mov	r1, r9
 80a2dae:	4640      	mov	r0, r8
 80a2db0:	f001 fe48 	bl	80a4a44 <__aeabi_fsub>
 80a2db4:	4601      	mov	r1, r0
 80a2db6:	f04f 507e 	mov.w	r0, #1065353216	; 0x3f800000
 80a2dba:	f002 f801 	bl	80a4dc0 <__aeabi_fdiv>
 80a2dbe:	4641      	mov	r1, r8
 80a2dc0:	4606      	mov	r6, r0
 80a2dc2:	4628      	mov	r0, r5
 80a2dc4:	f001 fe3e 	bl	80a4a44 <__aeabi_fsub>
 80a2dc8:	4601      	mov	r1, r0
 80a2dca:	4630      	mov	r0, r6
 80a2dcc:	f001 ff44 	bl	80a4c58 <__aeabi_fmul>
 80a2dd0:	f04f 517e 	mov.w	r1, #1065353216	; 0x3f800000
 80a2dd4:	f001 fe38 	bl	80a4a48 <__addsf3>
 80a2dd8:	6120      	str	r0, [r4, #16]
 80a2dda:	e008      	b.n	80a2dee <_ZN8FuzzySet19calculatePertinenceEf+0x10e>
    }else if (crispValue > this->d){
        if (this->c == this->d && this->c != this->b && this->b != this->a){
 80a2ddc:	4641      	mov	r1, r8
 80a2dde:	4630      	mov	r0, r6
 80a2de0:	f002 f8ce 	bl	80a4f80 <__aeabi_fcmpeq>
 80a2de4:	2800      	cmp	r0, #0
 80a2de6:	d1ba      	bne.n	80a2d5e <_ZN8FuzzySet19calculatePertinenceEf+0x7e>
 80a2de8:	4631      	mov	r1, r6
 80a2dea:	4638      	mov	r0, r7
 80a2dec:	e790      	b.n	80a2d10 <_ZN8FuzzySet19calculatePertinenceEf+0x30>
        }else{
            this->pertinence = 0.0;
        }
    }
    return true;
}
 80a2dee:	2001      	movs	r0, #1
 80a2df0:	e8bd 83f8 	ldmia.w	sp!, {r3, r4, r5, r6, r7, r8, r9, pc}

080a2df4 <_ZN8FuzzySet13setPertinenceEf>:

void FuzzySet::setPertinence(float pertinence){
 80a2df4:	b538      	push	{r3, r4, r5, lr}
 80a2df6:	4604      	mov	r4, r0
    if(this->pertinence < pertinence){
 80a2df8:	6900      	ldr	r0, [r0, #16]
        }
    }
    return true;
}

void FuzzySet::setPertinence(float pertinence){
 80a2dfa:	460d      	mov	r5, r1
    if(this->pertinence < pertinence){
 80a2dfc:	f002 f8ca 	bl	80a4f94 <__aeabi_fcmplt>
 80a2e00:	b100      	cbz	r0, 80a2e04 <_ZN8FuzzySet13setPertinenceEf+0x10>
        this->pertinence = pertinence;
 80a2e02:	6125      	str	r5, [r4, #16]
 80a2e04:	bd38      	pop	{r3, r4, r5, pc}

080a2e06 <_ZN8FuzzySet13getPertinenceEv>:
    }
}

float FuzzySet::getPertinence(){
    return this->pertinence;
}
 80a2e06:	6900      	ldr	r0, [r0, #16]
 80a2e08:	4770      	bx	lr

080a2e0a <_ZN8FuzzySet5resetEv>:

void FuzzySet::reset(){
    this->pertinence = 0.0;
 80a2e0a:	2300      	movs	r3, #0
 80a2e0c:	6103      	str	r3, [r0, #16]
 80a2e0e:	4770      	bx	lr

080a2e10 <_ZN19FuzzyRuleConsequentC1Ev>:
 */
#include "FuzzyRuleConsequent.h"

// CONSTRUTORES
FuzzyRuleConsequent::FuzzyRuleConsequent(){
    this->fuzzySetOutputs = NULL;
 80a2e10:	2200      	movs	r2, #0
 80a2e12:	6042      	str	r2, [r0, #4]
    this->fuzzySetOutputsCursor = NULL;
 80a2e14:	6002      	str	r2, [r0, #0]
}
 80a2e16:	4770      	bx	lr

080a2e18 <_ZN19FuzzyRuleConsequent9addOutputEP8FuzzySet>:
FuzzyRuleConsequent::~FuzzyRuleConsequent(){
    this->cleanFuzzySets(this->fuzzySetOutputs);
}

// MTODOS PBLICOS
bool FuzzyRuleConsequent::addOutput(FuzzySet* fuzzySet){
 80a2e18:	b538      	push	{r3, r4, r5, lr}
 80a2e1a:	4604      	mov	r4, r0
    fuzzySetOutputArray *aux;
    // Alocando espao na memria
    if((aux = (fuzzySetOutputArray *) malloc(sizeof(fuzzySetOutputArray))) == NULL){
 80a2e1c:	2008      	movs	r0, #8
FuzzyRuleConsequent::~FuzzyRuleConsequent(){
    this->cleanFuzzySets(this->fuzzySetOutputs);
}

// MTODOS PBLICOS
bool FuzzyRuleConsequent::addOutput(FuzzySet* fuzzySet){
 80a2e1e:	460d      	mov	r5, r1
    fuzzySetOutputArray *aux;
    // Alocando espao na memria
    if((aux = (fuzzySetOutputArray *) malloc(sizeof(fuzzySetOutputArray))) == NULL){
 80a2e20:	f000 fb34 	bl	80a348c <malloc>
 80a2e24:	b150      	cbz	r0, 80a2e3c <_ZN19FuzzyRuleConsequent9addOutputEP8FuzzySet+0x24>
        return false;
    }
    aux->fuzzySet     = fuzzySet;
    aux->next         = NULL;
 80a2e26:	2300      	movs	r3, #0
    fuzzySetOutputArray *aux;
    // Alocando espao na memria
    if((aux = (fuzzySetOutputArray *) malloc(sizeof(fuzzySetOutputArray))) == NULL){
        return false;
    }
    aux->fuzzySet     = fuzzySet;
 80a2e28:	6005      	str	r5, [r0, #0]
    aux->next         = NULL;
 80a2e2a:	6043      	str	r3, [r0, #4]

    if(this->fuzzySetOutputs == NULL){
 80a2e2c:	6863      	ldr	r3, [r4, #4]
 80a2e2e:	b90b      	cbnz	r3, 80a2e34 <_ZN19FuzzyRuleConsequent9addOutputEP8FuzzySet+0x1c>
        this->fuzzySetOutputs = aux;
 80a2e30:	6060      	str	r0, [r4, #4]
 80a2e32:	e001      	b.n	80a2e38 <_ZN19FuzzyRuleConsequent9addOutputEP8FuzzySet+0x20>
        this->fuzzySetOutputsCursor    = aux;
    }else{
        this->fuzzySetOutputsCursor->next = aux;
 80a2e34:	6823      	ldr	r3, [r4, #0]
 80a2e36:	6058      	str	r0, [r3, #4]
        this->fuzzySetOutputsCursor = aux;
 80a2e38:	6020      	str	r0, [r4, #0]
    }
    return true;
 80a2e3a:	2001      	movs	r0, #1
}
 80a2e3c:	bd38      	pop	{r3, r4, r5, pc}

080a2e3e <_ZN19FuzzyRuleConsequent8evaluateEf>:

bool FuzzyRuleConsequent::evaluate(float power){
 80a2e3e:	b538      	push	{r3, r4, r5, lr}
 80a2e40:	460d      	mov	r5, r1
    fuzzySetOutputArray *aux;
    aux = this->fuzzySetOutputs;
 80a2e42:	6844      	ldr	r4, [r0, #4]
    while(aux != NULL){
 80a2e44:	b12c      	cbz	r4, 80a2e52 <_ZN19FuzzyRuleConsequent8evaluateEf+0x14>
        aux->fuzzySet->setPertinence(power);
 80a2e46:	6820      	ldr	r0, [r4, #0]
 80a2e48:	4629      	mov	r1, r5
 80a2e4a:	f7ff ffd3 	bl	80a2df4 <_ZN8FuzzySet13setPertinenceEf>
        aux = aux->next;
 80a2e4e:	6864      	ldr	r4, [r4, #4]
}

bool FuzzyRuleConsequent::evaluate(float power){
    fuzzySetOutputArray *aux;
    aux = this->fuzzySetOutputs;
    while(aux != NULL){
 80a2e50:	e7f8      	b.n	80a2e44 <_ZN19FuzzyRuleConsequent8evaluateEf+0x6>
        aux->fuzzySet->setPertinence(power);
        aux = aux->next;
    }
    return true;
}
 80a2e52:	2001      	movs	r0, #1
 80a2e54:	bd38      	pop	{r3, r4, r5, pc}

080a2e56 <_ZN5FuzzyC1Ev>:

// CONSTRUTORES
Fuzzy::Fuzzy(){
    // Iniciando os ponteiros como nulo
    // FuzzyInput
    this->fuzzyInputs       = NULL;
 80a2e56:	2200      	movs	r2, #0
 80a2e58:	6042      	str	r2, [r0, #4]
    this->fuzzyInputsCursor = NULL;
 80a2e5a:	6002      	str	r2, [r0, #0]
    // FuzzyOutput
    this->fuzzyOutputs          = NULL;
 80a2e5c:	60c2      	str	r2, [r0, #12]
    this->fuzzyOutputsCursor    = NULL;
 80a2e5e:	6082      	str	r2, [r0, #8]
    // FuzzyRule
    this->fuzzyRules        = NULL;
 80a2e60:	6142      	str	r2, [r0, #20]
    this->fuzzyRulesCursor  = NULL;
 80a2e62:	6102      	str	r2, [r0, #16]
}
 80a2e64:	4770      	bx	lr

080a2e66 <_ZN5Fuzzy13addFuzzyInputEP10FuzzyInput>:
    this->cleanFuzzyOutputs(this->fuzzyOutputs);
    this->cleanFuzzyRules(this->fuzzyRules);
}

// MTODOS PBLICOS
bool Fuzzy::addFuzzyInput(FuzzyInput* fuzzyInput){
 80a2e66:	b538      	push	{r3, r4, r5, lr}
 80a2e68:	4604      	mov	r4, r0
    fuzzyInputArray* aux;
    
    // Alocando espao na memria
    if((aux = (fuzzyInputArray *) malloc(sizeof(fuzzyInputArray))) == NULL){
 80a2e6a:	2008      	movs	r0, #8
    this->cleanFuzzyOutputs(this->fuzzyOutputs);
    this->cleanFuzzyRules(this->fuzzyRules);
}

// MTODOS PBLICOS
bool Fuzzy::addFuzzyInput(FuzzyInput* fuzzyInput){
 80a2e6c:	460d      	mov	r5, r1
    fuzzyInputArray* aux;
    
    // Alocando espao na memria
    if((aux = (fuzzyInputArray *) malloc(sizeof(fuzzyInputArray))) == NULL){
 80a2e6e:	f000 fb0d 	bl	80a348c <malloc>
 80a2e72:	b150      	cbz	r0, 80a2e8a <_ZN5Fuzzy13addFuzzyInputEP10FuzzyInput+0x24>
        return false;
    }

    aux->fuzzyInput = fuzzyInput;
    aux->next = NULL;
 80a2e74:	2300      	movs	r3, #0
    // Alocando espao na memria
    if((aux = (fuzzyInputArray *) malloc(sizeof(fuzzyInputArray))) == NULL){
        return false;
    }

    aux->fuzzyInput = fuzzyInput;
 80a2e76:	6005      	str	r5, [r0, #0]
    aux->next = NULL;
 80a2e78:	6043      	str	r3, [r0, #4]

    if(this->fuzzyInputs == NULL){
 80a2e7a:	6863      	ldr	r3, [r4, #4]
 80a2e7c:	b90b      	cbnz	r3, 80a2e82 <_ZN5Fuzzy13addFuzzyInputEP10FuzzyInput+0x1c>
        this->fuzzyInputs = aux;
 80a2e7e:	6060      	str	r0, [r4, #4]
 80a2e80:	e001      	b.n	80a2e86 <_ZN5Fuzzy13addFuzzyInputEP10FuzzyInput+0x20>
        this->fuzzyInputsCursor  = aux;
    }else{
        this->fuzzyInputsCursor->next = aux;
 80a2e82:	6823      	ldr	r3, [r4, #0]
 80a2e84:	6058      	str	r0, [r3, #4]
        this->fuzzyInputsCursor = aux;
 80a2e86:	6020      	str	r0, [r4, #0]
    }

    return true;
 80a2e88:	2001      	movs	r0, #1
}
 80a2e8a:	bd38      	pop	{r3, r4, r5, pc}

080a2e8c <_ZN5Fuzzy14addFuzzyOutputEP11FuzzyOutput>:

bool Fuzzy::addFuzzyOutput(FuzzyOutput* fuzzyOutput){
 80a2e8c:	b570      	push	{r4, r5, r6, lr}
 80a2e8e:	4605      	mov	r5, r0
    fuzzyOutputArray *aux;
    // Alocando espao na memria
    if((aux = (fuzzyOutputArray *) malloc(sizeof(fuzzyOutputArray))) == NULL){
 80a2e90:	2008      	movs	r0, #8
    }

    return true;
}

bool Fuzzy::addFuzzyOutput(FuzzyOutput* fuzzyOutput){
 80a2e92:	460e      	mov	r6, r1
    fuzzyOutputArray *aux;
    // Alocando espao na memria
    if((aux = (fuzzyOutputArray *) malloc(sizeof(fuzzyOutputArray))) == NULL){
 80a2e94:	f000 fafa 	bl	80a348c <malloc>
 80a2e98:	4604      	mov	r4, r0
 80a2e9a:	b170      	cbz	r0, 80a2eba <_ZN5Fuzzy14addFuzzyOutputEP11FuzzyOutput+0x2e>
        return false;
    }
    aux->fuzzyOutput = fuzzyOutput;
    aux->next = NULL;
 80a2e9c:	2300      	movs	r3, #0
 80a2e9e:	6043      	str	r3, [r0, #4]
    fuzzyOutputArray *aux;
    // Alocando espao na memria
    if((aux = (fuzzyOutputArray *) malloc(sizeof(fuzzyOutputArray))) == NULL){
        return false;
    }
    aux->fuzzyOutput = fuzzyOutput;
 80a2ea0:	6006      	str	r6, [r0, #0]
    aux->next = NULL;

    // Ordenando o fuzzyOutput
    fuzzyOutput->order();
 80a2ea2:	4630      	mov	r0, r6
 80a2ea4:	f7ff fcd4 	bl	80a2850 <_ZN11FuzzyOutput5orderEv>

    if(this->fuzzyOutputs == NULL){
 80a2ea8:	68eb      	ldr	r3, [r5, #12]
 80a2eaa:	b90b      	cbnz	r3, 80a2eb0 <_ZN5Fuzzy14addFuzzyOutputEP11FuzzyOutput+0x24>
        this->fuzzyOutputs = aux;
 80a2eac:	60ec      	str	r4, [r5, #12]
 80a2eae:	e001      	b.n	80a2eb4 <_ZN5Fuzzy14addFuzzyOutputEP11FuzzyOutput+0x28>
        this->fuzzyOutputsCursor  = aux;
    }else{
        this->fuzzyOutputsCursor->next = aux;
 80a2eb0:	68ab      	ldr	r3, [r5, #8]
 80a2eb2:	605c      	str	r4, [r3, #4]
        this->fuzzyOutputsCursor = aux;
 80a2eb4:	60ac      	str	r4, [r5, #8]
    }
    return true;
 80a2eb6:	2001      	movs	r0, #1
 80a2eb8:	bd70      	pop	{r4, r5, r6, pc}
}
 80a2eba:	bd70      	pop	{r4, r5, r6, pc}

080a2ebc <_ZN5Fuzzy12addFuzzyRuleEP9FuzzyRule>:

bool Fuzzy::addFuzzyRule(FuzzyRule* fuzzyRule){
 80a2ebc:	b538      	push	{r3, r4, r5, lr}
 80a2ebe:	4604      	mov	r4, r0
    fuzzyRuleArray* aux;
    // Alocando espao na memria
    if((aux = (fuzzyRuleArray *) malloc(sizeof(fuzzyRuleArray))) == NULL){
 80a2ec0:	2008      	movs	r0, #8
        this->fuzzyOutputsCursor = aux;
    }
    return true;
}

bool Fuzzy::addFuzzyRule(FuzzyRule* fuzzyRule){
 80a2ec2:	460d      	mov	r5, r1
    fuzzyRuleArray* aux;
    // Alocando espao na memria
    if((aux = (fuzzyRuleArray *) malloc(sizeof(fuzzyRuleArray))) == NULL){
 80a2ec4:	f000 fae2 	bl	80a348c <malloc>
 80a2ec8:	b150      	cbz	r0, 80a2ee0 <_ZN5Fuzzy12addFuzzyRuleEP9FuzzyRule+0x24>
        return false;
    }
    aux->fuzzyRule = fuzzyRule;
    aux->next = NULL;
 80a2eca:	2300      	movs	r3, #0
    fuzzyRuleArray* aux;
    // Alocando espao na memria
    if((aux = (fuzzyRuleArray *) malloc(sizeof(fuzzyRuleArray))) == NULL){
        return false;
    }
    aux->fuzzyRule = fuzzyRule;
 80a2ecc:	6005      	str	r5, [r0, #0]
    aux->next = NULL;
 80a2ece:	6043      	str	r3, [r0, #4]

    if(this->fuzzyRules == NULL){
 80a2ed0:	6963      	ldr	r3, [r4, #20]
 80a2ed2:	b90b      	cbnz	r3, 80a2ed8 <_ZN5Fuzzy12addFuzzyRuleEP9FuzzyRule+0x1c>
        this->fuzzyRules = aux;
 80a2ed4:	6160      	str	r0, [r4, #20]
 80a2ed6:	e001      	b.n	80a2edc <_ZN5Fuzzy12addFuzzyRuleEP9FuzzyRule+0x20>
        this->fuzzyRulesCursor  = aux;
    }else{
        this->fuzzyRulesCursor->next = aux;
 80a2ed8:	6923      	ldr	r3, [r4, #16]
 80a2eda:	6058      	str	r0, [r3, #4]
        this->fuzzyRulesCursor = aux;
 80a2edc:	6120      	str	r0, [r4, #16]
    }
    return true;
 80a2ede:	2001      	movs	r0, #1
}
 80a2ee0:	bd38      	pop	{r3, r4, r5, pc}

080a2ee2 <_ZN5Fuzzy8setInputEif>:

bool Fuzzy::setInput(int fuzzyInputIndex, float crispValue){
 80a2ee2:	b570      	push	{r4, r5, r6, lr}
 80a2ee4:	460d      	mov	r5, r1
 80a2ee6:	4616      	mov	r6, r2
    fuzzyInputArray *aux;
    aux = this->fuzzyInputs;
 80a2ee8:	6844      	ldr	r4, [r0, #4]

    while(aux != NULL){
 80a2eea:	b164      	cbz	r4, 80a2f06 <_ZN5Fuzzy8setInputEif+0x24>
        if(aux->fuzzyInput->getIndex() == fuzzyInputIndex){
 80a2eec:	6820      	ldr	r0, [r4, #0]
 80a2eee:	f7ff fc82 	bl	80a27f6 <_ZN7FuzzyIO8getIndexEv>
 80a2ef2:	42a8      	cmp	r0, r5
 80a2ef4:	d105      	bne.n	80a2f02 <_ZN5Fuzzy8setInputEif+0x20>
            aux->fuzzyInput->setCrispInput(crispValue);
 80a2ef6:	6820      	ldr	r0, [r4, #0]
 80a2ef8:	4631      	mov	r1, r6
 80a2efa:	f7ff fc7e 	bl	80a27fa <_ZN7FuzzyIO13setCrispInputEf>
            return true;
 80a2efe:	2001      	movs	r0, #1
 80a2f00:	bd70      	pop	{r4, r5, r6, pc}
        }
        aux = aux->next;
 80a2f02:	6864      	ldr	r4, [r4, #4]

bool Fuzzy::setInput(int fuzzyInputIndex, float crispValue){
    fuzzyInputArray *aux;
    aux = this->fuzzyInputs;

    while(aux != NULL){
 80a2f04:	e7f1      	b.n	80a2eea <_ZN5Fuzzy8setInputEif+0x8>
            aux->fuzzyInput->setCrispInput(crispValue);
            return true;
        }
        aux = aux->next;
    }
    return false;
 80a2f06:	4620      	mov	r0, r4
}
 80a2f08:	bd70      	pop	{r4, r5, r6, pc}

080a2f0a <_ZN5Fuzzy7fuzzifyEv>:

bool Fuzzy::fuzzify(){
 80a2f0a:	b538      	push	{r3, r4, r5, lr}
 80a2f0c:	4604      	mov	r4, r0
    fuzzyInputArray* fuzzyInputAux;

    fuzzyOutputArray *fuzzyOutputAux;

    fuzzyInputAux = this->fuzzyInputs;
 80a2f0e:	6845      	ldr	r5, [r0, #4]
    while(fuzzyInputAux != NULL){
 80a2f10:	b125      	cbz	r5, 80a2f1c <_ZN5Fuzzy7fuzzifyEv+0x12>
        fuzzyInputAux->fuzzyInput->resetFuzzySets();
 80a2f12:	6828      	ldr	r0, [r5, #0]
 80a2f14:	f7ff fc86 	bl	80a2824 <_ZN7FuzzyIO14resetFuzzySetsEv>
        fuzzyInputAux = fuzzyInputAux->next;
 80a2f18:	686d      	ldr	r5, [r5, #4]
    fuzzyInputArray* fuzzyInputAux;

    fuzzyOutputArray *fuzzyOutputAux;

    fuzzyInputAux = this->fuzzyInputs;
    while(fuzzyInputAux != NULL){
 80a2f1a:	e7f9      	b.n	80a2f10 <_ZN5Fuzzy7fuzzifyEv+0x6>
        fuzzyInputAux->fuzzyInput->resetFuzzySets();
        fuzzyInputAux = fuzzyInputAux->next;
    }

    fuzzyOutputAux = this->fuzzyOutputs;
 80a2f1c:	68e5      	ldr	r5, [r4, #12]
    while(fuzzyOutputAux != NULL){
 80a2f1e:	b125      	cbz	r5, 80a2f2a <_ZN5Fuzzy7fuzzifyEv+0x20>
        fuzzyOutputAux->fuzzyOutput->resetFuzzySets();
 80a2f20:	6828      	ldr	r0, [r5, #0]
 80a2f22:	f7ff fc7f 	bl	80a2824 <_ZN7FuzzyIO14resetFuzzySetsEv>
        fuzzyOutputAux = fuzzyOutputAux->next;
 80a2f26:	686d      	ldr	r5, [r5, #4]
        fuzzyInputAux->fuzzyInput->resetFuzzySets();
        fuzzyInputAux = fuzzyInputAux->next;
    }

    fuzzyOutputAux = this->fuzzyOutputs;
    while(fuzzyOutputAux != NULL){
 80a2f28:	e7f9      	b.n	80a2f1e <_ZN5Fuzzy7fuzzifyEv+0x14>
        fuzzyOutputAux->fuzzyOutput->resetFuzzySets();
        fuzzyOutputAux = fuzzyOutputAux->next;
    }

    // Calculando a pertinncia de todos os FuzzyInputs
    fuzzyInputAux = this->fuzzyInputs;
 80a2f2a:	6865      	ldr	r5, [r4, #4]
    while(fuzzyInputAux != NULL){
 80a2f2c:	b125      	cbz	r5, 80a2f38 <_ZN5Fuzzy7fuzzifyEv+0x2e>
        fuzzyInputAux->fuzzyInput->calculateFuzzySetPertinences();
 80a2f2e:	6828      	ldr	r0, [r5, #0]
 80a2f30:	f7ff fc4f 	bl	80a27d2 <_ZN10FuzzyInput28calculateFuzzySetPertinencesEv>
        fuzzyInputAux = fuzzyInputAux->next;
 80a2f34:	686d      	ldr	r5, [r5, #4]
        fuzzyOutputAux = fuzzyOutputAux->next;
    }

    // Calculando a pertinncia de todos os FuzzyInputs
    fuzzyInputAux = this->fuzzyInputs;
    while(fuzzyInputAux != NULL){
 80a2f36:	e7f9      	b.n	80a2f2c <_ZN5Fuzzy7fuzzifyEv+0x22>
        fuzzyInputAux = fuzzyInputAux->next;
    }

    // Avaliando quais regras foram disparadas
    fuzzyRuleArray* fuzzyRuleAux;
    fuzzyRuleAux = this->fuzzyRules;
 80a2f38:	6965      	ldr	r5, [r4, #20]
    // Calculando as pertinncias de totos os FuzzyInputs
    while(fuzzyRuleAux != NULL){
 80a2f3a:	b125      	cbz	r5, 80a2f46 <_ZN5Fuzzy7fuzzifyEv+0x3c>
        fuzzyRuleAux->fuzzyRule->evaluateExpression();
 80a2f3c:	6828      	ldr	r0, [r5, #0]
 80a2f3e:	f7ff fa12 	bl	80a2366 <_ZN9FuzzyRule18evaluateExpressionEv>
        fuzzyRuleAux = fuzzyRuleAux->next;
 80a2f42:	686d      	ldr	r5, [r5, #4]

    // Avaliando quais regras foram disparadas
    fuzzyRuleArray* fuzzyRuleAux;
    fuzzyRuleAux = this->fuzzyRules;
    // Calculando as pertinncias de totos os FuzzyInputs
    while(fuzzyRuleAux != NULL){
 80a2f44:	e7f9      	b.n	80a2f3a <_ZN5Fuzzy7fuzzifyEv+0x30>
        fuzzyRuleAux->fuzzyRule->evaluateExpression();
        fuzzyRuleAux = fuzzyRuleAux->next;
    }

    // Truncado os conjuntos de sada
    fuzzyOutputAux = this->fuzzyOutputs;
 80a2f46:	68e4      	ldr	r4, [r4, #12]
    while(fuzzyOutputAux != NULL){
 80a2f48:	b124      	cbz	r4, 80a2f54 <_ZN5Fuzzy7fuzzifyEv+0x4a>
        fuzzyOutputAux->fuzzyOutput->truncate();
 80a2f4a:	6820      	ldr	r0, [r4, #0]
 80a2f4c:	f7ff fd50 	bl	80a29f0 <_ZN11FuzzyOutput8truncateEv>
        fuzzyOutputAux = fuzzyOutputAux->next;
 80a2f50:	6864      	ldr	r4, [r4, #4]
        fuzzyRuleAux = fuzzyRuleAux->next;
    }

    // Truncado os conjuntos de sada
    fuzzyOutputAux = this->fuzzyOutputs;
    while(fuzzyOutputAux != NULL){
 80a2f52:	e7f9      	b.n	80a2f48 <_ZN5Fuzzy7fuzzifyEv+0x3e>
        fuzzyOutputAux->fuzzyOutput->truncate();
        fuzzyOutputAux = fuzzyOutputAux->next;
    }

    return true;
}
 80a2f54:	2001      	movs	r0, #1
 80a2f56:	bd38      	pop	{r3, r4, r5, pc}

080a2f58 <_ZN5Fuzzy9defuzzifyEi>:
        aux = aux->next;
    }
    return false;
}

float Fuzzy::defuzzify(int fuzzyOutputIndex){
 80a2f58:	b538      	push	{r3, r4, r5, lr}
 80a2f5a:	460d      	mov	r5, r1
    fuzzyOutputArray *aux;
    aux = this->fuzzyOutputs;
 80a2f5c:	68c4      	ldr	r4, [r0, #12]
    while(aux != NULL){
 80a2f5e:	b15c      	cbz	r4, 80a2f78 <_ZN5Fuzzy9defuzzifyEi+0x20>
        if(aux->fuzzyOutput->getIndex() == fuzzyOutputIndex){
 80a2f60:	6820      	ldr	r0, [r4, #0]
 80a2f62:	f7ff fc48 	bl	80a27f6 <_ZN7FuzzyIO8getIndexEv>
 80a2f66:	42a8      	cmp	r0, r5
 80a2f68:	d104      	bne.n	80a2f74 <_ZN5Fuzzy9defuzzifyEi+0x1c>
            return aux->fuzzyOutput->getCrispOutput();
 80a2f6a:	6820      	ldr	r0, [r4, #0]
        }
        aux = aux->next;
    }
    return 0;
}
 80a2f6c:	e8bd 4038 	ldmia.w	sp!, {r3, r4, r5, lr}
float Fuzzy::defuzzify(int fuzzyOutputIndex){
    fuzzyOutputArray *aux;
    aux = this->fuzzyOutputs;
    while(aux != NULL){
        if(aux->fuzzyOutput->getIndex() == fuzzyOutputIndex){
            return aux->fuzzyOutput->getCrispOutput();
 80a2f70:	f7ff bc6b 	b.w	80a284a <_ZN11FuzzyOutput14getCrispOutputEv>
        }
        aux = aux->next;
 80a2f74:	6864      	ldr	r4, [r4, #4]
}

float Fuzzy::defuzzify(int fuzzyOutputIndex){
    fuzzyOutputArray *aux;
    aux = this->fuzzyOutputs;
    while(aux != NULL){
 80a2f76:	e7f2      	b.n	80a2f5e <_ZN5Fuzzy9defuzzifyEi+0x6>
            return aux->fuzzyOutput->getCrispOutput();
        }
        aux = aux->next;
    }
    return 0;
}
 80a2f78:	2000      	movs	r0, #0
 80a2f7a:	bd38      	pop	{r3, r4, r5, pc}

080a2f7c <_ZN19FuzzyRuleAntecedentC1Ev>:
 */
#include "FuzzyRuleAntecedent.h"

// CONSTRUTORES
FuzzyRuleAntecedent::FuzzyRuleAntecedent(){
    this->op = 0;
 80a2f7c:	2200      	movs	r2, #0
 80a2f7e:	6002      	str	r2, [r0, #0]
    this->mode = 0;
 80a2f80:	6042      	str	r2, [r0, #4]
    this->fuzzySet1 = NULL;
 80a2f82:	6082      	str	r2, [r0, #8]
    this->fuzzySet2 = NULL;
 80a2f84:	60c2      	str	r2, [r0, #12]
    this->fuzzyRuleAntecedent1 = NULL;
 80a2f86:	6102      	str	r2, [r0, #16]
    this->fuzzyRuleAntecedent2 = NULL;
 80a2f88:	6142      	str	r2, [r0, #20]
}
 80a2f8a:	4770      	bx	lr

080a2f8c <_ZN19FuzzyRuleAntecedent11joinWithANDEP8FuzzySetS1_>:
        return true;
    }
    return false;
}

bool FuzzyRuleAntecedent::joinWithAND(FuzzySet* fuzzySet1, FuzzySet* fuzzySet2){
 80a2f8c:	b510      	push	{r4, lr}
 80a2f8e:	4603      	mov	r3, r0
    if(fuzzySet1 != NULL && fuzzySet2 != NULL){
 80a2f90:	b139      	cbz	r1, 80a2fa2 <_ZN19FuzzyRuleAntecedent11joinWithANDEP8FuzzySetS1_+0x16>
 80a2f92:	b142      	cbz	r2, 80a2fa6 <_ZN19FuzzyRuleAntecedent11joinWithANDEP8FuzzySetS1_+0x1a>
        this->op = OP_AND;
        this->mode = MODE_FS_FS;
 80a2f94:	2001      	movs	r0, #1
 80a2f96:	2402      	movs	r4, #2
 80a2f98:	e883 0011 	stmia.w	r3, {r0, r4}
        this->fuzzySet1 = fuzzySet1;
 80a2f9c:	6099      	str	r1, [r3, #8]
        this->fuzzySet2 = fuzzySet2;
 80a2f9e:	60da      	str	r2, [r3, #12]
        return true;
 80a2fa0:	bd10      	pop	{r4, pc}
    }
    return false;
 80a2fa2:	4608      	mov	r0, r1
 80a2fa4:	bd10      	pop	{r4, pc}
 80a2fa6:	4610      	mov	r0, r2
}
 80a2fa8:	bd10      	pop	{r4, pc}

080a2faa <_ZN19FuzzyRuleAntecedent11joinWithANDEPS_S0_>:
        return true;
    }
    return false;
}

bool FuzzyRuleAntecedent::joinWithAND(FuzzyRuleAntecedent* fuzzyRuleAntecedent1, FuzzyRuleAntecedent* fuzzyRuleAntecedent2){
 80a2faa:	b510      	push	{r4, lr}
 80a2fac:	4603      	mov	r3, r0
    if(fuzzyRuleAntecedent1 != NULL && fuzzyRuleAntecedent2 != NULL){
 80a2fae:	b139      	cbz	r1, 80a2fc0 <_ZN19FuzzyRuleAntecedent11joinWithANDEPS_S0_+0x16>
 80a2fb0:	b142      	cbz	r2, 80a2fc4 <_ZN19FuzzyRuleAntecedent11joinWithANDEPS_S0_+0x1a>
        this->op = OP_AND;
        this->mode = MODE_FRA_FRA;
 80a2fb2:	2001      	movs	r0, #1
 80a2fb4:	2404      	movs	r4, #4
 80a2fb6:	e883 0011 	stmia.w	r3, {r0, r4}
        this->fuzzyRuleAntecedent1 = fuzzyRuleAntecedent1;
 80a2fba:	6119      	str	r1, [r3, #16]
        this->fuzzyRuleAntecedent2 = fuzzyRuleAntecedent2;
 80a2fbc:	615a      	str	r2, [r3, #20]
        return true;
 80a2fbe:	bd10      	pop	{r4, pc}
    }
    return false;
 80a2fc0:	4608      	mov	r0, r1
 80a2fc2:	bd10      	pop	{r4, pc}
 80a2fc4:	4610      	mov	r0, r2
}
 80a2fc6:	bd10      	pop	{r4, pc}

080a2fc8 <_ZN19FuzzyRuleAntecedent8evaluateEv>:
        return true;
    }
    return false;
}

float FuzzyRuleAntecedent::evaluate(){
 80a2fc8:	b538      	push	{r3, r4, r5, lr}
 80a2fca:	4604      	mov	r4, r0
    switch(this->mode){
 80a2fcc:	6863      	ldr	r3, [r4, #4]
 80a2fce:	3b01      	subs	r3, #1
 80a2fd0:	2b03      	cmp	r3, #3
 80a2fd2:	f200 80ce 	bhi.w	80a3172 <_ZN19FuzzyRuleAntecedent8evaluateEv+0x1aa>
 80a2fd6:	e8df f003 	tbb	[pc, r3]
 80a2fda:	0276      	.short	0x0276
 80a2fdc:	7b37      	.short	0x7b37
        case MODE_FS:
            return this->fuzzySet1->getPertinence();
            break;
        case MODE_FS_FS:
            switch(this->op){
 80a2fde:	6823      	ldr	r3, [r4, #0]
 80a2fe0:	2b01      	cmp	r3, #1
 80a2fe2:	d002      	beq.n	80a2fea <_ZN19FuzzyRuleAntecedent8evaluateEv+0x22>
 80a2fe4:	2b02      	cmp	r3, #2
 80a2fe6:	d01e      	beq.n	80a3026 <_ZN19FuzzyRuleAntecedent8evaluateEv+0x5e>
 80a2fe8:	e0c3      	b.n	80a3172 <_ZN19FuzzyRuleAntecedent8evaluateEv+0x1aa>
                case OP_AND:
                    if(this->fuzzySet1->getPertinence() > 0.0 && this->fuzzySet2->getPertinence() > 0.0){
 80a2fea:	68a0      	ldr	r0, [r4, #8]
 80a2fec:	f7ff ff0b 	bl	80a2e06 <_ZN8FuzzySet13getPertinenceEv>
 80a2ff0:	2100      	movs	r1, #0
 80a2ff2:	f001 ffed 	bl	80a4fd0 <__aeabi_fcmpgt>
 80a2ff6:	2800      	cmp	r0, #0
 80a2ff8:	f000 80bb 	beq.w	80a3172 <_ZN19FuzzyRuleAntecedent8evaluateEv+0x1aa>
 80a2ffc:	68e0      	ldr	r0, [r4, #12]
 80a2ffe:	f7ff ff02 	bl	80a2e06 <_ZN8FuzzySet13getPertinenceEv>
 80a3002:	2100      	movs	r1, #0
 80a3004:	f001 ffe4 	bl	80a4fd0 <__aeabi_fcmpgt>
 80a3008:	2800      	cmp	r0, #0
 80a300a:	f000 80b2 	beq.w	80a3172 <_ZN19FuzzyRuleAntecedent8evaluateEv+0x1aa>
                        if(this->fuzzySet1->getPertinence() < this->fuzzySet2->getPertinence()){
 80a300e:	68a0      	ldr	r0, [r4, #8]
 80a3010:	f7ff fef9 	bl	80a2e06 <_ZN8FuzzySet13getPertinenceEv>
 80a3014:	4605      	mov	r5, r0
 80a3016:	68e0      	ldr	r0, [r4, #12]
 80a3018:	f7ff fef5 	bl	80a2e06 <_ZN8FuzzySet13getPertinenceEv>
 80a301c:	4601      	mov	r1, r0
 80a301e:	4628      	mov	r0, r5
 80a3020:	f001 ffb8 	bl	80a4f94 <__aeabi_fcmplt>
 80a3024:	e090      	b.n	80a3148 <_ZN19FuzzyRuleAntecedent8evaluateEv+0x180>
                    }else{
                        return 0.0;
                    }
                    break;
                case OP_OR:
                    if(this->fuzzySet1->getPertinence() > 0.0 || this->fuzzySet2->getPertinence() > 0.0){
 80a3026:	68a0      	ldr	r0, [r4, #8]
 80a3028:	f7ff feed 	bl	80a2e06 <_ZN8FuzzySet13getPertinenceEv>
 80a302c:	2100      	movs	r1, #0
 80a302e:	f001 ffcf 	bl	80a4fd0 <__aeabi_fcmpgt>
 80a3032:	2800      	cmp	r0, #0
 80a3034:	d17d      	bne.n	80a3132 <_ZN19FuzzyRuleAntecedent8evaluateEv+0x16a>
 80a3036:	68e0      	ldr	r0, [r4, #12]
 80a3038:	f7ff fee5 	bl	80a2e06 <_ZN8FuzzySet13getPertinenceEv>
 80a303c:	2100      	movs	r1, #0
 80a303e:	f001 ffc7 	bl	80a4fd0 <__aeabi_fcmpgt>
 80a3042:	2800      	cmp	r0, #0
 80a3044:	d175      	bne.n	80a3132 <_ZN19FuzzyRuleAntecedent8evaluateEv+0x16a>
 80a3046:	e094      	b.n	80a3172 <_ZN19FuzzyRuleAntecedent8evaluateEv+0x1aa>
                default:
                    return 0.0;
            }
            break;
        case MODE_FS_FRA:
            switch(this->op){
 80a3048:	6823      	ldr	r3, [r4, #0]
 80a304a:	2b01      	cmp	r3, #1
 80a304c:	d002      	beq.n	80a3054 <_ZN19FuzzyRuleAntecedent8evaluateEv+0x8c>
 80a304e:	2b02      	cmp	r3, #2
 80a3050:	d01d      	beq.n	80a308e <_ZN19FuzzyRuleAntecedent8evaluateEv+0xc6>
 80a3052:	e08e      	b.n	80a3172 <_ZN19FuzzyRuleAntecedent8evaluateEv+0x1aa>
                case OP_AND:
                    if(this->fuzzySet1->getPertinence() > 0.0 && fuzzyRuleAntecedent1->evaluate() > 0.0){
 80a3054:	68a0      	ldr	r0, [r4, #8]
 80a3056:	f7ff fed6 	bl	80a2e06 <_ZN8FuzzySet13getPertinenceEv>
 80a305a:	2100      	movs	r1, #0
 80a305c:	f001 ffb8 	bl	80a4fd0 <__aeabi_fcmpgt>
 80a3060:	2800      	cmp	r0, #0
 80a3062:	f000 8086 	beq.w	80a3172 <_ZN19FuzzyRuleAntecedent8evaluateEv+0x1aa>
 80a3066:	6920      	ldr	r0, [r4, #16]
 80a3068:	f7ff ffae 	bl	80a2fc8 <_ZN19FuzzyRuleAntecedent8evaluateEv>
 80a306c:	2100      	movs	r1, #0
 80a306e:	f001 ffaf 	bl	80a4fd0 <__aeabi_fcmpgt>
 80a3072:	2800      	cmp	r0, #0
 80a3074:	d07d      	beq.n	80a3172 <_ZN19FuzzyRuleAntecedent8evaluateEv+0x1aa>
                        if(this->fuzzySet1->getPertinence() < fuzzyRuleAntecedent1->evaluate()){
 80a3076:	68a0      	ldr	r0, [r4, #8]
 80a3078:	f7ff fec5 	bl	80a2e06 <_ZN8FuzzySet13getPertinenceEv>
 80a307c:	4605      	mov	r5, r0
 80a307e:	6920      	ldr	r0, [r4, #16]
 80a3080:	f7ff ffa2 	bl	80a2fc8 <_ZN19FuzzyRuleAntecedent8evaluateEv>
 80a3084:	4601      	mov	r1, r0
 80a3086:	4628      	mov	r0, r5
 80a3088:	f001 ff84 	bl	80a4f94 <__aeabi_fcmplt>
 80a308c:	e019      	b.n	80a30c2 <_ZN19FuzzyRuleAntecedent8evaluateEv+0xfa>
                    }else{
                        return 0.0;
                    }
                    break;
                case OP_OR:
                    if(this->fuzzySet1->getPertinence() > 0.0 || fuzzyRuleAntecedent1->evaluate() > 0.0){
 80a308e:	68a0      	ldr	r0, [r4, #8]
 80a3090:	f7ff feb9 	bl	80a2e06 <_ZN8FuzzySet13getPertinenceEv>
 80a3094:	2100      	movs	r1, #0
 80a3096:	f001 ff9b 	bl	80a4fd0 <__aeabi_fcmpgt>
 80a309a:	b938      	cbnz	r0, 80a30ac <_ZN19FuzzyRuleAntecedent8evaluateEv+0xe4>
 80a309c:	6920      	ldr	r0, [r4, #16]
 80a309e:	f7ff ff93 	bl	80a2fc8 <_ZN19FuzzyRuleAntecedent8evaluateEv>
 80a30a2:	2100      	movs	r1, #0
 80a30a4:	f001 ff94 	bl	80a4fd0 <__aeabi_fcmpgt>
 80a30a8:	2800      	cmp	r0, #0
 80a30aa:	d062      	beq.n	80a3172 <_ZN19FuzzyRuleAntecedent8evaluateEv+0x1aa>
                        if(this->fuzzySet1->getPertinence() > fuzzyRuleAntecedent1->evaluate()){
 80a30ac:	68a0      	ldr	r0, [r4, #8]
 80a30ae:	f7ff feaa 	bl	80a2e06 <_ZN8FuzzySet13getPertinenceEv>
 80a30b2:	4605      	mov	r5, r0
 80a30b4:	6920      	ldr	r0, [r4, #16]
 80a30b6:	f7ff ff87 	bl	80a2fc8 <_ZN19FuzzyRuleAntecedent8evaluateEv>
 80a30ba:	4601      	mov	r1, r0
 80a30bc:	4628      	mov	r0, r5
 80a30be:	f001 ff87 	bl	80a4fd0 <__aeabi_fcmpgt>
 80a30c2:	2800      	cmp	r0, #0
 80a30c4:	d044      	beq.n	80a3150 <_ZN19FuzzyRuleAntecedent8evaluateEv+0x188>
                            return this->fuzzySet1->getPertinence();
 80a30c6:	68a0      	ldr	r0, [r4, #8]
            break;
        default:
            return 0.0;
    }
    return 0.0;
 80a30c8:	e8bd 4038 	ldmia.w	sp!, {r3, r4, r5, lr}
                    }
                    break;
                case OP_OR:
                    if(this->fuzzySet1->getPertinence() > 0.0 || fuzzyRuleAntecedent1->evaluate() > 0.0){
                        if(this->fuzzySet1->getPertinence() > fuzzyRuleAntecedent1->evaluate()){
                            return this->fuzzySet1->getPertinence();
 80a30cc:	f7ff be9b 	b.w	80a2e06 <_ZN8FuzzySet13getPertinenceEv>
                default:
                    return 0.0;
            }
            break;
        case MODE_FRA_FRA:
            switch(this->op){
 80a30d0:	6823      	ldr	r3, [r4, #0]
 80a30d2:	2b01      	cmp	r3, #1
 80a30d4:	d002      	beq.n	80a30dc <_ZN19FuzzyRuleAntecedent8evaluateEv+0x114>
 80a30d6:	2b02      	cmp	r3, #2
 80a30d8:	d01c      	beq.n	80a3114 <_ZN19FuzzyRuleAntecedent8evaluateEv+0x14c>
 80a30da:	e04a      	b.n	80a3172 <_ZN19FuzzyRuleAntecedent8evaluateEv+0x1aa>
                case OP_AND:
                    if(fuzzyRuleAntecedent1->evaluate() > 0.0 && fuzzyRuleAntecedent2->evaluate() > 0.0){
 80a30dc:	6920      	ldr	r0, [r4, #16]
 80a30de:	f7ff ff73 	bl	80a2fc8 <_ZN19FuzzyRuleAntecedent8evaluateEv>
 80a30e2:	2100      	movs	r1, #0
 80a30e4:	f001 ff74 	bl	80a4fd0 <__aeabi_fcmpgt>
 80a30e8:	2800      	cmp	r0, #0
 80a30ea:	d042      	beq.n	80a3172 <_ZN19FuzzyRuleAntecedent8evaluateEv+0x1aa>
 80a30ec:	6960      	ldr	r0, [r4, #20]
 80a30ee:	f7ff ff6b 	bl	80a2fc8 <_ZN19FuzzyRuleAntecedent8evaluateEv>
 80a30f2:	2100      	movs	r1, #0
 80a30f4:	f001 ff6c 	bl	80a4fd0 <__aeabi_fcmpgt>
 80a30f8:	2800      	cmp	r0, #0
 80a30fa:	d03a      	beq.n	80a3172 <_ZN19FuzzyRuleAntecedent8evaluateEv+0x1aa>
                        if(fuzzyRuleAntecedent1->evaluate() < fuzzyRuleAntecedent2->evaluate()){
 80a30fc:	6920      	ldr	r0, [r4, #16]
 80a30fe:	f7ff ff63 	bl	80a2fc8 <_ZN19FuzzyRuleAntecedent8evaluateEv>
 80a3102:	4605      	mov	r5, r0
 80a3104:	6960      	ldr	r0, [r4, #20]
 80a3106:	f7ff ff5f 	bl	80a2fc8 <_ZN19FuzzyRuleAntecedent8evaluateEv>
 80a310a:	4601      	mov	r1, r0
 80a310c:	4628      	mov	r0, r5
 80a310e:	f001 ff41 	bl	80a4f94 <__aeabi_fcmplt>
 80a3112:	e02a      	b.n	80a316a <_ZN19FuzzyRuleAntecedent8evaluateEv+0x1a2>
                    }else{
                        return 0.0;
                    }
                    break;
                case OP_OR:
                    if(fuzzyRuleAntecedent1->evaluate() > 0.0 || fuzzyRuleAntecedent2->evaluate() > 0.0){
 80a3114:	6920      	ldr	r0, [r4, #16]
 80a3116:	f7ff ff57 	bl	80a2fc8 <_ZN19FuzzyRuleAntecedent8evaluateEv>
 80a311a:	2100      	movs	r1, #0
 80a311c:	f001 ff58 	bl	80a4fd0 <__aeabi_fcmpgt>
 80a3120:	b9c0      	cbnz	r0, 80a3154 <_ZN19FuzzyRuleAntecedent8evaluateEv+0x18c>
 80a3122:	6960      	ldr	r0, [r4, #20]
 80a3124:	f7ff ff50 	bl	80a2fc8 <_ZN19FuzzyRuleAntecedent8evaluateEv>
 80a3128:	2100      	movs	r1, #0
 80a312a:	f001 ff51 	bl	80a4fd0 <__aeabi_fcmpgt>
 80a312e:	b988      	cbnz	r0, 80a3154 <_ZN19FuzzyRuleAntecedent8evaluateEv+0x18c>
 80a3130:	e01f      	b.n	80a3172 <_ZN19FuzzyRuleAntecedent8evaluateEv+0x1aa>
                        return 0.0;
                    }
                    break;
                case OP_OR:
                    if(this->fuzzySet1->getPertinence() > 0.0 || this->fuzzySet2->getPertinence() > 0.0){
                        if(this->fuzzySet1->getPertinence() > this->fuzzySet2->getPertinence()){
 80a3132:	68a0      	ldr	r0, [r4, #8]
 80a3134:	f7ff fe67 	bl	80a2e06 <_ZN8FuzzySet13getPertinenceEv>
 80a3138:	4605      	mov	r5, r0
 80a313a:	68e0      	ldr	r0, [r4, #12]
 80a313c:	f7ff fe63 	bl	80a2e06 <_ZN8FuzzySet13getPertinenceEv>
 80a3140:	4601      	mov	r1, r0
 80a3142:	4628      	mov	r0, r5
 80a3144:	f001 ff44 	bl	80a4fd0 <__aeabi_fcmpgt>
 80a3148:	2800      	cmp	r0, #0
 80a314a:	d1bc      	bne.n	80a30c6 <_ZN19FuzzyRuleAntecedent8evaluateEv+0xfe>
                            return this->fuzzySet1->getPertinence();
                        }else{
                            return this->fuzzySet2->getPertinence();
 80a314c:	68e0      	ldr	r0, [r4, #12]
 80a314e:	e7bb      	b.n	80a30c8 <_ZN19FuzzyRuleAntecedent8evaluateEv+0x100>
                    }
                    break;
                case OP_OR:
                    if(fuzzyRuleAntecedent1->evaluate() > 0.0 || fuzzyRuleAntecedent2->evaluate() > 0.0){
                        if(fuzzyRuleAntecedent1->evaluate() > fuzzyRuleAntecedent2->evaluate()){
                            return fuzzyRuleAntecedent1->evaluate();
 80a3150:	6924      	ldr	r4, [r4, #16]
 80a3152:	e73b      	b.n	80a2fcc <_ZN19FuzzyRuleAntecedent8evaluateEv+0x4>
                        return 0.0;
                    }
                    break;
                case OP_OR:
                    if(fuzzyRuleAntecedent1->evaluate() > 0.0 || fuzzyRuleAntecedent2->evaluate() > 0.0){
                        if(fuzzyRuleAntecedent1->evaluate() > fuzzyRuleAntecedent2->evaluate()){
 80a3154:	6920      	ldr	r0, [r4, #16]
 80a3156:	f7ff ff37 	bl	80a2fc8 <_ZN19FuzzyRuleAntecedent8evaluateEv>
 80a315a:	4605      	mov	r5, r0
 80a315c:	6960      	ldr	r0, [r4, #20]
 80a315e:	f7ff ff33 	bl	80a2fc8 <_ZN19FuzzyRuleAntecedent8evaluateEv>
 80a3162:	4601      	mov	r1, r0
 80a3164:	4628      	mov	r0, r5
 80a3166:	f001 ff33 	bl	80a4fd0 <__aeabi_fcmpgt>
 80a316a:	2800      	cmp	r0, #0
 80a316c:	d1f0      	bne.n	80a3150 <_ZN19FuzzyRuleAntecedent8evaluateEv+0x188>
                            return fuzzyRuleAntecedent1->evaluate();
                        }else{
                            return fuzzyRuleAntecedent2->evaluate();
 80a316e:	6964      	ldr	r4, [r4, #20]
 80a3170:	e72c      	b.n	80a2fcc <_ZN19FuzzyRuleAntecedent8evaluateEv+0x4>
            break;
        default:
            return 0.0;
    }
    return 0.0;
 80a3172:	2000      	movs	r0, #0
 80a3174:	bd38      	pop	{r3, r4, r5, pc}
	...

080a3178 <HAL_Pin_Map>:
// New HAL functions must be added to the end of this list.
// GNINRAW

DYNALIB_BEGIN(hal_gpio)

DYNALIB_FN(0, hal_gpio, HAL_Pin_Map, STM32_Pin_Info*(void))
 80a3178:	b508      	push	{r3, lr}
 80a317a:	4b02      	ldr	r3, [pc, #8]	; (80a3184 <HAL_Pin_Map+0xc>)
 80a317c:	681b      	ldr	r3, [r3, #0]
 80a317e:	681b      	ldr	r3, [r3, #0]
 80a3180:	9301      	str	r3, [sp, #4]
 80a3182:	bd08      	pop	{r3, pc}
 80a3184:	080601b0 	.word	0x080601b0

080a3188 <HAL_Validate_Pin_Function>:
DYNALIB_FN(1, hal_gpio, HAL_Validate_Pin_Function, PinFunction(pin_t, PinFunction))
 80a3188:	b508      	push	{r3, lr}
 80a318a:	4b02      	ldr	r3, [pc, #8]	; (80a3194 <HAL_Validate_Pin_Function+0xc>)
 80a318c:	681b      	ldr	r3, [r3, #0]
 80a318e:	685b      	ldr	r3, [r3, #4]
 80a3190:	9301      	str	r3, [sp, #4]
 80a3192:	bd08      	pop	{r3, pc}
 80a3194:	080601b0 	.word	0x080601b0

080a3198 <HAL_Pin_Mode>:
DYNALIB_FN(2, hal_gpio, HAL_Pin_Mode, void(pin_t, PinMode))
 80a3198:	b508      	push	{r3, lr}
 80a319a:	4b02      	ldr	r3, [pc, #8]	; (80a31a4 <HAL_Pin_Mode+0xc>)
 80a319c:	681b      	ldr	r3, [r3, #0]
 80a319e:	689b      	ldr	r3, [r3, #8]
 80a31a0:	9301      	str	r3, [sp, #4]
 80a31a2:	bd08      	pop	{r3, pc}
 80a31a4:	080601b0 	.word	0x080601b0

080a31a8 <HAL_Get_Pin_Mode>:
DYNALIB_FN(3, hal_gpio, HAL_Get_Pin_Mode, PinMode(pin_t))
 80a31a8:	b508      	push	{r3, lr}
 80a31aa:	4b02      	ldr	r3, [pc, #8]	; (80a31b4 <HAL_Get_Pin_Mode+0xc>)
 80a31ac:	681b      	ldr	r3, [r3, #0]
 80a31ae:	68db      	ldr	r3, [r3, #12]
 80a31b0:	9301      	str	r3, [sp, #4]
 80a31b2:	bd08      	pop	{r3, pc}
 80a31b4:	080601b0 	.word	0x080601b0

080a31b8 <HAL_GPIO_Write>:
DYNALIB_FN(4, hal_gpio, HAL_GPIO_Write, void(pin_t, uint8_t))
 80a31b8:	b508      	push	{r3, lr}
 80a31ba:	4b02      	ldr	r3, [pc, #8]	; (80a31c4 <HAL_GPIO_Write+0xc>)
 80a31bc:	681b      	ldr	r3, [r3, #0]
 80a31be:	691b      	ldr	r3, [r3, #16]
 80a31c0:	9301      	str	r3, [sp, #4]
 80a31c2:	bd08      	pop	{r3, pc}
 80a31c4:	080601b0 	.word	0x080601b0

080a31c8 <HAL_GPIO_Read>:
DYNALIB_FN(5, hal_gpio, HAL_GPIO_Read, int32_t(pin_t))
 80a31c8:	b508      	push	{r3, lr}
 80a31ca:	4b02      	ldr	r3, [pc, #8]	; (80a31d4 <HAL_GPIO_Read+0xc>)
 80a31cc:	681b      	ldr	r3, [r3, #0]
 80a31ce:	695b      	ldr	r3, [r3, #20]
 80a31d0:	9301      	str	r3, [sp, #4]
 80a31d2:	bd08      	pop	{r3, pc}
 80a31d4:	080601b0 	.word	0x080601b0

080a31d8 <HAL_Interrupts_Attach>:
DYNALIB_FN(6, hal_gpio, HAL_Interrupts_Attach, void(uint16_t, HAL_InterruptHandler, void*, InterruptMode, HAL_InterruptExtraConfiguration*))
 80a31d8:	b508      	push	{r3, lr}
 80a31da:	4b02      	ldr	r3, [pc, #8]	; (80a31e4 <HAL_Interrupts_Attach+0xc>)
 80a31dc:	681b      	ldr	r3, [r3, #0]
 80a31de:	699b      	ldr	r3, [r3, #24]
 80a31e0:	9301      	str	r3, [sp, #4]
 80a31e2:	bd08      	pop	{r3, pc}
 80a31e4:	080601b0 	.word	0x080601b0

080a31e8 <HAL_Interrupts_Detach>:
DYNALIB_FN(7, hal_gpio, HAL_Interrupts_Detach, void(uint16_t))
 80a31e8:	b508      	push	{r3, lr}
 80a31ea:	4b02      	ldr	r3, [pc, #8]	; (80a31f4 <HAL_Interrupts_Detach+0xc>)
 80a31ec:	681b      	ldr	r3, [r3, #0]
 80a31ee:	69db      	ldr	r3, [r3, #28]
 80a31f0:	9301      	str	r3, [sp, #4]
 80a31f2:	bd08      	pop	{r3, pc}
 80a31f4:	080601b0 	.word	0x080601b0

080a31f8 <HAL_SPI_Init>:
DYNALIB_FN(2, hal_spi, HAL_SPI_Set_Bit_Order, void(HAL_SPI_Interface, uint8_t))
DYNALIB_FN(3, hal_spi, HAL_SPI_Set_Data_Mode, void(HAL_SPI_Interface, uint8_t))
DYNALIB_FN(4, hal_spi, HAL_SPI_Set_Clock_Divider, void(HAL_SPI_Interface, uint8_t))
DYNALIB_FN(5, hal_spi, HAL_SPI_Send_Receive_Data, uint16_t(HAL_SPI_Interface, uint16_t))
DYNALIB_FN(6, hal_spi, HAL_SPI_Is_Enabled_Old, bool(void))
DYNALIB_FN(7, hal_spi, HAL_SPI_Init, void(HAL_SPI_Interface))
 80a31f8:	b508      	push	{r3, lr}
 80a31fa:	4b02      	ldr	r3, [pc, #8]	; (80a3204 <HAL_SPI_Init+0xc>)
 80a31fc:	681b      	ldr	r3, [r3, #0]
 80a31fe:	69db      	ldr	r3, [r3, #28]
 80a3200:	9301      	str	r3, [sp, #4]
 80a3202:	bd08      	pop	{r3, pc}
 80a3204:	080601b4 	.word	0x080601b4

080a3208 <HAL_SPI_Is_Enabled>:
DYNALIB_FN(8, hal_spi, HAL_SPI_Is_Enabled, bool(HAL_SPI_Interface))
 80a3208:	b508      	push	{r3, lr}
 80a320a:	4b02      	ldr	r3, [pc, #8]	; (80a3214 <HAL_SPI_Is_Enabled+0xc>)
 80a320c:	681b      	ldr	r3, [r3, #0]
 80a320e:	6a1b      	ldr	r3, [r3, #32]
 80a3210:	9301      	str	r3, [sp, #4]
 80a3212:	bd08      	pop	{r3, pc}
 80a3214:	080601b4 	.word	0x080601b4

080a3218 <HAL_RNG_GetRandomNumber>:

DYNALIB_BEGIN(hal)

#if PLATFORM_ID > 3
DYNALIB_FN(0, hal, HAL_RNG_Configuration, void(void))
DYNALIB_FN(1, hal, HAL_RNG_GetRandomNumber, uint32_t(void))
 80a3218:	b508      	push	{r3, lr}
 80a321a:	4b02      	ldr	r3, [pc, #8]	; (80a3224 <HAL_RNG_GetRandomNumber+0xc>)
 80a321c:	681b      	ldr	r3, [r3, #0]
 80a321e:	685b      	ldr	r3, [r3, #4]
 80a3220:	9301      	str	r3, [sp, #4]
 80a3222:	bd08      	pop	{r3, pc}
 80a3224:	0806019c 	.word	0x0806019c

080a3228 <HAL_Timer_Get_Milli_Seconds>:
#endif

DYNALIB_FN(BASE_IDX + 0, hal, HAL_Delay_Milliseconds, void(uint32_t))
DYNALIB_FN(BASE_IDX + 1, hal, HAL_Delay_Microseconds, void(uint32_t))
DYNALIB_FN(BASE_IDX + 2, hal, HAL_Timer_Get_Micro_Seconds, system_tick_t(void))
DYNALIB_FN(BASE_IDX + 3, hal, HAL_Timer_Get_Milli_Seconds, system_tick_t(void))
 80a3228:	b508      	push	{r3, lr}
 80a322a:	4b02      	ldr	r3, [pc, #8]	; (80a3234 <HAL_Timer_Get_Milli_Seconds+0xc>)
 80a322c:	681b      	ldr	r3, [r3, #0]
 80a322e:	695b      	ldr	r3, [r3, #20]
 80a3230:	9301      	str	r3, [sp, #4]
 80a3232:	bd08      	pop	{r3, pc}
 80a3234:	0806019c 	.word	0x0806019c

080a3238 <os_mutex_create>:
DYNALIB_FN(8, hal_concurrent, os_timer_create, int(os_timer_t*, unsigned, void(*)(os_timer_t), void*, bool, void*))
DYNALIB_FN(9, hal_concurrent, os_timer_destroy, int(os_timer_t, void*))
DYNALIB_FN(10, hal_concurrent, os_timer_get_id, int(os_timer_t, void**))
DYNALIB_FN(11, hal_concurrent, os_timer_change, int(os_timer_t, os_timer_change_t, bool, unsigned, unsigned, void*))

DYNALIB_FN(12, hal_concurrent, os_mutex_create, int(os_mutex_t*))
 80a3238:	b508      	push	{r3, lr}
 80a323a:	4b02      	ldr	r3, [pc, #8]	; (80a3244 <os_mutex_create+0xc>)
 80a323c:	681b      	ldr	r3, [r3, #0]
 80a323e:	6b1b      	ldr	r3, [r3, #48]	; 0x30
 80a3240:	9301      	str	r3, [sp, #4]
 80a3242:	bd08      	pop	{r3, pc}
 80a3244:	080601d0 	.word	0x080601d0

080a3248 <HAL_USART_Init>:
#define BASE_IDX 6 // Base index for all subsequent functions
#else
#define BASE_IDX 0
#endif

DYNALIB_FN(BASE_IDX + 0, hal_usart, HAL_USART_Init, void(HAL_USART_Serial, Ring_Buffer*, Ring_Buffer*))
 80a3248:	b508      	push	{r3, lr}
 80a324a:	4b02      	ldr	r3, [pc, #8]	; (80a3254 <HAL_USART_Init+0xc>)
 80a324c:	681b      	ldr	r3, [r3, #0]
 80a324e:	699b      	ldr	r3, [r3, #24]
 80a3250:	9301      	str	r3, [sp, #4]
 80a3252:	bd08      	pop	{r3, pc}
 80a3254:	080601c4 	.word	0x080601c4

080a3258 <HAL_USART_Write_Data>:
DYNALIB_FN(BASE_IDX + 1, hal_usart, HAL_USART_Begin, void(HAL_USART_Serial, uint32_t))
DYNALIB_FN(BASE_IDX + 2, hal_usart, HAL_USART_End, void(HAL_USART_Serial))
DYNALIB_FN(BASE_IDX + 3, hal_usart, HAL_USART_Write_Data, uint32_t(HAL_USART_Serial, uint8_t))
 80a3258:	b508      	push	{r3, lr}
 80a325a:	4b02      	ldr	r3, [pc, #8]	; (80a3264 <HAL_USART_Write_Data+0xc>)
 80a325c:	681b      	ldr	r3, [r3, #0]
 80a325e:	6a5b      	ldr	r3, [r3, #36]	; 0x24
 80a3260:	9301      	str	r3, [sp, #4]
 80a3262:	bd08      	pop	{r3, pc}
 80a3264:	080601c4 	.word	0x080601c4

080a3268 <HAL_USART_Available_Data>:
DYNALIB_FN(BASE_IDX + 4, hal_usart, HAL_USART_Available_Data, int32_t(HAL_USART_Serial))
 80a3268:	b508      	push	{r3, lr}
 80a326a:	4b02      	ldr	r3, [pc, #8]	; (80a3274 <HAL_USART_Available_Data+0xc>)
 80a326c:	681b      	ldr	r3, [r3, #0]
 80a326e:	6a9b      	ldr	r3, [r3, #40]	; 0x28
 80a3270:	9301      	str	r3, [sp, #4]
 80a3272:	bd08      	pop	{r3, pc}
 80a3274:	080601c4 	.word	0x080601c4

080a3278 <HAL_USART_Read_Data>:
DYNALIB_FN(BASE_IDX + 5, hal_usart, HAL_USART_Read_Data, int32_t(HAL_USART_Serial))
 80a3278:	b508      	push	{r3, lr}
 80a327a:	4b02      	ldr	r3, [pc, #8]	; (80a3284 <HAL_USART_Read_Data+0xc>)
 80a327c:	681b      	ldr	r3, [r3, #0]
 80a327e:	6adb      	ldr	r3, [r3, #44]	; 0x2c
 80a3280:	9301      	str	r3, [sp, #4]
 80a3282:	bd08      	pop	{r3, pc}
 80a3284:	080601c4 	.word	0x080601c4

080a3288 <HAL_USART_Peek_Data>:
DYNALIB_FN(BASE_IDX + 6, hal_usart, HAL_USART_Peek_Data, int32_t(HAL_USART_Serial))
 80a3288:	b508      	push	{r3, lr}
 80a328a:	4b02      	ldr	r3, [pc, #8]	; (80a3294 <HAL_USART_Peek_Data+0xc>)
 80a328c:	681b      	ldr	r3, [r3, #0]
 80a328e:	6b1b      	ldr	r3, [r3, #48]	; 0x30
 80a3290:	9301      	str	r3, [sp, #4]
 80a3292:	bd08      	pop	{r3, pc}
 80a3294:	080601c4 	.word	0x080601c4

080a3298 <HAL_USART_Flush_Data>:
DYNALIB_FN(BASE_IDX + 7, hal_usart, HAL_USART_Flush_Data, void(HAL_USART_Serial))
 80a3298:	b508      	push	{r3, lr}
 80a329a:	4b02      	ldr	r3, [pc, #8]	; (80a32a4 <HAL_USART_Flush_Data+0xc>)
 80a329c:	681b      	ldr	r3, [r3, #0]
 80a329e:	6b5b      	ldr	r3, [r3, #52]	; 0x34
 80a32a0:	9301      	str	r3, [sp, #4]
 80a32a2:	bd08      	pop	{r3, pc}
 80a32a4:	080601c4 	.word	0x080601c4

080a32a8 <HAL_USART_Is_Enabled>:
DYNALIB_FN(BASE_IDX + 8, hal_usart, HAL_USART_Is_Enabled, bool(HAL_USART_Serial))
 80a32a8:	b508      	push	{r3, lr}
 80a32aa:	4b02      	ldr	r3, [pc, #8]	; (80a32b4 <HAL_USART_Is_Enabled+0xc>)
 80a32ac:	681b      	ldr	r3, [r3, #0]
 80a32ae:	6b9b      	ldr	r3, [r3, #56]	; 0x38
 80a32b0:	9301      	str	r3, [sp, #4]
 80a32b2:	bd08      	pop	{r3, pc}
 80a32b4:	080601c4 	.word	0x080601c4

080a32b8 <HAL_USART_Available_Data_For_Write>:
DYNALIB_FN(BASE_IDX + 9, hal_usart, HAL_USART_Half_Duplex, void(HAL_USART_Serial, bool))
DYNALIB_FN(BASE_IDX + 10, hal_usart, HAL_USART_Available_Data_For_Write, int32_t(HAL_USART_Serial))
 80a32b8:	b508      	push	{r3, lr}
 80a32ba:	4b02      	ldr	r3, [pc, #8]	; (80a32c4 <HAL_USART_Available_Data_For_Write+0xc>)
 80a32bc:	681b      	ldr	r3, [r3, #0]
 80a32be:	6c1b      	ldr	r3, [r3, #64]	; 0x40
 80a32c0:	9301      	str	r3, [sp, #4]
 80a32c2:	bd08      	pop	{r3, pc}
 80a32c4:	080601c4 	.word	0x080601c4

080a32c8 <HAL_I2C_Set_Speed>:
#define BASE_IDX 16 // Base index for all subsequent functions
#else
#define BASE_IDX 0
#endif

DYNALIB_FN(BASE_IDX + 0, hal_i2c, HAL_I2C_Set_Speed, void(HAL_I2C_Interface, uint32_t, void*))
 80a32c8:	b508      	push	{r3, lr}
 80a32ca:	4b02      	ldr	r3, [pc, #8]	; (80a32d4 <HAL_I2C_Set_Speed+0xc>)
 80a32cc:	681b      	ldr	r3, [r3, #0]
 80a32ce:	6c1b      	ldr	r3, [r3, #64]	; 0x40
 80a32d0:	9301      	str	r3, [sp, #4]
 80a32d2:	bd08      	pop	{r3, pc}
 80a32d4:	080601ac 	.word	0x080601ac

080a32d8 <HAL_I2C_Begin>:
DYNALIB_FN(BASE_IDX + 1, hal_i2c, HAL_I2C_Enable_DMA_Mode, void(HAL_I2C_Interface, bool, void*))
DYNALIB_FN(BASE_IDX + 2, hal_i2c, HAL_I2C_Stretch_Clock, void(HAL_I2C_Interface, bool, void*))
DYNALIB_FN(BASE_IDX + 3, hal_i2c, HAL_I2C_Begin, void(HAL_I2C_Interface, I2C_Mode, uint8_t, void*))
 80a32d8:	b508      	push	{r3, lr}
 80a32da:	4b02      	ldr	r3, [pc, #8]	; (80a32e4 <HAL_I2C_Begin+0xc>)
 80a32dc:	681b      	ldr	r3, [r3, #0]
 80a32de:	6cdb      	ldr	r3, [r3, #76]	; 0x4c
 80a32e0:	9301      	str	r3, [sp, #4]
 80a32e2:	bd08      	pop	{r3, pc}
 80a32e4:	080601ac 	.word	0x080601ac

080a32e8 <HAL_I2C_Request_Data>:
DYNALIB_FN(BASE_IDX + 4, hal_i2c, HAL_I2C_End, void(HAL_I2C_Interface, void*))
DYNALIB_FN(BASE_IDX + 5, hal_i2c, HAL_I2C_Request_Data, uint32_t(HAL_I2C_Interface, uint8_t, uint8_t, uint8_t, void*))
 80a32e8:	b508      	push	{r3, lr}
 80a32ea:	4b02      	ldr	r3, [pc, #8]	; (80a32f4 <HAL_I2C_Request_Data+0xc>)
 80a32ec:	681b      	ldr	r3, [r3, #0]
 80a32ee:	6d5b      	ldr	r3, [r3, #84]	; 0x54
 80a32f0:	9301      	str	r3, [sp, #4]
 80a32f2:	bd08      	pop	{r3, pc}
 80a32f4:	080601ac 	.word	0x080601ac

080a32f8 <HAL_I2C_Begin_Transmission>:
DYNALIB_FN(BASE_IDX + 6, hal_i2c, HAL_I2C_Begin_Transmission, void(HAL_I2C_Interface, uint8_t, void*))
 80a32f8:	b508      	push	{r3, lr}
 80a32fa:	4b02      	ldr	r3, [pc, #8]	; (80a3304 <HAL_I2C_Begin_Transmission+0xc>)
 80a32fc:	681b      	ldr	r3, [r3, #0]
 80a32fe:	6d9b      	ldr	r3, [r3, #88]	; 0x58
 80a3300:	9301      	str	r3, [sp, #4]
 80a3302:	bd08      	pop	{r3, pc}
 80a3304:	080601ac 	.word	0x080601ac

080a3308 <HAL_I2C_End_Transmission>:
DYNALIB_FN(BASE_IDX + 7, hal_i2c, HAL_I2C_End_Transmission, uint8_t(HAL_I2C_Interface, uint8_t, void*))
 80a3308:	b508      	push	{r3, lr}
 80a330a:	4b02      	ldr	r3, [pc, #8]	; (80a3314 <HAL_I2C_End_Transmission+0xc>)
 80a330c:	681b      	ldr	r3, [r3, #0]
 80a330e:	6ddb      	ldr	r3, [r3, #92]	; 0x5c
 80a3310:	9301      	str	r3, [sp, #4]
 80a3312:	bd08      	pop	{r3, pc}
 80a3314:	080601ac 	.word	0x080601ac

080a3318 <HAL_I2C_Write_Data>:
DYNALIB_FN(BASE_IDX + 8, hal_i2c, HAL_I2C_Write_Data, uint32_t(HAL_I2C_Interface, uint8_t, void*))
 80a3318:	b508      	push	{r3, lr}
 80a331a:	4b02      	ldr	r3, [pc, #8]	; (80a3324 <HAL_I2C_Write_Data+0xc>)
 80a331c:	681b      	ldr	r3, [r3, #0]
 80a331e:	6e1b      	ldr	r3, [r3, #96]	; 0x60
 80a3320:	9301      	str	r3, [sp, #4]
 80a3322:	bd08      	pop	{r3, pc}
 80a3324:	080601ac 	.word	0x080601ac

080a3328 <HAL_I2C_Available_Data>:
DYNALIB_FN(BASE_IDX + 9, hal_i2c, HAL_I2C_Available_Data, int32_t(HAL_I2C_Interface, void*))
 80a3328:	b508      	push	{r3, lr}
 80a332a:	4b02      	ldr	r3, [pc, #8]	; (80a3334 <HAL_I2C_Available_Data+0xc>)
 80a332c:	681b      	ldr	r3, [r3, #0]
 80a332e:	6e5b      	ldr	r3, [r3, #100]	; 0x64
 80a3330:	9301      	str	r3, [sp, #4]
 80a3332:	bd08      	pop	{r3, pc}
 80a3334:	080601ac 	.word	0x080601ac

080a3338 <HAL_I2C_Read_Data>:
DYNALIB_FN(BASE_IDX + 10, hal_i2c, HAL_I2C_Read_Data, int32_t(HAL_I2C_Interface, void*))
 80a3338:	b508      	push	{r3, lr}
 80a333a:	4b02      	ldr	r3, [pc, #8]	; (80a3344 <HAL_I2C_Read_Data+0xc>)
 80a333c:	681b      	ldr	r3, [r3, #0]
 80a333e:	6e9b      	ldr	r3, [r3, #104]	; 0x68
 80a3340:	9301      	str	r3, [sp, #4]
 80a3342:	bd08      	pop	{r3, pc}
 80a3344:	080601ac 	.word	0x080601ac

080a3348 <HAL_I2C_Peek_Data>:
DYNALIB_FN(BASE_IDX + 11, hal_i2c, HAL_I2C_Peek_Data, int32_t(HAL_I2C_Interface, void*))
 80a3348:	b508      	push	{r3, lr}
 80a334a:	4b02      	ldr	r3, [pc, #8]	; (80a3354 <HAL_I2C_Peek_Data+0xc>)
 80a334c:	681b      	ldr	r3, [r3, #0]
 80a334e:	6edb      	ldr	r3, [r3, #108]	; 0x6c
 80a3350:	9301      	str	r3, [sp, #4]
 80a3352:	bd08      	pop	{r3, pc}
 80a3354:	080601ac 	.word	0x080601ac

080a3358 <HAL_I2C_Flush_Data>:
DYNALIB_FN(BASE_IDX + 12, hal_i2c, HAL_I2C_Flush_Data, void(HAL_I2C_Interface, void*))
 80a3358:	b508      	push	{r3, lr}
 80a335a:	4b02      	ldr	r3, [pc, #8]	; (80a3364 <HAL_I2C_Flush_Data+0xc>)
 80a335c:	681b      	ldr	r3, [r3, #0]
 80a335e:	6f1b      	ldr	r3, [r3, #112]	; 0x70
 80a3360:	9301      	str	r3, [sp, #4]
 80a3362:	bd08      	pop	{r3, pc}
 80a3364:	080601ac 	.word	0x080601ac

080a3368 <HAL_I2C_Is_Enabled>:
DYNALIB_FN(BASE_IDX + 13, hal_i2c, HAL_I2C_Is_Enabled, bool(HAL_I2C_Interface, void*))
 80a3368:	b508      	push	{r3, lr}
 80a336a:	4b02      	ldr	r3, [pc, #8]	; (80a3374 <HAL_I2C_Is_Enabled+0xc>)
 80a336c:	681b      	ldr	r3, [r3, #0]
 80a336e:	6f5b      	ldr	r3, [r3, #116]	; 0x74
 80a3370:	9301      	str	r3, [sp, #4]
 80a3372:	bd08      	pop	{r3, pc}
 80a3374:	080601ac 	.word	0x080601ac

080a3378 <HAL_I2C_Init>:
DYNALIB_FN(BASE_IDX + 14, hal_i2c, HAL_I2C_Set_Callback_On_Receive, void(HAL_I2C_Interface, void(*)(int), void*))
DYNALIB_FN(BASE_IDX + 15, hal_i2c, HAL_I2C_Set_Callback_On_Request, void(HAL_I2C_Interface, void(*)(void), void*))
DYNALIB_FN(BASE_IDX + 16, hal_i2c, HAL_I2C_Init, void(HAL_I2C_Interface, void*))
 80a3378:	b508      	push	{r3, lr}
 80a337a:	4b03      	ldr	r3, [pc, #12]	; (80a3388 <HAL_I2C_Init+0x10>)
 80a337c:	681b      	ldr	r3, [r3, #0]
 80a337e:	f8d3 3080 	ldr.w	r3, [r3, #128]	; 0x80
 80a3382:	9301      	str	r3, [sp, #4]
 80a3384:	bd08      	pop	{r3, pc}
 80a3386:	0000      	.short	0x0000
 80a3388:	080601ac 	.word	0x080601ac

080a338c <HAL_Servo_Attach>:
DYNALIB_FN(0, hal_peripherals, HAL_Tone_Start, void(uint8_t, uint32_t, uint32_t))
DYNALIB_FN(1, hal_peripherals, HAL_Tone_Stop, void(uint8_t))
DYNALIB_FN(2, hal_peripherals, HAL_Tone_Get_Frequency, uint32_t(uint8_t))
DYNALIB_FN(3, hal_peripherals, HAL_Tone_Is_Stopped, bool(uint8_t))

DYNALIB_FN(4, hal_peripherals, HAL_Servo_Attach, void(uint16_t))
 80a338c:	b508      	push	{r3, lr}
 80a338e:	4b02      	ldr	r3, [pc, #8]	; (80a3398 <HAL_Servo_Attach+0xc>)
 80a3390:	681b      	ldr	r3, [r3, #0]
 80a3392:	691b      	ldr	r3, [r3, #16]
 80a3394:	9301      	str	r3, [sp, #4]
 80a3396:	bd08      	pop	{r3, pc}
 80a3398:	080601a8 	.word	0x080601a8

080a339c <HAL_Servo_Detach>:
DYNALIB_FN(5, hal_peripherals, HAL_Servo_Detach, void(uint16_t))
 80a339c:	b508      	push	{r3, lr}
 80a339e:	4b02      	ldr	r3, [pc, #8]	; (80a33a8 <HAL_Servo_Detach+0xc>)
 80a33a0:	681b      	ldr	r3, [r3, #0]
 80a33a2:	695b      	ldr	r3, [r3, #20]
 80a33a4:	9301      	str	r3, [sp, #4]
 80a33a6:	bd08      	pop	{r3, pc}
 80a33a8:	080601a8 	.word	0x080601a8

080a33ac <HAL_Servo_Write_Pulse_Width>:
DYNALIB_FN(6, hal_peripherals, HAL_Servo_Write_Pulse_Width, void(uint16_t, uint16_t))
 80a33ac:	b508      	push	{r3, lr}
 80a33ae:	4b02      	ldr	r3, [pc, #8]	; (80a33b8 <HAL_Servo_Write_Pulse_Width+0xc>)
 80a33b0:	681b      	ldr	r3, [r3, #0]
 80a33b2:	699b      	ldr	r3, [r3, #24]
 80a33b4:	9301      	str	r3, [sp, #4]
 80a33b6:	bd08      	pop	{r3, pc}
 80a33b8:	080601a8 	.word	0x080601a8

080a33bc <HAL_USB_USART_Init>:
#endif

DYNALIB_BEGIN(hal_usb)

#ifdef USB_CDC_ENABLE
DYNALIB_FN(0, hal_usb, HAL_USB_USART_Init, void(HAL_USB_USART_Serial, const HAL_USB_USART_Config*))
 80a33bc:	b508      	push	{r3, lr}
 80a33be:	4b02      	ldr	r3, [pc, #8]	; (80a33c8 <HAL_USB_USART_Init+0xc>)
 80a33c0:	681b      	ldr	r3, [r3, #0]
 80a33c2:	681b      	ldr	r3, [r3, #0]
 80a33c4:	9301      	str	r3, [sp, #4]
 80a33c6:	bd08      	pop	{r3, pc}
 80a33c8:	080601d8 	.word	0x080601d8

080a33cc <HAL_USB_USART_Begin>:
DYNALIB_FN(1, hal_usb, HAL_USB_USART_Begin, void(HAL_USB_USART_Serial, uint32_t, void *))
 80a33cc:	b508      	push	{r3, lr}
 80a33ce:	4b02      	ldr	r3, [pc, #8]	; (80a33d8 <HAL_USB_USART_Begin+0xc>)
 80a33d0:	681b      	ldr	r3, [r3, #0]
 80a33d2:	685b      	ldr	r3, [r3, #4]
 80a33d4:	9301      	str	r3, [sp, #4]
 80a33d6:	bd08      	pop	{r3, pc}
 80a33d8:	080601d8 	.word	0x080601d8

080a33dc <HAL_USB_USART_Available_Data>:
DYNALIB_FN(2, hal_usb, HAL_USB_USART_End, void(HAL_USB_USART_Serial))
DYNALIB_FN(3, hal_usb, HAL_USB_USART_Baud_Rate, unsigned int(HAL_USB_USART_Serial))
DYNALIB_FN(4, hal_usb, HAL_USB_USART_Available_Data, int32_t(HAL_USB_USART_Serial))
 80a33dc:	b508      	push	{r3, lr}
 80a33de:	4b02      	ldr	r3, [pc, #8]	; (80a33e8 <HAL_USB_USART_Available_Data+0xc>)
 80a33e0:	681b      	ldr	r3, [r3, #0]
 80a33e2:	691b      	ldr	r3, [r3, #16]
 80a33e4:	9301      	str	r3, [sp, #4]
 80a33e6:	bd08      	pop	{r3, pc}
 80a33e8:	080601d8 	.word	0x080601d8

080a33ec <HAL_USB_USART_Available_Data_For_Write>:
DYNALIB_FN(5, hal_usb, HAL_USB_USART_Available_Data_For_Write, int32_t(HAL_USB_USART_Serial))
 80a33ec:	b508      	push	{r3, lr}
 80a33ee:	4b02      	ldr	r3, [pc, #8]	; (80a33f8 <HAL_USB_USART_Available_Data_For_Write+0xc>)
 80a33f0:	681b      	ldr	r3, [r3, #0]
 80a33f2:	695b      	ldr	r3, [r3, #20]
 80a33f4:	9301      	str	r3, [sp, #4]
 80a33f6:	bd08      	pop	{r3, pc}
 80a33f8:	080601d8 	.word	0x080601d8

080a33fc <HAL_USB_USART_Receive_Data>:
DYNALIB_FN(6, hal_usb, HAL_USB_USART_Receive_Data, int32_t(HAL_USB_USART_Serial, uint8_t))
 80a33fc:	b508      	push	{r3, lr}
 80a33fe:	4b02      	ldr	r3, [pc, #8]	; (80a3408 <HAL_USB_USART_Receive_Data+0xc>)
 80a3400:	681b      	ldr	r3, [r3, #0]
 80a3402:	699b      	ldr	r3, [r3, #24]
 80a3404:	9301      	str	r3, [sp, #4]
 80a3406:	bd08      	pop	{r3, pc}
 80a3408:	080601d8 	.word	0x080601d8

080a340c <HAL_USB_USART_Send_Data>:
DYNALIB_FN(7, hal_usb, HAL_USB_USART_Send_Data, int32_t(HAL_USB_USART_Serial, uint8_t))
 80a340c:	b508      	push	{r3, lr}
 80a340e:	4b02      	ldr	r3, [pc, #8]	; (80a3418 <HAL_USB_USART_Send_Data+0xc>)
 80a3410:	681b      	ldr	r3, [r3, #0]
 80a3412:	69db      	ldr	r3, [r3, #28]
 80a3414:	9301      	str	r3, [sp, #4]
 80a3416:	bd08      	pop	{r3, pc}
 80a3418:	080601d8 	.word	0x080601d8

080a341c <HAL_USB_USART_Flush_Data>:
DYNALIB_FN(8, hal_usb, HAL_USB_USART_Flush_Data, void(HAL_USB_USART_Serial))
 80a341c:	b508      	push	{r3, lr}
 80a341e:	4b02      	ldr	r3, [pc, #8]	; (80a3428 <HAL_USB_USART_Flush_Data+0xc>)
 80a3420:	681b      	ldr	r3, [r3, #0]
 80a3422:	6a1b      	ldr	r3, [r3, #32]
 80a3424:	9301      	str	r3, [sp, #4]
 80a3426:	bd08      	pop	{r3, pc}
 80a3428:	080601d8 	.word	0x080601d8

080a342c <set_system_mode>:
#endif

DYNALIB_BEGIN(system)

DYNALIB_FN(0, system, system_mode, System_Mode_TypeDef(void))
DYNALIB_FN(1, system, set_system_mode, void(System_Mode_TypeDef))
 80a342c:	b508      	push	{r3, lr}
 80a342e:	4b02      	ldr	r3, [pc, #8]	; (80a3438 <set_system_mode+0xc>)
 80a3430:	681b      	ldr	r3, [r3, #0]
 80a3432:	685b      	ldr	r3, [r3, #4]
 80a3434:	9301      	str	r3, [sp, #4]
 80a3436:	bd08      	pop	{r3, pc}
 80a3438:	080601a4 	.word	0x080601a4

080a343c <system_delay_ms>:

DYNALIB_FN(2, system, set_ymodem_serial_flash_update_handler, void(ymodem_serial_flash_update_handler))
DYNALIB_FN(3, system, system_firmwareUpdate, bool(Stream*, void*))
DYNALIB_FN(4, system, system_fileTransfer, bool(system_file_transfer_t*, void*))

DYNALIB_FN(5, system, system_delay_ms, void(unsigned long, bool))
 80a343c:	b508      	push	{r3, lr}
 80a343e:	4b02      	ldr	r3, [pc, #8]	; (80a3448 <system_delay_ms+0xc>)
 80a3440:	681b      	ldr	r3, [r3, #0]
 80a3442:	695b      	ldr	r3, [r3, #20]
 80a3444:	9301      	str	r3, [sp, #4]
 80a3446:	bd08      	pop	{r3, pc}
 80a3448:	080601a4 	.word	0x080601a4

080a344c <system_thread_set_state>:
DYNALIB_FN(6, system, system_sleep, void(Spark_Sleep_TypeDef, long, uint32_t, void*))
DYNALIB_FN(7, system, system_sleep_pin, void(uint16_t, uint16_t, long, uint32_t, void*))
DYNALIB_FN(8, system, system_subscribe_event, int(system_event_t, system_event_handler_t*, void*))
DYNALIB_FN(9, system, system_unsubscribe_event, void(system_event_t, system_event_handler_t*, void*))
DYNALIB_FN(10, system, system_button_pushed_duration, uint16_t(uint8_t, void*))
DYNALIB_FN(11, system, system_thread_set_state, void(spark::feature::State, void*))
 80a344c:	b508      	push	{r3, lr}
 80a344e:	4b02      	ldr	r3, [pc, #8]	; (80a3458 <system_thread_set_state+0xc>)
 80a3450:	681b      	ldr	r3, [r3, #0]
 80a3452:	6adb      	ldr	r3, [r3, #44]	; 0x2c
 80a3454:	9301      	str	r3, [sp, #4]
 80a3456:	bd08      	pop	{r3, pc}
 80a3458:	080601a4 	.word	0x080601a4

080a345c <system_set_usb_request_app_handler>:
DYNALIB_FN(22, system, system_thread_get_state, spark::feature::State(void*))
DYNALIB_FN(23, system, system_notify_time_changed, void(uint32_t, void*, void*))
DYNALIB_FN(24, system, main_thread_current, uint8_t(void*))

#ifdef USB_VENDOR_REQUEST_ENABLE
DYNALIB_FN(25, system, system_set_usb_request_app_handler, void(usb_request_app_handler_type, void*))
 80a345c:	b508      	push	{r3, lr}
 80a345e:	4b02      	ldr	r3, [pc, #8]	; (80a3468 <system_set_usb_request_app_handler+0xc>)
 80a3460:	681b      	ldr	r3, [r3, #0]
 80a3462:	6e5b      	ldr	r3, [r3, #100]	; 0x64
 80a3464:	9301      	str	r3, [sp, #4]
 80a3466:	bd08      	pop	{r3, pc}
 80a3468:	080601a4 	.word	0x080601a4

080a346c <system_set_usb_request_result>:
DYNALIB_FN(26, system, system_set_usb_request_result, void(USBRequest*, int, void*))
 80a346c:	b508      	push	{r3, lr}
 80a346e:	4b02      	ldr	r3, [pc, #8]	; (80a3478 <system_set_usb_request_result+0xc>)
 80a3470:	681b      	ldr	r3, [r3, #0]
 80a3472:	6e9b      	ldr	r3, [r3, #104]	; 0x68
 80a3474:	9301      	str	r3, [sp, #4]
 80a3476:	bd08      	pop	{r3, pc}
 80a3478:	080601a4 	.word	0x080601a4

080a347c <network_ready>:

DYNALIB_FN(0, system_net, network_config, const void*(network_handle_t, uint32_t, void*))
DYNALIB_FN(1, system_net, network_connect, void(network_handle_t, uint32_t, uint32_t, void*))
DYNALIB_FN(2, system_net, network_connecting, bool(network_handle_t, uint32_t, void*))
DYNALIB_FN(3, system_net, network_disconnect, void(network_handle_t, uint32_t, void*))
DYNALIB_FN(4, system_net, network_ready, bool(network_handle_t, uint32_t, void*))
 80a347c:	b508      	push	{r3, lr}
 80a347e:	4b02      	ldr	r3, [pc, #8]	; (80a3488 <network_ready+0xc>)
 80a3480:	681b      	ldr	r3, [r3, #0]
 80a3482:	691b      	ldr	r3, [r3, #16]
 80a3484:	9301      	str	r3, [sp, #4]
 80a3486:	bd08      	pop	{r3, pc}
 80a3488:	080601c8 	.word	0x080601c8

080a348c <malloc>:

#include "dynalib.h"

DYNALIB_BEGIN(rt)

DYNALIB_FN(0, rt, malloc, void*(size_t))
 80a348c:	b508      	push	{r3, lr}
 80a348e:	4b02      	ldr	r3, [pc, #8]	; (80a3498 <malloc+0xc>)
 80a3490:	681b      	ldr	r3, [r3, #0]
 80a3492:	681b      	ldr	r3, [r3, #0]
 80a3494:	9301      	str	r3, [sp, #4]
 80a3496:	bd08      	pop	{r3, pc}
 80a3498:	080601a0 	.word	0x080601a0

080a349c <free>:
DYNALIB_FN(1, rt, free, void(void*))
 80a349c:	b508      	push	{r3, lr}
 80a349e:	4b02      	ldr	r3, [pc, #8]	; (80a34a8 <free+0xc>)
 80a34a0:	681b      	ldr	r3, [r3, #0]
 80a34a2:	685b      	ldr	r3, [r3, #4]
 80a34a4:	9301      	str	r3, [sp, #4]
 80a34a6:	bd08      	pop	{r3, pc}
 80a34a8:	080601a0 	.word	0x080601a0

080a34ac <vsnprintf>:
DYNALIB_FN(4, rt, siprintf, int(char*, const char*, ...))
DYNALIB_FN(5, rt, sscanf, int(const char*, const char*, ...))
DYNALIB_FN(6, rt, siscanf, int(const char*, const char*, ...))
DYNALIB_FN(7, rt, snprintf, int(char*, size_t, const char*, ...))
DYNALIB_FN(8, rt, sniprintf, int(char*, size_t, const char*, ...))
DYNALIB_FN(9, rt, vsnprintf, int(char*, size_t, const char*, va_list))
 80a34ac:	b508      	push	{r3, lr}
 80a34ae:	4b02      	ldr	r3, [pc, #8]	; (80a34b8 <vsnprintf+0xc>)
 80a34b0:	681b      	ldr	r3, [r3, #0]
 80a34b2:	6a5b      	ldr	r3, [r3, #36]	; 0x24
 80a34b4:	9301      	str	r3, [sp, #4]
 80a34b6:	bd08      	pop	{r3, pc}
 80a34b8:	080601a0 	.word	0x080601a0

080a34bc <_ZN8SPIClassD1Ev>:
  Mutex mutex_;
#endif

public:
  SPIClass(HAL_SPI_Interface spi);
  virtual ~SPIClass() {};
 80a34bc:	4770      	bx	lr

080a34be <_ZN8SPIClassD0Ev>:
 80a34be:	b510      	push	{r4, lr}
 80a34c0:	4604      	mov	r4, r0
 80a34c2:	f7fc fdec 	bl	80a009e <_ZdlPv>
 80a34c6:	4620      	mov	r0, r4
 80a34c8:	bd10      	pop	{r4, pc}
	...

080a34cc <_ZN8SPIClassC1E17HAL_SPI_Interface>:
  if (!info->enabled || info->default_settings)
    return particle::__SPISettings();
  return particle::__SPISettings(info->clock, info->bit_order, info->data_mode);
}

SPIClass::SPIClass(HAL_SPI_Interface spi)
 80a34cc:	b570      	push	{r4, r5, r6, lr}
 80a34ce:	4604      	mov	r4, r0
 80a34d0:	460e      	mov	r6, r1
 80a34d2:	4b07      	ldr	r3, [pc, #28]	; (80a34f0 <_ZN8SPIClassC1E17HAL_SPI_Interface+0x24>)
	Mutex(os_mutex_t handle) : handle_(handle) {}

	/**
	 * Creates a new mutex.
	 */
	Mutex() : handle_(nullptr)
 80a34d4:	2500      	movs	r5, #0
 80a34d6:	6003      	str	r3, [r0, #0]
 80a34d8:	f840 5f0c 	str.w	r5, [r0, #12]!
	{
		os_mutex_create(&handle_);
 80a34dc:	f7ff feac 	bl	80a3238 <os_mutex_create>
{
  _spi = spi;
  HAL_SPI_Init(_spi);
 80a34e0:	4630      	mov	r0, r6
  return particle::__SPISettings(info->clock, info->bit_order, info->data_mode);
}

SPIClass::SPIClass(HAL_SPI_Interface spi)
{
  _spi = spi;
 80a34e2:	7126      	strb	r6, [r4, #4]
  HAL_SPI_Init(_spi);
 80a34e4:	f7ff fe88 	bl	80a31f8 <HAL_SPI_Init>
  dividerReference = SPI_CLK_SYSTEM;     // 0 indicates the system clock
 80a34e8:	60a5      	str	r5, [r4, #8]
}
 80a34ea:	4620      	mov	r0, r4
 80a34ec:	bd70      	pop	{r4, r5, r6, pc}
 80a34ee:	bf00      	nop
 80a34f0:	080a51b4 	.word	0x080a51b4

080a34f4 <_ZN8SPIClass9isEnabledEv>:
  //To Do
}

bool SPIClass::isEnabled()
{
  return HAL_SPI_Is_Enabled(_spi);
 80a34f4:	7900      	ldrb	r0, [r0, #4]
 80a34f6:	f7ff be87 	b.w	80a3208 <HAL_SPI_Is_Enabled>

080a34fa <_ZN5Servo17writeMicrosecondsEt>:
  // write(179).
  return a == this->minAngle || a == this->maxAngle ? a : a + 1;
}

void Servo::writeMicroseconds(uint16_t pulseWidth)
{
 80a34fa:	f9b0 2000 	ldrsh.w	r2, [r0]

  if (!this->attached())
 80a34fe:	1c53      	adds	r3, r2, #1
 80a3500:	d00b      	beq.n	80a351a <_ZN5Servo17writeMicrosecondsEt+0x20>
  {
    return;
  }

  pulseWidth = constrain(pulseWidth, this->minPW, this->maxPW);
 80a3502:	8843      	ldrh	r3, [r0, #2]
 80a3504:	8880      	ldrh	r0, [r0, #4]
typename std::common_type<T, U>::type
min (T a, U b) { return static_cast<typename std::common_type<T, U>::type>((a)<(b)?(a):(b)); }

template <typename T, typename U, typename V>
static inline
T constrain (T amt, U low, V high) { return ((amt)<(low)?(low):((amt)>(high)?(high):(amt))); }
 80a3506:	428b      	cmp	r3, r1
 80a3508:	d803      	bhi.n	80a3512 <_ZN5Servo17writeMicrosecondsEt+0x18>
 80a350a:	4288      	cmp	r0, r1
 80a350c:	4603      	mov	r3, r0
 80a350e:	bf28      	it	cs
 80a3510:	460b      	movcs	r3, r1

  HAL_Servo_Write_Pulse_Width(this->pin, pulseWidth);
 80a3512:	4619      	mov	r1, r3
 80a3514:	b290      	uxth	r0, r2
 80a3516:	f7ff bf49 	b.w	80a33ac <HAL_Servo_Write_Pulse_Width>
 80a351a:	4770      	bx	lr

080a351c <_ZN5Servo11resetFieldsEv>:
  return HAL_Servo_Read_Pulse_Width(this->pin);
}

void Servo::resetFields(void)
{
  this->pin = NOT_ATTACHED;
 80a351c:	f64f 73ff 	movw	r3, #65535	; 0xffff
  this->minAngle = SERVO_DEFAULT_MIN_ANGLE;
  this->maxAngle = SERVO_DEFAULT_MAX_ANGLE;
 80a3520:	22b4      	movs	r2, #180	; 0xb4
 80a3522:	8102      	strh	r2, [r0, #8]
  this->minPW = SERVO_DEFAULT_MIN_PW;
 80a3524:	f44f 7208 	mov.w	r2, #544	; 0x220
  return HAL_Servo_Read_Pulse_Width(this->pin);
}

void Servo::resetFields(void)
{
  this->pin = NOT_ATTACHED;
 80a3528:	8003      	strh	r3, [r0, #0]
  this->minAngle = SERVO_DEFAULT_MIN_ANGLE;
  this->maxAngle = SERVO_DEFAULT_MAX_ANGLE;
  this->minPW = SERVO_DEFAULT_MIN_PW;
 80a352a:	8042      	strh	r2, [r0, #2]
}

void Servo::resetFields(void)
{
  this->pin = NOT_ATTACHED;
  this->minAngle = SERVO_DEFAULT_MIN_ANGLE;
 80a352c:	2300      	movs	r3, #0
  this->maxAngle = SERVO_DEFAULT_MAX_ANGLE;
  this->minPW = SERVO_DEFAULT_MIN_PW;
  this->maxPW = SERVO_DEFAULT_MAX_PW;
 80a352e:	f44f 6216 	mov.w	r2, #2400	; 0x960
}

void Servo::resetFields(void)
{
  this->pin = NOT_ATTACHED;
  this->minAngle = SERVO_DEFAULT_MIN_ANGLE;
 80a3532:	80c3      	strh	r3, [r0, #6]
  this->maxAngle = SERVO_DEFAULT_MAX_ANGLE;
  this->minPW = SERVO_DEFAULT_MIN_PW;
  this->maxPW = SERVO_DEFAULT_MAX_PW;
 80a3534:	8082      	strh	r2, [r0, #4]
  this->trim = 0;
 80a3536:	60c3      	str	r3, [r0, #12]
 80a3538:	4770      	bx	lr

080a353a <_ZN5ServoC1Ev>:
#define ANGLE_TO_US(a)    ((uint16_t)(map((a), this->minAngle, this->maxAngle, \
                                        this->minPW, this->maxPW)))
#define US_TO_ANGLE(us)   ((int16_t)(map((us), this->minPW, this->maxPW,  \
                                       this->minAngle, this->maxAngle)))

Servo::Servo()
 80a353a:	b508      	push	{r3, lr}
{
  this->resetFields();
 80a353c:	f7ff ffee 	bl	80a351c <_ZN5Servo11resetFieldsEv>
}
 80a3540:	bd08      	pop	{r3, pc}

080a3542 <_ZN5Servo6detachEv>:

  return true;
}

bool Servo::detach()
{
 80a3542:	b510      	push	{r4, lr}
 80a3544:	4604      	mov	r4, r0
 80a3546:	f9b0 0000 	ldrsh.w	r0, [r0]
  if (!this->attached())
 80a354a:	1c43      	adds	r3, r0, #1
 80a354c:	d007      	beq.n	80a355e <_ZN5Servo6detachEv+0x1c>
  {
    return false;
  }

  HAL_Servo_Detach(this->pin);
 80a354e:	b280      	uxth	r0, r0
 80a3550:	f7ff ff24 	bl	80a339c <HAL_Servo_Detach>

  this->resetFields();
 80a3554:	4620      	mov	r0, r4
 80a3556:	f7ff ffe1 	bl	80a351c <_ZN5Servo11resetFieldsEv>

  return true;
 80a355a:	2001      	movs	r0, #1
 80a355c:	bd10      	pop	{r4, pc}

bool Servo::detach()
{
  if (!this->attached())
  {
    return false;
 80a355e:	2000      	movs	r0, #0
  HAL_Servo_Detach(this->pin);

  this->resetFields();

  return true;
}
 80a3560:	bd10      	pop	{r4, pc}

080a3562 <_ZN5Servo6attachEtttss>:
bool Servo::attach(uint16_t pin,
    uint16_t minPW,
    uint16_t maxPW,
    int16_t minAngle,
    int16_t maxAngle)
{
 80a3562:	e92d 41f0 	stmdb	sp!, {r4, r5, r6, r7, r8, lr}
 80a3566:	460d      	mov	r5, r1
 80a3568:	4604      	mov	r4, r0

  if (HAL_Validate_Pin_Function(pin, PF_TIMER)!=PF_TIMER)
 80a356a:	2102      	movs	r1, #2
 80a356c:	4628      	mov	r0, r5
bool Servo::attach(uint16_t pin,
    uint16_t minPW,
    uint16_t maxPW,
    int16_t minAngle,
    int16_t maxAngle)
{
 80a356e:	4690      	mov	r8, r2
 80a3570:	461f      	mov	r7, r3

  if (HAL_Validate_Pin_Function(pin, PF_TIMER)!=PF_TIMER)
 80a3572:	f7ff fe09 	bl	80a3188 <HAL_Validate_Pin_Function>
 80a3576:	2802      	cmp	r0, #2
 80a3578:	d001      	beq.n	80a357e <_ZN5Servo6attachEtttss+0x1c>
  {
    return false;
 80a357a:	2600      	movs	r6, #0
 80a357c:	e019      	b.n	80a35b2 <_ZN5Servo6attachEtttss+0x50>
  }

  // Safety check
  if (!pinAvailable(pin))
 80a357e:	4628      	mov	r0, r5
 80a3580:	f000 fbb0 	bl	80a3ce4 <pinAvailable>
 80a3584:	4606      	mov	r6, r0
 80a3586:	2800      	cmp	r0, #0
 80a3588:	d0f7      	beq.n	80a357a <_ZN5Servo6attachEtttss+0x18>
  {
    return false;
  }

  if (this->attached())
 80a358a:	f9b4 3000 	ldrsh.w	r3, [r4]
 80a358e:	3301      	adds	r3, #1
 80a3590:	d002      	beq.n	80a3598 <_ZN5Servo6attachEtttss+0x36>
  {
    this->detach();
 80a3592:	4620      	mov	r0, r4
 80a3594:	f7ff ffd5 	bl	80a3542 <_ZN5Servo6detachEv>
  }

  this->pin = pin;
  this->minPW = minPW;
  this->maxPW = maxPW;
  this->minAngle = minAngle;
 80a3598:	f9bd 3018 	ldrsh.w	r3, [sp, #24]
  if (this->attached())
  {
    this->detach();
  }

  this->pin = pin;
 80a359c:	8025      	strh	r5, [r4, #0]
  this->minPW = minPW;
  this->maxPW = maxPW;
  this->minAngle = minAngle;
 80a359e:	80e3      	strh	r3, [r4, #6]
  this->maxAngle = maxAngle;
 80a35a0:	f9bd 301c 	ldrsh.w	r3, [sp, #28]
  {
    this->detach();
  }

  this->pin = pin;
  this->minPW = minPW;
 80a35a4:	f8a4 8002 	strh.w	r8, [r4, #2]
  this->maxPW = maxPW;
 80a35a8:	80a7      	strh	r7, [r4, #4]
  this->minAngle = minAngle;
  this->maxAngle = maxAngle;
 80a35aa:	8123      	strh	r3, [r4, #8]

  HAL_Servo_Attach(this->pin);
 80a35ac:	4628      	mov	r0, r5
 80a35ae:	f7ff feed 	bl	80a338c <HAL_Servo_Attach>

  return true;
}
 80a35b2:	4630      	mov	r0, r6
 80a35b4:	e8bd 81f0 	ldmia.w	sp!, {r4, r5, r6, r7, r8, pc}

080a35b8 <_GLOBAL__sub_I_System>:

class SystemClass {
public:

    SystemClass(System_Mode_TypeDef mode = DEFAULT) {
        set_system_mode(mode);
 80a35b8:	2000      	movs	r0, #0
 80a35ba:	f7ff bf37 	b.w	80a342c <set_system_mode>

080a35be <_ZN5Print5writeEPKhj>:

// Public Methods //////////////////////////////////////////////////////////////

/* default implementation: may be overridden */
size_t Print::write(const uint8_t *buffer, size_t size)
{
 80a35be:	b5f8      	push	{r3, r4, r5, r6, r7, lr}
 80a35c0:	4606      	mov	r6, r0
 80a35c2:	460d      	mov	r5, r1
 80a35c4:	188f      	adds	r7, r1, r2
  size_t n = 0;
 80a35c6:	2400      	movs	r4, #0
  while (size--) {
 80a35c8:	42bd      	cmp	r5, r7
 80a35ca:	d00c      	beq.n	80a35e6 <_ZN5Print5writeEPKhj+0x28>
     int chunk = write(*buffer++);
 80a35cc:	6833      	ldr	r3, [r6, #0]
 80a35ce:	f815 1b01 	ldrb.w	r1, [r5], #1
 80a35d2:	689b      	ldr	r3, [r3, #8]
 80a35d4:	4630      	mov	r0, r6
 80a35d6:	4798      	blx	r3
     if (chunk>=0)
 80a35d8:	2800      	cmp	r0, #0
 80a35da:	db01      	blt.n	80a35e0 <_ZN5Print5writeEPKhj+0x22>
         n += chunk;
 80a35dc:	4404      	add	r4, r0

/* default implementation: may be overridden */
size_t Print::write(const uint8_t *buffer, size_t size)
{
  size_t n = 0;
  while (size--) {
 80a35de:	e7f3      	b.n	80a35c8 <_ZN5Print5writeEPKhj+0xa>
     int chunk = write(*buffer++);
 80a35e0:	2c00      	cmp	r4, #0
 80a35e2:	bf08      	it	eq
 80a35e4:	4604      	moveq	r4, r0
             n = chunk;
         break;
     }
  }
  return n;
}
 80a35e6:	4620      	mov	r0, r4
 80a35e8:	bdf8      	pop	{r3, r4, r5, r6, r7, pc}

080a35ea <_ZN5Print5writeEPKc>:

    int getWriteError() { return write_error; }
    void clearWriteError() { setWriteError(0); }

    virtual size_t write(uint8_t) = 0;
    size_t write(const char *str) {
 80a35ea:	b570      	push	{r4, r5, r6, lr}
 80a35ec:	4605      	mov	r5, r0
      if (str == NULL) return 0;
 80a35ee:	460c      	mov	r4, r1
      return write((const uint8_t *)str, strlen(str));
    }
 80a35f0:	4608      	mov	r0, r1
    int getWriteError() { return write_error; }
    void clearWriteError() { setWriteError(0); }

    virtual size_t write(uint8_t) = 0;
    size_t write(const char *str) {
      if (str == NULL) return 0;
 80a35f2:	b149      	cbz	r1, 80a3608 <_ZN5Print5writeEPKc+0x1e>
      return write((const uint8_t *)str, strlen(str));
 80a35f4:	f001 fd37 	bl	80a5066 <strlen>
 80a35f8:	682b      	ldr	r3, [r5, #0]
 80a35fa:	4602      	mov	r2, r0
 80a35fc:	4621      	mov	r1, r4
 80a35fe:	4628      	mov	r0, r5
    }
 80a3600:	e8bd 4070 	ldmia.w	sp!, {r4, r5, r6, lr}
    void clearWriteError() { setWriteError(0); }

    virtual size_t write(uint8_t) = 0;
    size_t write(const char *str) {
      if (str == NULL) return 0;
      return write((const uint8_t *)str, strlen(str));
 80a3604:	68db      	ldr	r3, [r3, #12]
 80a3606:	4718      	bx	r3
    }
 80a3608:	bd70      	pop	{r4, r5, r6, pc}

080a360a <_ZN5Print5printEPKc>:
 80a360a:	b508      	push	{r3, lr}
 80a360c:	f7ff ffed 	bl	80a35ea <_ZN5Print5writeEPKc>
 80a3610:	bd08      	pop	{r3, pc}

080a3612 <_ZN5Print5printEc>:
  return write(str);
}

size_t Print::print(char c)
{
  return write(c);
 80a3612:	6803      	ldr	r3, [r0, #0]
 80a3614:	689b      	ldr	r3, [r3, #8]
 80a3616:	4718      	bx	r3

080a3618 <_ZN5Print7printlnEv>:
{
  return print(reinterpret_cast<const char*>(str));
}

size_t Print::println(void)
{
 80a3618:	b538      	push	{r3, r4, r5, lr}
  size_t n = print('\r');
 80a361a:	210d      	movs	r1, #13
{
  return print(reinterpret_cast<const char*>(str));
}

size_t Print::println(void)
{
 80a361c:	4605      	mov	r5, r0
  size_t n = print('\r');
 80a361e:	f7ff fff8 	bl	80a3612 <_ZN5Print5printEc>
  n += print('\n');
 80a3622:	210a      	movs	r1, #10
  return print(reinterpret_cast<const char*>(str));
}

size_t Print::println(void)
{
  size_t n = print('\r');
 80a3624:	4604      	mov	r4, r0
  n += print('\n');
 80a3626:	4628      	mov	r0, r5
 80a3628:	f7ff fff3 	bl	80a3612 <_ZN5Print5printEc>
  return n;
}
 80a362c:	4420      	add	r0, r4
 80a362e:	bd38      	pop	{r3, r4, r5, pc}

080a3630 <_ZN5Print7printlnEPKc>:

size_t Print::println(const char c[])
{
 80a3630:	b538      	push	{r3, r4, r5, lr}
 80a3632:	4605      	mov	r5, r0
  return n;
}

size_t Print::print(const char str[])
{
  return write(str);
 80a3634:	f7ff ffd9 	bl	80a35ea <_ZN5Print5writeEPKc>
 80a3638:	4604      	mov	r4, r0
}

size_t Print::println(const char c[])
{
  size_t n = print(c);
  n += println();
 80a363a:	4628      	mov	r0, r5
 80a363c:	f7ff ffec 	bl	80a3618 <_ZN5Print7printlnEv>
  return n;
}
 80a3640:	4420      	add	r0, r4
 80a3642:	bd38      	pop	{r3, r4, r5, pc}

080a3644 <_ZN5Print11printNumberEmh>:
  char *str = &buf[sizeof(buf) - 1];

  *str = '\0';

  // prevent crash if called with base == 1
  if (base < 2) base = 10;
 80a3644:	2a01      	cmp	r2, #1
 80a3646:	bf98      	it	ls
 80a3648:	220a      	movls	r2, #10
  return println(reinterpret_cast<const char*>(str));
}

// Private Methods /////////////////////////////////////////////////////////////

size_t Print::printNumber(unsigned long n, uint8_t base) {
 80a364a:	b530      	push	{r4, r5, lr}
 80a364c:	460b      	mov	r3, r1
 80a364e:	b08b      	sub	sp, #44	; 0x2c
  char buf[8 * sizeof(long) + 1]; // Assumes 8-bit chars plus zero byte.
  char *str = &buf[sizeof(buf) - 1];

  *str = '\0';
 80a3650:	2100      	movs	r1, #0
 80a3652:	f88d 1024 	strb.w	r1, [sp, #36]	; 0x24
 80a3656:	f10d 0423 	add.w	r4, sp, #35	; 0x23
  // prevent crash if called with base == 1
  if (base < 2) base = 10;

  do {
    unsigned long m = n;
    n /= base;
 80a365a:	fbb3 f5f2 	udiv	r5, r3, r2
    char c = m - base * n;
 80a365e:	fb05 3312 	mls	r3, r5, r2, r3
 80a3662:	b2db      	uxtb	r3, r3
    *--str = c < 10 ? c + '0' : c + 'A' - 10;
 80a3664:	2b09      	cmp	r3, #9
 80a3666:	bf94      	ite	ls
 80a3668:	3330      	addls	r3, #48	; 0x30
 80a366a:	3337      	addhi	r3, #55	; 0x37
 80a366c:	b2db      	uxtb	r3, r3
 80a366e:	4621      	mov	r1, r4
 80a3670:	f804 3901 	strb.w	r3, [r4], #-1
 80a3674:	462b      	mov	r3, r5
  *str = '\0';

  // prevent crash if called with base == 1
  if (base < 2) base = 10;

  do {
 80a3676:	2d00      	cmp	r5, #0
 80a3678:	d1ef      	bne.n	80a365a <_ZN5Print11printNumberEmh+0x16>
    n /= base;
    char c = m - base * n;
    *--str = c < 10 ? c + '0' : c + 'A' - 10;
  } while(n);

  return write(str);
 80a367a:	f7ff ffb6 	bl	80a35ea <_ZN5Print5writeEPKc>
}
 80a367e:	b00b      	add	sp, #44	; 0x2c
 80a3680:	bd30      	pop	{r4, r5, pc}

080a3682 <_ZN5Print5printEmi>:
    return printNumber(n, base);
  }
}

size_t Print::print(unsigned long n, int base)
{
 80a3682:	b410      	push	{r4}
  if (base == 0) return write(n);
 80a3684:	b922      	cbnz	r2, 80a3690 <_ZN5Print5printEmi+0xe>
 80a3686:	6803      	ldr	r3, [r0, #0]
 80a3688:	b2c9      	uxtb	r1, r1
 80a368a:	689b      	ldr	r3, [r3, #8]
  else return printNumber(n, base);
}
 80a368c:	bc10      	pop	{r4}
  }
}

size_t Print::print(unsigned long n, int base)
{
  if (base == 0) return write(n);
 80a368e:	4718      	bx	r3
  else return printNumber(n, base);
 80a3690:	b2d2      	uxtb	r2, r2
}
 80a3692:	bc10      	pop	{r4}
}

size_t Print::print(unsigned long n, int base)
{
  if (base == 0) return write(n);
  else return printNumber(n, base);
 80a3694:	f7ff bfd6 	b.w	80a3644 <_ZN5Print11printNumberEmh>

080a3698 <_ZN5Print5printEhi>:
  return write(c);
}

size_t Print::print(unsigned char b, int base)
{
  return print((unsigned long) b, base);
 80a3698:	f7ff bff3 	b.w	80a3682 <_ZN5Print5printEmi>

080a369c <_ZN5Print7printlnEmi>:
  n += println();
  return n;
}

size_t Print::println(unsigned long num, int base)
{
 80a369c:	b538      	push	{r3, r4, r5, lr}
 80a369e:	4605      	mov	r5, r0
  size_t n = print(num, base);
 80a36a0:	f7ff ffef 	bl	80a3682 <_ZN5Print5printEmi>
 80a36a4:	4604      	mov	r4, r0
  n += println();
 80a36a6:	4628      	mov	r0, r5
 80a36a8:	f7ff ffb6 	bl	80a3618 <_ZN5Print7printlnEv>
  return n;
}
 80a36ac:	4420      	add	r0, r4
 80a36ae:	bd38      	pop	{r3, r4, r5, pc}

080a36b0 <_ZN5Print5printEli>:
{
  return print((unsigned long) n, base);
}

size_t Print::print(long n, int base)
{
 80a36b0:	e92d 41f0 	stmdb	sp!, {r4, r5, r6, r7, r8, lr}
 80a36b4:	4607      	mov	r7, r0
 80a36b6:	460e      	mov	r6, r1
  if (base == 0) {
 80a36b8:	4615      	mov	r5, r2
 80a36ba:	b92a      	cbnz	r2, 80a36c8 <_ZN5Print5printEli+0x18>
    }
    return printNumber(n, 10);
  } else {
    return printNumber(n, base);
  }
}
 80a36bc:	e8bd 41f0 	ldmia.w	sp!, {r4, r5, r6, r7, r8, lr}
}

size_t Print::print(long n, int base)
{
  if (base == 0) {
    return write(n);
 80a36c0:	6803      	ldr	r3, [r0, #0]
 80a36c2:	b2c9      	uxtb	r1, r1
 80a36c4:	689b      	ldr	r3, [r3, #8]
 80a36c6:	4718      	bx	r3
  } else if (base == 10) {
 80a36c8:	2a0a      	cmp	r2, #10
 80a36ca:	d102      	bne.n	80a36d2 <_ZN5Print5printEli+0x22>
    if (n < 0) {
 80a36cc:	2900      	cmp	r1, #0
 80a36ce:	da01      	bge.n	80a36d4 <_ZN5Print5printEli+0x24>
 80a36d0:	e004      	b.n	80a36dc <_ZN5Print5printEli+0x2c>
      n = -n;
      return printNumber(n, 10) + t;
    }
    return printNumber(n, 10);
  } else {
    return printNumber(n, base);
 80a36d2:	b2d2      	uxtb	r2, r2
  }
}
 80a36d4:	e8bd 41f0 	ldmia.w	sp!, {r4, r5, r6, r7, r8, lr}
      n = -n;
      return printNumber(n, 10) + t;
    }
    return printNumber(n, 10);
  } else {
    return printNumber(n, base);
 80a36d8:	f7ff bfb4 	b.w	80a3644 <_ZN5Print11printNumberEmh>
{
  if (base == 0) {
    return write(n);
  } else if (base == 10) {
    if (n < 0) {
      int t = print('-');
 80a36dc:	212d      	movs	r1, #45	; 0x2d
 80a36de:	f7ff ff98 	bl	80a3612 <_ZN5Print5printEc>
      n = -n;
      return printNumber(n, 10) + t;
 80a36e2:	462a      	mov	r2, r5
{
  if (base == 0) {
    return write(n);
  } else if (base == 10) {
    if (n < 0) {
      int t = print('-');
 80a36e4:	4604      	mov	r4, r0
      n = -n;
      return printNumber(n, 10) + t;
 80a36e6:	4271      	negs	r1, r6
 80a36e8:	4638      	mov	r0, r7
 80a36ea:	f7ff ffab 	bl	80a3644 <_ZN5Print11printNumberEmh>
 80a36ee:	4420      	add	r0, r4
    }
    return printNumber(n, 10);
  } else {
    return printNumber(n, base);
  }
}
 80a36f0:	e8bd 81f0 	ldmia.w	sp!, {r4, r5, r6, r7, r8, pc}

080a36f4 <_ZN5Print5printEii>:
  return print((unsigned long) b, base);
}

size_t Print::print(int n, int base)
{
  return print((long) n, base);
 80a36f4:	f7ff bfdc 	b.w	80a36b0 <_ZN5Print5printEli>

080a36f8 <_ZN5Print7printlnEii>:
  n += println();
  return n;
}

size_t Print::println(int num, int base)
{
 80a36f8:	b538      	push	{r3, r4, r5, lr}
 80a36fa:	4605      	mov	r5, r0
  return print((unsigned long) b, base);
}

size_t Print::print(int n, int base)
{
  return print((long) n, base);
 80a36fc:	f7ff ffd8 	bl	80a36b0 <_ZN5Print5printEli>
 80a3700:	4604      	mov	r4, r0
}

size_t Print::println(int num, int base)
{
  size_t n = print(num, base);
  n += println();
 80a3702:	4628      	mov	r0, r5
 80a3704:	f7ff ff88 	bl	80a3618 <_ZN5Print7printlnEv>
  return n;
}
 80a3708:	4420      	add	r0, r4
 80a370a:	bd38      	pop	{r3, r4, r5, pc}

080a370c <_ZN5Print11printf_implEbPKcz>:

  return n;
}

size_t Print::printf_impl(bool newline, const char* format, ...)
{
 80a370c:	b40c      	push	{r2, r3}
 80a370e:	e92d 43f0 	stmdb	sp!, {r4, r5, r6, r7, r8, r9, lr}
 80a3712:	b087      	sub	sp, #28
 80a3714:	af00      	add	r7, sp, #0
 80a3716:	f107 0438 	add.w	r4, r7, #56	; 0x38
 80a371a:	f854 9b04 	ldr.w	r9, [r4], #4
 80a371e:	4605      	mov	r5, r0
 80a3720:	460e      	mov	r6, r1
    const int bufsize = 20;
    char test[bufsize];
    va_list marker;
    va_start(marker, format);
    size_t n = vsnprintf(test, bufsize, format, marker);
 80a3722:	4623      	mov	r3, r4
 80a3724:	464a      	mov	r2, r9
 80a3726:	2114      	movs	r1, #20
 80a3728:	1d38      	adds	r0, r7, #4
size_t Print::printf_impl(bool newline, const char* format, ...)
{
    const int bufsize = 20;
    char test[bufsize];
    va_list marker;
    va_start(marker, format);
 80a372a:	603c      	str	r4, [r7, #0]
    size_t n = vsnprintf(test, bufsize, format, marker);
 80a372c:	f7ff febe 	bl	80a34ac <vsnprintf>
    va_end(marker);

    if (n<bufsize)
 80a3730:	2813      	cmp	r0, #19
 80a3732:	d805      	bhi.n	80a3740 <_ZN5Print11printf_implEbPKcz+0x34>
  return n;
}

size_t Print::print(const char str[])
{
  return write(str);
 80a3734:	1d39      	adds	r1, r7, #4
 80a3736:	4628      	mov	r0, r5
 80a3738:	f7ff ff57 	bl	80a35ea <_ZN5Print5writeEPKc>
 80a373c:	4604      	mov	r4, r0
 80a373e:	e013      	b.n	80a3768 <_ZN5Print11printf_implEbPKcz+0x5c>
    {
        n = print(test);
    }
    else
    {
        char bigger[n+1];
 80a3740:	f100 0308 	add.w	r3, r0, #8
 80a3744:	f023 0307 	bic.w	r3, r3, #7
        va_start(marker, format);
        n = vsnprintf(bigger, n+1, format, marker);
        va_end(marker);
        n = print(bigger);
 80a3748:	46e8      	mov	r8, sp
    {
        n = print(test);
    }
    else
    {
        char bigger[n+1];
 80a374a:	ebad 0d03 	sub.w	sp, sp, r3
        va_start(marker, format);
        n = vsnprintf(bigger, n+1, format, marker);
 80a374e:	1c41      	adds	r1, r0, #1
 80a3750:	4623      	mov	r3, r4
 80a3752:	464a      	mov	r2, r9
 80a3754:	4668      	mov	r0, sp
        n = print(test);
    }
    else
    {
        char bigger[n+1];
        va_start(marker, format);
 80a3756:	603c      	str	r4, [r7, #0]
        n = vsnprintf(bigger, n+1, format, marker);
 80a3758:	f7ff fea8 	bl	80a34ac <vsnprintf>
  return n;
}

size_t Print::print(const char str[])
{
  return write(str);
 80a375c:	4669      	mov	r1, sp
 80a375e:	4628      	mov	r0, r5
 80a3760:	f7ff ff43 	bl	80a35ea <_ZN5Print5writeEPKc>
 80a3764:	4604      	mov	r4, r0
 80a3766:	46c5      	mov	sp, r8
        va_start(marker, format);
        n = vsnprintf(bigger, n+1, format, marker);
        va_end(marker);
        n = print(bigger);
    }
    if (newline)
 80a3768:	b11e      	cbz	r6, 80a3772 <_ZN5Print11printf_implEbPKcz+0x66>
        n += println();
 80a376a:	4628      	mov	r0, r5
 80a376c:	f7ff ff54 	bl	80a3618 <_ZN5Print7printlnEv>
 80a3770:	4404      	add	r4, r0
    return n;
}
 80a3772:	4620      	mov	r0, r4
 80a3774:	371c      	adds	r7, #28
 80a3776:	46bd      	mov	sp, r7
 80a3778:	e8bd 43f0 	ldmia.w	sp!, {r4, r5, r6, r7, r8, r9, lr}
 80a377c:	b002      	add	sp, #8
 80a377e:	4770      	bx	lr

080a3780 <_GLOBAL__sub_I__ZN5spark3LogE>:
    // This handler doesn't support direct logging
}

// spark::Logger
inline spark::Logger::Logger(const char *name) :
        name_(name) {
 80a3780:	4a01      	ldr	r2, [pc, #4]	; (80a3788 <_GLOBAL__sub_I__ZN5spark3LogE+0x8>)
 80a3782:	4b02      	ldr	r3, [pc, #8]	; (80a378c <_GLOBAL__sub_I__ZN5spark3LogE+0xc>)
 80a3784:	601a      	str	r2, [r3, #0]
 80a3786:	4770      	bx	lr
 80a3788:	080a5274 	.word	0x080a5274
 80a378c:	20000410 	.word	0x20000410

080a3790 <_GLOBAL__sub_I_TIME_FORMAT_DEFAULT>:
            calendar_time_cache = Convert_UnixTime_To_CalendarTime(unix_time);
            unix_time_cache = unix_time;
    }
}

const char* TimeClass::format_spec = TIME_FORMAT_DEFAULT;
 80a3790:	4b02      	ldr	r3, [pc, #8]	; (80a379c <_GLOBAL__sub_I_TIME_FORMAT_DEFAULT+0xc>)
 80a3792:	681a      	ldr	r2, [r3, #0]
 80a3794:	4b02      	ldr	r3, [pc, #8]	; (80a37a0 <_GLOBAL__sub_I_TIME_FORMAT_DEFAULT+0x10>)
 80a3796:	601a      	str	r2, [r3, #0]
 80a3798:	4770      	bx	lr
 80a379a:	bf00      	nop
 80a379c:	2000035c 	.word	0x2000035c
 80a37a0:	20000414 	.word	0x20000414

080a37a4 <delay>:
  return (value - fromStart) * (toEnd - toStart) / (fromEnd - fromStart) + toStart;
}

void delay(unsigned long ms)
{
    system_delay_ms(ms, false);
 80a37a4:	2100      	movs	r1, #0
 80a37a6:	f7ff be49 	b.w	80a343c <system_delay_ms>
	...

080a37ac <serialEventRun>:

/**
 * Provides background processing of serial data.
 */
void serialEventRun()
{
 80a37ac:	b508      	push	{r3, lr}
    if (serialEvent && Serial.available()>0)
 80a37ae:	4b14      	ldr	r3, [pc, #80]	; (80a3800 <serialEventRun+0x54>)
 80a37b0:	b133      	cbz	r3, 80a37c0 <serialEventRun+0x14>
 80a37b2:	f000 f925 	bl	80a3a00 <_Z16_fetch_usbserialv>
 80a37b6:	6803      	ldr	r3, [r0, #0]
 80a37b8:	691b      	ldr	r3, [r3, #16]
 80a37ba:	4798      	blx	r3
 80a37bc:	2800      	cmp	r0, #0
 80a37be:	dc16      	bgt.n	80a37ee <serialEventRun+0x42>
        serialEvent();

    if (serialEvent1 && Serial1.available()>0)
 80a37c0:	4b10      	ldr	r3, [pc, #64]	; (80a3804 <serialEventRun+0x58>)
 80a37c2:	b133      	cbz	r3, 80a37d2 <serialEventRun+0x26>
 80a37c4:	f000 f9ea 	bl	80a3b9c <_Z22__fetch_global_Serial1v>
 80a37c8:	6803      	ldr	r3, [r0, #0]
 80a37ca:	691b      	ldr	r3, [r3, #16]
 80a37cc:	4798      	blx	r3
 80a37ce:	2800      	cmp	r0, #0
 80a37d0:	dc10      	bgt.n	80a37f4 <serialEventRun+0x48>
        serialEvent1();

#if Wiring_Serial2
    if (serialEventRun2) serialEventRun2();
 80a37d2:	4b0d      	ldr	r3, [pc, #52]	; (80a3808 <serialEventRun+0x5c>)
 80a37d4:	b10b      	cbz	r3, 80a37da <serialEventRun+0x2e>
 80a37d6:	f3af 8000 	nop.w
#if Wiring_Serial5
    if (serialEventRun5) serialEventRun5();
#endif

#if Wiring_USBSerial1
    if (usbSerialEvent1 && USBSerial1.available()>0)
 80a37da:	4b0c      	ldr	r3, [pc, #48]	; (80a380c <serialEventRun+0x60>)
 80a37dc:	b17b      	cbz	r3, 80a37fe <serialEventRun+0x52>
 80a37de:	f000 f94b 	bl	80a3a78 <_Z17_fetch_usbserial1v>
 80a37e2:	6803      	ldr	r3, [r0, #0]
 80a37e4:	691b      	ldr	r3, [r3, #16]
 80a37e6:	4798      	blx	r3
 80a37e8:	2800      	cmp	r0, #0
 80a37ea:	dc06      	bgt.n	80a37fa <serialEventRun+0x4e>
 80a37ec:	bd08      	pop	{r3, pc}
 * Provides background processing of serial data.
 */
void serialEventRun()
{
    if (serialEvent && Serial.available()>0)
        serialEvent();
 80a37ee:	f3af 8000 	nop.w
 80a37f2:	e7e5      	b.n	80a37c0 <serialEventRun+0x14>

    if (serialEvent1 && Serial1.available()>0)
        serialEvent1();
 80a37f4:	f3af 8000 	nop.w
 80a37f8:	e7eb      	b.n	80a37d2 <serialEventRun+0x26>
    if (serialEventRun5) serialEventRun5();
#endif

#if Wiring_USBSerial1
    if (usbSerialEvent1 && USBSerial1.available()>0)
        usbSerialEvent1();
 80a37fa:	f3af 8000 	nop.w
 80a37fe:	bd08      	pop	{r3, pc}
	...

080a3810 <_post_loop>:
#if Wiring_Serial5
void serialEvent5() __attribute__((weak));
#endif

void _post_loop()
{
 80a3810:	b508      	push	{r3, lr}
	serialEventRun();
 80a3812:	f7ff ffcb 	bl	80a37ac <serialEventRun>
		return !timeout_fn;
	}

	static inline system_tick_t current_time()
	{
		return HAL_Timer_Get_Milli_Seconds();
 80a3816:	f7ff fd07 	bl	80a3228 <HAL_Timer_Get_Milli_Seconds>
	/**
	 * Lifesign that the application is still working normally.
	 */
	static void checkin()
	{
		last_checkin = current_time();
 80a381a:	4b01      	ldr	r3, [pc, #4]	; (80a3820 <_post_loop+0x10>)
 80a381c:	6018      	str	r0, [r3, #0]
 80a381e:	bd08      	pop	{r3, pc}
 80a3820:	200008a0 	.word	0x200008a0

080a3824 <_Z33system_initialize_user_backup_ramv>:
 * the dynamically linked application module.
 */
void system_initialize_user_backup_ram()
{
    size_t len = &link_global_retained_end-&link_global_retained_start;
    memcpy(&link_global_retained_start, &link_global_retained_initial_values, len);
 80a3824:	4802      	ldr	r0, [pc, #8]	; (80a3830 <_Z33system_initialize_user_backup_ramv+0xc>)
 80a3826:	4a03      	ldr	r2, [pc, #12]	; (80a3834 <_Z33system_initialize_user_backup_ramv+0x10>)
 80a3828:	4903      	ldr	r1, [pc, #12]	; (80a3838 <_Z33system_initialize_user_backup_ramv+0x14>)
 80a382a:	1a12      	subs	r2, r2, r0
 80a382c:	f001 bc08 	b.w	80a5040 <memcpy>
 80a3830:	40024000 	.word	0x40024000
 80a3834:	40024004 	.word	0x40024004
 80a3838:	080a53b0 	.word	0x080a53b0

080a383c <_Z26usb_request_custom_handlerPcjjPj>:
#ifdef USB_VENDOR_REQUEST_ENABLE

// Synchronous handler for customizable requests (USBRequestType::USB_REQUEST_CUSTOM)
bool __attribute((weak)) usb_request_custom_handler(char* buf, size_t buf_size, size_t req_size, size_t* rep_size) {
    return false;
}
 80a383c:	2000      	movs	r0, #0
 80a383e:	4770      	bx	lr

080a3840 <_Z23usb_request_app_handlerP10USBRequestPv>:

bool usb_request_app_handler(USBRequest* req, void* reserved) {
 80a3840:	b537      	push	{r0, r1, r2, r4, r5, lr}
    switch (req->type) {
 80a3842:	6843      	ldr	r3, [r0, #4]
// Synchronous handler for customizable requests (USBRequestType::USB_REQUEST_CUSTOM)
bool __attribute((weak)) usb_request_custom_handler(char* buf, size_t buf_size, size_t req_size, size_t* rep_size) {
    return false;
}

bool usb_request_app_handler(USBRequest* req, void* reserved) {
 80a3844:	4604      	mov	r4, r0
    switch (req->type) {
 80a3846:	2b0a      	cmp	r3, #10
 80a3848:	d00e      	beq.n	80a3868 <_Z23usb_request_app_handlerP10USBRequestPv+0x28>
 80a384a:	2b50      	cmp	r3, #80	; 0x50
 80a384c:	d11c      	bne.n	80a3888 <_Z23usb_request_app_handlerP10USBRequestPv+0x48>
#if Wiring_LogConfig
    case USB_REQUEST_LOG_CONFIG: {
        if (!log_process_config_request_callback || !log_process_config_request_callback(req->data, USB_REQUEST_BUFFER_SIZE,
 80a384e:	4b10      	ldr	r3, [pc, #64]	; (80a3890 <_Z23usb_request_app_handlerP10USBRequestPv+0x50>)
 80a3850:	681d      	ldr	r5, [r3, #0]
 80a3852:	b1cd      	cbz	r5, 80a3888 <_Z23usb_request_app_handlerP10USBRequestPv+0x48>
 80a3854:	7d03      	ldrb	r3, [r0, #20]
 80a3856:	f44f 7100 	mov.w	r1, #512	; 0x200
 80a385a:	9300      	str	r3, [sp, #0]
 80a385c:	68c2      	ldr	r2, [r0, #12]
 80a385e:	f100 0310 	add.w	r3, r0, #16
 80a3862:	6880      	ldr	r0, [r0, #8]
 80a3864:	47a8      	blx	r5
 80a3866:	e007      	b.n	80a3878 <_Z23usb_request_app_handlerP10USBRequestPv+0x38>
        system_set_usb_request_result(req, USB_REQUEST_RESULT_OK, nullptr);
        return true;
    }
#endif
    case USB_REQUEST_CUSTOM: {
        if (!usb_request_custom_handler(req->data, USB_REQUEST_BUFFER_SIZE, req->request_size, &req->reply_size)) {
 80a3868:	f100 0310 	add.w	r3, r0, #16
 80a386c:	68c2      	ldr	r2, [r0, #12]
 80a386e:	f44f 7100 	mov.w	r1, #512	; 0x200
 80a3872:	6880      	ldr	r0, [r0, #8]
 80a3874:	f7ff ffe2 	bl	80a383c <_Z26usb_request_custom_handlerPcjjPj>
 80a3878:	b130      	cbz	r0, 80a3888 <_Z23usb_request_app_handlerP10USBRequestPv+0x48>
            return false;
        }
        system_set_usb_request_result(req, USB_REQUEST_RESULT_OK, nullptr);
 80a387a:	2200      	movs	r2, #0
 80a387c:	4620      	mov	r0, r4
 80a387e:	4611      	mov	r1, r2
 80a3880:	f7ff fdf4 	bl	80a346c <system_set_usb_request_result>
        return true;
 80a3884:	2001      	movs	r0, #1
 80a3886:	e000      	b.n	80a388a <_Z23usb_request_app_handlerP10USBRequestPv+0x4a>
    switch (req->type) {
#if Wiring_LogConfig
    case USB_REQUEST_LOG_CONFIG: {
        if (!log_process_config_request_callback || !log_process_config_request_callback(req->data, USB_REQUEST_BUFFER_SIZE,
                req->request_size, &req->reply_size, (DataFormat)req->format)) {
            return false;
 80a3888:	2000      	movs	r0, #0
        return true;
    }
    default:
        return false; // Unsupported request type
    }
}
 80a388a:	b003      	add	sp, #12
 80a388c:	bd30      	pop	{r4, r5, pc}
 80a388e:	bf00      	nop
 80a3890:	20000418 	.word	0x20000418

080a3894 <module_user_init_hook>:

#endif // USB_VENDOR_REQUEST_ENABLE

void module_user_init_hook()
{
 80a3894:	b538      	push	{r3, r4, r5, lr}
#if PLATFORM_BACKUP_RAM
    backup_ram_was_valid_ =  __backup_sram_signature==signature;
 80a3896:	4c0c      	ldr	r4, [pc, #48]	; (80a38c8 <module_user_init_hook+0x34>)
 80a3898:	4d0c      	ldr	r5, [pc, #48]	; (80a38cc <module_user_init_hook+0x38>)
 80a389a:	6823      	ldr	r3, [r4, #0]
 80a389c:	42ab      	cmp	r3, r5
 80a389e:	4b0c      	ldr	r3, [pc, #48]	; (80a38d0 <module_user_init_hook+0x3c>)
 80a38a0:	bf0c      	ite	eq
 80a38a2:	2201      	moveq	r2, #1
 80a38a4:	2200      	movne	r2, #0
 80a38a6:	701a      	strb	r2, [r3, #0]
    if (!backup_ram_was_valid_) {
 80a38a8:	d002      	beq.n	80a38b0 <module_user_init_hook+0x1c>
        system_initialize_user_backup_ram();
 80a38aa:	f7ff ffbb 	bl	80a3824 <_Z33system_initialize_user_backup_ramv>
        __backup_sram_signature = signature;
 80a38ae:	6025      	str	r5, [r4, #0]
    /* for dynamically linked user part, set the random seed if the user
     * app defines random_seed_from_cloud.
     */
// todo - add a RNG define for that capability
#if defined(STM32F2XX)
    if (random_seed_from_cloud) {
 80a38b0:	4b08      	ldr	r3, [pc, #32]	; (80a38d4 <module_user_init_hook+0x40>)
 80a38b2:	b11b      	cbz	r3, 80a38bc <module_user_init_hook+0x28>
    		uint32_t seed = HAL_RNG_GetRandomNumber();
 80a38b4:	f7ff fcb0 	bl	80a3218 <HAL_RNG_GetRandomNumber>
    		random_seed_from_cloud(seed);
 80a38b8:	f3af 8000 	nop.w
#endif

#ifdef USB_VENDOR_REQUEST_ENABLE
    system_set_usb_request_app_handler(usb_request_app_handler, nullptr);
#endif
}
 80a38bc:	e8bd 4038 	ldmia.w	sp!, {r3, r4, r5, lr}
    		random_seed_from_cloud(seed);
    }
#endif

#ifdef USB_VENDOR_REQUEST_ENABLE
    system_set_usb_request_app_handler(usb_request_app_handler, nullptr);
 80a38c0:	2100      	movs	r1, #0
 80a38c2:	4805      	ldr	r0, [pc, #20]	; (80a38d8 <module_user_init_hook+0x44>)
 80a38c4:	f7ff bdca 	b.w	80a345c <system_set_usb_request_app_handler>
 80a38c8:	40024000 	.word	0x40024000
 80a38cc:	9a271c1e 	.word	0x9a271c1e
 80a38d0:	2000041c 	.word	0x2000041c
 80a38d4:	00000000 	.word	0x00000000
 80a38d8:	080a3841 	.word	0x080a3841

080a38dc <_ZN9IPAddressD1Ev>:
    IPAddress(uint8_t first_octet, uint8_t second_octet, uint8_t third_octet, uint8_t fourth_octet);
    IPAddress(uint32_t address);
    IPAddress(const uint8_t* address);
    IPAddress(const HAL_IPAddress& address);

    virtual ~IPAddress() {}
 80a38dc:	4770      	bx	lr

080a38de <_ZN9IPAddressD0Ev>:
 80a38de:	b510      	push	{r4, lr}
 80a38e0:	4604      	mov	r4, r0
 80a38e2:	f7fc fbdc 	bl	80a009e <_ZdlPv>
 80a38e6:	4620      	mov	r0, r4
 80a38e8:	bd10      	pop	{r4, pc}

080a38ea <_ZNK9IPAddress7printToER5Print>:
#endif
	return address.ipv4==that.address.ipv4;
}

size_t IPAddress::printTo(Print& p) const
{
 80a38ea:	b5f8      	push	{r3, r4, r5, r6, r7, lr}
 80a38ec:	460f      	mov	r7, r1
 80a38ee:	f100 0608 	add.w	r6, r0, #8
 80a38f2:	1d05      	adds	r5, r0, #4
 80a38f4:	2400      	movs	r4, #0
    size_t n = 0;
    for (int i = 0; i < 4; i++)
    {
        if (n)
            n += p.print('.');
        n += p.print((*this)[i], DEC);
 80a38f6:	f816 1d01 	ldrb.w	r1, [r6, #-1]!
 80a38fa:	220a      	movs	r2, #10
 80a38fc:	4638      	mov	r0, r7
 80a38fe:	f7ff fecb 	bl	80a3698 <_ZN5Print5printEhi>
}

size_t IPAddress::printTo(Print& p) const
{
    size_t n = 0;
    for (int i = 0; i < 4; i++)
 80a3902:	42ae      	cmp	r6, r5
    {
        if (n)
            n += p.print('.');
        n += p.print((*this)[i], DEC);
 80a3904:	4404      	add	r4, r0
}

size_t IPAddress::printTo(Print& p) const
{
    size_t n = 0;
    for (int i = 0; i < 4; i++)
 80a3906:	d007      	beq.n	80a3918 <_ZNK9IPAddress7printToER5Print+0x2e>
    {
        if (n)
 80a3908:	2c00      	cmp	r4, #0
 80a390a:	d0f4      	beq.n	80a38f6 <_ZNK9IPAddress7printToER5Print+0xc>
            n += p.print('.');
 80a390c:	212e      	movs	r1, #46	; 0x2e
 80a390e:	4638      	mov	r0, r7
 80a3910:	f7ff fe7f 	bl	80a3612 <_ZN5Print5printEc>
 80a3914:	4404      	add	r4, r0
 80a3916:	e7ee      	b.n	80a38f6 <_ZNK9IPAddress7printToER5Print+0xc>
        n += p.print((*this)[i], DEC);
    }
    return n;
}
 80a3918:	4620      	mov	r0, r4
 80a391a:	bdf8      	pop	{r3, r4, r5, r6, r7, pc}

080a391c <_ZN9IPAddress8set_ipv4Ehhhh>:
    return address.ipv4!=0;
#endif
}

void IPAddress::set_ipv4(uint8_t b0, uint8_t b1, uint8_t b2, uint8_t b3)
{
 80a391c:	b510      	push	{r4, lr}
    address.ipv4 = b0<<24 | b1 << 16 | b2 << 8 | b3;
 80a391e:	f89d 4008 	ldrb.w	r4, [sp, #8]
 80a3922:	ea44 2303 	orr.w	r3, r4, r3, lsl #8
 80a3926:	ea43 4202 	orr.w	r2, r3, r2, lsl #16
 80a392a:	ea42 6101 	orr.w	r1, r2, r1, lsl #24
        return &address;
    }

    inline void setVersion(uint8_t version) {
#if HAL_IPv6
        address.v = version;
 80a392e:	2304      	movs	r3, #4
 80a3930:	6041      	str	r1, [r0, #4]
 80a3932:	7503      	strb	r3, [r0, #20]
 80a3934:	bd10      	pop	{r4, pc}
	...

080a3938 <_ZN9IPAddressC1Ehhhh>:
{
    memcpy(&this->address, &address, sizeof(address));
}


IPAddress::IPAddress(uint8_t first_octet, uint8_t second_octet, uint8_t third_octet, uint8_t fourth_octet)
 80a3938:	b537      	push	{r0, r1, r2, r4, r5, lr}
 80a393a:	4d04      	ldr	r5, [pc, #16]	; (80a394c <_ZN9IPAddressC1Ehhhh+0x14>)
 80a393c:	6005      	str	r5, [r0, #0]
{
    set_ipv4(first_octet, second_octet, third_octet, fourth_octet);
 80a393e:	f89d 5018 	ldrb.w	r5, [sp, #24]
 80a3942:	9500      	str	r5, [sp, #0]
 80a3944:	f7ff ffea 	bl	80a391c <_ZN9IPAddress8set_ipv4Ehhhh>
}
 80a3948:	b003      	add	sp, #12
 80a394a:	bd30      	pop	{r4, r5, pc}
 80a394c:	080a52d0 	.word	0x080a52d0

080a3950 <_ZN9USBSerial14blockOnOverrunEb>:
  HAL_USB_USART_Flush_Data(_serial);
}

void USBSerial::blockOnOverrun(bool block)
{
  _blocking = block;
 80a3950:	7441      	strb	r1, [r0, #17]
 80a3952:	4770      	bx	lr

080a3954 <_ZN9USBSerialD1Ev>:
#include "spark_wiring_platform.h"
#include "usb_hal.h"
#include "system_task.h"
#include "spark_wiring_startup.h"

class USBSerial : public Stream
 80a3954:	4770      	bx	lr

080a3956 <_ZN9USBSerial4readEv>:


// Read data from buffer
int USBSerial::read()
{
	return HAL_USB_USART_Receive_Data(_serial, false);
 80a3956:	2100      	movs	r1, #0
 80a3958:	7c00      	ldrb	r0, [r0, #16]
 80a395a:	f7ff bd4f 	b.w	80a33fc <HAL_USB_USART_Receive_Data>

080a395e <_ZN9USBSerial4peekEv>:
  _blocking = block;
}

int USBSerial::peek()
{
	return HAL_USB_USART_Receive_Data(_serial, true);
 80a395e:	2101      	movs	r1, #1
 80a3960:	7c00      	ldrb	r0, [r0, #16]
 80a3962:	f7ff bd4b 	b.w	80a33fc <HAL_USB_USART_Receive_Data>

080a3966 <_ZN9USBSerial17availableForWriteEv>:
	return HAL_USB_USART_Receive_Data(_serial, false);
}

int USBSerial::availableForWrite()
{
  return HAL_USB_USART_Available_Data_For_Write(_serial);
 80a3966:	7c00      	ldrb	r0, [r0, #16]
 80a3968:	f7ff bd40 	b.w	80a33ec <HAL_USB_USART_Available_Data_For_Write>

080a396c <_ZN9USBSerial9availableEv>:
}

int USBSerial::available()
{
	return HAL_USB_USART_Available_Data(_serial);
 80a396c:	7c00      	ldrb	r0, [r0, #16]
 80a396e:	f7ff bd35 	b.w	80a33dc <HAL_USB_USART_Available_Data>

080a3972 <_ZN9USBSerial5writeEh>:
}

size_t USBSerial::write(uint8_t byte)
{
 80a3972:	b538      	push	{r3, r4, r5, lr}
 80a3974:	4604      	mov	r4, r0
  if (HAL_USB_USART_Available_Data_For_Write(_serial) > 0 || _blocking) {
 80a3976:	7c00      	ldrb	r0, [r0, #16]
{
	return HAL_USB_USART_Available_Data(_serial);
}

size_t USBSerial::write(uint8_t byte)
{
 80a3978:	460d      	mov	r5, r1
  if (HAL_USB_USART_Available_Data_For_Write(_serial) > 0 || _blocking) {
 80a397a:	f7ff fd37 	bl	80a33ec <HAL_USB_USART_Available_Data_For_Write>
 80a397e:	2800      	cmp	r0, #0
 80a3980:	dc01      	bgt.n	80a3986 <_ZN9USBSerial5writeEh+0x14>
 80a3982:	7c60      	ldrb	r0, [r4, #17]
 80a3984:	b120      	cbz	r0, 80a3990 <_ZN9USBSerial5writeEh+0x1e>
    HAL_USB_USART_Send_Data(_serial, byte);
 80a3986:	4629      	mov	r1, r5
 80a3988:	7c20      	ldrb	r0, [r4, #16]
 80a398a:	f7ff fd3f 	bl	80a340c <HAL_USB_USART_Send_Data>
    return 1;
 80a398e:	2001      	movs	r0, #1
  }
  return 0;
}
 80a3990:	bd38      	pop	{r3, r4, r5, pc}

080a3992 <_ZN9USBSerial5flushEv>:

void USBSerial::flush()
{
  HAL_USB_USART_Flush_Data(_serial);
 80a3992:	7c00      	ldrb	r0, [r0, #16]
 80a3994:	f7ff bd42 	b.w	80a341c <HAL_USB_USART_Flush_Data>

080a3998 <_ZN9USBSerialD0Ev>:
 80a3998:	b510      	push	{r4, lr}
 80a399a:	4604      	mov	r4, r0
 80a399c:	f7fc fb7f 	bl	80a009e <_ZdlPv>
 80a39a0:	4620      	mov	r0, r4
 80a39a2:	bd10      	pop	{r4, pc}

080a39a4 <_ZN9USBSerialC1E20HAL_USB_USART_SerialRK20HAL_USB_USART_Config>:

  HAL_USB_USART_Config conf = acquireSerialBuffer();
  HAL_USB_USART_Init(_serial, &conf);
}

USBSerial::USBSerial(HAL_USB_USART_Serial serial, const HAL_USB_USART_Config& conf)
 80a39a4:	b510      	push	{r4, lr}
 80a39a6:	4604      	mov	r4, r0
  protected:
    void setWriteError(int err = 1) { write_error = err; }
    size_t printf_impl(bool newline, const char* format, ...);

  public:
    Print() : write_error(0) {}
 80a39a8:	2300      	movs	r3, #0
 80a39aa:	6063      	str	r3, [r4, #4]
    virtual int available() = 0;
    virtual int read() = 0;
    virtual int peek() = 0;
    virtual void flush() = 0;

    Stream() {_timeout=1000;}
 80a39ac:	f44f 737a 	mov.w	r3, #1000	; 0x3e8
 80a39b0:	60a3      	str	r3, [r4, #8]
 80a39b2:	4b05      	ldr	r3, [pc, #20]	; (80a39c8 <_ZN9USBSerialC1E20HAL_USB_USART_SerialRK20HAL_USB_USART_Config+0x24>)
 80a39b4:	4608      	mov	r0, r1
 80a39b6:	6023      	str	r3, [r4, #0]
{
  _serial = serial;
  _blocking = true;
 80a39b8:	2301      	movs	r3, #1
  HAL_USB_USART_Init(_serial, &conf);
}

USBSerial::USBSerial(HAL_USB_USART_Serial serial, const HAL_USB_USART_Config& conf)
{
  _serial = serial;
 80a39ba:	7421      	strb	r1, [r4, #16]
  _blocking = true;
 80a39bc:	7463      	strb	r3, [r4, #17]

  HAL_USB_USART_Init(_serial, &conf);
 80a39be:	4611      	mov	r1, r2
 80a39c0:	f7ff fcfc 	bl	80a33bc <HAL_USB_USART_Init>
}
 80a39c4:	4620      	mov	r0, r4
 80a39c6:	bd10      	pop	{r4, pc}
 80a39c8:	080a52e4 	.word	0x080a52e4

080a39cc <_ZN9USBSerial5beginEl>:
// Public methods
//

void USBSerial::begin(long speed)
{
    HAL_USB_USART_Begin(_serial, speed, NULL);
 80a39cc:	2200      	movs	r2, #0
 80a39ce:	7c00      	ldrb	r0, [r0, #16]
 80a39d0:	f7ff bcfc 	b.w	80a33cc <HAL_USB_USART_Begin>

080a39d4 <_Z19acquireSerialBufferv>:

// Preinstantiate Objects //////////////////////////////////////////////////////
#ifdef SPARK_USB_SERIAL

HAL_USB_USART_Config __attribute__((weak)) acquireSerialBuffer()
{
 80a39d4:	b510      	push	{r4, lr}
 80a39d6:	4604      	mov	r4, r0
  HAL_USB_USART_Config conf = {0};
 80a39d8:	2214      	movs	r2, #20
 80a39da:	2100      	movs	r1, #0
 80a39dc:	f001 fb3b 	bl	80a5056 <memset>

#ifdef USB_SERIAL_USERSPACE_BUFFERS
  static uint8_t serial_rx_buffer[USB_RX_BUFFER_SIZE];
  static uint8_t serial_tx_buffer[USB_TX_BUFFER_SIZE];

  conf.rx_buffer = serial_rx_buffer;
 80a39e0:	4b05      	ldr	r3, [pc, #20]	; (80a39f8 <_Z19acquireSerialBufferv+0x24>)
  conf.rx_buffer_size = USB_RX_BUFFER_SIZE;
  conf.tx_buffer_size = USB_TX_BUFFER_SIZE;
#endif

  return conf;
}
 80a39e2:	4620      	mov	r0, r4

#ifdef USB_SERIAL_USERSPACE_BUFFERS
  static uint8_t serial_rx_buffer[USB_RX_BUFFER_SIZE];
  static uint8_t serial_tx_buffer[USB_TX_BUFFER_SIZE];

  conf.rx_buffer = serial_rx_buffer;
 80a39e4:	6063      	str	r3, [r4, #4]
  conf.tx_buffer = serial_tx_buffer;
 80a39e6:	4b05      	ldr	r3, [pc, #20]	; (80a39fc <_Z19acquireSerialBufferv+0x28>)
 80a39e8:	60e3      	str	r3, [r4, #12]
  conf.rx_buffer_size = USB_RX_BUFFER_SIZE;
 80a39ea:	f240 1301 	movw	r3, #257	; 0x101
 80a39ee:	8123      	strh	r3, [r4, #8]
  conf.tx_buffer_size = USB_TX_BUFFER_SIZE;
 80a39f0:	2381      	movs	r3, #129	; 0x81
 80a39f2:	8223      	strh	r3, [r4, #16]
#endif

  return conf;
}
 80a39f4:	bd10      	pop	{r4, pc}
 80a39f6:	bf00      	nop
 80a39f8:	200004a5 	.word	0x200004a5
 80a39fc:	20000424 	.word	0x20000424

080a3a00 <_Z16_fetch_usbserialv>:

USBSerial& _fetch_usbserial()
{
 80a3a00:	b530      	push	{r4, r5, lr}
  HAL_USB_USART_Config conf = acquireSerialBuffer();
	static USBSerial _usbserial(HAL_USB_USART_SERIAL, conf);
 80a3a02:	4d0e      	ldr	r5, [pc, #56]	; (80a3a3c <_Z16_fetch_usbserialv+0x3c>)

  return conf;
}

USBSerial& _fetch_usbserial()
{
 80a3a04:	b087      	sub	sp, #28
  HAL_USB_USART_Config conf = acquireSerialBuffer();
 80a3a06:	a801      	add	r0, sp, #4
 80a3a08:	f7ff ffe4 	bl	80a39d4 <_Z19acquireSerialBufferv>
	static USBSerial _usbserial(HAL_USB_USART_SERIAL, conf);
 80a3a0c:	6829      	ldr	r1, [r5, #0]
 80a3a0e:	f011 0401 	ands.w	r4, r1, #1
 80a3a12:	d110      	bne.n	80a3a36 <_Z16_fetch_usbserialv+0x36>
 80a3a14:	4628      	mov	r0, r5
 80a3a16:	f7fc fb44 	bl	80a00a2 <__cxa_guard_acquire>
 80a3a1a:	b160      	cbz	r0, 80a3a36 <_Z16_fetch_usbserialv+0x36>
 80a3a1c:	aa01      	add	r2, sp, #4
 80a3a1e:	4621      	mov	r1, r4
 80a3a20:	4807      	ldr	r0, [pc, #28]	; (80a3a40 <_Z16_fetch_usbserialv+0x40>)
 80a3a22:	f7ff ffbf 	bl	80a39a4 <_ZN9USBSerialC1E20HAL_USB_USART_SerialRK20HAL_USB_USART_Config>
 80a3a26:	4628      	mov	r0, r5
 80a3a28:	f7fc fb40 	bl	80a00ac <__cxa_guard_release>
 80a3a2c:	4a05      	ldr	r2, [pc, #20]	; (80a3a44 <_Z16_fetch_usbserialv+0x44>)
 80a3a2e:	4906      	ldr	r1, [pc, #24]	; (80a3a48 <_Z16_fetch_usbserialv+0x48>)
 80a3a30:	4803      	ldr	r0, [pc, #12]	; (80a3a40 <_Z16_fetch_usbserialv+0x40>)
 80a3a32:	f000 fa13 	bl	80a3e5c <__aeabi_atexit>
	return _usbserial;
}
 80a3a36:	4802      	ldr	r0, [pc, #8]	; (80a3a40 <_Z16_fetch_usbserialv+0x40>)
 80a3a38:	b007      	add	sp, #28
 80a3a3a:	bd30      	pop	{r4, r5, pc}
 80a3a3c:	20000420 	.word	0x20000420
 80a3a40:	200005a8 	.word	0x200005a8
 80a3a44:	20000360 	.word	0x20000360
 80a3a48:	080a3955 	.word	0x080a3955

080a3a4c <_Z23acquireUSBSerial1Bufferv>:

#if Wiring_USBSerial1

HAL_USB_USART_Config __attribute__((weak)) acquireUSBSerial1Buffer()
{
 80a3a4c:	b510      	push	{r4, lr}
 80a3a4e:	4604      	mov	r4, r0
  HAL_USB_USART_Config conf = {0};
 80a3a50:	2214      	movs	r2, #20
 80a3a52:	2100      	movs	r1, #0
 80a3a54:	f001 faff 	bl	80a5056 <memset>

#ifdef USB_SERIAL_USERSPACE_BUFFERS
  static uint8_t usbserial1_rx_buffer[USB_RX_BUFFER_SIZE];
  static uint8_t usbserial1_tx_buffer[USB_TX_BUFFER_SIZE];

  conf.rx_buffer = usbserial1_rx_buffer;
 80a3a58:	4b05      	ldr	r3, [pc, #20]	; (80a3a70 <_Z23acquireUSBSerial1Bufferv+0x24>)
  conf.rx_buffer_size = USB_RX_BUFFER_SIZE;
  conf.tx_buffer_size = USB_TX_BUFFER_SIZE;
#endif

  return conf;
}
 80a3a5a:	4620      	mov	r0, r4

#ifdef USB_SERIAL_USERSPACE_BUFFERS
  static uint8_t usbserial1_rx_buffer[USB_RX_BUFFER_SIZE];
  static uint8_t usbserial1_tx_buffer[USB_TX_BUFFER_SIZE];

  conf.rx_buffer = usbserial1_rx_buffer;
 80a3a5c:	6063      	str	r3, [r4, #4]
  conf.tx_buffer = usbserial1_tx_buffer;
 80a3a5e:	4b05      	ldr	r3, [pc, #20]	; (80a3a74 <_Z23acquireUSBSerial1Bufferv+0x28>)
 80a3a60:	60e3      	str	r3, [r4, #12]
  conf.rx_buffer_size = USB_RX_BUFFER_SIZE;
 80a3a62:	f240 1301 	movw	r3, #257	; 0x101
 80a3a66:	8123      	strh	r3, [r4, #8]
  conf.tx_buffer_size = USB_TX_BUFFER_SIZE;
 80a3a68:	2381      	movs	r3, #129	; 0x81
 80a3a6a:	8223      	strh	r3, [r4, #16]
#endif

  return conf;
}
 80a3a6c:	bd10      	pop	{r4, pc}
 80a3a6e:	bf00      	nop
 80a3a70:	20000658 	.word	0x20000658
 80a3a74:	200005c0 	.word	0x200005c0

080a3a78 <_Z17_fetch_usbserial1v>:

USBSerial& _fetch_usbserial1()
{
 80a3a78:	b510      	push	{r4, lr}
  HAL_USB_USART_Config conf = acquireUSBSerial1Buffer();
  static USBSerial _usbserial1(HAL_USB_USART_SERIAL1, conf);
 80a3a7a:	4c0e      	ldr	r4, [pc, #56]	; (80a3ab4 <_Z17_fetch_usbserial1v+0x3c>)

  return conf;
}

USBSerial& _fetch_usbserial1()
{
 80a3a7c:	b086      	sub	sp, #24
  HAL_USB_USART_Config conf = acquireUSBSerial1Buffer();
 80a3a7e:	a801      	add	r0, sp, #4
 80a3a80:	f7ff ffe4 	bl	80a3a4c <_Z23acquireUSBSerial1Bufferv>
  static USBSerial _usbserial1(HAL_USB_USART_SERIAL1, conf);
 80a3a84:	6823      	ldr	r3, [r4, #0]
 80a3a86:	07db      	lsls	r3, r3, #31
 80a3a88:	d410      	bmi.n	80a3aac <_Z17_fetch_usbserial1v+0x34>
 80a3a8a:	4620      	mov	r0, r4
 80a3a8c:	f7fc fb09 	bl	80a00a2 <__cxa_guard_acquire>
 80a3a90:	b160      	cbz	r0, 80a3aac <_Z17_fetch_usbserial1v+0x34>
 80a3a92:	aa01      	add	r2, sp, #4
 80a3a94:	2101      	movs	r1, #1
 80a3a96:	4808      	ldr	r0, [pc, #32]	; (80a3ab8 <_Z17_fetch_usbserial1v+0x40>)
 80a3a98:	f7ff ff84 	bl	80a39a4 <_ZN9USBSerialC1E20HAL_USB_USART_SerialRK20HAL_USB_USART_Config>
 80a3a9c:	4620      	mov	r0, r4
 80a3a9e:	f7fc fb05 	bl	80a00ac <__cxa_guard_release>
 80a3aa2:	4a06      	ldr	r2, [pc, #24]	; (80a3abc <_Z17_fetch_usbserial1v+0x44>)
 80a3aa4:	4906      	ldr	r1, [pc, #24]	; (80a3ac0 <_Z17_fetch_usbserial1v+0x48>)
 80a3aa6:	4804      	ldr	r0, [pc, #16]	; (80a3ab8 <_Z17_fetch_usbserial1v+0x40>)
 80a3aa8:	f000 f9d8 	bl	80a3e5c <__aeabi_atexit>
  return _usbserial1;
}
 80a3aac:	4802      	ldr	r0, [pc, #8]	; (80a3ab8 <_Z17_fetch_usbserial1v+0x40>)
 80a3aae:	b006      	add	sp, #24
 80a3ab0:	bd10      	pop	{r4, pc}
 80a3ab2:	bf00      	nop
 80a3ab4:	200005bc 	.word	0x200005bc
 80a3ab8:	20000644 	.word	0x20000644
 80a3abc:	20000360 	.word	0x20000360
 80a3ac0:	080a3955 	.word	0x080a3955

080a3ac4 <_Z26call_raw_interrupt_handlerPv>:
}

void call_raw_interrupt_handler(void* data)
{
    raw_interrupt_handler_t handler = raw_interrupt_handler_t(data);
    handler();
 80a3ac4:	4700      	bx	r0
	...

080a3ac8 <_Z15attachInterrupttPFvvE13InterruptModeah>:
    }
    return handler!=NULL;
}

bool attachInterrupt(uint16_t pin, raw_interrupt_handler_t handler, InterruptMode mode, int8_t priority, uint8_t subpriority)
{
 80a3ac8:	b5f0      	push	{r4, r5, r6, r7, lr}
 80a3aca:	461c      	mov	r4, r3
 80a3acc:	b085      	sub	sp, #20
 80a3ace:	4605      	mov	r5, r0
 80a3ad0:	460e      	mov	r6, r1
 80a3ad2:	4617      	mov	r7, r2
#if Wiring_Cellular == 1
  /* safety check that prevents users from attaching an interrupt to D7
   * which is shared with BATT_INT_PC13 for power management */
  if (pin == D7) return false;
#endif
    HAL_Interrupts_Detach(pin);
 80a3ad4:	f7ff fb88 	bl	80a31e8 <HAL_Interrupts_Detach>
    HAL_InterruptExtraConfiguration extra = {0};
 80a3ad8:	2000      	movs	r0, #0
 *******************************************************************************/

HAL_InterruptExtraConfiguration* configure_interrupt(HAL_InterruptExtraConfiguration& extra, int8_t priority, uint8_t subpriority)
{
  extra.version = HAL_INTERRUPT_EXTRA_CONFIGURATION_VERSION_1;
  if (priority >= 0) {
 80a3ada:	4284      	cmp	r4, r0
 * Return         : true if function handler was allocated, false otherwise.
 *******************************************************************************/

HAL_InterruptExtraConfiguration* configure_interrupt(HAL_InterruptExtraConfiguration& extra, int8_t priority, uint8_t subpriority)
{
  extra.version = HAL_INTERRUPT_EXTRA_CONFIGURATION_VERSION_1;
 80a3adc:	f04f 0304 	mov.w	r3, #4
  /* safety check that prevents users from attaching an interrupt to D7
   * which is shared with BATT_INT_PC13 for power management */
  if (pin == D7) return false;
#endif
    HAL_Interrupts_Detach(pin);
    HAL_InterruptExtraConfiguration extra = {0};
 80a3ae0:	9003      	str	r0, [sp, #12]
 * Return         : true if function handler was allocated, false otherwise.
 *******************************************************************************/

HAL_InterruptExtraConfiguration* configure_interrupt(HAL_InterruptExtraConfiguration& extra, int8_t priority, uint8_t subpriority)
{
  extra.version = HAL_INTERRUPT_EXTRA_CONFIGURATION_VERSION_1;
 80a3ae2:	f88d 300c 	strb.w	r3, [sp, #12]
  if (priority >= 0) {
    extra.IRQChannelPreemptionPriority = (uint8_t)priority;
    extra.IRQChannelSubPriority = subpriority;
    return &extra;
  }
  return nullptr;
 80a3ae6:	bfb4      	ite	lt
 80a3ae8:	4603      	movlt	r3, r0
HAL_InterruptExtraConfiguration* configure_interrupt(HAL_InterruptExtraConfiguration& extra, int8_t priority, uint8_t subpriority)
{
  extra.version = HAL_INTERRUPT_EXTRA_CONFIGURATION_VERSION_1;
  if (priority >= 0) {
    extra.IRQChannelPreemptionPriority = (uint8_t)priority;
    extra.IRQChannelSubPriority = subpriority;
 80a3aea:	f89d 3028 	ldrbge.w	r3, [sp, #40]	; 0x28
   * which is shared with BATT_INT_PC13 for power management */
  if (pin == D7) return false;
#endif
    HAL_Interrupts_Detach(pin);
    HAL_InterruptExtraConfiguration extra = {0};
    HAL_Interrupts_Attach(pin, call_raw_interrupt_handler, (void*)handler, mode, configure_interrupt(extra, priority, subpriority));
 80a3aee:	4628      	mov	r0, r5
HAL_InterruptExtraConfiguration* configure_interrupt(HAL_InterruptExtraConfiguration& extra, int8_t priority, uint8_t subpriority)
{
  extra.version = HAL_INTERRUPT_EXTRA_CONFIGURATION_VERSION_1;
  if (priority >= 0) {
    extra.IRQChannelPreemptionPriority = (uint8_t)priority;
    extra.IRQChannelSubPriority = subpriority;
 80a3af0:	bfa4      	itt	ge
 80a3af2:	f88d 300e 	strbge.w	r3, [sp, #14]
    return &extra;
 80a3af6:	ab03      	addge	r3, sp, #12
   * which is shared with BATT_INT_PC13 for power management */
  if (pin == D7) return false;
#endif
    HAL_Interrupts_Detach(pin);
    HAL_InterruptExtraConfiguration extra = {0};
    HAL_Interrupts_Attach(pin, call_raw_interrupt_handler, (void*)handler, mode, configure_interrupt(extra, priority, subpriority));
 80a3af8:	9300      	str	r3, [sp, #0]
 80a3afa:	4632      	mov	r2, r6
 80a3afc:	463b      	mov	r3, r7
 80a3afe:	4904      	ldr	r1, [pc, #16]	; (80a3b10 <_Z15attachInterrupttPFvvE13InterruptModeah+0x48>)

HAL_InterruptExtraConfiguration* configure_interrupt(HAL_InterruptExtraConfiguration& extra, int8_t priority, uint8_t subpriority)
{
  extra.version = HAL_INTERRUPT_EXTRA_CONFIGURATION_VERSION_1;
  if (priority >= 0) {
    extra.IRQChannelPreemptionPriority = (uint8_t)priority;
 80a3b00:	bfa8      	it	ge
 80a3b02:	f88d 400d 	strbge.w	r4, [sp, #13]
   * which is shared with BATT_INT_PC13 for power management */
  if (pin == D7) return false;
#endif
    HAL_Interrupts_Detach(pin);
    HAL_InterruptExtraConfiguration extra = {0};
    HAL_Interrupts_Attach(pin, call_raw_interrupt_handler, (void*)handler, mode, configure_interrupt(extra, priority, subpriority));
 80a3b06:	f7ff fb67 	bl	80a31d8 <HAL_Interrupts_Attach>
    return true;
}
 80a3b0a:	2001      	movs	r0, #1
 80a3b0c:	b005      	add	sp, #20
 80a3b0e:	bdf0      	pop	{r4, r5, r6, r7, pc}
 80a3b10:	080a3ac5 	.word	0x080a3ac5

080a3b14 <_ZN11USARTSerialD1Ev>:
private:
  HAL_USART_Serial _serial;
  bool _blocking;
public:
  USARTSerial(HAL_USART_Serial serial, Ring_Buffer *rx_buffer, Ring_Buffer *tx_buffer);
  virtual ~USARTSerial() {};
 80a3b14:	4770      	bx	lr

080a3b16 <_ZN11USARTSerial14blockOnOverrunEb>:
    HAL_USART_Half_Duplex(_serial, Enable);
}

void USARTSerial::blockOnOverrun(bool block)
{
  _blocking = block;
 80a3b16:	7441      	strb	r1, [r0, #17]
 80a3b18:	4770      	bx	lr

080a3b1a <_ZN11USARTSerial17availableForWriteEv>:
}


int USARTSerial::availableForWrite(void)
{
  return HAL_USART_Available_Data_For_Write(_serial);
 80a3b1a:	7c00      	ldrb	r0, [r0, #16]
 80a3b1c:	f7ff bbcc 	b.w	80a32b8 <HAL_USART_Available_Data_For_Write>

080a3b20 <_ZN11USARTSerial9availableEv>:
}

int USARTSerial::available(void)
{
  return HAL_USART_Available_Data(_serial);
 80a3b20:	7c00      	ldrb	r0, [r0, #16]
 80a3b22:	f7ff bba1 	b.w	80a3268 <HAL_USART_Available_Data>

080a3b26 <_ZN11USARTSerial4peekEv>:
}

int USARTSerial::peek(void)
{
  return HAL_USART_Peek_Data(_serial);
 80a3b26:	7c00      	ldrb	r0, [r0, #16]
 80a3b28:	f7ff bbae 	b.w	80a3288 <HAL_USART_Peek_Data>

080a3b2c <_ZN11USARTSerial4readEv>:
}

int USARTSerial::read(void)
{
  return HAL_USART_Read_Data(_serial);
 80a3b2c:	7c00      	ldrb	r0, [r0, #16]
 80a3b2e:	f7ff bba3 	b.w	80a3278 <HAL_USART_Read_Data>

080a3b32 <_ZN11USARTSerial5flushEv>:
}

void USARTSerial::flush()
{
  HAL_USART_Flush_Data(_serial);
 80a3b32:	7c00      	ldrb	r0, [r0, #16]
 80a3b34:	f7ff bbb0 	b.w	80a3298 <HAL_USART_Flush_Data>

080a3b38 <_ZN11USARTSerialD0Ev>:
 80a3b38:	b510      	push	{r4, lr}
 80a3b3a:	4604      	mov	r4, r0
 80a3b3c:	f7fc faaf 	bl	80a009e <_ZdlPv>
 80a3b40:	4620      	mov	r0, r4
 80a3b42:	bd10      	pop	{r4, pc}

080a3b44 <_ZN11USARTSerial5writeEh>:
}

size_t USARTSerial::write(uint8_t c)
{
 80a3b44:	b570      	push	{r4, r5, r6, lr}
  // attempt a write if blocking, or for non-blocking if there is room.
  if (_blocking || HAL_USART_Available_Data_For_Write(_serial) > 0) {
 80a3b46:	7c45      	ldrb	r5, [r0, #17]
{
  HAL_USART_Flush_Data(_serial);
}

size_t USARTSerial::write(uint8_t c)
{
 80a3b48:	4604      	mov	r4, r0
 80a3b4a:	460e      	mov	r6, r1
  // attempt a write if blocking, or for non-blocking if there is room.
  if (_blocking || HAL_USART_Available_Data_For_Write(_serial) > 0) {
 80a3b4c:	b925      	cbnz	r5, 80a3b58 <_ZN11USARTSerial5writeEh+0x14>
 80a3b4e:	7c00      	ldrb	r0, [r0, #16]
 80a3b50:	f7ff fbb2 	bl	80a32b8 <HAL_USART_Available_Data_For_Write>
 80a3b54:	2800      	cmp	r0, #0
 80a3b56:	dd05      	ble.n	80a3b64 <_ZN11USARTSerial5writeEh+0x20>
    // the HAL always blocks.
	  return HAL_USART_Write_Data(_serial, c);
 80a3b58:	4631      	mov	r1, r6
 80a3b5a:	7c20      	ldrb	r0, [r4, #16]
  }
  return 0;
}
 80a3b5c:	e8bd 4070 	ldmia.w	sp!, {r4, r5, r6, lr}
size_t USARTSerial::write(uint8_t c)
{
  // attempt a write if blocking, or for non-blocking if there is room.
  if (_blocking || HAL_USART_Available_Data_For_Write(_serial) > 0) {
    // the HAL always blocks.
	  return HAL_USART_Write_Data(_serial, c);
 80a3b60:	f7ff bb7a 	b.w	80a3258 <HAL_USART_Write_Data>
  }
  return 0;
}
 80a3b64:	4628      	mov	r0, r5
 80a3b66:	bd70      	pop	{r4, r5, r6, pc}

080a3b68 <_ZN11USARTSerialC1E16HAL_USART_SerialP11Ring_BufferS2_>:
#include "spark_wiring_usartserial.h"
#include "spark_wiring_constants.h"

// Constructors ////////////////////////////////////////////////////////////////

USARTSerial::USARTSerial(HAL_USART_Serial serial, Ring_Buffer *rx_buffer, Ring_Buffer *tx_buffer)
 80a3b68:	b510      	push	{r4, lr}
 80a3b6a:	4604      	mov	r4, r0
 80a3b6c:	4608      	mov	r0, r1
 80a3b6e:	4611      	mov	r1, r2
 80a3b70:	2200      	movs	r2, #0
 80a3b72:	6062      	str	r2, [r4, #4]
 80a3b74:	f44f 727a 	mov.w	r2, #1000	; 0x3e8
 80a3b78:	60a2      	str	r2, [r4, #8]
 80a3b7a:	4a05      	ldr	r2, [pc, #20]	; (80a3b90 <_ZN11USARTSerialC1E16HAL_USART_SerialP11Ring_BufferS2_+0x28>)
{
  _serial = serial;
 80a3b7c:	7420      	strb	r0, [r4, #16]
#include "spark_wiring_usartserial.h"
#include "spark_wiring_constants.h"

// Constructors ////////////////////////////////////////////////////////////////

USARTSerial::USARTSerial(HAL_USART_Serial serial, Ring_Buffer *rx_buffer, Ring_Buffer *tx_buffer)
 80a3b7e:	6022      	str	r2, [r4, #0]
{
  _serial = serial;
  // Default is blocking mode
  _blocking = true;
 80a3b80:	2201      	movs	r2, #1
 80a3b82:	7462      	strb	r2, [r4, #17]
  HAL_USART_Init(serial, rx_buffer, tx_buffer);
 80a3b84:	461a      	mov	r2, r3
 80a3b86:	f7ff fb5f 	bl	80a3248 <HAL_USART_Init>
}
 80a3b8a:	4620      	mov	r0, r4
 80a3b8c:	bd10      	pop	{r4, pc}
 80a3b8e:	bf00      	nop
 80a3b90:	080a5314 	.word	0x080a5314

080a3b94 <_ZN11USARTSerial9isEnabledEv>:
USARTSerial::operator bool() {
  return true;
}

bool USARTSerial::isEnabled() {
  return HAL_USART_Is_Enabled(_serial);
 80a3b94:	7c00      	ldrb	r0, [r0, #16]
 80a3b96:	f7ff bb87 	b.w	80a32a8 <HAL_USART_Is_Enabled>
	...

080a3b9c <_Z22__fetch_global_Serial1v>:
// Preinstantiate Objects //////////////////////////////////////////////////////
static Ring_Buffer serial1_rx_buffer;
static Ring_Buffer serial1_tx_buffer;

USARTSerial& __fetch_global_Serial1()
{
 80a3b9c:	b538      	push	{r3, r4, r5, lr}
	static USARTSerial serial1(HAL_USART_SERIAL1, &serial1_rx_buffer, &serial1_tx_buffer);
 80a3b9e:	4d0c      	ldr	r5, [pc, #48]	; (80a3bd0 <_Z22__fetch_global_Serial1v+0x34>)
 80a3ba0:	6829      	ldr	r1, [r5, #0]
 80a3ba2:	f011 0401 	ands.w	r4, r1, #1
 80a3ba6:	d111      	bne.n	80a3bcc <_Z22__fetch_global_Serial1v+0x30>
 80a3ba8:	4628      	mov	r0, r5
 80a3baa:	f7fc fa7a 	bl	80a00a2 <__cxa_guard_acquire>
 80a3bae:	b168      	cbz	r0, 80a3bcc <_Z22__fetch_global_Serial1v+0x30>
 80a3bb0:	4a08      	ldr	r2, [pc, #32]	; (80a3bd4 <_Z22__fetch_global_Serial1v+0x38>)
 80a3bb2:	4621      	mov	r1, r4
 80a3bb4:	4b08      	ldr	r3, [pc, #32]	; (80a3bd8 <_Z22__fetch_global_Serial1v+0x3c>)
 80a3bb6:	4809      	ldr	r0, [pc, #36]	; (80a3bdc <_Z22__fetch_global_Serial1v+0x40>)
 80a3bb8:	f7ff ffd6 	bl	80a3b68 <_ZN11USARTSerialC1E16HAL_USART_SerialP11Ring_BufferS2_>
 80a3bbc:	4628      	mov	r0, r5
 80a3bbe:	f7fc fa75 	bl	80a00ac <__cxa_guard_release>
 80a3bc2:	4a07      	ldr	r2, [pc, #28]	; (80a3be0 <_Z22__fetch_global_Serial1v+0x44>)
 80a3bc4:	4907      	ldr	r1, [pc, #28]	; (80a3be4 <_Z22__fetch_global_Serial1v+0x48>)
 80a3bc6:	4805      	ldr	r0, [pc, #20]	; (80a3bdc <_Z22__fetch_global_Serial1v+0x40>)
 80a3bc8:	f000 f948 	bl	80a3e5c <__aeabi_atexit>
	return serial1;
}
 80a3bcc:	4803      	ldr	r0, [pc, #12]	; (80a3bdc <_Z22__fetch_global_Serial1v+0x40>)
 80a3bce:	bd38      	pop	{r3, r4, r5, pc}
 80a3bd0:	200007f4 	.word	0x200007f4
 80a3bd4:	200007f8 	.word	0x200007f8
 80a3bd8:	20000770 	.word	0x20000770
 80a3bdc:	2000075c 	.word	0x2000075c
 80a3be0:	20000360 	.word	0x20000360
 80a3be4:	080a3b15 	.word	0x080a3b15

080a3be8 <_ZN7TwoWireD1Ev>:
private:
  HAL_I2C_Interface _i2c;

public:
  TwoWire(HAL_I2C_Interface i2c);
  virtual ~TwoWire() {};
 80a3be8:	4770      	bx	lr

080a3bea <_ZN7TwoWire5writeEPKhj>:

// must be called in:
// slave tx event callback
// or after beginTransmission(address)
size_t TwoWire::write(const uint8_t *data, size_t quantity)
{
 80a3bea:	b5f8      	push	{r3, r4, r5, r6, r7, lr}
 80a3bec:	4606      	mov	r6, r0
 80a3bee:	4615      	mov	r5, r2
 80a3bf0:	460c      	mov	r4, r1
 80a3bf2:	188f      	adds	r7, r1, r2
  // in master/slave transmitter mode
  for(size_t i = 0; i < quantity; ++i)
 80a3bf4:	42bc      	cmp	r4, r7
 80a3bf6:	d006      	beq.n	80a3c06 <_ZN7TwoWire5writeEPKhj+0x1c>
  {
    write(data[i]);
 80a3bf8:	6833      	ldr	r3, [r6, #0]
 80a3bfa:	f814 1b01 	ldrb.w	r1, [r4], #1
 80a3bfe:	689b      	ldr	r3, [r3, #8]
 80a3c00:	4630      	mov	r0, r6
 80a3c02:	4798      	blx	r3
// slave tx event callback
// or after beginTransmission(address)
size_t TwoWire::write(const uint8_t *data, size_t quantity)
{
  // in master/slave transmitter mode
  for(size_t i = 0; i < quantity; ++i)
 80a3c04:	e7f6      	b.n	80a3bf4 <_ZN7TwoWire5writeEPKhj+0xa>
  {
    write(data[i]);
  }

  return quantity;
}
 80a3c06:	4628      	mov	r0, r5
 80a3c08:	bdf8      	pop	{r3, r4, r5, r6, r7, pc}

080a3c0a <_ZN7TwoWire5writeEh>:
// must be called in:
// slave tx event callback
// or after beginTransmission(address)
size_t TwoWire::write(uint8_t data)
{
  return HAL_I2C_Write_Data(_i2c, data, NULL);
 80a3c0a:	2200      	movs	r2, #0
 80a3c0c:	7c00      	ldrb	r0, [r0, #16]
 80a3c0e:	f7ff bb83 	b.w	80a3318 <HAL_I2C_Write_Data>

080a3c12 <_ZN7TwoWire9availableEv>:
// must be called in:
// slave rx event callback
// or after requestFrom(address, numBytes)
int TwoWire::available(void)
{
  return HAL_I2C_Available_Data(_i2c, NULL);
 80a3c12:	2100      	movs	r1, #0
 80a3c14:	7c00      	ldrb	r0, [r0, #16]
 80a3c16:	f7ff bb87 	b.w	80a3328 <HAL_I2C_Available_Data>

080a3c1a <_ZN7TwoWire4readEv>:
// must be called in:
// slave rx event callback
// or after requestFrom(address, numBytes)
int TwoWire::read(void)
{
  return HAL_I2C_Read_Data(_i2c, NULL);
 80a3c1a:	2100      	movs	r1, #0
 80a3c1c:	7c00      	ldrb	r0, [r0, #16]
 80a3c1e:	f7ff bb8b 	b.w	80a3338 <HAL_I2C_Read_Data>

080a3c22 <_ZN7TwoWire4peekEv>:
// must be called in:
// slave rx event callback
// or after requestFrom(address, numBytes)
int TwoWire::peek(void)
{
  return HAL_I2C_Peek_Data(_i2c, NULL);
 80a3c22:	2100      	movs	r1, #0
 80a3c24:	7c00      	ldrb	r0, [r0, #16]
 80a3c26:	f7ff bb8f 	b.w	80a3348 <HAL_I2C_Peek_Data>

080a3c2a <_ZN7TwoWire5flushEv>:
}

void TwoWire::flush(void)
{
  HAL_I2C_Flush_Data(_i2c, NULL);
 80a3c2a:	2100      	movs	r1, #0
 80a3c2c:	7c00      	ldrb	r0, [r0, #16]
 80a3c2e:	f7ff bb93 	b.w	80a3358 <HAL_I2C_Flush_Data>

080a3c32 <_ZN7TwoWireD0Ev>:
 80a3c32:	b510      	push	{r4, lr}
 80a3c34:	4604      	mov	r4, r0
 80a3c36:	f7fc fa32 	bl	80a009e <_ZdlPv>
 80a3c3a:	4620      	mov	r0, r4
 80a3c3c:	bd10      	pop	{r4, pc}
	...

080a3c40 <_ZN7TwoWireC1E17HAL_I2C_Interface>:
#include "i2c_hal.h"
#include "spark_wiring_thread.h"

// Constructors ////////////////////////////////////////////////////////////////

TwoWire::TwoWire(HAL_I2C_Interface i2c)
 80a3c40:	b510      	push	{r4, lr}
 80a3c42:	4604      	mov	r4, r0
 80a3c44:	4608      	mov	r0, r1
 80a3c46:	f44f 737a 	mov.w	r3, #1000	; 0x3e8
 80a3c4a:	60a3      	str	r3, [r4, #8]
 80a3c4c:	4b04      	ldr	r3, [pc, #16]	; (80a3c60 <_ZN7TwoWireC1E17HAL_I2C_Interface+0x20>)
 80a3c4e:	2100      	movs	r1, #0
{
  _i2c = i2c;
 80a3c50:	7420      	strb	r0, [r4, #16]
 80a3c52:	6061      	str	r1, [r4, #4]
#include "i2c_hal.h"
#include "spark_wiring_thread.h"

// Constructors ////////////////////////////////////////////////////////////////

TwoWire::TwoWire(HAL_I2C_Interface i2c)
 80a3c54:	6023      	str	r3, [r4, #0]
{
  _i2c = i2c;
  HAL_I2C_Init(_i2c, NULL);
 80a3c56:	f7ff fb8f 	bl	80a3378 <HAL_I2C_Init>

}
 80a3c5a:	4620      	mov	r0, r4
 80a3c5c:	bd10      	pop	{r4, pc}
 80a3c5e:	bf00      	nop
 80a3c60:	080a5344 	.word	0x080a5344

080a3c64 <_ZN7TwoWire8setSpeedEm>:
// Public Methods //////////////////////////////////////////////////////////////

//setSpeed() should be called before begin() else default to 100KHz
void TwoWire::setSpeed(uint32_t clockSpeed)
{
  HAL_I2C_Set_Speed(_i2c, clockSpeed, NULL);
 80a3c64:	2200      	movs	r2, #0
 80a3c66:	7c00      	ldrb	r0, [r0, #16]
 80a3c68:	f7ff bb2e 	b.w	80a32c8 <HAL_I2C_Set_Speed>

080a3c6c <_ZN7TwoWire5beginEv>:
  HAL_I2C_Stretch_Clock(_i2c, stretch, NULL);
}

void TwoWire::begin(void)
{
	HAL_I2C_Begin(_i2c, I2C_MODE_MASTER, 0x00, NULL);
 80a3c6c:	2300      	movs	r3, #0
 80a3c6e:	461a      	mov	r2, r3
 80a3c70:	4619      	mov	r1, r3
 80a3c72:	7c00      	ldrb	r0, [r0, #16]
 80a3c74:	f7ff bb30 	b.w	80a32d8 <HAL_I2C_Begin>

080a3c78 <_ZN7TwoWire11requestFromEhhh>:
{
	HAL_I2C_End(_i2c, NULL);
}

uint8_t TwoWire::requestFrom(uint8_t address, uint8_t quantity, uint8_t sendStop)
{
 80a3c78:	b513      	push	{r0, r1, r4, lr}
  uint8_t result = HAL_I2C_Request_Data(_i2c, address, quantity, sendStop, NULL);
 80a3c7a:	2400      	movs	r4, #0
 80a3c7c:	7c00      	ldrb	r0, [r0, #16]
 80a3c7e:	9400      	str	r4, [sp, #0]
 80a3c80:	f7ff fb32 	bl	80a32e8 <HAL_I2C_Request_Data>
  return result;
}
 80a3c84:	b2c0      	uxtb	r0, r0
 80a3c86:	b002      	add	sp, #8
 80a3c88:	bd10      	pop	{r4, pc}

080a3c8a <_ZN7TwoWire11requestFromEhh>:

uint8_t TwoWire::requestFrom(uint8_t address, uint8_t quantity)
{
  return requestFrom((uint8_t)address, (uint8_t)quantity, (uint8_t)true);
 80a3c8a:	2301      	movs	r3, #1
 80a3c8c:	f7ff bff4 	b.w	80a3c78 <_ZN7TwoWire11requestFromEhhh>

080a3c90 <_ZN7TwoWire11requestFromEii>:
}

uint8_t TwoWire::requestFrom(int address, int quantity)
{
  return requestFrom((uint8_t)address, (uint8_t)quantity, (uint8_t)true);
 80a3c90:	2301      	movs	r3, #1
 80a3c92:	b2d2      	uxtb	r2, r2
 80a3c94:	b2c9      	uxtb	r1, r1
 80a3c96:	f7ff bfef 	b.w	80a3c78 <_ZN7TwoWire11requestFromEhhh>

080a3c9a <_ZN7TwoWire17beginTransmissionEh>:
  return requestFrom((uint8_t)address, (uint8_t)quantity, (uint8_t)sendStop);
}

void TwoWire::beginTransmission(uint8_t address)
{
	HAL_I2C_Begin_Transmission(_i2c, address, NULL);
 80a3c9a:	2200      	movs	r2, #0
 80a3c9c:	7c00      	ldrb	r0, [r0, #16]
 80a3c9e:	f7ff bb2b 	b.w	80a32f8 <HAL_I2C_Begin_Transmission>

080a3ca2 <_ZN7TwoWire15endTransmissionEh>:
//	no call to endTransmission(true) is made. Some I2C
//	devices will behave oddly if they do not see a STOP.
//
uint8_t TwoWire::endTransmission(uint8_t sendStop)
{
	return HAL_I2C_End_Transmission(_i2c, sendStop, NULL);
 80a3ca2:	2200      	movs	r2, #0
 80a3ca4:	7c00      	ldrb	r0, [r0, #16]
 80a3ca6:	f7ff bb2f 	b.w	80a3308 <HAL_I2C_End_Transmission>

080a3caa <_ZN7TwoWire15endTransmissionEv>:
//	This provides backwards compatibility with the original
//	definition, and expected behaviour, of endTransmission
//
uint8_t TwoWire::endTransmission(void)
{
  return endTransmission(true);
 80a3caa:	2101      	movs	r1, #1
 80a3cac:	f7ff bff9 	b.w	80a3ca2 <_ZN7TwoWire15endTransmissionEh>

080a3cb0 <_ZN7TwoWire9isEnabledEv>:
  HAL_I2C_Set_Callback_On_Request(_i2c, function, NULL);
}

bool TwoWire::isEnabled()
{
  return HAL_I2C_Is_Enabled(_i2c, NULL);
 80a3cb0:	2100      	movs	r1, #0
 80a3cb2:	7c00      	ldrb	r0, [r0, #16]
 80a3cb4:	f7ff bb58 	b.w	80a3368 <HAL_I2C_Is_Enabled>

080a3cb8 <_ZN5spark9WiFiClassD1Ev>:
        wlan_set_ipaddress_source(source, true, NULL);
    }

public:
    WiFiClass() {}
    ~WiFiClass() {}
 80a3cb8:	4770      	bx	lr

080a3cba <_ZN5spark9WiFiClass5readyEv>:
    bool connecting(void) {
        return network_connecting(*this, 0, NULL);
    }

    bool ready(void) {
        return network_ready(*this, 0, NULL);
 80a3cba:	2200      	movs	r2, #0
 80a3cbc:	4611      	mov	r1, r2
 80a3cbe:	4610      	mov	r0, r2
 80a3cc0:	f7ff bbdc 	b.w	80a347c <network_ready>

080a3cc4 <_GLOBAL__sub_I__ZN5spark9WiFiClass4scanEP15WiFiAccessPointj>:
    void setIPAddressSource(IPAddressSource source) {
        wlan_set_ipaddress_source(source, true, NULL);
    }

public:
    WiFiClass() {}
 80a3cc4:	4803      	ldr	r0, [pc, #12]	; (80a3cd4 <_GLOBAL__sub_I__ZN5spark9WiFiClass4scanEP15WiFiAccessPointj+0x10>)
 80a3cc6:	4b04      	ldr	r3, [pc, #16]	; (80a3cd8 <_GLOBAL__sub_I__ZN5spark9WiFiClass4scanEP15WiFiAccessPointj+0x14>)
one second timeout is reached). If the aforementioned "bug" is ever fixed by
TI, no changes need to be made to this function, as it would be implemented
the same way.
*****************************************************************************/

    WiFiClass WiFi;
 80a3cc8:	4a04      	ldr	r2, [pc, #16]	; (80a3cdc <_GLOBAL__sub_I__ZN5spark9WiFiClass4scanEP15WiFiAccessPointj+0x18>)
 80a3cca:	4905      	ldr	r1, [pc, #20]	; (80a3ce0 <_GLOBAL__sub_I__ZN5spark9WiFiClass4scanEP15WiFiAccessPointj+0x1c>)
 80a3ccc:	6003      	str	r3, [r0, #0]
 80a3cce:	f000 b8c5 	b.w	80a3e5c <__aeabi_atexit>
 80a3cd2:	bf00      	nop
 80a3cd4:	2000087c 	.word	0x2000087c
 80a3cd8:	080a536c 	.word	0x080a536c
 80a3cdc:	20000360 	.word	0x20000360
 80a3ce0:	080a3cb9 	.word	0x080a3cb9

080a3ce4 <pinAvailable>:

/*
 * @brief Perform safety check on desired pin to see if it's already
 * being used.  Return 0 if used, otherwise return 1 if available.
 */
bool pinAvailable(uint16_t pin) {
 80a3ce4:	b510      	push	{r4, lr}
 80a3ce6:	4604      	mov	r4, r0

  // SPI safety check
#ifndef SPARK_WIRING_NO_SPI
  if(SPI.isEnabled() == true && (pin == SCK || pin == MOSI || pin == MISO))
 80a3ce8:	480f      	ldr	r0, [pc, #60]	; (80a3d28 <pinAvailable+0x44>)
 80a3cea:	f7ff fc03 	bl	80a34f4 <_ZN8SPIClass9isEnabledEv>
 80a3cee:	b128      	cbz	r0, 80a3cfc <pinAvailable+0x18>
 80a3cf0:	f1a4 030d 	sub.w	r3, r4, #13
 80a3cf4:	2b02      	cmp	r3, #2
 80a3cf6:	d801      	bhi.n	80a3cfc <pinAvailable+0x18>
  {
    return 0; // 'pin' is used
 80a3cf8:	2000      	movs	r0, #0
 80a3cfa:	bd10      	pop	{r4, pc}
  }
#endif
  // I2C safety check
#ifndef SPARK_WIRING_NO_I2C
  if(Wire.isEnabled() == true && (pin == SCL || pin == SDA))
 80a3cfc:	f000 f88e 	bl	80a3e1c <_Z19__fetch_global_Wirev>
 80a3d00:	f7ff ffd6 	bl	80a3cb0 <_ZN7TwoWire9isEnabledEv>
 80a3d04:	b108      	cbz	r0, 80a3d0a <pinAvailable+0x26>
 80a3d06:	2c01      	cmp	r4, #1
 80a3d08:	d9f6      	bls.n	80a3cf8 <pinAvailable+0x14>
    return 0; // 'pin' is used
  }
#endif
#ifndef SPARK_WIRING_NO_USART_SERIAL
  // Serial1 safety check
  if(Serial1.isEnabled() == true && (pin == RX || pin == TX))
 80a3d0a:	f7ff ff47 	bl	80a3b9c <_Z22__fetch_global_Serial1v>
 80a3d0e:	f7ff ff41 	bl	80a3b94 <_ZN11USARTSerial9isEnabledEv>
 80a3d12:	b118      	cbz	r0, 80a3d1c <pinAvailable+0x38>
 80a3d14:	f1a4 0312 	sub.w	r3, r4, #18
 80a3d18:	2b01      	cmp	r3, #1
 80a3d1a:	d9ed      	bls.n	80a3cf8 <pinAvailable+0x14>
  {
    return 0; // 'pin' is used
  }
#endif

  if (pin >= TOTAL_PINS)
 80a3d1c:	2c17      	cmp	r4, #23
 80a3d1e:	bf8c      	ite	hi
 80a3d20:	2000      	movhi	r0, #0
 80a3d22:	2001      	movls	r0, #1
    return 0;
  else
    return 1; // 'pin' is available
}
 80a3d24:	bd10      	pop	{r4, pc}
 80a3d26:	bf00      	nop
 80a3d28:	20000880 	.word	0x20000880

080a3d2c <pinMode>:
 * or INPUT_PULLDOWN
 */
void pinMode(uint16_t pin, PinMode setMode)
{

  if(pin >= TOTAL_PINS || setMode == PIN_MODE_NONE )
 80a3d2c:	2817      	cmp	r0, #23
/*
 * @brief Set the mode of the pin to OUTPUT, INPUT, INPUT_PULLUP,
 * or INPUT_PULLDOWN
 */
void pinMode(uint16_t pin, PinMode setMode)
{
 80a3d2e:	b538      	push	{r3, r4, r5, lr}
 80a3d30:	4604      	mov	r4, r0
 80a3d32:	460d      	mov	r5, r1

  if(pin >= TOTAL_PINS || setMode == PIN_MODE_NONE )
 80a3d34:	d80a      	bhi.n	80a3d4c <pinMode+0x20>
 80a3d36:	29ff      	cmp	r1, #255	; 0xff
 80a3d38:	d008      	beq.n	80a3d4c <pinMode+0x20>
  {
    return;
  }

  // Safety check
  if( !pinAvailable(pin) ) {
 80a3d3a:	f7ff ffd3 	bl	80a3ce4 <pinAvailable>
 80a3d3e:	b128      	cbz	r0, 80a3d4c <pinMode+0x20>
    return;
  }

  HAL_Pin_Mode(pin, setMode);
 80a3d40:	4629      	mov	r1, r5
 80a3d42:	4620      	mov	r0, r4
}
 80a3d44:	e8bd 4038 	ldmia.w	sp!, {r3, r4, r5, lr}
  // Safety check
  if( !pinAvailable(pin) ) {
    return;
  }

  HAL_Pin_Mode(pin, setMode);
 80a3d48:	f7ff ba26 	b.w	80a3198 <HAL_Pin_Mode>
 80a3d4c:	bd38      	pop	{r3, r4, r5, pc}

080a3d4e <digitalWrite>:

/*
 * @brief Sets a GPIO pin to HIGH or LOW.
 */
void digitalWrite(pin_t pin, uint8_t value)
{
 80a3d4e:	b538      	push	{r3, r4, r5, lr}
 80a3d50:	4604      	mov	r4, r0
 80a3d52:	460d      	mov	r5, r1
    PinMode mode = HAL_Get_Pin_Mode(pin);
 80a3d54:	f7ff fa28 	bl	80a31a8 <HAL_Get_Pin_Mode>
    if (mode==PIN_MODE_NONE || is_input_mode(mode))
 80a3d58:	28ff      	cmp	r0, #255	; 0xff
 80a3d5a:	d010      	beq.n	80a3d7e <digitalWrite+0x30>
}

inline bool is_input_mode(PinMode mode) {
    return  mode == INPUT ||
            mode == INPUT_PULLUP ||
            mode == INPUT_PULLDOWN ||
 80a3d5c:	2806      	cmp	r0, #6
 80a3d5e:	d804      	bhi.n	80a3d6a <digitalWrite+0x1c>
 80a3d60:	234d      	movs	r3, #77	; 0x4d
 80a3d62:	fa23 f000 	lsr.w	r0, r3, r0
 80a3d66:	07c3      	lsls	r3, r0, #31
 80a3d68:	d409      	bmi.n	80a3d7e <digitalWrite+0x30>
{
    PinMode mode = HAL_Get_Pin_Mode(pin);
    if (mode==PIN_MODE_NONE || is_input_mode(mode))
        return;
  // Safety check
  if( !pinAvailable(pin) ) {
 80a3d6a:	4620      	mov	r0, r4
 80a3d6c:	f7ff ffba 	bl	80a3ce4 <pinAvailable>
 80a3d70:	b128      	cbz	r0, 80a3d7e <digitalWrite+0x30>
    return;
  }

  HAL_GPIO_Write(pin, value);
 80a3d72:	4629      	mov	r1, r5
 80a3d74:	4620      	mov	r0, r4
}
 80a3d76:	e8bd 4038 	ldmia.w	sp!, {r3, r4, r5, lr}
  // Safety check
  if( !pinAvailable(pin) ) {
    return;
  }

  HAL_GPIO_Write(pin, value);
 80a3d7a:	f7ff ba1d 	b.w	80a31b8 <HAL_GPIO_Write>
 80a3d7e:	bd38      	pop	{r3, r4, r5, pc}

080a3d80 <digitalRead>:

/*
 * @brief Reads the value of a GPIO pin. Should return either 1 (HIGH) or 0 (LOW).
 */
int32_t digitalRead(pin_t pin)
{
 80a3d80:	b510      	push	{r4, lr}
 80a3d82:	4604      	mov	r4, r0
    PinMode mode = HAL_Get_Pin_Mode(pin);
 80a3d84:	f7ff fa10 	bl	80a31a8 <HAL_Get_Pin_Mode>
    if (is_af_output_mode(mode))
 80a3d88:	3804      	subs	r0, #4
 80a3d8a:	b2c0      	uxtb	r0, r0
 80a3d8c:	2801      	cmp	r0, #1
 80a3d8e:	d908      	bls.n	80a3da2 <digitalRead+0x22>
        return LOW;

    // Safety check
    if( !pinAvailable(pin) ) {
 80a3d90:	4620      	mov	r0, r4
 80a3d92:	f7ff ffa7 	bl	80a3ce4 <pinAvailable>
 80a3d96:	b120      	cbz	r0, 80a3da2 <digitalRead+0x22>
      return LOW;
    }

    return HAL_GPIO_Read(pin);
 80a3d98:	4620      	mov	r0, r4
}
 80a3d9a:	e8bd 4010 	ldmia.w	sp!, {r4, lr}
    // Safety check
    if( !pinAvailable(pin) ) {
      return LOW;
    }

    return HAL_GPIO_Read(pin);
 80a3d9e:	f7ff ba13 	b.w	80a31c8 <HAL_GPIO_Read>
}
 80a3da2:	2000      	movs	r0, #0
 80a3da4:	bd10      	pop	{r4, pc}
	...

080a3da8 <_GLOBAL__sub_I_SPI>:
#ifndef SPARK_WIRING_NO_SPI

SPIClass SPI(HAL_SPI_INTERFACE1);

#if Wiring_SPI1
SPIClass SPI1(HAL_SPI_INTERFACE2);
 80a3da8:	b570      	push	{r4, r5, r6, lr}
#include "core_hal.h"
#include "spark_macros.h"

#ifndef SPARK_WIRING_NO_SPI

SPIClass SPI(HAL_SPI_INTERFACE1);
 80a3daa:	4c0c      	ldr	r4, [pc, #48]	; (80a3ddc <_GLOBAL__sub_I_SPI+0x34>)
 80a3dac:	4e0c      	ldr	r6, [pc, #48]	; (80a3de0 <_GLOBAL__sub_I_SPI+0x38>)
 80a3dae:	4d0d      	ldr	r5, [pc, #52]	; (80a3de4 <_GLOBAL__sub_I_SPI+0x3c>)
 80a3db0:	2100      	movs	r1, #0
 80a3db2:	4620      	mov	r0, r4
 80a3db4:	f7ff fb8a 	bl	80a34cc <_ZN8SPIClassC1E17HAL_SPI_Interface>
 80a3db8:	4620      	mov	r0, r4

#if Wiring_SPI1
SPIClass SPI1(HAL_SPI_INTERFACE2);
 80a3dba:	4c0b      	ldr	r4, [pc, #44]	; (80a3de8 <_GLOBAL__sub_I_SPI+0x40>)
#include "core_hal.h"
#include "spark_macros.h"

#ifndef SPARK_WIRING_NO_SPI

SPIClass SPI(HAL_SPI_INTERFACE1);
 80a3dbc:	4632      	mov	r2, r6
 80a3dbe:	4629      	mov	r1, r5
 80a3dc0:	f000 f84c 	bl	80a3e5c <__aeabi_atexit>

#if Wiring_SPI1
SPIClass SPI1(HAL_SPI_INTERFACE2);
 80a3dc4:	2101      	movs	r1, #1
 80a3dc6:	4620      	mov	r0, r4
 80a3dc8:	f7ff fb80 	bl	80a34cc <_ZN8SPIClassC1E17HAL_SPI_Interface>
 80a3dcc:	4632      	mov	r2, r6
 80a3dce:	4629      	mov	r1, r5
 80a3dd0:	4620      	mov	r0, r4
 80a3dd2:	e8bd 4070 	ldmia.w	sp!, {r4, r5, r6, lr}
 80a3dd6:	f000 b841 	b.w	80a3e5c <__aeabi_atexit>
 80a3dda:	bf00      	nop
 80a3ddc:	20000880 	.word	0x20000880
 80a3de0:	20000360 	.word	0x20000360
 80a3de4:	080a34bd 	.word	0x080a34bd
 80a3de8:	20000890 	.word	0x20000890

080a3dec <_GLOBAL__sub_I_INADDR_NONE>:
#include "spark_wiring_ipaddress.h"

const IPAddress INADDR_NONE(0, 0, 0, 0);
 80a3dec:	b513      	push	{r0, r1, r4, lr}
 80a3dee:	4c08      	ldr	r4, [pc, #32]	; (80a3e10 <_GLOBAL__sub_I_INADDR_NONE+0x24>)
 80a3df0:	2300      	movs	r3, #0
 80a3df2:	461a      	mov	r2, r3
 80a3df4:	4619      	mov	r1, r3
 80a3df6:	9300      	str	r3, [sp, #0]
 80a3df8:	4620      	mov	r0, r4
 80a3dfa:	f7ff fd9d 	bl	80a3938 <_ZN9IPAddressC1Ehhhh>
 80a3dfe:	4620      	mov	r0, r4
 80a3e00:	4a04      	ldr	r2, [pc, #16]	; (80a3e14 <_GLOBAL__sub_I_INADDR_NONE+0x28>)
 80a3e02:	4905      	ldr	r1, [pc, #20]	; (80a3e18 <_GLOBAL__sub_I_INADDR_NONE+0x2c>)
 80a3e04:	b002      	add	sp, #8
 80a3e06:	e8bd 4010 	ldmia.w	sp!, {r4, lr}
 80a3e0a:	f000 b827 	b.w	80a3e5c <__aeabi_atexit>
 80a3e0e:	bf00      	nop
 80a3e10:	200008a4 	.word	0x200008a4
 80a3e14:	20000360 	.word	0x20000360
 80a3e18:	080a38dd 	.word	0x080a38dd

080a3e1c <_Z19__fetch_global_Wirev>:
#include "i2c_hal.h"

#ifndef SPARK_WIRING_NO_I2C

TwoWire& __fetch_global_Wire()
{
 80a3e1c:	b538      	push	{r3, r4, r5, lr}
	static TwoWire wire(HAL_I2C_INTERFACE1);
 80a3e1e:	4d0b      	ldr	r5, [pc, #44]	; (80a3e4c <_Z19__fetch_global_Wirev+0x30>)
 80a3e20:	6829      	ldr	r1, [r5, #0]
 80a3e22:	f011 0401 	ands.w	r4, r1, #1
 80a3e26:	d10f      	bne.n	80a3e48 <_Z19__fetch_global_Wirev+0x2c>
 80a3e28:	4628      	mov	r0, r5
 80a3e2a:	f7fc f93a 	bl	80a00a2 <__cxa_guard_acquire>
 80a3e2e:	b158      	cbz	r0, 80a3e48 <_Z19__fetch_global_Wirev+0x2c>
 80a3e30:	4621      	mov	r1, r4
 80a3e32:	4807      	ldr	r0, [pc, #28]	; (80a3e50 <_Z19__fetch_global_Wirev+0x34>)
 80a3e34:	f7ff ff04 	bl	80a3c40 <_ZN7TwoWireC1E17HAL_I2C_Interface>
 80a3e38:	4628      	mov	r0, r5
 80a3e3a:	f7fc f937 	bl	80a00ac <__cxa_guard_release>
 80a3e3e:	4a05      	ldr	r2, [pc, #20]	; (80a3e54 <_Z19__fetch_global_Wirev+0x38>)
 80a3e40:	4905      	ldr	r1, [pc, #20]	; (80a3e58 <_Z19__fetch_global_Wirev+0x3c>)
 80a3e42:	4803      	ldr	r0, [pc, #12]	; (80a3e50 <_Z19__fetch_global_Wirev+0x34>)
 80a3e44:	f000 f80a 	bl	80a3e5c <__aeabi_atexit>
	return wire;
}
 80a3e48:	4801      	ldr	r0, [pc, #4]	; (80a3e50 <_Z19__fetch_global_Wirev+0x34>)
 80a3e4a:	bd38      	pop	{r3, r4, r5, pc}
 80a3e4c:	200008bc 	.word	0x200008bc
 80a3e50:	200008c0 	.word	0x200008c0
 80a3e54:	20000360 	.word	0x20000360
 80a3e58:	080a3be9 	.word	0x080a3be9

080a3e5c <__aeabi_atexit>:
 80a3e5c:	460b      	mov	r3, r1
 80a3e5e:	4601      	mov	r1, r0
 80a3e60:	4618      	mov	r0, r3
 80a3e62:	f001 b8df 	b.w	80a5024 <__cxa_atexit>
	...

080a3e68 <_GLOBAL__sub_I__ZNSt12ctype_bynameIcEC2ERKNSt7__cxx1112basic_stringIcSt11char_traitsIcESaIcEEEj>:
 80a3e68:	4b18      	ldr	r3, [pc, #96]	; (80a3ecc <_GLOBAL__sub_I__ZNSt12ctype_bynameIcEC2ERKNSt7__cxx1112basic_stringIcSt11char_traitsIcESaIcEEEj+0x64>)
 80a3e6a:	681a      	ldr	r2, [r3, #0]
 80a3e6c:	07d1      	lsls	r1, r2, #31
 80a3e6e:	bf5c      	itt	pl
 80a3e70:	2201      	movpl	r2, #1
 80a3e72:	601a      	strpl	r2, [r3, #0]
 80a3e74:	4b16      	ldr	r3, [pc, #88]	; (80a3ed0 <_GLOBAL__sub_I__ZNSt12ctype_bynameIcEC2ERKNSt7__cxx1112basic_stringIcSt11char_traitsIcESaIcEEEj+0x68>)
 80a3e76:	681a      	ldr	r2, [r3, #0]
 80a3e78:	07d2      	lsls	r2, r2, #31
 80a3e7a:	bf5c      	itt	pl
 80a3e7c:	2201      	movpl	r2, #1
 80a3e7e:	601a      	strpl	r2, [r3, #0]
 80a3e80:	4b14      	ldr	r3, [pc, #80]	; (80a3ed4 <_GLOBAL__sub_I__ZNSt12ctype_bynameIcEC2ERKNSt7__cxx1112basic_stringIcSt11char_traitsIcESaIcEEEj+0x6c>)
 80a3e82:	681a      	ldr	r2, [r3, #0]
 80a3e84:	07d0      	lsls	r0, r2, #31
 80a3e86:	bf5c      	itt	pl
 80a3e88:	2201      	movpl	r2, #1
 80a3e8a:	601a      	strpl	r2, [r3, #0]
 80a3e8c:	4b12      	ldr	r3, [pc, #72]	; (80a3ed8 <_GLOBAL__sub_I__ZNSt12ctype_bynameIcEC2ERKNSt7__cxx1112basic_stringIcSt11char_traitsIcESaIcEEEj+0x70>)
 80a3e8e:	681a      	ldr	r2, [r3, #0]
 80a3e90:	07d1      	lsls	r1, r2, #31
 80a3e92:	bf5c      	itt	pl
 80a3e94:	2201      	movpl	r2, #1
 80a3e96:	601a      	strpl	r2, [r3, #0]
 80a3e98:	4b10      	ldr	r3, [pc, #64]	; (80a3edc <_GLOBAL__sub_I__ZNSt12ctype_bynameIcEC2ERKNSt7__cxx1112basic_stringIcSt11char_traitsIcESaIcEEEj+0x74>)
 80a3e9a:	681a      	ldr	r2, [r3, #0]
 80a3e9c:	07d2      	lsls	r2, r2, #31
 80a3e9e:	bf5c      	itt	pl
 80a3ea0:	2201      	movpl	r2, #1
 80a3ea2:	601a      	strpl	r2, [r3, #0]
 80a3ea4:	4b0e      	ldr	r3, [pc, #56]	; (80a3ee0 <_GLOBAL__sub_I__ZNSt12ctype_bynameIcEC2ERKNSt7__cxx1112basic_stringIcSt11char_traitsIcESaIcEEEj+0x78>)
 80a3ea6:	681a      	ldr	r2, [r3, #0]
 80a3ea8:	07d0      	lsls	r0, r2, #31
 80a3eaa:	bf5c      	itt	pl
 80a3eac:	2201      	movpl	r2, #1
 80a3eae:	601a      	strpl	r2, [r3, #0]
 80a3eb0:	4b0c      	ldr	r3, [pc, #48]	; (80a3ee4 <_GLOBAL__sub_I__ZNSt12ctype_bynameIcEC2ERKNSt7__cxx1112basic_stringIcSt11char_traitsIcESaIcEEEj+0x7c>)
 80a3eb2:	681a      	ldr	r2, [r3, #0]
 80a3eb4:	07d1      	lsls	r1, r2, #31
 80a3eb6:	bf5c      	itt	pl
 80a3eb8:	2201      	movpl	r2, #1
 80a3eba:	601a      	strpl	r2, [r3, #0]
 80a3ebc:	4b0a      	ldr	r3, [pc, #40]	; (80a3ee8 <_GLOBAL__sub_I__ZNSt12ctype_bynameIcEC2ERKNSt7__cxx1112basic_stringIcSt11char_traitsIcESaIcEEEj+0x80>)
 80a3ebe:	681a      	ldr	r2, [r3, #0]
 80a3ec0:	07d2      	lsls	r2, r2, #31
 80a3ec2:	bf5c      	itt	pl
 80a3ec4:	2201      	movpl	r2, #1
 80a3ec6:	601a      	strpl	r2, [r3, #0]
 80a3ec8:	4770      	bx	lr
 80a3eca:	bf00      	nop
 80a3ecc:	200008f0 	.word	0x200008f0
 80a3ed0:	200008ec 	.word	0x200008ec
 80a3ed4:	200008e8 	.word	0x200008e8
 80a3ed8:	200008e4 	.word	0x200008e4
 80a3edc:	200008e0 	.word	0x200008e0
 80a3ee0:	200008dc 	.word	0x200008dc
 80a3ee4:	200008d8 	.word	0x200008d8
 80a3ee8:	200008d4 	.word	0x200008d4

080a3eec <_GLOBAL__sub_I__ZNSt12ctype_bynameIwEC2ERKSsj>:
 80a3eec:	4b24      	ldr	r3, [pc, #144]	; (80a3f80 <_GLOBAL__sub_I__ZNSt12ctype_bynameIwEC2ERKSsj+0x94>)
 80a3eee:	681a      	ldr	r2, [r3, #0]
 80a3ef0:	07d0      	lsls	r0, r2, #31
 80a3ef2:	bf5c      	itt	pl
 80a3ef4:	2201      	movpl	r2, #1
 80a3ef6:	601a      	strpl	r2, [r3, #0]
 80a3ef8:	4b22      	ldr	r3, [pc, #136]	; (80a3f84 <_GLOBAL__sub_I__ZNSt12ctype_bynameIwEC2ERKSsj+0x98>)
 80a3efa:	681a      	ldr	r2, [r3, #0]
 80a3efc:	07d1      	lsls	r1, r2, #31
 80a3efe:	bf5c      	itt	pl
 80a3f00:	2201      	movpl	r2, #1
 80a3f02:	601a      	strpl	r2, [r3, #0]
 80a3f04:	4b20      	ldr	r3, [pc, #128]	; (80a3f88 <_GLOBAL__sub_I__ZNSt12ctype_bynameIwEC2ERKSsj+0x9c>)
 80a3f06:	681a      	ldr	r2, [r3, #0]
 80a3f08:	07d2      	lsls	r2, r2, #31
 80a3f0a:	bf5c      	itt	pl
 80a3f0c:	2201      	movpl	r2, #1
 80a3f0e:	601a      	strpl	r2, [r3, #0]
 80a3f10:	4b1e      	ldr	r3, [pc, #120]	; (80a3f8c <_GLOBAL__sub_I__ZNSt12ctype_bynameIwEC2ERKSsj+0xa0>)
 80a3f12:	681a      	ldr	r2, [r3, #0]
 80a3f14:	07d0      	lsls	r0, r2, #31
 80a3f16:	bf5c      	itt	pl
 80a3f18:	2201      	movpl	r2, #1
 80a3f1a:	601a      	strpl	r2, [r3, #0]
 80a3f1c:	4b1c      	ldr	r3, [pc, #112]	; (80a3f90 <_GLOBAL__sub_I__ZNSt12ctype_bynameIwEC2ERKSsj+0xa4>)
 80a3f1e:	681a      	ldr	r2, [r3, #0]
 80a3f20:	07d1      	lsls	r1, r2, #31
 80a3f22:	bf5c      	itt	pl
 80a3f24:	2201      	movpl	r2, #1
 80a3f26:	601a      	strpl	r2, [r3, #0]
 80a3f28:	4b1a      	ldr	r3, [pc, #104]	; (80a3f94 <_GLOBAL__sub_I__ZNSt12ctype_bynameIwEC2ERKSsj+0xa8>)
 80a3f2a:	681a      	ldr	r2, [r3, #0]
 80a3f2c:	07d2      	lsls	r2, r2, #31
 80a3f2e:	bf5c      	itt	pl
 80a3f30:	2201      	movpl	r2, #1
 80a3f32:	601a      	strpl	r2, [r3, #0]
 80a3f34:	4b18      	ldr	r3, [pc, #96]	; (80a3f98 <_GLOBAL__sub_I__ZNSt12ctype_bynameIwEC2ERKSsj+0xac>)
 80a3f36:	681a      	ldr	r2, [r3, #0]
 80a3f38:	07d0      	lsls	r0, r2, #31
 80a3f3a:	bf5c      	itt	pl
 80a3f3c:	2201      	movpl	r2, #1
 80a3f3e:	601a      	strpl	r2, [r3, #0]
 80a3f40:	4b16      	ldr	r3, [pc, #88]	; (80a3f9c <_GLOBAL__sub_I__ZNSt12ctype_bynameIwEC2ERKSsj+0xb0>)
 80a3f42:	681a      	ldr	r2, [r3, #0]
 80a3f44:	07d1      	lsls	r1, r2, #31
 80a3f46:	bf5c      	itt	pl
 80a3f48:	2201      	movpl	r2, #1
 80a3f4a:	601a      	strpl	r2, [r3, #0]
 80a3f4c:	4b14      	ldr	r3, [pc, #80]	; (80a3fa0 <_GLOBAL__sub_I__ZNSt12ctype_bynameIwEC2ERKSsj+0xb4>)
 80a3f4e:	681a      	ldr	r2, [r3, #0]
 80a3f50:	07d2      	lsls	r2, r2, #31
 80a3f52:	bf5c      	itt	pl
 80a3f54:	2201      	movpl	r2, #1
 80a3f56:	601a      	strpl	r2, [r3, #0]
 80a3f58:	4b12      	ldr	r3, [pc, #72]	; (80a3fa4 <_GLOBAL__sub_I__ZNSt12ctype_bynameIwEC2ERKSsj+0xb8>)
 80a3f5a:	681a      	ldr	r2, [r3, #0]
 80a3f5c:	07d0      	lsls	r0, r2, #31
 80a3f5e:	bf5c      	itt	pl
 80a3f60:	2201      	movpl	r2, #1
 80a3f62:	601a      	strpl	r2, [r3, #0]
 80a3f64:	4b10      	ldr	r3, [pc, #64]	; (80a3fa8 <_GLOBAL__sub_I__ZNSt12ctype_bynameIwEC2ERKSsj+0xbc>)
 80a3f66:	681a      	ldr	r2, [r3, #0]
 80a3f68:	07d1      	lsls	r1, r2, #31
 80a3f6a:	bf5c      	itt	pl
 80a3f6c:	2201      	movpl	r2, #1
 80a3f6e:	601a      	strpl	r2, [r3, #0]
 80a3f70:	4b0e      	ldr	r3, [pc, #56]	; (80a3fac <_GLOBAL__sub_I__ZNSt12ctype_bynameIwEC2ERKSsj+0xc0>)
 80a3f72:	681a      	ldr	r2, [r3, #0]
 80a3f74:	07d2      	lsls	r2, r2, #31
 80a3f76:	bf5c      	itt	pl
 80a3f78:	2201      	movpl	r2, #1
 80a3f7a:	601a      	strpl	r2, [r3, #0]
 80a3f7c:	4770      	bx	lr
 80a3f7e:	bf00      	nop
 80a3f80:	20000920 	.word	0x20000920
 80a3f84:	2000091c 	.word	0x2000091c
 80a3f88:	20000918 	.word	0x20000918
 80a3f8c:	20000914 	.word	0x20000914
 80a3f90:	20000910 	.word	0x20000910
 80a3f94:	2000090c 	.word	0x2000090c
 80a3f98:	20000908 	.word	0x20000908
 80a3f9c:	20000904 	.word	0x20000904
 80a3fa0:	20000900 	.word	0x20000900
 80a3fa4:	200008fc 	.word	0x200008fc
 80a3fa8:	200008f8 	.word	0x200008f8
 80a3fac:	200008f4 	.word	0x200008f4

080a3fb0 <_GLOBAL__sub_I__ZNSt12ctype_bynameIcEC2ERKSsj>:
 80a3fb0:	4b24      	ldr	r3, [pc, #144]	; (80a4044 <_GLOBAL__sub_I__ZNSt12ctype_bynameIcEC2ERKSsj+0x94>)
 80a3fb2:	681a      	ldr	r2, [r3, #0]
 80a3fb4:	07d0      	lsls	r0, r2, #31
 80a3fb6:	bf5c      	itt	pl
 80a3fb8:	2201      	movpl	r2, #1
 80a3fba:	601a      	strpl	r2, [r3, #0]
 80a3fbc:	4b22      	ldr	r3, [pc, #136]	; (80a4048 <_GLOBAL__sub_I__ZNSt12ctype_bynameIcEC2ERKSsj+0x98>)
 80a3fbe:	681a      	ldr	r2, [r3, #0]
 80a3fc0:	07d1      	lsls	r1, r2, #31
 80a3fc2:	bf5c      	itt	pl
 80a3fc4:	2201      	movpl	r2, #1
 80a3fc6:	601a      	strpl	r2, [r3, #0]
 80a3fc8:	4b20      	ldr	r3, [pc, #128]	; (80a404c <_GLOBAL__sub_I__ZNSt12ctype_bynameIcEC2ERKSsj+0x9c>)
 80a3fca:	681a      	ldr	r2, [r3, #0]
 80a3fcc:	07d2      	lsls	r2, r2, #31
 80a3fce:	bf5c      	itt	pl
 80a3fd0:	2201      	movpl	r2, #1
 80a3fd2:	601a      	strpl	r2, [r3, #0]
 80a3fd4:	4b1e      	ldr	r3, [pc, #120]	; (80a4050 <_GLOBAL__sub_I__ZNSt12ctype_bynameIcEC2ERKSsj+0xa0>)
 80a3fd6:	681a      	ldr	r2, [r3, #0]
 80a3fd8:	07d0      	lsls	r0, r2, #31
 80a3fda:	bf5c      	itt	pl
 80a3fdc:	2201      	movpl	r2, #1
 80a3fde:	601a      	strpl	r2, [r3, #0]
 80a3fe0:	4b1c      	ldr	r3, [pc, #112]	; (80a4054 <_GLOBAL__sub_I__ZNSt12ctype_bynameIcEC2ERKSsj+0xa4>)
 80a3fe2:	681a      	ldr	r2, [r3, #0]
 80a3fe4:	07d1      	lsls	r1, r2, #31
 80a3fe6:	bf5c      	itt	pl
 80a3fe8:	2201      	movpl	r2, #1
 80a3fea:	601a      	strpl	r2, [r3, #0]
 80a3fec:	4b1a      	ldr	r3, [pc, #104]	; (80a4058 <_GLOBAL__sub_I__ZNSt12ctype_bynameIcEC2ERKSsj+0xa8>)
 80a3fee:	681a      	ldr	r2, [r3, #0]
 80a3ff0:	07d2      	lsls	r2, r2, #31
 80a3ff2:	bf5c      	itt	pl
 80a3ff4:	2201      	movpl	r2, #1
 80a3ff6:	601a      	strpl	r2, [r3, #0]
 80a3ff8:	4b18      	ldr	r3, [pc, #96]	; (80a405c <_GLOBAL__sub_I__ZNSt12ctype_bynameIcEC2ERKSsj+0xac>)
 80a3ffa:	681a      	ldr	r2, [r3, #0]
 80a3ffc:	07d0      	lsls	r0, r2, #31
 80a3ffe:	bf5c      	itt	pl
 80a4000:	2201      	movpl	r2, #1
 80a4002:	601a      	strpl	r2, [r3, #0]
 80a4004:	4b16      	ldr	r3, [pc, #88]	; (80a4060 <_GLOBAL__sub_I__ZNSt12ctype_bynameIcEC2ERKSsj+0xb0>)
 80a4006:	681a      	ldr	r2, [r3, #0]
 80a4008:	07d1      	lsls	r1, r2, #31
 80a400a:	bf5c      	itt	pl
 80a400c:	2201      	movpl	r2, #1
 80a400e:	601a      	strpl	r2, [r3, #0]
 80a4010:	4b14      	ldr	r3, [pc, #80]	; (80a4064 <_GLOBAL__sub_I__ZNSt12ctype_bynameIcEC2ERKSsj+0xb4>)
 80a4012:	681a      	ldr	r2, [r3, #0]
 80a4014:	07d2      	lsls	r2, r2, #31
 80a4016:	bf5c      	itt	pl
 80a4018:	2201      	movpl	r2, #1
 80a401a:	601a      	strpl	r2, [r3, #0]
 80a401c:	4b12      	ldr	r3, [pc, #72]	; (80a4068 <_GLOBAL__sub_I__ZNSt12ctype_bynameIcEC2ERKSsj+0xb8>)
 80a401e:	681a      	ldr	r2, [r3, #0]
 80a4020:	07d0      	lsls	r0, r2, #31
 80a4022:	bf5c      	itt	pl
 80a4024:	2201      	movpl	r2, #1
 80a4026:	601a      	strpl	r2, [r3, #0]
 80a4028:	4b10      	ldr	r3, [pc, #64]	; (80a406c <_GLOBAL__sub_I__ZNSt12ctype_bynameIcEC2ERKSsj+0xbc>)
 80a402a:	681a      	ldr	r2, [r3, #0]
 80a402c:	07d1      	lsls	r1, r2, #31
 80a402e:	bf5c      	itt	pl
 80a4030:	2201      	movpl	r2, #1
 80a4032:	601a      	strpl	r2, [r3, #0]
 80a4034:	4b0e      	ldr	r3, [pc, #56]	; (80a4070 <_GLOBAL__sub_I__ZNSt12ctype_bynameIcEC2ERKSsj+0xc0>)
 80a4036:	681a      	ldr	r2, [r3, #0]
 80a4038:	07d2      	lsls	r2, r2, #31
 80a403a:	bf5c      	itt	pl
 80a403c:	2201      	movpl	r2, #1
 80a403e:	601a      	strpl	r2, [r3, #0]
 80a4040:	4770      	bx	lr
 80a4042:	bf00      	nop
 80a4044:	20000950 	.word	0x20000950
 80a4048:	2000094c 	.word	0x2000094c
 80a404c:	20000948 	.word	0x20000948
 80a4050:	20000944 	.word	0x20000944
 80a4054:	20000940 	.word	0x20000940
 80a4058:	2000093c 	.word	0x2000093c
 80a405c:	20000938 	.word	0x20000938
 80a4060:	20000934 	.word	0x20000934
 80a4064:	20000930 	.word	0x20000930
 80a4068:	2000092c 	.word	0x2000092c
 80a406c:	20000928 	.word	0x20000928
 80a4070:	20000924 	.word	0x20000924

080a4074 <_GLOBAL__sub_I__ZNSt12ctype_bynameIwEC2ERKNSt7__cxx1112basic_stringIcSt11char_traitsIcESaIcEEEj>:
 80a4074:	4b18      	ldr	r3, [pc, #96]	; (80a40d8 <_GLOBAL__sub_I__ZNSt12ctype_bynameIwEC2ERKNSt7__cxx1112basic_stringIcSt11char_traitsIcESaIcEEEj+0x64>)
 80a4076:	681a      	ldr	r2, [r3, #0]
 80a4078:	07d1      	lsls	r1, r2, #31
 80a407a:	bf5c      	itt	pl
 80a407c:	2201      	movpl	r2, #1
 80a407e:	601a      	strpl	r2, [r3, #0]
 80a4080:	4b16      	ldr	r3, [pc, #88]	; (80a40dc <_GLOBAL__sub_I__ZNSt12ctype_bynameIwEC2ERKNSt7__cxx1112basic_stringIcSt11char_traitsIcESaIcEEEj+0x68>)
 80a4082:	681a      	ldr	r2, [r3, #0]
 80a4084:	07d2      	lsls	r2, r2, #31
 80a4086:	bf5c      	itt	pl
 80a4088:	2201      	movpl	r2, #1
 80a408a:	601a      	strpl	r2, [r3, #0]
 80a408c:	4b14      	ldr	r3, [pc, #80]	; (80a40e0 <_GLOBAL__sub_I__ZNSt12ctype_bynameIwEC2ERKNSt7__cxx1112basic_stringIcSt11char_traitsIcESaIcEEEj+0x6c>)
 80a408e:	681a      	ldr	r2, [r3, #0]
 80a4090:	07d0      	lsls	r0, r2, #31
 80a4092:	bf5c      	itt	pl
 80a4094:	2201      	movpl	r2, #1
 80a4096:	601a      	strpl	r2, [r3, #0]
 80a4098:	4b12      	ldr	r3, [pc, #72]	; (80a40e4 <_GLOBAL__sub_I__ZNSt12ctype_bynameIwEC2ERKNSt7__cxx1112basic_stringIcSt11char_traitsIcESaIcEEEj+0x70>)
 80a409a:	681a      	ldr	r2, [r3, #0]
 80a409c:	07d1      	lsls	r1, r2, #31
 80a409e:	bf5c      	itt	pl
 80a40a0:	2201      	movpl	r2, #1
 80a40a2:	601a      	strpl	r2, [r3, #0]
 80a40a4:	4b10      	ldr	r3, [pc, #64]	; (80a40e8 <_GLOBAL__sub_I__ZNSt12ctype_bynameIwEC2ERKNSt7__cxx1112basic_stringIcSt11char_traitsIcESaIcEEEj+0x74>)
 80a40a6:	681a      	ldr	r2, [r3, #0]
 80a40a8:	07d2      	lsls	r2, r2, #31
 80a40aa:	bf5c      	itt	pl
 80a40ac:	2201      	movpl	r2, #1
 80a40ae:	601a      	strpl	r2, [r3, #0]
 80a40b0:	4b0e      	ldr	r3, [pc, #56]	; (80a40ec <_GLOBAL__sub_I__ZNSt12ctype_bynameIwEC2ERKNSt7__cxx1112basic_stringIcSt11char_traitsIcESaIcEEEj+0x78>)
 80a40b2:	681a      	ldr	r2, [r3, #0]
 80a40b4:	07d0      	lsls	r0, r2, #31
 80a40b6:	bf5c      	itt	pl
 80a40b8:	2201      	movpl	r2, #1
 80a40ba:	601a      	strpl	r2, [r3, #0]
 80a40bc:	4b0c      	ldr	r3, [pc, #48]	; (80a40f0 <_GLOBAL__sub_I__ZNSt12ctype_bynameIwEC2ERKNSt7__cxx1112basic_stringIcSt11char_traitsIcESaIcEEEj+0x7c>)
 80a40be:	681a      	ldr	r2, [r3, #0]
 80a40c0:	07d1      	lsls	r1, r2, #31
 80a40c2:	bf5c      	itt	pl
 80a40c4:	2201      	movpl	r2, #1
 80a40c6:	601a      	strpl	r2, [r3, #0]
 80a40c8:	4b0a      	ldr	r3, [pc, #40]	; (80a40f4 <_GLOBAL__sub_I__ZNSt12ctype_bynameIwEC2ERKNSt7__cxx1112basic_stringIcSt11char_traitsIcESaIcEEEj+0x80>)
 80a40ca:	681a      	ldr	r2, [r3, #0]
 80a40cc:	07d2      	lsls	r2, r2, #31
 80a40ce:	bf5c      	itt	pl
 80a40d0:	2201      	movpl	r2, #1
 80a40d2:	601a      	strpl	r2, [r3, #0]
 80a40d4:	4770      	bx	lr
 80a40d6:	bf00      	nop
 80a40d8:	20000970 	.word	0x20000970
 80a40dc:	2000096c 	.word	0x2000096c
 80a40e0:	20000968 	.word	0x20000968
 80a40e4:	20000964 	.word	0x20000964
 80a40e8:	20000960 	.word	0x20000960
 80a40ec:	2000095c 	.word	0x2000095c
 80a40f0:	20000958 	.word	0x20000958
 80a40f4:	20000954 	.word	0x20000954

080a40f8 <__aeabi_drsub>:
 80a40f8:	f081 4100 	eor.w	r1, r1, #2147483648	; 0x80000000
 80a40fc:	e002      	b.n	80a4104 <__adddf3>
 80a40fe:	bf00      	nop

080a4100 <__aeabi_dsub>:
 80a4100:	f083 4300 	eor.w	r3, r3, #2147483648	; 0x80000000

080a4104 <__adddf3>:
 80a4104:	b530      	push	{r4, r5, lr}
 80a4106:	ea4f 0441 	mov.w	r4, r1, lsl #1
 80a410a:	ea4f 0543 	mov.w	r5, r3, lsl #1
 80a410e:	ea94 0f05 	teq	r4, r5
 80a4112:	bf08      	it	eq
 80a4114:	ea90 0f02 	teqeq	r0, r2
 80a4118:	bf1f      	itttt	ne
 80a411a:	ea54 0c00 	orrsne.w	ip, r4, r0
 80a411e:	ea55 0c02 	orrsne.w	ip, r5, r2
 80a4122:	ea7f 5c64 	mvnsne.w	ip, r4, asr #21
 80a4126:	ea7f 5c65 	mvnsne.w	ip, r5, asr #21
 80a412a:	f000 80e2 	beq.w	80a42f2 <__adddf3+0x1ee>
 80a412e:	ea4f 5454 	mov.w	r4, r4, lsr #21
 80a4132:	ebd4 5555 	rsbs	r5, r4, r5, lsr #21
 80a4136:	bfb8      	it	lt
 80a4138:	426d      	neglt	r5, r5
 80a413a:	dd0c      	ble.n	80a4156 <__adddf3+0x52>
 80a413c:	442c      	add	r4, r5
 80a413e:	ea80 0202 	eor.w	r2, r0, r2
 80a4142:	ea81 0303 	eor.w	r3, r1, r3
 80a4146:	ea82 0000 	eor.w	r0, r2, r0
 80a414a:	ea83 0101 	eor.w	r1, r3, r1
 80a414e:	ea80 0202 	eor.w	r2, r0, r2
 80a4152:	ea81 0303 	eor.w	r3, r1, r3
 80a4156:	2d36      	cmp	r5, #54	; 0x36
 80a4158:	bf88      	it	hi
 80a415a:	bd30      	pophi	{r4, r5, pc}
 80a415c:	f011 4f00 	tst.w	r1, #2147483648	; 0x80000000
 80a4160:	ea4f 3101 	mov.w	r1, r1, lsl #12
 80a4164:	f44f 1c80 	mov.w	ip, #1048576	; 0x100000
 80a4168:	ea4c 3111 	orr.w	r1, ip, r1, lsr #12
 80a416c:	d002      	beq.n	80a4174 <__adddf3+0x70>
 80a416e:	4240      	negs	r0, r0
 80a4170:	eb61 0141 	sbc.w	r1, r1, r1, lsl #1
 80a4174:	f013 4f00 	tst.w	r3, #2147483648	; 0x80000000
 80a4178:	ea4f 3303 	mov.w	r3, r3, lsl #12
 80a417c:	ea4c 3313 	orr.w	r3, ip, r3, lsr #12
 80a4180:	d002      	beq.n	80a4188 <__adddf3+0x84>
 80a4182:	4252      	negs	r2, r2
 80a4184:	eb63 0343 	sbc.w	r3, r3, r3, lsl #1
 80a4188:	ea94 0f05 	teq	r4, r5
 80a418c:	f000 80a7 	beq.w	80a42de <__adddf3+0x1da>
 80a4190:	f1a4 0401 	sub.w	r4, r4, #1
 80a4194:	f1d5 0e20 	rsbs	lr, r5, #32
 80a4198:	db0d      	blt.n	80a41b6 <__adddf3+0xb2>
 80a419a:	fa02 fc0e 	lsl.w	ip, r2, lr
 80a419e:	fa22 f205 	lsr.w	r2, r2, r5
 80a41a2:	1880      	adds	r0, r0, r2
 80a41a4:	f141 0100 	adc.w	r1, r1, #0
 80a41a8:	fa03 f20e 	lsl.w	r2, r3, lr
 80a41ac:	1880      	adds	r0, r0, r2
 80a41ae:	fa43 f305 	asr.w	r3, r3, r5
 80a41b2:	4159      	adcs	r1, r3
 80a41b4:	e00e      	b.n	80a41d4 <__adddf3+0xd0>
 80a41b6:	f1a5 0520 	sub.w	r5, r5, #32
 80a41ba:	f10e 0e20 	add.w	lr, lr, #32
 80a41be:	2a01      	cmp	r2, #1
 80a41c0:	fa03 fc0e 	lsl.w	ip, r3, lr
 80a41c4:	bf28      	it	cs
 80a41c6:	f04c 0c02 	orrcs.w	ip, ip, #2
 80a41ca:	fa43 f305 	asr.w	r3, r3, r5
 80a41ce:	18c0      	adds	r0, r0, r3
 80a41d0:	eb51 71e3 	adcs.w	r1, r1, r3, asr #31
 80a41d4:	f001 4500 	and.w	r5, r1, #2147483648	; 0x80000000
 80a41d8:	d507      	bpl.n	80a41ea <__adddf3+0xe6>
 80a41da:	f04f 0e00 	mov.w	lr, #0
 80a41de:	f1dc 0c00 	rsbs	ip, ip, #0
 80a41e2:	eb7e 0000 	sbcs.w	r0, lr, r0
 80a41e6:	eb6e 0101 	sbc.w	r1, lr, r1
 80a41ea:	f5b1 1f80 	cmp.w	r1, #1048576	; 0x100000
 80a41ee:	d31b      	bcc.n	80a4228 <__adddf3+0x124>
 80a41f0:	f5b1 1f00 	cmp.w	r1, #2097152	; 0x200000
 80a41f4:	d30c      	bcc.n	80a4210 <__adddf3+0x10c>
 80a41f6:	0849      	lsrs	r1, r1, #1
 80a41f8:	ea5f 0030 	movs.w	r0, r0, rrx
 80a41fc:	ea4f 0c3c 	mov.w	ip, ip, rrx
 80a4200:	f104 0401 	add.w	r4, r4, #1
 80a4204:	ea4f 5244 	mov.w	r2, r4, lsl #21
 80a4208:	f512 0f80 	cmn.w	r2, #4194304	; 0x400000
 80a420c:	f080 809a 	bcs.w	80a4344 <__adddf3+0x240>
 80a4210:	f1bc 4f00 	cmp.w	ip, #2147483648	; 0x80000000
 80a4214:	bf08      	it	eq
 80a4216:	ea5f 0c50 	movseq.w	ip, r0, lsr #1
 80a421a:	f150 0000 	adcs.w	r0, r0, #0
 80a421e:	eb41 5104 	adc.w	r1, r1, r4, lsl #20
 80a4222:	ea41 0105 	orr.w	r1, r1, r5
 80a4226:	bd30      	pop	{r4, r5, pc}
 80a4228:	ea5f 0c4c 	movs.w	ip, ip, lsl #1
 80a422c:	4140      	adcs	r0, r0
 80a422e:	eb41 0101 	adc.w	r1, r1, r1
 80a4232:	f411 1f80 	tst.w	r1, #1048576	; 0x100000
 80a4236:	f1a4 0401 	sub.w	r4, r4, #1
 80a423a:	d1e9      	bne.n	80a4210 <__adddf3+0x10c>
 80a423c:	f091 0f00 	teq	r1, #0
 80a4240:	bf04      	itt	eq
 80a4242:	4601      	moveq	r1, r0
 80a4244:	2000      	moveq	r0, #0
 80a4246:	fab1 f381 	clz	r3, r1
 80a424a:	bf08      	it	eq
 80a424c:	3320      	addeq	r3, #32
 80a424e:	f1a3 030b 	sub.w	r3, r3, #11
 80a4252:	f1b3 0220 	subs.w	r2, r3, #32
 80a4256:	da0c      	bge.n	80a4272 <__adddf3+0x16e>
 80a4258:	320c      	adds	r2, #12
 80a425a:	dd08      	ble.n	80a426e <__adddf3+0x16a>
 80a425c:	f102 0c14 	add.w	ip, r2, #20
 80a4260:	f1c2 020c 	rsb	r2, r2, #12
 80a4264:	fa01 f00c 	lsl.w	r0, r1, ip
 80a4268:	fa21 f102 	lsr.w	r1, r1, r2
 80a426c:	e00c      	b.n	80a4288 <__adddf3+0x184>
 80a426e:	f102 0214 	add.w	r2, r2, #20
 80a4272:	bfd8      	it	le
 80a4274:	f1c2 0c20 	rsble	ip, r2, #32
 80a4278:	fa01 f102 	lsl.w	r1, r1, r2
 80a427c:	fa20 fc0c 	lsr.w	ip, r0, ip
 80a4280:	bfdc      	itt	le
 80a4282:	ea41 010c 	orrle.w	r1, r1, ip
 80a4286:	4090      	lslle	r0, r2
 80a4288:	1ae4      	subs	r4, r4, r3
 80a428a:	bfa2      	ittt	ge
 80a428c:	eb01 5104 	addge.w	r1, r1, r4, lsl #20
 80a4290:	4329      	orrge	r1, r5
 80a4292:	bd30      	popge	{r4, r5, pc}
 80a4294:	ea6f 0404 	mvn.w	r4, r4
 80a4298:	3c1f      	subs	r4, #31
 80a429a:	da1c      	bge.n	80a42d6 <__adddf3+0x1d2>
 80a429c:	340c      	adds	r4, #12
 80a429e:	dc0e      	bgt.n	80a42be <__adddf3+0x1ba>
 80a42a0:	f104 0414 	add.w	r4, r4, #20
 80a42a4:	f1c4 0220 	rsb	r2, r4, #32
 80a42a8:	fa20 f004 	lsr.w	r0, r0, r4
 80a42ac:	fa01 f302 	lsl.w	r3, r1, r2
 80a42b0:	ea40 0003 	orr.w	r0, r0, r3
 80a42b4:	fa21 f304 	lsr.w	r3, r1, r4
 80a42b8:	ea45 0103 	orr.w	r1, r5, r3
 80a42bc:	bd30      	pop	{r4, r5, pc}
 80a42be:	f1c4 040c 	rsb	r4, r4, #12
 80a42c2:	f1c4 0220 	rsb	r2, r4, #32
 80a42c6:	fa20 f002 	lsr.w	r0, r0, r2
 80a42ca:	fa01 f304 	lsl.w	r3, r1, r4
 80a42ce:	ea40 0003 	orr.w	r0, r0, r3
 80a42d2:	4629      	mov	r1, r5
 80a42d4:	bd30      	pop	{r4, r5, pc}
 80a42d6:	fa21 f004 	lsr.w	r0, r1, r4
 80a42da:	4629      	mov	r1, r5
 80a42dc:	bd30      	pop	{r4, r5, pc}
 80a42de:	f094 0f00 	teq	r4, #0
 80a42e2:	f483 1380 	eor.w	r3, r3, #1048576	; 0x100000
 80a42e6:	bf06      	itte	eq
 80a42e8:	f481 1180 	eoreq.w	r1, r1, #1048576	; 0x100000
 80a42ec:	3401      	addeq	r4, #1
 80a42ee:	3d01      	subne	r5, #1
 80a42f0:	e74e      	b.n	80a4190 <__adddf3+0x8c>
 80a42f2:	ea7f 5c64 	mvns.w	ip, r4, asr #21
 80a42f6:	bf18      	it	ne
 80a42f8:	ea7f 5c65 	mvnsne.w	ip, r5, asr #21
 80a42fc:	d029      	beq.n	80a4352 <__adddf3+0x24e>
 80a42fe:	ea94 0f05 	teq	r4, r5
 80a4302:	bf08      	it	eq
 80a4304:	ea90 0f02 	teqeq	r0, r2
 80a4308:	d005      	beq.n	80a4316 <__adddf3+0x212>
 80a430a:	ea54 0c00 	orrs.w	ip, r4, r0
 80a430e:	bf04      	itt	eq
 80a4310:	4619      	moveq	r1, r3
 80a4312:	4610      	moveq	r0, r2
 80a4314:	bd30      	pop	{r4, r5, pc}
 80a4316:	ea91 0f03 	teq	r1, r3
 80a431a:	bf1e      	ittt	ne
 80a431c:	2100      	movne	r1, #0
 80a431e:	2000      	movne	r0, #0
 80a4320:	bd30      	popne	{r4, r5, pc}
 80a4322:	ea5f 5c54 	movs.w	ip, r4, lsr #21
 80a4326:	d105      	bne.n	80a4334 <__adddf3+0x230>
 80a4328:	0040      	lsls	r0, r0, #1
 80a432a:	4149      	adcs	r1, r1
 80a432c:	bf28      	it	cs
 80a432e:	f041 4100 	orrcs.w	r1, r1, #2147483648	; 0x80000000
 80a4332:	bd30      	pop	{r4, r5, pc}
 80a4334:	f514 0480 	adds.w	r4, r4, #4194304	; 0x400000
 80a4338:	bf3c      	itt	cc
 80a433a:	f501 1180 	addcc.w	r1, r1, #1048576	; 0x100000
 80a433e:	bd30      	popcc	{r4, r5, pc}
 80a4340:	f001 4500 	and.w	r5, r1, #2147483648	; 0x80000000
 80a4344:	f045 41fe 	orr.w	r1, r5, #2130706432	; 0x7f000000
 80a4348:	f441 0170 	orr.w	r1, r1, #15728640	; 0xf00000
 80a434c:	f04f 0000 	mov.w	r0, #0
 80a4350:	bd30      	pop	{r4, r5, pc}
 80a4352:	ea7f 5c64 	mvns.w	ip, r4, asr #21
 80a4356:	bf1a      	itte	ne
 80a4358:	4619      	movne	r1, r3
 80a435a:	4610      	movne	r0, r2
 80a435c:	ea7f 5c65 	mvnseq.w	ip, r5, asr #21
 80a4360:	bf1c      	itt	ne
 80a4362:	460b      	movne	r3, r1
 80a4364:	4602      	movne	r2, r0
 80a4366:	ea50 3401 	orrs.w	r4, r0, r1, lsl #12
 80a436a:	bf06      	itte	eq
 80a436c:	ea52 3503 	orrseq.w	r5, r2, r3, lsl #12
 80a4370:	ea91 0f03 	teqeq	r1, r3
 80a4374:	f441 2100 	orrne.w	r1, r1, #524288	; 0x80000
 80a4378:	bd30      	pop	{r4, r5, pc}
 80a437a:	bf00      	nop

080a437c <__aeabi_ui2d>:
 80a437c:	f090 0f00 	teq	r0, #0
 80a4380:	bf04      	itt	eq
 80a4382:	2100      	moveq	r1, #0
 80a4384:	4770      	bxeq	lr
 80a4386:	b530      	push	{r4, r5, lr}
 80a4388:	f44f 6480 	mov.w	r4, #1024	; 0x400
 80a438c:	f104 0432 	add.w	r4, r4, #50	; 0x32
 80a4390:	f04f 0500 	mov.w	r5, #0
 80a4394:	f04f 0100 	mov.w	r1, #0
 80a4398:	e750      	b.n	80a423c <__adddf3+0x138>
 80a439a:	bf00      	nop

080a439c <__aeabi_i2d>:
 80a439c:	f090 0f00 	teq	r0, #0
 80a43a0:	bf04      	itt	eq
 80a43a2:	2100      	moveq	r1, #0
 80a43a4:	4770      	bxeq	lr
 80a43a6:	b530      	push	{r4, r5, lr}
 80a43a8:	f44f 6480 	mov.w	r4, #1024	; 0x400
 80a43ac:	f104 0432 	add.w	r4, r4, #50	; 0x32
 80a43b0:	f010 4500 	ands.w	r5, r0, #2147483648	; 0x80000000
 80a43b4:	bf48      	it	mi
 80a43b6:	4240      	negmi	r0, r0
 80a43b8:	f04f 0100 	mov.w	r1, #0
 80a43bc:	e73e      	b.n	80a423c <__adddf3+0x138>
 80a43be:	bf00      	nop

080a43c0 <__aeabi_f2d>:
 80a43c0:	0042      	lsls	r2, r0, #1
 80a43c2:	ea4f 01e2 	mov.w	r1, r2, asr #3
 80a43c6:	ea4f 0131 	mov.w	r1, r1, rrx
 80a43ca:	ea4f 7002 	mov.w	r0, r2, lsl #28
 80a43ce:	bf1f      	itttt	ne
 80a43d0:	f012 437f 	andsne.w	r3, r2, #4278190080	; 0xff000000
 80a43d4:	f093 4f7f 	teqne	r3, #4278190080	; 0xff000000
 80a43d8:	f081 5160 	eorne.w	r1, r1, #939524096	; 0x38000000
 80a43dc:	4770      	bxne	lr
 80a43de:	f092 0f00 	teq	r2, #0
 80a43e2:	bf14      	ite	ne
 80a43e4:	f093 4f7f 	teqne	r3, #4278190080	; 0xff000000
 80a43e8:	4770      	bxeq	lr
 80a43ea:	b530      	push	{r4, r5, lr}
 80a43ec:	f44f 7460 	mov.w	r4, #896	; 0x380
 80a43f0:	f001 4500 	and.w	r5, r1, #2147483648	; 0x80000000
 80a43f4:	f021 4100 	bic.w	r1, r1, #2147483648	; 0x80000000
 80a43f8:	e720      	b.n	80a423c <__adddf3+0x138>
 80a43fa:	bf00      	nop

080a43fc <__aeabi_ul2d>:
 80a43fc:	ea50 0201 	orrs.w	r2, r0, r1
 80a4400:	bf08      	it	eq
 80a4402:	4770      	bxeq	lr
 80a4404:	b530      	push	{r4, r5, lr}
 80a4406:	f04f 0500 	mov.w	r5, #0
 80a440a:	e00a      	b.n	80a4422 <__aeabi_l2d+0x16>

080a440c <__aeabi_l2d>:
 80a440c:	ea50 0201 	orrs.w	r2, r0, r1
 80a4410:	bf08      	it	eq
 80a4412:	4770      	bxeq	lr
 80a4414:	b530      	push	{r4, r5, lr}
 80a4416:	f011 4500 	ands.w	r5, r1, #2147483648	; 0x80000000
 80a441a:	d502      	bpl.n	80a4422 <__aeabi_l2d+0x16>
 80a441c:	4240      	negs	r0, r0
 80a441e:	eb61 0141 	sbc.w	r1, r1, r1, lsl #1
 80a4422:	f44f 6480 	mov.w	r4, #1024	; 0x400
 80a4426:	f104 0432 	add.w	r4, r4, #50	; 0x32
 80a442a:	ea5f 5c91 	movs.w	ip, r1, lsr #22
 80a442e:	f43f aedc 	beq.w	80a41ea <__adddf3+0xe6>
 80a4432:	f04f 0203 	mov.w	r2, #3
 80a4436:	ea5f 0cdc 	movs.w	ip, ip, lsr #3
 80a443a:	bf18      	it	ne
 80a443c:	3203      	addne	r2, #3
 80a443e:	ea5f 0cdc 	movs.w	ip, ip, lsr #3
 80a4442:	bf18      	it	ne
 80a4444:	3203      	addne	r2, #3
 80a4446:	eb02 02dc 	add.w	r2, r2, ip, lsr #3
 80a444a:	f1c2 0320 	rsb	r3, r2, #32
 80a444e:	fa00 fc03 	lsl.w	ip, r0, r3
 80a4452:	fa20 f002 	lsr.w	r0, r0, r2
 80a4456:	fa01 fe03 	lsl.w	lr, r1, r3
 80a445a:	ea40 000e 	orr.w	r0, r0, lr
 80a445e:	fa21 f102 	lsr.w	r1, r1, r2
 80a4462:	4414      	add	r4, r2
 80a4464:	e6c1      	b.n	80a41ea <__adddf3+0xe6>
 80a4466:	bf00      	nop

080a4468 <__aeabi_dmul>:
 80a4468:	b570      	push	{r4, r5, r6, lr}
 80a446a:	f04f 0cff 	mov.w	ip, #255	; 0xff
 80a446e:	f44c 6ce0 	orr.w	ip, ip, #1792	; 0x700
 80a4472:	ea1c 5411 	ands.w	r4, ip, r1, lsr #20
 80a4476:	bf1d      	ittte	ne
 80a4478:	ea1c 5513 	andsne.w	r5, ip, r3, lsr #20
 80a447c:	ea94 0f0c 	teqne	r4, ip
 80a4480:	ea95 0f0c 	teqne	r5, ip
 80a4484:	f000 f8de 	bleq	80a4644 <__aeabi_dmul+0x1dc>
 80a4488:	442c      	add	r4, r5
 80a448a:	ea81 0603 	eor.w	r6, r1, r3
 80a448e:	ea21 514c 	bic.w	r1, r1, ip, lsl #21
 80a4492:	ea23 534c 	bic.w	r3, r3, ip, lsl #21
 80a4496:	ea50 3501 	orrs.w	r5, r0, r1, lsl #12
 80a449a:	bf18      	it	ne
 80a449c:	ea52 3503 	orrsne.w	r5, r2, r3, lsl #12
 80a44a0:	f441 1180 	orr.w	r1, r1, #1048576	; 0x100000
 80a44a4:	f443 1380 	orr.w	r3, r3, #1048576	; 0x100000
 80a44a8:	d038      	beq.n	80a451c <__aeabi_dmul+0xb4>
 80a44aa:	fba0 ce02 	umull	ip, lr, r0, r2
 80a44ae:	f04f 0500 	mov.w	r5, #0
 80a44b2:	fbe1 e502 	umlal	lr, r5, r1, r2
 80a44b6:	f006 4200 	and.w	r2, r6, #2147483648	; 0x80000000
 80a44ba:	fbe0 e503 	umlal	lr, r5, r0, r3
 80a44be:	f04f 0600 	mov.w	r6, #0
 80a44c2:	fbe1 5603 	umlal	r5, r6, r1, r3
 80a44c6:	f09c 0f00 	teq	ip, #0
 80a44ca:	bf18      	it	ne
 80a44cc:	f04e 0e01 	orrne.w	lr, lr, #1
 80a44d0:	f1a4 04ff 	sub.w	r4, r4, #255	; 0xff
 80a44d4:	f5b6 7f00 	cmp.w	r6, #512	; 0x200
 80a44d8:	f564 7440 	sbc.w	r4, r4, #768	; 0x300
 80a44dc:	d204      	bcs.n	80a44e8 <__aeabi_dmul+0x80>
 80a44de:	ea5f 0e4e 	movs.w	lr, lr, lsl #1
 80a44e2:	416d      	adcs	r5, r5
 80a44e4:	eb46 0606 	adc.w	r6, r6, r6
 80a44e8:	ea42 21c6 	orr.w	r1, r2, r6, lsl #11
 80a44ec:	ea41 5155 	orr.w	r1, r1, r5, lsr #21
 80a44f0:	ea4f 20c5 	mov.w	r0, r5, lsl #11
 80a44f4:	ea40 505e 	orr.w	r0, r0, lr, lsr #21
 80a44f8:	ea4f 2ece 	mov.w	lr, lr, lsl #11
 80a44fc:	f1b4 0cfd 	subs.w	ip, r4, #253	; 0xfd
 80a4500:	bf88      	it	hi
 80a4502:	f5bc 6fe0 	cmphi.w	ip, #1792	; 0x700
 80a4506:	d81e      	bhi.n	80a4546 <__aeabi_dmul+0xde>
 80a4508:	f1be 4f00 	cmp.w	lr, #2147483648	; 0x80000000
 80a450c:	bf08      	it	eq
 80a450e:	ea5f 0e50 	movseq.w	lr, r0, lsr #1
 80a4512:	f150 0000 	adcs.w	r0, r0, #0
 80a4516:	eb41 5104 	adc.w	r1, r1, r4, lsl #20
 80a451a:	bd70      	pop	{r4, r5, r6, pc}
 80a451c:	f006 4600 	and.w	r6, r6, #2147483648	; 0x80000000
 80a4520:	ea46 0101 	orr.w	r1, r6, r1
 80a4524:	ea40 0002 	orr.w	r0, r0, r2
 80a4528:	ea81 0103 	eor.w	r1, r1, r3
 80a452c:	ebb4 045c 	subs.w	r4, r4, ip, lsr #1
 80a4530:	bfc2      	ittt	gt
 80a4532:	ebd4 050c 	rsbsgt	r5, r4, ip
 80a4536:	ea41 5104 	orrgt.w	r1, r1, r4, lsl #20
 80a453a:	bd70      	popgt	{r4, r5, r6, pc}
 80a453c:	f441 1180 	orr.w	r1, r1, #1048576	; 0x100000
 80a4540:	f04f 0e00 	mov.w	lr, #0
 80a4544:	3c01      	subs	r4, #1
 80a4546:	f300 80ab 	bgt.w	80a46a0 <__aeabi_dmul+0x238>
 80a454a:	f114 0f36 	cmn.w	r4, #54	; 0x36
 80a454e:	bfde      	ittt	le
 80a4550:	2000      	movle	r0, #0
 80a4552:	f001 4100 	andle.w	r1, r1, #2147483648	; 0x80000000
 80a4556:	bd70      	pople	{r4, r5, r6, pc}
 80a4558:	f1c4 0400 	rsb	r4, r4, #0
 80a455c:	3c20      	subs	r4, #32
 80a455e:	da35      	bge.n	80a45cc <__aeabi_dmul+0x164>
 80a4560:	340c      	adds	r4, #12
 80a4562:	dc1b      	bgt.n	80a459c <__aeabi_dmul+0x134>
 80a4564:	f104 0414 	add.w	r4, r4, #20
 80a4568:	f1c4 0520 	rsb	r5, r4, #32
 80a456c:	fa00 f305 	lsl.w	r3, r0, r5
 80a4570:	fa20 f004 	lsr.w	r0, r0, r4
 80a4574:	fa01 f205 	lsl.w	r2, r1, r5
 80a4578:	ea40 0002 	orr.w	r0, r0, r2
 80a457c:	f001 4200 	and.w	r2, r1, #2147483648	; 0x80000000
 80a4580:	f021 4100 	bic.w	r1, r1, #2147483648	; 0x80000000
 80a4584:	eb10 70d3 	adds.w	r0, r0, r3, lsr #31
 80a4588:	fa21 f604 	lsr.w	r6, r1, r4
 80a458c:	eb42 0106 	adc.w	r1, r2, r6
 80a4590:	ea5e 0e43 	orrs.w	lr, lr, r3, lsl #1
 80a4594:	bf08      	it	eq
 80a4596:	ea20 70d3 	biceq.w	r0, r0, r3, lsr #31
 80a459a:	bd70      	pop	{r4, r5, r6, pc}
 80a459c:	f1c4 040c 	rsb	r4, r4, #12
 80a45a0:	f1c4 0520 	rsb	r5, r4, #32
 80a45a4:	fa00 f304 	lsl.w	r3, r0, r4
 80a45a8:	fa20 f005 	lsr.w	r0, r0, r5
 80a45ac:	fa01 f204 	lsl.w	r2, r1, r4
 80a45b0:	ea40 0002 	orr.w	r0, r0, r2
 80a45b4:	f001 4100 	and.w	r1, r1, #2147483648	; 0x80000000
 80a45b8:	eb10 70d3 	adds.w	r0, r0, r3, lsr #31
 80a45bc:	f141 0100 	adc.w	r1, r1, #0
 80a45c0:	ea5e 0e43 	orrs.w	lr, lr, r3, lsl #1
 80a45c4:	bf08      	it	eq
 80a45c6:	ea20 70d3 	biceq.w	r0, r0, r3, lsr #31
 80a45ca:	bd70      	pop	{r4, r5, r6, pc}
 80a45cc:	f1c4 0520 	rsb	r5, r4, #32
 80a45d0:	fa00 f205 	lsl.w	r2, r0, r5
 80a45d4:	ea4e 0e02 	orr.w	lr, lr, r2
 80a45d8:	fa20 f304 	lsr.w	r3, r0, r4
 80a45dc:	fa01 f205 	lsl.w	r2, r1, r5
 80a45e0:	ea43 0302 	orr.w	r3, r3, r2
 80a45e4:	fa21 f004 	lsr.w	r0, r1, r4
 80a45e8:	f001 4100 	and.w	r1, r1, #2147483648	; 0x80000000
 80a45ec:	fa21 f204 	lsr.w	r2, r1, r4
 80a45f0:	ea20 0002 	bic.w	r0, r0, r2
 80a45f4:	eb00 70d3 	add.w	r0, r0, r3, lsr #31
 80a45f8:	ea5e 0e43 	orrs.w	lr, lr, r3, lsl #1
 80a45fc:	bf08      	it	eq
 80a45fe:	ea20 70d3 	biceq.w	r0, r0, r3, lsr #31
 80a4602:	bd70      	pop	{r4, r5, r6, pc}
 80a4604:	f094 0f00 	teq	r4, #0
 80a4608:	d10f      	bne.n	80a462a <__aeabi_dmul+0x1c2>
 80a460a:	f001 4600 	and.w	r6, r1, #2147483648	; 0x80000000
 80a460e:	0040      	lsls	r0, r0, #1
 80a4610:	eb41 0101 	adc.w	r1, r1, r1
 80a4614:	f411 1f80 	tst.w	r1, #1048576	; 0x100000
 80a4618:	bf08      	it	eq
 80a461a:	3c01      	subeq	r4, #1
 80a461c:	d0f7      	beq.n	80a460e <__aeabi_dmul+0x1a6>
 80a461e:	ea41 0106 	orr.w	r1, r1, r6
 80a4622:	f095 0f00 	teq	r5, #0
 80a4626:	bf18      	it	ne
 80a4628:	4770      	bxne	lr
 80a462a:	f003 4600 	and.w	r6, r3, #2147483648	; 0x80000000
 80a462e:	0052      	lsls	r2, r2, #1
 80a4630:	eb43 0303 	adc.w	r3, r3, r3
 80a4634:	f413 1f80 	tst.w	r3, #1048576	; 0x100000
 80a4638:	bf08      	it	eq
 80a463a:	3d01      	subeq	r5, #1
 80a463c:	d0f7      	beq.n	80a462e <__aeabi_dmul+0x1c6>
 80a463e:	ea43 0306 	orr.w	r3, r3, r6
 80a4642:	4770      	bx	lr
 80a4644:	ea94 0f0c 	teq	r4, ip
 80a4648:	ea0c 5513 	and.w	r5, ip, r3, lsr #20
 80a464c:	bf18      	it	ne
 80a464e:	ea95 0f0c 	teqne	r5, ip
 80a4652:	d00c      	beq.n	80a466e <__aeabi_dmul+0x206>
 80a4654:	ea50 0641 	orrs.w	r6, r0, r1, lsl #1
 80a4658:	bf18      	it	ne
 80a465a:	ea52 0643 	orrsne.w	r6, r2, r3, lsl #1
 80a465e:	d1d1      	bne.n	80a4604 <__aeabi_dmul+0x19c>
 80a4660:	ea81 0103 	eor.w	r1, r1, r3
 80a4664:	f001 4100 	and.w	r1, r1, #2147483648	; 0x80000000
 80a4668:	f04f 0000 	mov.w	r0, #0
 80a466c:	bd70      	pop	{r4, r5, r6, pc}
 80a466e:	ea50 0641 	orrs.w	r6, r0, r1, lsl #1
 80a4672:	bf06      	itte	eq
 80a4674:	4610      	moveq	r0, r2
 80a4676:	4619      	moveq	r1, r3
 80a4678:	ea52 0643 	orrsne.w	r6, r2, r3, lsl #1
 80a467c:	d019      	beq.n	80a46b2 <__aeabi_dmul+0x24a>
 80a467e:	ea94 0f0c 	teq	r4, ip
 80a4682:	d102      	bne.n	80a468a <__aeabi_dmul+0x222>
 80a4684:	ea50 3601 	orrs.w	r6, r0, r1, lsl #12
 80a4688:	d113      	bne.n	80a46b2 <__aeabi_dmul+0x24a>
 80a468a:	ea95 0f0c 	teq	r5, ip
 80a468e:	d105      	bne.n	80a469c <__aeabi_dmul+0x234>
 80a4690:	ea52 3603 	orrs.w	r6, r2, r3, lsl #12
 80a4694:	bf1c      	itt	ne
 80a4696:	4610      	movne	r0, r2
 80a4698:	4619      	movne	r1, r3
 80a469a:	d10a      	bne.n	80a46b2 <__aeabi_dmul+0x24a>
 80a469c:	ea81 0103 	eor.w	r1, r1, r3
 80a46a0:	f001 4100 	and.w	r1, r1, #2147483648	; 0x80000000
 80a46a4:	f041 41fe 	orr.w	r1, r1, #2130706432	; 0x7f000000
 80a46a8:	f441 0170 	orr.w	r1, r1, #15728640	; 0xf00000
 80a46ac:	f04f 0000 	mov.w	r0, #0
 80a46b0:	bd70      	pop	{r4, r5, r6, pc}
 80a46b2:	f041 41fe 	orr.w	r1, r1, #2130706432	; 0x7f000000
 80a46b6:	f441 0178 	orr.w	r1, r1, #16252928	; 0xf80000
 80a46ba:	bd70      	pop	{r4, r5, r6, pc}

080a46bc <__aeabi_ddiv>:
 80a46bc:	b570      	push	{r4, r5, r6, lr}
 80a46be:	f04f 0cff 	mov.w	ip, #255	; 0xff
 80a46c2:	f44c 6ce0 	orr.w	ip, ip, #1792	; 0x700
 80a46c6:	ea1c 5411 	ands.w	r4, ip, r1, lsr #20
 80a46ca:	bf1d      	ittte	ne
 80a46cc:	ea1c 5513 	andsne.w	r5, ip, r3, lsr #20
 80a46d0:	ea94 0f0c 	teqne	r4, ip
 80a46d4:	ea95 0f0c 	teqne	r5, ip
 80a46d8:	f000 f8a7 	bleq	80a482a <__aeabi_ddiv+0x16e>
 80a46dc:	eba4 0405 	sub.w	r4, r4, r5
 80a46e0:	ea81 0e03 	eor.w	lr, r1, r3
 80a46e4:	ea52 3503 	orrs.w	r5, r2, r3, lsl #12
 80a46e8:	ea4f 3101 	mov.w	r1, r1, lsl #12
 80a46ec:	f000 8088 	beq.w	80a4800 <__aeabi_ddiv+0x144>
 80a46f0:	ea4f 3303 	mov.w	r3, r3, lsl #12
 80a46f4:	f04f 5580 	mov.w	r5, #268435456	; 0x10000000
 80a46f8:	ea45 1313 	orr.w	r3, r5, r3, lsr #4
 80a46fc:	ea43 6312 	orr.w	r3, r3, r2, lsr #24
 80a4700:	ea4f 2202 	mov.w	r2, r2, lsl #8
 80a4704:	ea45 1511 	orr.w	r5, r5, r1, lsr #4
 80a4708:	ea45 6510 	orr.w	r5, r5, r0, lsr #24
 80a470c:	ea4f 2600 	mov.w	r6, r0, lsl #8
 80a4710:	f00e 4100 	and.w	r1, lr, #2147483648	; 0x80000000
 80a4714:	429d      	cmp	r5, r3
 80a4716:	bf08      	it	eq
 80a4718:	4296      	cmpeq	r6, r2
 80a471a:	f144 04fd 	adc.w	r4, r4, #253	; 0xfd
 80a471e:	f504 7440 	add.w	r4, r4, #768	; 0x300
 80a4722:	d202      	bcs.n	80a472a <__aeabi_ddiv+0x6e>
 80a4724:	085b      	lsrs	r3, r3, #1
 80a4726:	ea4f 0232 	mov.w	r2, r2, rrx
 80a472a:	1ab6      	subs	r6, r6, r2
 80a472c:	eb65 0503 	sbc.w	r5, r5, r3
 80a4730:	085b      	lsrs	r3, r3, #1
 80a4732:	ea4f 0232 	mov.w	r2, r2, rrx
 80a4736:	f44f 1080 	mov.w	r0, #1048576	; 0x100000
 80a473a:	f44f 2c00 	mov.w	ip, #524288	; 0x80000
 80a473e:	ebb6 0e02 	subs.w	lr, r6, r2
 80a4742:	eb75 0e03 	sbcs.w	lr, r5, r3
 80a4746:	bf22      	ittt	cs
 80a4748:	1ab6      	subcs	r6, r6, r2
 80a474a:	4675      	movcs	r5, lr
 80a474c:	ea40 000c 	orrcs.w	r0, r0, ip
 80a4750:	085b      	lsrs	r3, r3, #1
 80a4752:	ea4f 0232 	mov.w	r2, r2, rrx
 80a4756:	ebb6 0e02 	subs.w	lr, r6, r2
 80a475a:	eb75 0e03 	sbcs.w	lr, r5, r3
 80a475e:	bf22      	ittt	cs
 80a4760:	1ab6      	subcs	r6, r6, r2
 80a4762:	4675      	movcs	r5, lr
 80a4764:	ea40 005c 	orrcs.w	r0, r0, ip, lsr #1
 80a4768:	085b      	lsrs	r3, r3, #1
 80a476a:	ea4f 0232 	mov.w	r2, r2, rrx
 80a476e:	ebb6 0e02 	subs.w	lr, r6, r2
 80a4772:	eb75 0e03 	sbcs.w	lr, r5, r3
 80a4776:	bf22      	ittt	cs
 80a4778:	1ab6      	subcs	r6, r6, r2
 80a477a:	4675      	movcs	r5, lr
 80a477c:	ea40 009c 	orrcs.w	r0, r0, ip, lsr #2
 80a4780:	085b      	lsrs	r3, r3, #1
 80a4782:	ea4f 0232 	mov.w	r2, r2, rrx
 80a4786:	ebb6 0e02 	subs.w	lr, r6, r2
 80a478a:	eb75 0e03 	sbcs.w	lr, r5, r3
 80a478e:	bf22      	ittt	cs
 80a4790:	1ab6      	subcs	r6, r6, r2
 80a4792:	4675      	movcs	r5, lr
 80a4794:	ea40 00dc 	orrcs.w	r0, r0, ip, lsr #3
 80a4798:	ea55 0e06 	orrs.w	lr, r5, r6
 80a479c:	d018      	beq.n	80a47d0 <__aeabi_ddiv+0x114>
 80a479e:	ea4f 1505 	mov.w	r5, r5, lsl #4
 80a47a2:	ea45 7516 	orr.w	r5, r5, r6, lsr #28
 80a47a6:	ea4f 1606 	mov.w	r6, r6, lsl #4
 80a47aa:	ea4f 03c3 	mov.w	r3, r3, lsl #3
 80a47ae:	ea43 7352 	orr.w	r3, r3, r2, lsr #29
 80a47b2:	ea4f 02c2 	mov.w	r2, r2, lsl #3
 80a47b6:	ea5f 1c1c 	movs.w	ip, ip, lsr #4
 80a47ba:	d1c0      	bne.n	80a473e <__aeabi_ddiv+0x82>
 80a47bc:	f411 1f80 	tst.w	r1, #1048576	; 0x100000
 80a47c0:	d10b      	bne.n	80a47da <__aeabi_ddiv+0x11e>
 80a47c2:	ea41 0100 	orr.w	r1, r1, r0
 80a47c6:	f04f 0000 	mov.w	r0, #0
 80a47ca:	f04f 4c00 	mov.w	ip, #2147483648	; 0x80000000
 80a47ce:	e7b6      	b.n	80a473e <__aeabi_ddiv+0x82>
 80a47d0:	f411 1f80 	tst.w	r1, #1048576	; 0x100000
 80a47d4:	bf04      	itt	eq
 80a47d6:	4301      	orreq	r1, r0
 80a47d8:	2000      	moveq	r0, #0
 80a47da:	f1b4 0cfd 	subs.w	ip, r4, #253	; 0xfd
 80a47de:	bf88      	it	hi
 80a47e0:	f5bc 6fe0 	cmphi.w	ip, #1792	; 0x700
 80a47e4:	f63f aeaf 	bhi.w	80a4546 <__aeabi_dmul+0xde>
 80a47e8:	ebb5 0c03 	subs.w	ip, r5, r3
 80a47ec:	bf04      	itt	eq
 80a47ee:	ebb6 0c02 	subseq.w	ip, r6, r2
 80a47f2:	ea5f 0c50 	movseq.w	ip, r0, lsr #1
 80a47f6:	f150 0000 	adcs.w	r0, r0, #0
 80a47fa:	eb41 5104 	adc.w	r1, r1, r4, lsl #20
 80a47fe:	bd70      	pop	{r4, r5, r6, pc}
 80a4800:	f00e 4e00 	and.w	lr, lr, #2147483648	; 0x80000000
 80a4804:	ea4e 3111 	orr.w	r1, lr, r1, lsr #12
 80a4808:	eb14 045c 	adds.w	r4, r4, ip, lsr #1
 80a480c:	bfc2      	ittt	gt
 80a480e:	ebd4 050c 	rsbsgt	r5, r4, ip
 80a4812:	ea41 5104 	orrgt.w	r1, r1, r4, lsl #20
 80a4816:	bd70      	popgt	{r4, r5, r6, pc}
 80a4818:	f441 1180 	orr.w	r1, r1, #1048576	; 0x100000
 80a481c:	f04f 0e00 	mov.w	lr, #0
 80a4820:	3c01      	subs	r4, #1
 80a4822:	e690      	b.n	80a4546 <__aeabi_dmul+0xde>
 80a4824:	ea45 0e06 	orr.w	lr, r5, r6
 80a4828:	e68d      	b.n	80a4546 <__aeabi_dmul+0xde>
 80a482a:	ea0c 5513 	and.w	r5, ip, r3, lsr #20
 80a482e:	ea94 0f0c 	teq	r4, ip
 80a4832:	bf08      	it	eq
 80a4834:	ea95 0f0c 	teqeq	r5, ip
 80a4838:	f43f af3b 	beq.w	80a46b2 <__aeabi_dmul+0x24a>
 80a483c:	ea94 0f0c 	teq	r4, ip
 80a4840:	d10a      	bne.n	80a4858 <__aeabi_ddiv+0x19c>
 80a4842:	ea50 3401 	orrs.w	r4, r0, r1, lsl #12
 80a4846:	f47f af34 	bne.w	80a46b2 <__aeabi_dmul+0x24a>
 80a484a:	ea95 0f0c 	teq	r5, ip
 80a484e:	f47f af25 	bne.w	80a469c <__aeabi_dmul+0x234>
 80a4852:	4610      	mov	r0, r2
 80a4854:	4619      	mov	r1, r3
 80a4856:	e72c      	b.n	80a46b2 <__aeabi_dmul+0x24a>
 80a4858:	ea95 0f0c 	teq	r5, ip
 80a485c:	d106      	bne.n	80a486c <__aeabi_ddiv+0x1b0>
 80a485e:	ea52 3503 	orrs.w	r5, r2, r3, lsl #12
 80a4862:	f43f aefd 	beq.w	80a4660 <__aeabi_dmul+0x1f8>
 80a4866:	4610      	mov	r0, r2
 80a4868:	4619      	mov	r1, r3
 80a486a:	e722      	b.n	80a46b2 <__aeabi_dmul+0x24a>
 80a486c:	ea50 0641 	orrs.w	r6, r0, r1, lsl #1
 80a4870:	bf18      	it	ne
 80a4872:	ea52 0643 	orrsne.w	r6, r2, r3, lsl #1
 80a4876:	f47f aec5 	bne.w	80a4604 <__aeabi_dmul+0x19c>
 80a487a:	ea50 0441 	orrs.w	r4, r0, r1, lsl #1
 80a487e:	f47f af0d 	bne.w	80a469c <__aeabi_dmul+0x234>
 80a4882:	ea52 0543 	orrs.w	r5, r2, r3, lsl #1
 80a4886:	f47f aeeb 	bne.w	80a4660 <__aeabi_dmul+0x1f8>
 80a488a:	e712      	b.n	80a46b2 <__aeabi_dmul+0x24a>

080a488c <__gedf2>:
 80a488c:	f04f 3cff 	mov.w	ip, #4294967295
 80a4890:	e006      	b.n	80a48a0 <__cmpdf2+0x4>
 80a4892:	bf00      	nop

080a4894 <__ledf2>:
 80a4894:	f04f 0c01 	mov.w	ip, #1
 80a4898:	e002      	b.n	80a48a0 <__cmpdf2+0x4>
 80a489a:	bf00      	nop

080a489c <__cmpdf2>:
 80a489c:	f04f 0c01 	mov.w	ip, #1
 80a48a0:	f84d cd04 	str.w	ip, [sp, #-4]!
 80a48a4:	ea4f 0c41 	mov.w	ip, r1, lsl #1
 80a48a8:	ea7f 5c6c 	mvns.w	ip, ip, asr #21
 80a48ac:	ea4f 0c43 	mov.w	ip, r3, lsl #1
 80a48b0:	bf18      	it	ne
 80a48b2:	ea7f 5c6c 	mvnsne.w	ip, ip, asr #21
 80a48b6:	d01b      	beq.n	80a48f0 <__cmpdf2+0x54>
 80a48b8:	b001      	add	sp, #4
 80a48ba:	ea50 0c41 	orrs.w	ip, r0, r1, lsl #1
 80a48be:	bf0c      	ite	eq
 80a48c0:	ea52 0c43 	orrseq.w	ip, r2, r3, lsl #1
 80a48c4:	ea91 0f03 	teqne	r1, r3
 80a48c8:	bf02      	ittt	eq
 80a48ca:	ea90 0f02 	teqeq	r0, r2
 80a48ce:	2000      	moveq	r0, #0
 80a48d0:	4770      	bxeq	lr
 80a48d2:	f110 0f00 	cmn.w	r0, #0
 80a48d6:	ea91 0f03 	teq	r1, r3
 80a48da:	bf58      	it	pl
 80a48dc:	4299      	cmppl	r1, r3
 80a48de:	bf08      	it	eq
 80a48e0:	4290      	cmpeq	r0, r2
 80a48e2:	bf2c      	ite	cs
 80a48e4:	17d8      	asrcs	r0, r3, #31
 80a48e6:	ea6f 70e3 	mvncc.w	r0, r3, asr #31
 80a48ea:	f040 0001 	orr.w	r0, r0, #1
 80a48ee:	4770      	bx	lr
 80a48f0:	ea4f 0c41 	mov.w	ip, r1, lsl #1
 80a48f4:	ea7f 5c6c 	mvns.w	ip, ip, asr #21
 80a48f8:	d102      	bne.n	80a4900 <__cmpdf2+0x64>
 80a48fa:	ea50 3c01 	orrs.w	ip, r0, r1, lsl #12
 80a48fe:	d107      	bne.n	80a4910 <__cmpdf2+0x74>
 80a4900:	ea4f 0c43 	mov.w	ip, r3, lsl #1
 80a4904:	ea7f 5c6c 	mvns.w	ip, ip, asr #21
 80a4908:	d1d6      	bne.n	80a48b8 <__cmpdf2+0x1c>
 80a490a:	ea52 3c03 	orrs.w	ip, r2, r3, lsl #12
 80a490e:	d0d3      	beq.n	80a48b8 <__cmpdf2+0x1c>
 80a4910:	f85d 0b04 	ldr.w	r0, [sp], #4
 80a4914:	4770      	bx	lr
 80a4916:	bf00      	nop

080a4918 <__aeabi_cdrcmple>:
 80a4918:	4684      	mov	ip, r0
 80a491a:	4610      	mov	r0, r2
 80a491c:	4662      	mov	r2, ip
 80a491e:	468c      	mov	ip, r1
 80a4920:	4619      	mov	r1, r3
 80a4922:	4663      	mov	r3, ip
 80a4924:	e000      	b.n	80a4928 <__aeabi_cdcmpeq>
 80a4926:	bf00      	nop

080a4928 <__aeabi_cdcmpeq>:
 80a4928:	b501      	push	{r0, lr}
 80a492a:	f7ff ffb7 	bl	80a489c <__cmpdf2>
 80a492e:	2800      	cmp	r0, #0
 80a4930:	bf48      	it	mi
 80a4932:	f110 0f00 	cmnmi.w	r0, #0
 80a4936:	bd01      	pop	{r0, pc}

080a4938 <__aeabi_dcmpeq>:
 80a4938:	f84d ed08 	str.w	lr, [sp, #-8]!
 80a493c:	f7ff fff4 	bl	80a4928 <__aeabi_cdcmpeq>
 80a4940:	bf0c      	ite	eq
 80a4942:	2001      	moveq	r0, #1
 80a4944:	2000      	movne	r0, #0
 80a4946:	f85d fb08 	ldr.w	pc, [sp], #8
 80a494a:	bf00      	nop

080a494c <__aeabi_dcmplt>:
 80a494c:	f84d ed08 	str.w	lr, [sp, #-8]!
 80a4950:	f7ff ffea 	bl	80a4928 <__aeabi_cdcmpeq>
 80a4954:	bf34      	ite	cc
 80a4956:	2001      	movcc	r0, #1
 80a4958:	2000      	movcs	r0, #0
 80a495a:	f85d fb08 	ldr.w	pc, [sp], #8
 80a495e:	bf00      	nop

080a4960 <__aeabi_dcmple>:
 80a4960:	f84d ed08 	str.w	lr, [sp, #-8]!
 80a4964:	f7ff ffe0 	bl	80a4928 <__aeabi_cdcmpeq>
 80a4968:	bf94      	ite	ls
 80a496a:	2001      	movls	r0, #1
 80a496c:	2000      	movhi	r0, #0
 80a496e:	f85d fb08 	ldr.w	pc, [sp], #8
 80a4972:	bf00      	nop

080a4974 <__aeabi_dcmpge>:
 80a4974:	f84d ed08 	str.w	lr, [sp, #-8]!
 80a4978:	f7ff ffce 	bl	80a4918 <__aeabi_cdrcmple>
 80a497c:	bf94      	ite	ls
 80a497e:	2001      	movls	r0, #1
 80a4980:	2000      	movhi	r0, #0
 80a4982:	f85d fb08 	ldr.w	pc, [sp], #8
 80a4986:	bf00      	nop

080a4988 <__aeabi_dcmpgt>:
 80a4988:	f84d ed08 	str.w	lr, [sp, #-8]!
 80a498c:	f7ff ffc4 	bl	80a4918 <__aeabi_cdrcmple>
 80a4990:	bf34      	ite	cc
 80a4992:	2001      	movcc	r0, #1
 80a4994:	2000      	movcs	r0, #0
 80a4996:	f85d fb08 	ldr.w	pc, [sp], #8
 80a499a:	bf00      	nop

080a499c <__aeabi_d2f>:
 80a499c:	ea4f 0241 	mov.w	r2, r1, lsl #1
 80a49a0:	f1b2 43e0 	subs.w	r3, r2, #1879048192	; 0x70000000
 80a49a4:	bf24      	itt	cs
 80a49a6:	f5b3 1c00 	subscs.w	ip, r3, #2097152	; 0x200000
 80a49aa:	f1dc 5cfe 	rsbscs	ip, ip, #532676608	; 0x1fc00000
 80a49ae:	d90d      	bls.n	80a49cc <__aeabi_d2f+0x30>
 80a49b0:	f001 4c00 	and.w	ip, r1, #2147483648	; 0x80000000
 80a49b4:	ea4f 02c0 	mov.w	r2, r0, lsl #3
 80a49b8:	ea4c 7050 	orr.w	r0, ip, r0, lsr #29
 80a49bc:	f1b2 4f00 	cmp.w	r2, #2147483648	; 0x80000000
 80a49c0:	eb40 0083 	adc.w	r0, r0, r3, lsl #2
 80a49c4:	bf08      	it	eq
 80a49c6:	f020 0001 	biceq.w	r0, r0, #1
 80a49ca:	4770      	bx	lr
 80a49cc:	f011 4f80 	tst.w	r1, #1073741824	; 0x40000000
 80a49d0:	d121      	bne.n	80a4a16 <__aeabi_d2f+0x7a>
 80a49d2:	f113 7238 	adds.w	r2, r3, #48234496	; 0x2e00000
 80a49d6:	bfbc      	itt	lt
 80a49d8:	f001 4000 	andlt.w	r0, r1, #2147483648	; 0x80000000
 80a49dc:	4770      	bxlt	lr
 80a49de:	f441 1180 	orr.w	r1, r1, #1048576	; 0x100000
 80a49e2:	ea4f 5252 	mov.w	r2, r2, lsr #21
 80a49e6:	f1c2 0218 	rsb	r2, r2, #24
 80a49ea:	f1c2 0c20 	rsb	ip, r2, #32
 80a49ee:	fa10 f30c 	lsls.w	r3, r0, ip
 80a49f2:	fa20 f002 	lsr.w	r0, r0, r2
 80a49f6:	bf18      	it	ne
 80a49f8:	f040 0001 	orrne.w	r0, r0, #1
 80a49fc:	ea4f 23c1 	mov.w	r3, r1, lsl #11
 80a4a00:	ea4f 23d3 	mov.w	r3, r3, lsr #11
 80a4a04:	fa03 fc0c 	lsl.w	ip, r3, ip
 80a4a08:	ea40 000c 	orr.w	r0, r0, ip
 80a4a0c:	fa23 f302 	lsr.w	r3, r3, r2
 80a4a10:	ea4f 0343 	mov.w	r3, r3, lsl #1
 80a4a14:	e7cc      	b.n	80a49b0 <__aeabi_d2f+0x14>
 80a4a16:	ea7f 5362 	mvns.w	r3, r2, asr #21
 80a4a1a:	d107      	bne.n	80a4a2c <__aeabi_d2f+0x90>
 80a4a1c:	ea50 3301 	orrs.w	r3, r0, r1, lsl #12
 80a4a20:	bf1e      	ittt	ne
 80a4a22:	f04f 40fe 	movne.w	r0, #2130706432	; 0x7f000000
 80a4a26:	f440 0040 	orrne.w	r0, r0, #12582912	; 0xc00000
 80a4a2a:	4770      	bxne	lr
 80a4a2c:	f001 4000 	and.w	r0, r1, #2147483648	; 0x80000000
 80a4a30:	f040 40fe 	orr.w	r0, r0, #2130706432	; 0x7f000000
 80a4a34:	f440 0000 	orr.w	r0, r0, #8388608	; 0x800000
 80a4a38:	4770      	bx	lr
 80a4a3a:	bf00      	nop

080a4a3c <__aeabi_frsub>:
 80a4a3c:	f080 4000 	eor.w	r0, r0, #2147483648	; 0x80000000
 80a4a40:	e002      	b.n	80a4a48 <__addsf3>
 80a4a42:	bf00      	nop

080a4a44 <__aeabi_fsub>:
 80a4a44:	f081 4100 	eor.w	r1, r1, #2147483648	; 0x80000000

080a4a48 <__addsf3>:
 80a4a48:	0042      	lsls	r2, r0, #1
 80a4a4a:	bf1f      	itttt	ne
 80a4a4c:	ea5f 0341 	movsne.w	r3, r1, lsl #1
 80a4a50:	ea92 0f03 	teqne	r2, r3
 80a4a54:	ea7f 6c22 	mvnsne.w	ip, r2, asr #24
 80a4a58:	ea7f 6c23 	mvnsne.w	ip, r3, asr #24
 80a4a5c:	d06a      	beq.n	80a4b34 <__addsf3+0xec>
 80a4a5e:	ea4f 6212 	mov.w	r2, r2, lsr #24
 80a4a62:	ebd2 6313 	rsbs	r3, r2, r3, lsr #24
 80a4a66:	bfc1      	itttt	gt
 80a4a68:	18d2      	addgt	r2, r2, r3
 80a4a6a:	4041      	eorgt	r1, r0
 80a4a6c:	4048      	eorgt	r0, r1
 80a4a6e:	4041      	eorgt	r1, r0
 80a4a70:	bfb8      	it	lt
 80a4a72:	425b      	neglt	r3, r3
 80a4a74:	2b19      	cmp	r3, #25
 80a4a76:	bf88      	it	hi
 80a4a78:	4770      	bxhi	lr
 80a4a7a:	f010 4f00 	tst.w	r0, #2147483648	; 0x80000000
 80a4a7e:	f440 0000 	orr.w	r0, r0, #8388608	; 0x800000
 80a4a82:	f020 407f 	bic.w	r0, r0, #4278190080	; 0xff000000
 80a4a86:	bf18      	it	ne
 80a4a88:	4240      	negne	r0, r0
 80a4a8a:	f011 4f00 	tst.w	r1, #2147483648	; 0x80000000
 80a4a8e:	f441 0100 	orr.w	r1, r1, #8388608	; 0x800000
 80a4a92:	f021 417f 	bic.w	r1, r1, #4278190080	; 0xff000000
 80a4a96:	bf18      	it	ne
 80a4a98:	4249      	negne	r1, r1
 80a4a9a:	ea92 0f03 	teq	r2, r3
 80a4a9e:	d03f      	beq.n	80a4b20 <__addsf3+0xd8>
 80a4aa0:	f1a2 0201 	sub.w	r2, r2, #1
 80a4aa4:	fa41 fc03 	asr.w	ip, r1, r3
 80a4aa8:	eb10 000c 	adds.w	r0, r0, ip
 80a4aac:	f1c3 0320 	rsb	r3, r3, #32
 80a4ab0:	fa01 f103 	lsl.w	r1, r1, r3
 80a4ab4:	f000 4300 	and.w	r3, r0, #2147483648	; 0x80000000
 80a4ab8:	d502      	bpl.n	80a4ac0 <__addsf3+0x78>
 80a4aba:	4249      	negs	r1, r1
 80a4abc:	eb60 0040 	sbc.w	r0, r0, r0, lsl #1
 80a4ac0:	f5b0 0f00 	cmp.w	r0, #8388608	; 0x800000
 80a4ac4:	d313      	bcc.n	80a4aee <__addsf3+0xa6>
 80a4ac6:	f1b0 7f80 	cmp.w	r0, #16777216	; 0x1000000
 80a4aca:	d306      	bcc.n	80a4ada <__addsf3+0x92>
 80a4acc:	0840      	lsrs	r0, r0, #1
 80a4ace:	ea4f 0131 	mov.w	r1, r1, rrx
 80a4ad2:	f102 0201 	add.w	r2, r2, #1
 80a4ad6:	2afe      	cmp	r2, #254	; 0xfe
 80a4ad8:	d251      	bcs.n	80a4b7e <__addsf3+0x136>
 80a4ada:	f1b1 4f00 	cmp.w	r1, #2147483648	; 0x80000000
 80a4ade:	eb40 50c2 	adc.w	r0, r0, r2, lsl #23
 80a4ae2:	bf08      	it	eq
 80a4ae4:	f020 0001 	biceq.w	r0, r0, #1
 80a4ae8:	ea40 0003 	orr.w	r0, r0, r3
 80a4aec:	4770      	bx	lr
 80a4aee:	0049      	lsls	r1, r1, #1
 80a4af0:	eb40 0000 	adc.w	r0, r0, r0
 80a4af4:	f410 0f00 	tst.w	r0, #8388608	; 0x800000
 80a4af8:	f1a2 0201 	sub.w	r2, r2, #1
 80a4afc:	d1ed      	bne.n	80a4ada <__addsf3+0x92>
 80a4afe:	fab0 fc80 	clz	ip, r0
 80a4b02:	f1ac 0c08 	sub.w	ip, ip, #8
 80a4b06:	ebb2 020c 	subs.w	r2, r2, ip
 80a4b0a:	fa00 f00c 	lsl.w	r0, r0, ip
 80a4b0e:	bfaa      	itet	ge
 80a4b10:	eb00 50c2 	addge.w	r0, r0, r2, lsl #23
 80a4b14:	4252      	neglt	r2, r2
 80a4b16:	4318      	orrge	r0, r3
 80a4b18:	bfbc      	itt	lt
 80a4b1a:	40d0      	lsrlt	r0, r2
 80a4b1c:	4318      	orrlt	r0, r3
 80a4b1e:	4770      	bx	lr
 80a4b20:	f092 0f00 	teq	r2, #0
 80a4b24:	f481 0100 	eor.w	r1, r1, #8388608	; 0x800000
 80a4b28:	bf06      	itte	eq
 80a4b2a:	f480 0000 	eoreq.w	r0, r0, #8388608	; 0x800000
 80a4b2e:	3201      	addeq	r2, #1
 80a4b30:	3b01      	subne	r3, #1
 80a4b32:	e7b5      	b.n	80a4aa0 <__addsf3+0x58>
 80a4b34:	ea4f 0341 	mov.w	r3, r1, lsl #1
 80a4b38:	ea7f 6c22 	mvns.w	ip, r2, asr #24
 80a4b3c:	bf18      	it	ne
 80a4b3e:	ea7f 6c23 	mvnsne.w	ip, r3, asr #24
 80a4b42:	d021      	beq.n	80a4b88 <__addsf3+0x140>
 80a4b44:	ea92 0f03 	teq	r2, r3
 80a4b48:	d004      	beq.n	80a4b54 <__addsf3+0x10c>
 80a4b4a:	f092 0f00 	teq	r2, #0
 80a4b4e:	bf08      	it	eq
 80a4b50:	4608      	moveq	r0, r1
 80a4b52:	4770      	bx	lr
 80a4b54:	ea90 0f01 	teq	r0, r1
 80a4b58:	bf1c      	itt	ne
 80a4b5a:	2000      	movne	r0, #0
 80a4b5c:	4770      	bxne	lr
 80a4b5e:	f012 4f7f 	tst.w	r2, #4278190080	; 0xff000000
 80a4b62:	d104      	bne.n	80a4b6e <__addsf3+0x126>
 80a4b64:	0040      	lsls	r0, r0, #1
 80a4b66:	bf28      	it	cs
 80a4b68:	f040 4000 	orrcs.w	r0, r0, #2147483648	; 0x80000000
 80a4b6c:	4770      	bx	lr
 80a4b6e:	f112 7200 	adds.w	r2, r2, #33554432	; 0x2000000
 80a4b72:	bf3c      	itt	cc
 80a4b74:	f500 0000 	addcc.w	r0, r0, #8388608	; 0x800000
 80a4b78:	4770      	bxcc	lr
 80a4b7a:	f000 4300 	and.w	r3, r0, #2147483648	; 0x80000000
 80a4b7e:	f043 40fe 	orr.w	r0, r3, #2130706432	; 0x7f000000
 80a4b82:	f440 0000 	orr.w	r0, r0, #8388608	; 0x800000
 80a4b86:	4770      	bx	lr
 80a4b88:	ea7f 6222 	mvns.w	r2, r2, asr #24
 80a4b8c:	bf16      	itet	ne
 80a4b8e:	4608      	movne	r0, r1
 80a4b90:	ea7f 6323 	mvnseq.w	r3, r3, asr #24
 80a4b94:	4601      	movne	r1, r0
 80a4b96:	0242      	lsls	r2, r0, #9
 80a4b98:	bf06      	itte	eq
 80a4b9a:	ea5f 2341 	movseq.w	r3, r1, lsl #9
 80a4b9e:	ea90 0f01 	teqeq	r0, r1
 80a4ba2:	f440 0080 	orrne.w	r0, r0, #4194304	; 0x400000
 80a4ba6:	4770      	bx	lr

080a4ba8 <__aeabi_ui2f>:
 80a4ba8:	f04f 0300 	mov.w	r3, #0
 80a4bac:	e004      	b.n	80a4bb8 <__aeabi_i2f+0x8>
 80a4bae:	bf00      	nop

080a4bb0 <__aeabi_i2f>:
 80a4bb0:	f010 4300 	ands.w	r3, r0, #2147483648	; 0x80000000
 80a4bb4:	bf48      	it	mi
 80a4bb6:	4240      	negmi	r0, r0
 80a4bb8:	ea5f 0c00 	movs.w	ip, r0
 80a4bbc:	bf08      	it	eq
 80a4bbe:	4770      	bxeq	lr
 80a4bc0:	f043 4396 	orr.w	r3, r3, #1258291200	; 0x4b000000
 80a4bc4:	4601      	mov	r1, r0
 80a4bc6:	f04f 0000 	mov.w	r0, #0
 80a4bca:	e01c      	b.n	80a4c06 <__aeabi_l2f+0x2a>

080a4bcc <__aeabi_ul2f>:
 80a4bcc:	ea50 0201 	orrs.w	r2, r0, r1
 80a4bd0:	bf08      	it	eq
 80a4bd2:	4770      	bxeq	lr
 80a4bd4:	f04f 0300 	mov.w	r3, #0
 80a4bd8:	e00a      	b.n	80a4bf0 <__aeabi_l2f+0x14>
 80a4bda:	bf00      	nop

080a4bdc <__aeabi_l2f>:
 80a4bdc:	ea50 0201 	orrs.w	r2, r0, r1
 80a4be0:	bf08      	it	eq
 80a4be2:	4770      	bxeq	lr
 80a4be4:	f011 4300 	ands.w	r3, r1, #2147483648	; 0x80000000
 80a4be8:	d502      	bpl.n	80a4bf0 <__aeabi_l2f+0x14>
 80a4bea:	4240      	negs	r0, r0
 80a4bec:	eb61 0141 	sbc.w	r1, r1, r1, lsl #1
 80a4bf0:	ea5f 0c01 	movs.w	ip, r1
 80a4bf4:	bf02      	ittt	eq
 80a4bf6:	4684      	moveq	ip, r0
 80a4bf8:	4601      	moveq	r1, r0
 80a4bfa:	2000      	moveq	r0, #0
 80a4bfc:	f043 43b6 	orr.w	r3, r3, #1526726656	; 0x5b000000
 80a4c00:	bf08      	it	eq
 80a4c02:	f1a3 5380 	subeq.w	r3, r3, #268435456	; 0x10000000
 80a4c06:	f5a3 0300 	sub.w	r3, r3, #8388608	; 0x800000
 80a4c0a:	fabc f28c 	clz	r2, ip
 80a4c0e:	3a08      	subs	r2, #8
 80a4c10:	eba3 53c2 	sub.w	r3, r3, r2, lsl #23
 80a4c14:	db10      	blt.n	80a4c38 <__aeabi_l2f+0x5c>
 80a4c16:	fa01 fc02 	lsl.w	ip, r1, r2
 80a4c1a:	4463      	add	r3, ip
 80a4c1c:	fa00 fc02 	lsl.w	ip, r0, r2
 80a4c20:	f1c2 0220 	rsb	r2, r2, #32
 80a4c24:	f1bc 4f00 	cmp.w	ip, #2147483648	; 0x80000000
 80a4c28:	fa20 f202 	lsr.w	r2, r0, r2
 80a4c2c:	eb43 0002 	adc.w	r0, r3, r2
 80a4c30:	bf08      	it	eq
 80a4c32:	f020 0001 	biceq.w	r0, r0, #1
 80a4c36:	4770      	bx	lr
 80a4c38:	f102 0220 	add.w	r2, r2, #32
 80a4c3c:	fa01 fc02 	lsl.w	ip, r1, r2
 80a4c40:	f1c2 0220 	rsb	r2, r2, #32
 80a4c44:	ea50 004c 	orrs.w	r0, r0, ip, lsl #1
 80a4c48:	fa21 f202 	lsr.w	r2, r1, r2
 80a4c4c:	eb43 0002 	adc.w	r0, r3, r2
 80a4c50:	bf08      	it	eq
 80a4c52:	ea20 70dc 	biceq.w	r0, r0, ip, lsr #31
 80a4c56:	4770      	bx	lr

080a4c58 <__aeabi_fmul>:
 80a4c58:	f04f 0cff 	mov.w	ip, #255	; 0xff
 80a4c5c:	ea1c 52d0 	ands.w	r2, ip, r0, lsr #23
 80a4c60:	bf1e      	ittt	ne
 80a4c62:	ea1c 53d1 	andsne.w	r3, ip, r1, lsr #23
 80a4c66:	ea92 0f0c 	teqne	r2, ip
 80a4c6a:	ea93 0f0c 	teqne	r3, ip
 80a4c6e:	d06f      	beq.n	80a4d50 <__aeabi_fmul+0xf8>
 80a4c70:	441a      	add	r2, r3
 80a4c72:	ea80 0c01 	eor.w	ip, r0, r1
 80a4c76:	0240      	lsls	r0, r0, #9
 80a4c78:	bf18      	it	ne
 80a4c7a:	ea5f 2141 	movsne.w	r1, r1, lsl #9
 80a4c7e:	d01e      	beq.n	80a4cbe <__aeabi_fmul+0x66>
 80a4c80:	f04f 6300 	mov.w	r3, #134217728	; 0x8000000
 80a4c84:	ea43 1050 	orr.w	r0, r3, r0, lsr #5
 80a4c88:	ea43 1151 	orr.w	r1, r3, r1, lsr #5
 80a4c8c:	fba0 3101 	umull	r3, r1, r0, r1
 80a4c90:	f00c 4000 	and.w	r0, ip, #2147483648	; 0x80000000
 80a4c94:	f5b1 0f00 	cmp.w	r1, #8388608	; 0x800000
 80a4c98:	bf3e      	ittt	cc
 80a4c9a:	0049      	lslcc	r1, r1, #1
 80a4c9c:	ea41 71d3 	orrcc.w	r1, r1, r3, lsr #31
 80a4ca0:	005b      	lslcc	r3, r3, #1
 80a4ca2:	ea40 0001 	orr.w	r0, r0, r1
 80a4ca6:	f162 027f 	sbc.w	r2, r2, #127	; 0x7f
 80a4caa:	2afd      	cmp	r2, #253	; 0xfd
 80a4cac:	d81d      	bhi.n	80a4cea <__aeabi_fmul+0x92>
 80a4cae:	f1b3 4f00 	cmp.w	r3, #2147483648	; 0x80000000
 80a4cb2:	eb40 50c2 	adc.w	r0, r0, r2, lsl #23
 80a4cb6:	bf08      	it	eq
 80a4cb8:	f020 0001 	biceq.w	r0, r0, #1
 80a4cbc:	4770      	bx	lr
 80a4cbe:	f090 0f00 	teq	r0, #0
 80a4cc2:	f00c 4c00 	and.w	ip, ip, #2147483648	; 0x80000000
 80a4cc6:	bf08      	it	eq
 80a4cc8:	0249      	lsleq	r1, r1, #9
 80a4cca:	ea4c 2050 	orr.w	r0, ip, r0, lsr #9
 80a4cce:	ea40 2051 	orr.w	r0, r0, r1, lsr #9
 80a4cd2:	3a7f      	subs	r2, #127	; 0x7f
 80a4cd4:	bfc2      	ittt	gt
 80a4cd6:	f1d2 03ff 	rsbsgt	r3, r2, #255	; 0xff
 80a4cda:	ea40 50c2 	orrgt.w	r0, r0, r2, lsl #23
 80a4cde:	4770      	bxgt	lr
 80a4ce0:	f440 0000 	orr.w	r0, r0, #8388608	; 0x800000
 80a4ce4:	f04f 0300 	mov.w	r3, #0
 80a4ce8:	3a01      	subs	r2, #1
 80a4cea:	dc5d      	bgt.n	80a4da8 <__aeabi_fmul+0x150>
 80a4cec:	f112 0f19 	cmn.w	r2, #25
 80a4cf0:	bfdc      	itt	le
 80a4cf2:	f000 4000 	andle.w	r0, r0, #2147483648	; 0x80000000
 80a4cf6:	4770      	bxle	lr
 80a4cf8:	f1c2 0200 	rsb	r2, r2, #0
 80a4cfc:	0041      	lsls	r1, r0, #1
 80a4cfe:	fa21 f102 	lsr.w	r1, r1, r2
 80a4d02:	f1c2 0220 	rsb	r2, r2, #32
 80a4d06:	fa00 fc02 	lsl.w	ip, r0, r2
 80a4d0a:	ea5f 0031 	movs.w	r0, r1, rrx
 80a4d0e:	f140 0000 	adc.w	r0, r0, #0
 80a4d12:	ea53 034c 	orrs.w	r3, r3, ip, lsl #1
 80a4d16:	bf08      	it	eq
 80a4d18:	ea20 70dc 	biceq.w	r0, r0, ip, lsr #31
 80a4d1c:	4770      	bx	lr
 80a4d1e:	f092 0f00 	teq	r2, #0
 80a4d22:	f000 4c00 	and.w	ip, r0, #2147483648	; 0x80000000
 80a4d26:	bf02      	ittt	eq
 80a4d28:	0040      	lsleq	r0, r0, #1
 80a4d2a:	f410 0f00 	tsteq.w	r0, #8388608	; 0x800000
 80a4d2e:	3a01      	subeq	r2, #1
 80a4d30:	d0f9      	beq.n	80a4d26 <__aeabi_fmul+0xce>
 80a4d32:	ea40 000c 	orr.w	r0, r0, ip
 80a4d36:	f093 0f00 	teq	r3, #0
 80a4d3a:	f001 4c00 	and.w	ip, r1, #2147483648	; 0x80000000
 80a4d3e:	bf02      	ittt	eq
 80a4d40:	0049      	lsleq	r1, r1, #1
 80a4d42:	f411 0f00 	tsteq.w	r1, #8388608	; 0x800000
 80a4d46:	3b01      	subeq	r3, #1
 80a4d48:	d0f9      	beq.n	80a4d3e <__aeabi_fmul+0xe6>
 80a4d4a:	ea41 010c 	orr.w	r1, r1, ip
 80a4d4e:	e78f      	b.n	80a4c70 <__aeabi_fmul+0x18>
 80a4d50:	ea0c 53d1 	and.w	r3, ip, r1, lsr #23
 80a4d54:	ea92 0f0c 	teq	r2, ip
 80a4d58:	bf18      	it	ne
 80a4d5a:	ea93 0f0c 	teqne	r3, ip
 80a4d5e:	d00a      	beq.n	80a4d76 <__aeabi_fmul+0x11e>
 80a4d60:	f030 4c00 	bics.w	ip, r0, #2147483648	; 0x80000000
 80a4d64:	bf18      	it	ne
 80a4d66:	f031 4c00 	bicsne.w	ip, r1, #2147483648	; 0x80000000
 80a4d6a:	d1d8      	bne.n	80a4d1e <__aeabi_fmul+0xc6>
 80a4d6c:	ea80 0001 	eor.w	r0, r0, r1
 80a4d70:	f000 4000 	and.w	r0, r0, #2147483648	; 0x80000000
 80a4d74:	4770      	bx	lr
 80a4d76:	f090 0f00 	teq	r0, #0
 80a4d7a:	bf17      	itett	ne
 80a4d7c:	f090 4f00 	teqne	r0, #2147483648	; 0x80000000
 80a4d80:	4608      	moveq	r0, r1
 80a4d82:	f091 0f00 	teqne	r1, #0
 80a4d86:	f091 4f00 	teqne	r1, #2147483648	; 0x80000000
 80a4d8a:	d014      	beq.n	80a4db6 <__aeabi_fmul+0x15e>
 80a4d8c:	ea92 0f0c 	teq	r2, ip
 80a4d90:	d101      	bne.n	80a4d96 <__aeabi_fmul+0x13e>
 80a4d92:	0242      	lsls	r2, r0, #9
 80a4d94:	d10f      	bne.n	80a4db6 <__aeabi_fmul+0x15e>
 80a4d96:	ea93 0f0c 	teq	r3, ip
 80a4d9a:	d103      	bne.n	80a4da4 <__aeabi_fmul+0x14c>
 80a4d9c:	024b      	lsls	r3, r1, #9
 80a4d9e:	bf18      	it	ne
 80a4da0:	4608      	movne	r0, r1
 80a4da2:	d108      	bne.n	80a4db6 <__aeabi_fmul+0x15e>
 80a4da4:	ea80 0001 	eor.w	r0, r0, r1
 80a4da8:	f000 4000 	and.w	r0, r0, #2147483648	; 0x80000000
 80a4dac:	f040 40fe 	orr.w	r0, r0, #2130706432	; 0x7f000000
 80a4db0:	f440 0000 	orr.w	r0, r0, #8388608	; 0x800000
 80a4db4:	4770      	bx	lr
 80a4db6:	f040 40fe 	orr.w	r0, r0, #2130706432	; 0x7f000000
 80a4dba:	f440 0040 	orr.w	r0, r0, #12582912	; 0xc00000
 80a4dbe:	4770      	bx	lr

080a4dc0 <__aeabi_fdiv>:
 80a4dc0:	f04f 0cff 	mov.w	ip, #255	; 0xff
 80a4dc4:	ea1c 52d0 	ands.w	r2, ip, r0, lsr #23
 80a4dc8:	bf1e      	ittt	ne
 80a4dca:	ea1c 53d1 	andsne.w	r3, ip, r1, lsr #23
 80a4dce:	ea92 0f0c 	teqne	r2, ip
 80a4dd2:	ea93 0f0c 	teqne	r3, ip
 80a4dd6:	d069      	beq.n	80a4eac <__aeabi_fdiv+0xec>
 80a4dd8:	eba2 0203 	sub.w	r2, r2, r3
 80a4ddc:	ea80 0c01 	eor.w	ip, r0, r1
 80a4de0:	0249      	lsls	r1, r1, #9
 80a4de2:	ea4f 2040 	mov.w	r0, r0, lsl #9
 80a4de6:	d037      	beq.n	80a4e58 <__aeabi_fdiv+0x98>
 80a4de8:	f04f 5380 	mov.w	r3, #268435456	; 0x10000000
 80a4dec:	ea43 1111 	orr.w	r1, r3, r1, lsr #4
 80a4df0:	ea43 1310 	orr.w	r3, r3, r0, lsr #4
 80a4df4:	f00c 4000 	and.w	r0, ip, #2147483648	; 0x80000000
 80a4df8:	428b      	cmp	r3, r1
 80a4dfa:	bf38      	it	cc
 80a4dfc:	005b      	lslcc	r3, r3, #1
 80a4dfe:	f142 027d 	adc.w	r2, r2, #125	; 0x7d
 80a4e02:	f44f 0c00 	mov.w	ip, #8388608	; 0x800000
 80a4e06:	428b      	cmp	r3, r1
 80a4e08:	bf24      	itt	cs
 80a4e0a:	1a5b      	subcs	r3, r3, r1
 80a4e0c:	ea40 000c 	orrcs.w	r0, r0, ip
 80a4e10:	ebb3 0f51 	cmp.w	r3, r1, lsr #1
 80a4e14:	bf24      	itt	cs
 80a4e16:	eba3 0351 	subcs.w	r3, r3, r1, lsr #1
 80a4e1a:	ea40 005c 	orrcs.w	r0, r0, ip, lsr #1
 80a4e1e:	ebb3 0f91 	cmp.w	r3, r1, lsr #2
 80a4e22:	bf24      	itt	cs
 80a4e24:	eba3 0391 	subcs.w	r3, r3, r1, lsr #2
 80a4e28:	ea40 009c 	orrcs.w	r0, r0, ip, lsr #2
 80a4e2c:	ebb3 0fd1 	cmp.w	r3, r1, lsr #3
 80a4e30:	bf24      	itt	cs
 80a4e32:	eba3 03d1 	subcs.w	r3, r3, r1, lsr #3
 80a4e36:	ea40 00dc 	orrcs.w	r0, r0, ip, lsr #3
 80a4e3a:	011b      	lsls	r3, r3, #4
 80a4e3c:	bf18      	it	ne
 80a4e3e:	ea5f 1c1c 	movsne.w	ip, ip, lsr #4
 80a4e42:	d1e0      	bne.n	80a4e06 <__aeabi_fdiv+0x46>
 80a4e44:	2afd      	cmp	r2, #253	; 0xfd
 80a4e46:	f63f af50 	bhi.w	80a4cea <__aeabi_fmul+0x92>
 80a4e4a:	428b      	cmp	r3, r1
 80a4e4c:	eb40 50c2 	adc.w	r0, r0, r2, lsl #23
 80a4e50:	bf08      	it	eq
 80a4e52:	f020 0001 	biceq.w	r0, r0, #1
 80a4e56:	4770      	bx	lr
 80a4e58:	f00c 4c00 	and.w	ip, ip, #2147483648	; 0x80000000
 80a4e5c:	ea4c 2050 	orr.w	r0, ip, r0, lsr #9
 80a4e60:	327f      	adds	r2, #127	; 0x7f
 80a4e62:	bfc2      	ittt	gt
 80a4e64:	f1d2 03ff 	rsbsgt	r3, r2, #255	; 0xff
 80a4e68:	ea40 50c2 	orrgt.w	r0, r0, r2, lsl #23
 80a4e6c:	4770      	bxgt	lr
 80a4e6e:	f440 0000 	orr.w	r0, r0, #8388608	; 0x800000
 80a4e72:	f04f 0300 	mov.w	r3, #0
 80a4e76:	3a01      	subs	r2, #1
 80a4e78:	e737      	b.n	80a4cea <__aeabi_fmul+0x92>
 80a4e7a:	f092 0f00 	teq	r2, #0
 80a4e7e:	f000 4c00 	and.w	ip, r0, #2147483648	; 0x80000000
 80a4e82:	bf02      	ittt	eq
 80a4e84:	0040      	lsleq	r0, r0, #1
 80a4e86:	f410 0f00 	tsteq.w	r0, #8388608	; 0x800000
 80a4e8a:	3a01      	subeq	r2, #1
 80a4e8c:	d0f9      	beq.n	80a4e82 <__aeabi_fdiv+0xc2>
 80a4e8e:	ea40 000c 	orr.w	r0, r0, ip
 80a4e92:	f093 0f00 	teq	r3, #0
 80a4e96:	f001 4c00 	and.w	ip, r1, #2147483648	; 0x80000000
 80a4e9a:	bf02      	ittt	eq
 80a4e9c:	0049      	lsleq	r1, r1, #1
 80a4e9e:	f411 0f00 	tsteq.w	r1, #8388608	; 0x800000
 80a4ea2:	3b01      	subeq	r3, #1
 80a4ea4:	d0f9      	beq.n	80a4e9a <__aeabi_fdiv+0xda>
 80a4ea6:	ea41 010c 	orr.w	r1, r1, ip
 80a4eaa:	e795      	b.n	80a4dd8 <__aeabi_fdiv+0x18>
 80a4eac:	ea0c 53d1 	and.w	r3, ip, r1, lsr #23
 80a4eb0:	ea92 0f0c 	teq	r2, ip
 80a4eb4:	d108      	bne.n	80a4ec8 <__aeabi_fdiv+0x108>
 80a4eb6:	0242      	lsls	r2, r0, #9
 80a4eb8:	f47f af7d 	bne.w	80a4db6 <__aeabi_fmul+0x15e>
 80a4ebc:	ea93 0f0c 	teq	r3, ip
 80a4ec0:	f47f af70 	bne.w	80a4da4 <__aeabi_fmul+0x14c>
 80a4ec4:	4608      	mov	r0, r1
 80a4ec6:	e776      	b.n	80a4db6 <__aeabi_fmul+0x15e>
 80a4ec8:	ea93 0f0c 	teq	r3, ip
 80a4ecc:	d104      	bne.n	80a4ed8 <__aeabi_fdiv+0x118>
 80a4ece:	024b      	lsls	r3, r1, #9
 80a4ed0:	f43f af4c 	beq.w	80a4d6c <__aeabi_fmul+0x114>
 80a4ed4:	4608      	mov	r0, r1
 80a4ed6:	e76e      	b.n	80a4db6 <__aeabi_fmul+0x15e>
 80a4ed8:	f030 4c00 	bics.w	ip, r0, #2147483648	; 0x80000000
 80a4edc:	bf18      	it	ne
 80a4ede:	f031 4c00 	bicsne.w	ip, r1, #2147483648	; 0x80000000
 80a4ee2:	d1ca      	bne.n	80a4e7a <__aeabi_fdiv+0xba>
 80a4ee4:	f030 4200 	bics.w	r2, r0, #2147483648	; 0x80000000
 80a4ee8:	f47f af5c 	bne.w	80a4da4 <__aeabi_fmul+0x14c>
 80a4eec:	f031 4300 	bics.w	r3, r1, #2147483648	; 0x80000000
 80a4ef0:	f47f af3c 	bne.w	80a4d6c <__aeabi_fmul+0x114>
 80a4ef4:	e75f      	b.n	80a4db6 <__aeabi_fmul+0x15e>
 80a4ef6:	bf00      	nop

080a4ef8 <__gesf2>:
 80a4ef8:	f04f 3cff 	mov.w	ip, #4294967295
 80a4efc:	e006      	b.n	80a4f0c <__cmpsf2+0x4>
 80a4efe:	bf00      	nop

080a4f00 <__lesf2>:
 80a4f00:	f04f 0c01 	mov.w	ip, #1
 80a4f04:	e002      	b.n	80a4f0c <__cmpsf2+0x4>
 80a4f06:	bf00      	nop

080a4f08 <__cmpsf2>:
 80a4f08:	f04f 0c01 	mov.w	ip, #1
 80a4f0c:	f84d cd04 	str.w	ip, [sp, #-4]!
 80a4f10:	ea4f 0240 	mov.w	r2, r0, lsl #1
 80a4f14:	ea4f 0341 	mov.w	r3, r1, lsl #1
 80a4f18:	ea7f 6c22 	mvns.w	ip, r2, asr #24
 80a4f1c:	bf18      	it	ne
 80a4f1e:	ea7f 6c23 	mvnsne.w	ip, r3, asr #24
 80a4f22:	d011      	beq.n	80a4f48 <__cmpsf2+0x40>
 80a4f24:	b001      	add	sp, #4
 80a4f26:	ea52 0c53 	orrs.w	ip, r2, r3, lsr #1
 80a4f2a:	bf18      	it	ne
 80a4f2c:	ea90 0f01 	teqne	r0, r1
 80a4f30:	bf58      	it	pl
 80a4f32:	ebb2 0003 	subspl.w	r0, r2, r3
 80a4f36:	bf88      	it	hi
 80a4f38:	17c8      	asrhi	r0, r1, #31
 80a4f3a:	bf38      	it	cc
 80a4f3c:	ea6f 70e1 	mvncc.w	r0, r1, asr #31
 80a4f40:	bf18      	it	ne
 80a4f42:	f040 0001 	orrne.w	r0, r0, #1
 80a4f46:	4770      	bx	lr
 80a4f48:	ea7f 6c22 	mvns.w	ip, r2, asr #24
 80a4f4c:	d102      	bne.n	80a4f54 <__cmpsf2+0x4c>
 80a4f4e:	ea5f 2c40 	movs.w	ip, r0, lsl #9
 80a4f52:	d105      	bne.n	80a4f60 <__cmpsf2+0x58>
 80a4f54:	ea7f 6c23 	mvns.w	ip, r3, asr #24
 80a4f58:	d1e4      	bne.n	80a4f24 <__cmpsf2+0x1c>
 80a4f5a:	ea5f 2c41 	movs.w	ip, r1, lsl #9
 80a4f5e:	d0e1      	beq.n	80a4f24 <__cmpsf2+0x1c>
 80a4f60:	f85d 0b04 	ldr.w	r0, [sp], #4
 80a4f64:	4770      	bx	lr
 80a4f66:	bf00      	nop

080a4f68 <__aeabi_cfrcmple>:
 80a4f68:	4684      	mov	ip, r0
 80a4f6a:	4608      	mov	r0, r1
 80a4f6c:	4661      	mov	r1, ip
 80a4f6e:	e7ff      	b.n	80a4f70 <__aeabi_cfcmpeq>

080a4f70 <__aeabi_cfcmpeq>:
 80a4f70:	b50f      	push	{r0, r1, r2, r3, lr}
 80a4f72:	f7ff ffc9 	bl	80a4f08 <__cmpsf2>
 80a4f76:	2800      	cmp	r0, #0
 80a4f78:	bf48      	it	mi
 80a4f7a:	f110 0f00 	cmnmi.w	r0, #0
 80a4f7e:	bd0f      	pop	{r0, r1, r2, r3, pc}

080a4f80 <__aeabi_fcmpeq>:
 80a4f80:	f84d ed08 	str.w	lr, [sp, #-8]!
 80a4f84:	f7ff fff4 	bl	80a4f70 <__aeabi_cfcmpeq>
 80a4f88:	bf0c      	ite	eq
 80a4f8a:	2001      	moveq	r0, #1
 80a4f8c:	2000      	movne	r0, #0
 80a4f8e:	f85d fb08 	ldr.w	pc, [sp], #8
 80a4f92:	bf00      	nop

080a4f94 <__aeabi_fcmplt>:
 80a4f94:	f84d ed08 	str.w	lr, [sp, #-8]!
 80a4f98:	f7ff ffea 	bl	80a4f70 <__aeabi_cfcmpeq>
 80a4f9c:	bf34      	ite	cc
 80a4f9e:	2001      	movcc	r0, #1
 80a4fa0:	2000      	movcs	r0, #0
 80a4fa2:	f85d fb08 	ldr.w	pc, [sp], #8
 80a4fa6:	bf00      	nop

080a4fa8 <__aeabi_fcmple>:
 80a4fa8:	f84d ed08 	str.w	lr, [sp, #-8]!
 80a4fac:	f7ff ffe0 	bl	80a4f70 <__aeabi_cfcmpeq>
 80a4fb0:	bf94      	ite	ls
 80a4fb2:	2001      	movls	r0, #1
 80a4fb4:	2000      	movhi	r0, #0
 80a4fb6:	f85d fb08 	ldr.w	pc, [sp], #8
 80a4fba:	bf00      	nop

080a4fbc <__aeabi_fcmpge>:
 80a4fbc:	f84d ed08 	str.w	lr, [sp, #-8]!
 80a4fc0:	f7ff ffd2 	bl	80a4f68 <__aeabi_cfrcmple>
 80a4fc4:	bf94      	ite	ls
 80a4fc6:	2001      	movls	r0, #1
 80a4fc8:	2000      	movhi	r0, #0
 80a4fca:	f85d fb08 	ldr.w	pc, [sp], #8
 80a4fce:	bf00      	nop

080a4fd0 <__aeabi_fcmpgt>:
 80a4fd0:	f84d ed08 	str.w	lr, [sp, #-8]!
 80a4fd4:	f7ff ffc8 	bl	80a4f68 <__aeabi_cfrcmple>
 80a4fd8:	bf34      	ite	cc
 80a4fda:	2001      	movcc	r0, #1
 80a4fdc:	2000      	movcs	r0, #0
 80a4fde:	f85d fb08 	ldr.w	pc, [sp], #8
 80a4fe2:	bf00      	nop

080a4fe4 <__aeabi_f2uiz>:
 80a4fe4:	0042      	lsls	r2, r0, #1
 80a4fe6:	d20e      	bcs.n	80a5006 <__aeabi_f2uiz+0x22>
 80a4fe8:	f1b2 4ffe 	cmp.w	r2, #2130706432	; 0x7f000000
 80a4fec:	d30b      	bcc.n	80a5006 <__aeabi_f2uiz+0x22>
 80a4fee:	f04f 039e 	mov.w	r3, #158	; 0x9e
 80a4ff2:	ebb3 6212 	subs.w	r2, r3, r2, lsr #24
 80a4ff6:	d409      	bmi.n	80a500c <__aeabi_f2uiz+0x28>
 80a4ff8:	ea4f 2300 	mov.w	r3, r0, lsl #8
 80a4ffc:	f043 4300 	orr.w	r3, r3, #2147483648	; 0x80000000
 80a5000:	fa23 f002 	lsr.w	r0, r3, r2
 80a5004:	4770      	bx	lr
 80a5006:	f04f 0000 	mov.w	r0, #0
 80a500a:	4770      	bx	lr
 80a500c:	f112 0f61 	cmn.w	r2, #97	; 0x61
 80a5010:	d101      	bne.n	80a5016 <__aeabi_f2uiz+0x32>
 80a5012:	0242      	lsls	r2, r0, #9
 80a5014:	d102      	bne.n	80a501c <__aeabi_f2uiz+0x38>
 80a5016:	f04f 30ff 	mov.w	r0, #4294967295
 80a501a:	4770      	bx	lr
 80a501c:	f04f 0000 	mov.w	r0, #0
 80a5020:	4770      	bx	lr
 80a5022:	bf00      	nop

080a5024 <__cxa_atexit>:
 80a5024:	b510      	push	{r4, lr}
 80a5026:	4c05      	ldr	r4, [pc, #20]	; (80a503c <__cxa_atexit+0x18>)
 80a5028:	4613      	mov	r3, r2
 80a502a:	b12c      	cbz	r4, 80a5038 <__cxa_atexit+0x14>
 80a502c:	460a      	mov	r2, r1
 80a502e:	4601      	mov	r1, r0
 80a5030:	2002      	movs	r0, #2
 80a5032:	f3af 8000 	nop.w
 80a5036:	bd10      	pop	{r4, pc}
 80a5038:	4620      	mov	r0, r4
 80a503a:	bd10      	pop	{r4, pc}
 80a503c:	00000000 	.word	0x00000000

080a5040 <memcpy>:
 80a5040:	b510      	push	{r4, lr}
 80a5042:	1e43      	subs	r3, r0, #1
 80a5044:	440a      	add	r2, r1
 80a5046:	4291      	cmp	r1, r2
 80a5048:	d004      	beq.n	80a5054 <memcpy+0x14>
 80a504a:	f811 4b01 	ldrb.w	r4, [r1], #1
 80a504e:	f803 4f01 	strb.w	r4, [r3, #1]!
 80a5052:	e7f8      	b.n	80a5046 <memcpy+0x6>
 80a5054:	bd10      	pop	{r4, pc}

080a5056 <memset>:
 80a5056:	4603      	mov	r3, r0
 80a5058:	4402      	add	r2, r0
 80a505a:	4293      	cmp	r3, r2
 80a505c:	d002      	beq.n	80a5064 <memset+0xe>
 80a505e:	f803 1b01 	strb.w	r1, [r3], #1
 80a5062:	e7fa      	b.n	80a505a <memset+0x4>
 80a5064:	4770      	bx	lr

080a5066 <strlen>:
 80a5066:	4603      	mov	r3, r0
 80a5068:	f813 2b01 	ldrb.w	r2, [r3], #1
 80a506c:	2a00      	cmp	r2, #0
 80a506e:	d1fb      	bne.n	80a5068 <strlen+0x2>
 80a5070:	1a18      	subs	r0, r3, r0
 80a5072:	3801      	subs	r0, #1
 80a5074:	4770      	bx	lr

080a5076 <link_code_end>:
	...

080a5078 <dynalib_user>:
 80a5078:	001d 080a 005d 080a 0089 080a 008d 080a     ....]...........
 80a5088:	0000 0000 6573 7574 5370 6375 6563 7373     ....setupSuccess
 80a5098:	253d 0064 6157 7469 6e69 2067 6f66 2072     =%d.Waiting for 
 80a50a8:	7453 7261 0074 7453 7261 6974 676e 6920     Start.Starting i
 80a50b8:	206e 2035 6573 6f63 646e 2e73 2e2e 4700     n 5 seconds....G
 80a50c8:	214f 4f00 5455 5550 3a54 0020 7546 6c6c     O!.OUTPUT: .Full
 80a50d8:	4c20 6665 0074 6d53 6c61 206c 654c 7466      Left.Small Left
 80a50e8:	4300 6e65 6574 0072 6d53 6c61 206c 6952     .Center.Small Ri
 80a50f8:	6867 0074 7546 6c6c 5220 6769 7468 2000     ght.Full Right. 
 80a5108:	207c 7300 6e65 6f73 2072 3a30 7300 6e65     | .sensor 0:.sen
 80a5118:	6f73 2072 3a31 7300 6e65 6f73 2072 3a32     sor 1:.sensor 2:
 80a5128:	7300 6e65 6f73 2072 3a33 6e00 206f 6173     .sensor 3:.no sa
 80a5138:	706d 656c 2000 4553 534e 524f 5420 4d49     mple. SENSOR TIM
 80a5148:	4f45 5455 0000 0000                         EOUT....

080a5150 <_ZTV9LIS3DHI2C>:
	...
 80a5158:	2105 080a 2107 080a 215b 080a 2113 080a     .!...!..[!...!..
 80a5168:	6564 6976 6563 6e20 746f 6620 756f 646e     device not found
 80a5178:	7200 7365 7465 6974 676e 6c20 7361 4d74     .resetting lastM
 80a5188:	766f 6d65 6e65 2074 6e69 3174 735f 6372     ovement int1_src
 80a5198:	303d 2578 0078 6572 6163 696c 7262 7461     =0x%x.recalibrat
 80a51a8:	6e69 0067                                   ing.

080a51ac <_ZTV8SPIClass>:
	...
 80a51b4:	34bd 080a 34bf 080a 0066 6e6c 6600 006e     .4...4..f.ln.fn.
 80a51c4:	6f63 6564 6400 7465 6961 006c 0a0d 2500     code.detail....%
 80a51d4:	3130 7530 0020 205d 2c00 0020 2928 203a     010u .] ., .(): 
 80a51e4:	2000 005b 6f63 6564 3d20 0020 6925 6400     . [.code = .%i.d
 80a51f4:	7465 6961 736c 3d20 0020 6162 6475 5300     etails = .baud.S
 80a5204:	7265 6169 006c 5355 5342 7265 6169 316c     erial.USBSerial1
 80a5214:	7400 7079 0065 6170 6172 006d 6d63 0064     .type.param.cmd.
 80a5224:	6469 6800 646e 7300 7274 006d 6966 746c     id.hnd.strm.filt
 80a5234:	6c00 6c76 6100 6464 6148 646e 656c 0072     .lvl.addHandler.
 80a5244:	6572 6f6d 6576 6148 646e 656c 0072 6e65     removeHandler.en
 80a5254:	6d75 6148 646e 656c 7372 4a00 4f53 534e     umHandlers.JSONS
 80a5264:	7274 6165 4c6d 676f 6148 646e 656c 0072     treamLogHandler.
 80a5274:	7061 0070 6f6e 656e 7400 6172 6563 6900     app.none.trace.i
 80a5284:	666e 006f 6177 6e72 6500 7272 726f 7000     nfo.warn.error.p
 80a5294:	6e61 6369 6100 6c6c 5a00 2500 302b 6433     anic.all.Z.%+03d
 80a52a4:	253a 3230 0075 5925 252d 2d6d 6425 2554     :%02u.%Y-%m-%dT%
 80a52b4:	3a48 4d25 253a 2553 007a 7361 7463 6d69     H:%M:%S%z.asctim
 80a52c4:	0065 0000                                   e...

080a52c8 <_ZTV9IPAddress>:
	...
 80a52d0:	38eb 080a 38dd 080a 38df 080a               .8...8...8..

080a52dc <_ZTV9USBSerial>:
	...
 80a52e4:	3955 080a 3999 080a 3973 080a 35bf 080a     U9...9..s9...5..
 80a52f4:	396d 080a 3957 080a 395f 080a 3993 080a     m9..W9.._9...9..
 80a5304:	3967 080a 3951 080a                         g9..Q9..

080a530c <_ZTV11USARTSerial>:
	...
 80a5314:	3b15 080a 3b39 080a 3b45 080a 35bf 080a     .;..9;..E;...5..
 80a5324:	3b21 080a 3b2d 080a 3b27 080a 3b33 080a     !;..-;..';..3;..
 80a5334:	3b17 080a 3b1b 080a                         .;...;..

080a533c <_ZTV7TwoWire>:
	...
 80a5344:	3be9 080a 3c33 080a 3c0b 080a 3beb 080a     .;..3<...<...;..
 80a5354:	3c13 080a 3c1b 080a 3c23 080a 3c2b 080a     .<...<..#<..+<..

080a5364 <_ZTVN5spark9WiFiClassE>:
	...
 80a536c:	3cbb 080a                                   .<..

080a5370 <link_const_variable_data_end>:
 80a5370:	080a1495 	.word	0x080a1495
 80a5374:	080a2101 	.word	0x080a2101
 80a5378:	080a2355 	.word	0x080a2355
 80a537c:	080a35b9 	.word	0x080a35b9
 80a5380:	080a3781 	.word	0x080a3781
 80a5384:	080a3791 	.word	0x080a3791
 80a5388:	080a3cc5 	.word	0x080a3cc5
 80a538c:	080a3da9 	.word	0x080a3da9
 80a5390:	080a3ded 	.word	0x080a3ded
 80a5394:	080a3e69 	.word	0x080a3e69
 80a5398:	080a3eed 	.word	0x080a3eed
 80a539c:	080a3fb1 	.word	0x080a3fb1
 80a53a0:	080a4075 	.word	0x080a4075

080a53a4 <link_constructors_end>:
	...
