
C:/src/battlebots-sumo/v3/fuzzy/target/fuzzy.elf:     file format elf32-littlearm

Sections:
Idx Name          Size      VMA       LMA       File off  Algn
  0 .module_info  00000018  080a0000  080a0000  00010000  2**2
                  CONTENTS, ALLOC, LOAD, READONLY, DATA
  1 .text         00005aa8  080a0018  080a0018  00010018  2**3
                  CONTENTS, ALLOC, LOAD, READONLY, CODE
  2 .backup       00000004  40024000  080a5ac0  00024000  2**2
                  CONTENTS, ALLOC, LOAD, DATA
  3 .data         00000064  20000300  080a5ac4  00030300  2**2
                  CONTENTS, ALLOC, LOAD, DATA
  4 .bss          0000061c  20000364  20000364  00040364  2**2
                  ALLOC
  5 .module_info_suffix 00000028  080a5b28  080a5b28  00035b28  2**0
                  CONTENTS, ALLOC, LOAD, READONLY, DATA
  6 .module_info_crc 00000004  080a5b50  080a5b50  00035b50  2**0
                  CONTENTS, ALLOC, LOAD, READONLY, DATA
  7 .debug_info   000a2380  00000000  00000000  00035b54  2**0
                  CONTENTS, READONLY, DEBUGGING
  8 .debug_abbrev 00010b90  00000000  00000000  000d7ed4  2**0
                  CONTENTS, READONLY, DEBUGGING
  9 .debug_loc    00013216  00000000  00000000  000e8a64  2**0
                  CONTENTS, READONLY, DEBUGGING
 10 .debug_aranges 00001e30  00000000  00000000  000fbc7a  2**0
                  CONTENTS, READONLY, DEBUGGING
 11 .debug_ranges 00002d08  00000000  00000000  000fdaaa  2**0
                  CONTENTS, READONLY, DEBUGGING
 12 .debug_macro  00024f88  00000000  00000000  001007b2  2**0
                  CONTENTS, READONLY, DEBUGGING
 13 .debug_line   00024cba  00000000  00000000  0012573a  2**0
                  CONTENTS, READONLY, DEBUGGING
 14 .debug_str    0009021b  00000000  00000000  0014a3f4  2**0
                  CONTENTS, READONLY, DEBUGGING
 15 .debug_frame  0000b3c8  00000000  00000000  001da610  2**2
                  CONTENTS, READONLY, DEBUGGING

Disassembly of section .text:

080a0018 <user_part_module>:
 80a0018:	7c 57 0a 08                                         |W..

080a001c <module_user_pre_init>:
/**
 * Initializes this user module. Returns the start of the heap.
 */
void* module_user_pre_init() {

    if ( (&link_global_data_start!=&link_global_data_initial_values) && (link_global_data_size != 0))
 80a001c:	4809      	ldr	r0, [pc, #36]	; (80a0044 <module_user_pre_init+0x28>)
 80a001e:	490a      	ldr	r1, [pc, #40]	; (80a0048 <module_user_pre_init+0x2c>)
extern constructor_ptr_t link_constructors_end;

/**
 * Initializes this user module. Returns the start of the heap.
 */
void* module_user_pre_init() {
 80a0020:	b508      	push	{r3, lr}

    if ( (&link_global_data_start!=&link_global_data_initial_values) && (link_global_data_size != 0))
 80a0022:	4288      	cmp	r0, r1
 80a0024:	d005      	beq.n	80a0032 <module_user_pre_init+0x16>
 80a0026:	4a09      	ldr	r2, [pc, #36]	; (80a004c <module_user_pre_init+0x30>)
 80a0028:	4282      	cmp	r2, r0
 80a002a:	d002      	beq.n	80a0032 <module_user_pre_init+0x16>
    {
        memcpy(&link_global_data_start, &link_global_data_initial_values, link_global_data_size);
 80a002c:	1a12      	subs	r2, r2, r0
 80a002e:	f005 fb89 	bl	80a5744 <memcpy>
    }

    memset(&link_bss_location, 0, link_bss_size );
 80a0032:	4807      	ldr	r0, [pc, #28]	; (80a0050 <module_user_pre_init+0x34>)
 80a0034:	4a07      	ldr	r2, [pc, #28]	; (80a0054 <module_user_pre_init+0x38>)
 80a0036:	2100      	movs	r1, #0
 80a0038:	1a12      	subs	r2, r2, r0
 80a003a:	f005 fb8e 	bl	80a575a <memset>
    return &link_heap_start;
}
 80a003e:	4806      	ldr	r0, [pc, #24]	; (80a0058 <module_user_pre_init+0x3c>)
 80a0040:	bd08      	pop	{r3, pc}
 80a0042:	bf00      	nop
 80a0044:	20000300 	.word	0x20000300
 80a0048:	080a5ac4 	.word	0x080a5ac4
 80a004c:	20000364 	.word	0x20000364
 80a0050:	20000364 	.word	0x20000364
 80a0054:	20000980 	.word	0x20000980
 80a0058:	20000980 	.word	0x20000980

080a005c <module_user_init>:
extern constructor_ptr_t link_constructors_location[];
extern constructor_ptr_t link_constructors_end;
#define link_constructors_size   ((unsigned long)&link_constructors_end  -  (unsigned long)&link_constructors_location )

void module_user_init()
{
 80a005c:	b570      	push	{r4, r5, r6, lr}
    module_user_init_hook();
 80a005e:	f003 fcb1 	bl	80a39c4 <module_user_init_hook>
 80a0062:	4b07      	ldr	r3, [pc, #28]	; (80a0080 <module_user_init+0x24>)
 80a0064:	4c07      	ldr	r4, [pc, #28]	; (80a0084 <module_user_init+0x28>)
 80a0066:	461e      	mov	r6, r3
 80a0068:	1ae4      	subs	r4, r4, r3
 80a006a:	08a4      	lsrs	r4, r4, #2

    // invoke constructors
    int ctor_num;
    for (ctor_num=0; ctor_num < link_constructors_size/sizeof(constructor_ptr_t); ctor_num++ )
 80a006c:	2500      	movs	r5, #0
 80a006e:	42a5      	cmp	r5, r4
 80a0070:	d004      	beq.n	80a007c <module_user_init+0x20>
    {
        link_constructors_location[ctor_num]();
 80a0072:	f856 3025 	ldr.w	r3, [r6, r5, lsl #2]
 80a0076:	4798      	blx	r3
{
    module_user_init_hook();

    // invoke constructors
    int ctor_num;
    for (ctor_num=0; ctor_num < link_constructors_size/sizeof(constructor_ptr_t); ctor_num++ )
 80a0078:	3501      	adds	r5, #1
 80a007a:	e7f8      	b.n	80a006e <module_user_init+0x12>
    {
        link_constructors_location[ctor_num]();
    }
}
 80a007c:	bd70      	pop	{r4, r5, r6, pc}
 80a007e:	bf00      	nop
 80a0080:	080a5a84 	.word	0x080a5a84
 80a0084:	080a5ab8 	.word	0x080a5ab8

080a0088 <module_user_setup>:

/**
 * Export these functions with a fuller name so they don't clash with the setup/loop wrappers in the system module.
 */
void module_user_setup() {
    setup();
 80a0088:	f001 b85c 	b.w	80a1144 <setup>

080a008c <module_user_loop>:
}

void module_user_loop() {
 80a008c:	b508      	push	{r3, lr}
    loop();
 80a008e:	f001 f895 	bl	80a11bc <loop>
    _post_loop();
}
 80a0092:	e8bd 4008 	ldmia.w	sp!, {r3, lr}
    setup();
}

void module_user_loop() {
    loop();
    _post_loop();
 80a0096:	f003 bc53 	b.w	80a3940 <_post_loop>

080a009a <_Znwj>:
 80a009a:	f003 b9b7 	b.w	80a340c <malloc>

080a009e <_ZdlPv>:
 80a009e:	f003 b9bd 	b.w	80a341c <free>

080a00a2 <__cxa_guard_acquire>:

/* Provide default implemenation for __cxa_guard_acquire() and
 * __cxa_guard_release(). Note: these must be revisited if a multitasking
 * OS is ported to this platform. */
__extension__ typedef int __guard __attribute__((mode (__DI__)));
int __cxa_guard_acquire(__guard *g) {return !*(char *)(g);};
 80a00a2:	7800      	ldrb	r0, [r0, #0]
 80a00a4:	fab0 f080 	clz	r0, r0
 80a00a8:	0940      	lsrs	r0, r0, #5
 80a00aa:	4770      	bx	lr

080a00ac <__cxa_guard_release>:
void __cxa_guard_release (__guard *g) {*(char *)g = 1;};
 80a00ac:	2301      	movs	r3, #1
 80a00ae:	7003      	strb	r3, [r0, #0]
 80a00b0:	4770      	bx	lr
	...

080a00b4 <_Z5FLISRv>:
// Accelerometer
const unsigned long PRINT_SAMPLE_PERIOD = 100;
LIS3DHI2C accel(Wire, 0, WKP);
unsigned long lastPrintSample = 0;

void FLISR() {
 80a00b4:	b508      	push	{r3, lr}
    FLflag = digitalRead(FL);
 80a00b6:	4b05      	ldr	r3, [pc, #20]	; (80a00cc <_Z5FLISRv+0x18>)
 80a00b8:	8818      	ldrh	r0, [r3, #0]
 80a00ba:	f004 f983 	bl	80a43c4 <digitalRead>
 80a00be:	4b04      	ldr	r3, [pc, #16]	; (80a00d0 <_Z5FLISRv+0x1c>)
 80a00c0:	3000      	adds	r0, #0
 80a00c2:	bf18      	it	ne
 80a00c4:	2001      	movne	r0, #1
 80a00c6:	7018      	strb	r0, [r3, #0]
 80a00c8:	bd08      	pop	{r3, pc}
 80a00ca:	bf00      	nop
 80a00cc:	20000328 	.word	0x20000328
 80a00d0:	20000324 	.word	0x20000324

080a00d4 <_Z5FRISRv>:
}

void FRISR() {
 80a00d4:	b508      	push	{r3, lr}
    FRflag = digitalRead(FR);
 80a00d6:	4b05      	ldr	r3, [pc, #20]	; (80a00ec <_Z5FRISRv+0x18>)
 80a00d8:	8818      	ldrh	r0, [r3, #0]
 80a00da:	f004 f973 	bl	80a43c4 <digitalRead>
 80a00de:	4b04      	ldr	r3, [pc, #16]	; (80a00f0 <_Z5FRISRv+0x1c>)
 80a00e0:	3000      	adds	r0, #0
 80a00e2:	bf18      	it	ne
 80a00e4:	2001      	movne	r0, #1
 80a00e6:	7018      	strb	r0, [r3, #0]
 80a00e8:	bd08      	pop	{r3, pc}
 80a00ea:	bf00      	nop
 80a00ec:	20000318 	.word	0x20000318
 80a00f0:	20000344 	.word	0x20000344

080a00f4 <_Z5BLISRv>:
}

void BLISR() {
 80a00f4:	b508      	push	{r3, lr}
    BLflag = digitalRead(BL);
 80a00f6:	4b05      	ldr	r3, [pc, #20]	; (80a010c <_Z5BLISRv+0x18>)
 80a00f8:	8818      	ldrh	r0, [r3, #0]
 80a00fa:	f004 f963 	bl	80a43c4 <digitalRead>
 80a00fe:	4b04      	ldr	r3, [pc, #16]	; (80a0110 <_Z5BLISRv+0x1c>)
 80a0100:	3000      	adds	r0, #0
 80a0102:	bf18      	it	ne
 80a0104:	2001      	movne	r0, #1
 80a0106:	7018      	strb	r0, [r3, #0]
 80a0108:	bd08      	pop	{r3, pc}
 80a010a:	bf00      	nop
 80a010c:	2000031c 	.word	0x2000031c
 80a0110:	2000032c 	.word	0x2000032c

080a0114 <_Z5BRISRv>:
}

void BRISR() {
 80a0114:	b508      	push	{r3, lr}
    BRflag = digitalRead(BR);
 80a0116:	4b05      	ldr	r3, [pc, #20]	; (80a012c <_Z5BRISRv+0x18>)
 80a0118:	8818      	ldrh	r0, [r3, #0]
 80a011a:	f004 f953 	bl	80a43c4 <digitalRead>
 80a011e:	4b04      	ldr	r3, [pc, #16]	; (80a0130 <_Z5BRISRv+0x1c>)
 80a0120:	3000      	adds	r0, #0
 80a0122:	bf18      	it	ne
 80a0124:	2001      	movne	r0, #1
 80a0126:	7018      	strb	r0, [r3, #0]
 80a0128:	bd08      	pop	{r3, pc}
 80a012a:	bf00      	nop
 80a012c:	20000320 	.word	0x20000320
 80a0130:	2000035c 	.word	0x2000035c

080a0134 <_Z5RSISRv>:
}

void RSISR() {
 80a0134:	b508      	push	{r3, lr}
    RSflag = digitalRead(RS);
 80a0136:	4b05      	ldr	r3, [pc, #20]	; (80a014c <_Z5RSISRv+0x18>)
 80a0138:	8818      	ldrh	r0, [r3, #0]
 80a013a:	f004 f943 	bl	80a43c4 <digitalRead>
 80a013e:	4b04      	ldr	r3, [pc, #16]	; (80a0150 <_Z5RSISRv+0x1c>)
 80a0140:	3000      	adds	r0, #0
 80a0142:	bf18      	it	ne
 80a0144:	2001      	movne	r0, #1
 80a0146:	7018      	strb	r0, [r3, #0]
 80a0148:	bd08      	pop	{r3, pc}
 80a014a:	bf00      	nop
 80a014c:	20000300 	.word	0x20000300
 80a0150:	200003f0 	.word	0x200003f0

080a0154 <_Z8tof_initv>:
}

void tof_init() {
 80a0154:	e92d 41f0 	stmdb	sp!, {r4, r5, r6, r7, r8, lr}
    pinMode(A0, OUTPUT);
 80a0158:	2101      	movs	r1, #1
 80a015a:	200a      	movs	r0, #10
 80a015c:	f004 f908 	bl	80a4370 <pinMode>
    pinMode(A1, OUTPUT);
 80a0160:	2101      	movs	r1, #1
 80a0162:	200b      	movs	r0, #11
 80a0164:	f004 f904 	bl	80a4370 <pinMode>
    pinMode(A2, OUTPUT);
 80a0168:	2101      	movs	r1, #1
 80a016a:	200c      	movs	r0, #12
 80a016c:	f004 f900 	bl	80a4370 <pinMode>
    pinMode(A3, OUTPUT);
 80a0170:	2101      	movs	r1, #1
 80a0172:	200d      	movs	r0, #13
 80a0174:	f004 f8fc 	bl	80a4370 <pinMode>
    digitalWrite(A0, LOW);
 80a0178:	2100      	movs	r1, #0
 80a017a:	200a      	movs	r0, #10
 80a017c:	f004 f909 	bl	80a4392 <digitalWrite>
    digitalWrite(A1, LOW);
 80a0180:	2100      	movs	r1, #0
 80a0182:	200b      	movs	r0, #11
 80a0184:	f004 f905 	bl	80a4392 <digitalWrite>
    digitalWrite(A2, LOW);
 80a0188:	2100      	movs	r1, #0
 80a018a:	200c      	movs	r0, #12
 80a018c:	f004 f901 	bl	80a4392 <digitalWrite>
    digitalWrite(A3, LOW);
 80a0190:	2100      	movs	r1, #0
 80a0192:	200d      	movs	r0, #13
 80a0194:	f004 f8fd 	bl	80a4392 <digitalWrite>
    delay(500);
 80a0198:	f44f 70fa 	mov.w	r0, #500	; 0x1f4
 80a019c:	f003 fb9a 	bl	80a38d4 <delay>

    Wire.setSpeed(CLOCK_SPEED_100KHZ);  // need to initialize i2c protocol after driving shdn pins low
 80a01a0:	f004 f95e 	bl	80a4460 <_Z19__fetch_global_Wirev>
 80a01a4:	4940      	ldr	r1, [pc, #256]	; (80a02a8 <_Z8tof_initv+0x154>)
 80a01a6:	f004 f87f 	bl	80a42a8 <_ZN7TwoWire8setSpeedEm>
    Wire.begin();
 80a01aa:	f004 f959 	bl	80a4460 <_Z19__fetch_global_Wirev>
 80a01ae:	f004 f87f 	bl	80a42b0 <_ZN7TwoWire5beginEv>

    delay(10);
 80a01b2:	200a      	movs	r0, #10
 80a01b4:	f003 fb8e 	bl	80a38d4 <delay>
    digitalWrite(A0, HIGH);
 80a01b8:	2101      	movs	r1, #1
 80a01ba:	200a      	movs	r0, #10
 80a01bc:	f004 f8e9 	bl	80a4392 <digitalWrite>
    digitalWrite(A1, HIGH);
 80a01c0:	2101      	movs	r1, #1
 80a01c2:	200b      	movs	r0, #11
 80a01c4:	f004 f8e5 	bl	80a4392 <digitalWrite>
    digitalWrite(A2, HIGH);
 80a01c8:	2101      	movs	r1, #1
 80a01ca:	200c      	movs	r0, #12
 80a01cc:	f004 f8e1 	bl	80a4392 <digitalWrite>
    digitalWrite(A3, HIGH);
 80a01d0:	2101      	movs	r1, #1
 80a01d2:	200d      	movs	r0, #13
 80a01d4:	f004 f8dd 	bl	80a4392 <digitalWrite>
    delay(10);
 80a01d8:	200a      	movs	r0, #10
 80a01da:	f003 fb7b 	bl	80a38d4 <delay>
    digitalWrite(A1, LOW);
 80a01de:	2100      	movs	r1, #0
 80a01e0:	200b      	movs	r0, #11
 80a01e2:	f004 f8d6 	bl	80a4392 <digitalWrite>
    digitalWrite(A2, LOW);
    digitalWrite(A3, LOW);
    sensor0.init();
 80a01e6:	4f31      	ldr	r7, [pc, #196]	; (80a02ac <_Z8tof_initv+0x158>)
    digitalWrite(A1, HIGH);
    digitalWrite(A2, HIGH);
    digitalWrite(A3, HIGH);
    delay(10);
    digitalWrite(A1, LOW);
    digitalWrite(A2, LOW);
 80a01e8:	2100      	movs	r1, #0
 80a01ea:	200c      	movs	r0, #12
 80a01ec:	f004 f8d1 	bl	80a4392 <digitalWrite>
    digitalWrite(A3, LOW);
 80a01f0:	2100      	movs	r1, #0
 80a01f2:	200d      	movs	r0, #13
 80a01f4:	f004 f8cd 	bl	80a4392 <digitalWrite>
    sensor0.init();
 80a01f8:	2101      	movs	r1, #1
 80a01fa:	4638      	mov	r0, r7
 80a01fc:	f001 fcaa 	bl	80a1b54 <_ZN7VL53L0X4initEb>
    void startContinuous(uint32_t period_ms = 0);
    void stopContinuous(void);
    uint16_t readRangeContinuousMillimeters(void);
    uint16_t readRangeSingleMillimeters(void);

    inline void setTimeout(uint16_t timeout) { io_timeout = timeout; }
 80a0200:	f44f 787a 	mov.w	r8, #1000	; 0x3e8
    sensor0.setAddress(0x30);
 80a0204:	2130      	movs	r1, #48	; 0x30
 80a0206:	4638      	mov	r0, r7
 80a0208:	f001 f955 	bl	80a14b6 <_ZN7VL53L0X10setAddressEh>
    sensor0.setTimeout(1000);
    delay(10);
    digitalWrite(A1, HIGH);
    sensor1.init();
 80a020c:	4e28      	ldr	r6, [pc, #160]	; (80a02b0 <_Z8tof_initv+0x15c>)
 80a020e:	f8c7 8004 	str.w	r8, [r7, #4]
    digitalWrite(A2, LOW);
    digitalWrite(A3, LOW);
    sensor0.init();
    sensor0.setAddress(0x30);
    sensor0.setTimeout(1000);
    delay(10);
 80a0212:	200a      	movs	r0, #10
 80a0214:	f003 fb5e 	bl	80a38d4 <delay>
    digitalWrite(A1, HIGH);
 80a0218:	2101      	movs	r1, #1
 80a021a:	200b      	movs	r0, #11
 80a021c:	f004 f8b9 	bl	80a4392 <digitalWrite>
    sensor1.init();
 80a0220:	2101      	movs	r1, #1
 80a0222:	4630      	mov	r0, r6
 80a0224:	f001 fc96 	bl	80a1b54 <_ZN7VL53L0X4initEb>
    sensor1.setAddress(0x31);
 80a0228:	2131      	movs	r1, #49	; 0x31
 80a022a:	4630      	mov	r0, r6
 80a022c:	f001 f943 	bl	80a14b6 <_ZN7VL53L0X10setAddressEh>
    sensor1.setTimeout(1000);
    delay(10);
    digitalWrite(A2, HIGH);
    sensor2.init();
 80a0230:	4d20      	ldr	r5, [pc, #128]	; (80a02b4 <_Z8tof_initv+0x160>)
    delay(10);
    digitalWrite(A1, HIGH);
    sensor1.init();
    sensor1.setAddress(0x31);
    sensor1.setTimeout(1000);
    delay(10);
 80a0232:	200a      	movs	r0, #10
 80a0234:	f8c6 8004 	str.w	r8, [r6, #4]
 80a0238:	f003 fb4c 	bl	80a38d4 <delay>
    digitalWrite(A2, HIGH);
 80a023c:	2101      	movs	r1, #1
 80a023e:	200c      	movs	r0, #12
 80a0240:	f004 f8a7 	bl	80a4392 <digitalWrite>
    sensor2.init();
 80a0244:	2101      	movs	r1, #1
 80a0246:	4628      	mov	r0, r5
 80a0248:	f001 fc84 	bl	80a1b54 <_ZN7VL53L0X4initEb>
    sensor2.setAddress(0x32);
 80a024c:	2132      	movs	r1, #50	; 0x32
 80a024e:	4628      	mov	r0, r5
 80a0250:	f001 f931 	bl	80a14b6 <_ZN7VL53L0X10setAddressEh>
    sensor2.setTimeout(1000);
    delay(10);
    digitalWrite(A3, HIGH);
    sensor3.init();
 80a0254:	4c18      	ldr	r4, [pc, #96]	; (80a02b8 <_Z8tof_initv+0x164>)
    delay(10);
    digitalWrite(A2, HIGH);
    sensor2.init();
    sensor2.setAddress(0x32);
    sensor2.setTimeout(1000);
    delay(10);
 80a0256:	200a      	movs	r0, #10
 80a0258:	f8c5 8004 	str.w	r8, [r5, #4]
 80a025c:	f003 fb3a 	bl	80a38d4 <delay>
    digitalWrite(A3, HIGH);
 80a0260:	2101      	movs	r1, #1
 80a0262:	200d      	movs	r0, #13
 80a0264:	f004 f895 	bl	80a4392 <digitalWrite>
    sensor3.init();
 80a0268:	2101      	movs	r1, #1
 80a026a:	4620      	mov	r0, r4
 80a026c:	f001 fc72 	bl	80a1b54 <_ZN7VL53L0X4initEb>
    sensor3.setAddress(0x33);
 80a0270:	2133      	movs	r1, #51	; 0x33
 80a0272:	4620      	mov	r0, r4
 80a0274:	f001 f91f 	bl	80a14b6 <_ZN7VL53L0X10setAddressEh>
    sensor3.setTimeout(1000);
    delay(10);
 80a0278:	200a      	movs	r0, #10
 80a027a:	f8c4 8004 	str.w	r8, [r4, #4]
 80a027e:	f003 fb29 	bl	80a38d4 <delay>

    // Start continuous back-to-back mode (take readings as
    // fast as possible).  To use continuous timed mode
    // instead, provide a desired inter-measurement period in
    // ms (e.g. sensor.startContinuous(100)).
    sensor0.startContinuous(10);
 80a0282:	4638      	mov	r0, r7
 80a0284:	210a      	movs	r1, #10
 80a0286:	f001 fa32 	bl	80a16ee <_ZN7VL53L0X15startContinuousEm>
    sensor1.startContinuous(10);
 80a028a:	4630      	mov	r0, r6
 80a028c:	210a      	movs	r1, #10
 80a028e:	f001 fa2e 	bl	80a16ee <_ZN7VL53L0X15startContinuousEm>
    sensor2.startContinuous(10);
 80a0292:	4628      	mov	r0, r5
 80a0294:	210a      	movs	r1, #10
 80a0296:	f001 fa2a 	bl	80a16ee <_ZN7VL53L0X15startContinuousEm>
    sensor3.startContinuous(10);			
 80a029a:	4620      	mov	r0, r4
}
 80a029c:	e8bd 41f0 	ldmia.w	sp!, {r4, r5, r6, r7, r8, lr}
    // instead, provide a desired inter-measurement period in
    // ms (e.g. sensor.startContinuous(100)).
    sensor0.startContinuous(10);
    sensor1.startContinuous(10);
    sensor2.startContinuous(10);
    sensor3.startContinuous(10);			
 80a02a0:	210a      	movs	r1, #10
 80a02a2:	f001 ba24 	b.w	80a16ee <_ZN7VL53L0X15startContinuousEm>
 80a02a6:	bf00      	nop
 80a02a8:	000186a0 	.word	0x000186a0
 80a02ac:	20000394 	.word	0x20000394
 80a02b0:	200003f8 	.word	0x200003f8
 80a02b4:	200003ac 	.word	0x200003ac
 80a02b8:	200003c4 	.word	0x200003c4

080a02bc <_Z10accel_initv>:
}

void accel_init() {
 80a02bc:	b51f      	push	{r0, r1, r2, r3, r4, lr}
  LIS3DHConfig config;
 80a02be:	a801      	add	r0, sp, #4
 80a02c0:	f001 ff1d 	bl	80a20fe <_ZN12LIS3DHConfigC1Ev>
  config.setAccelMode(LIS3DH::RATE_400_HZ);
 80a02c4:	2170      	movs	r1, #112	; 0x70
 80a02c6:	a801      	add	r0, sp, #4
 80a02c8:	f001 ff26 	bl	80a2118 <_ZN12LIS3DHConfig12setAccelModeEh>

  bool setupSuccess = accel.setup(config);
 80a02cc:	a901      	add	r1, sp, #4
 80a02ce:	4806      	ldr	r0, [pc, #24]	; (80a02e8 <_Z10accel_initv+0x2c>)
 80a02d0:	f001 ff7a 	bl	80a21c8 <_ZN6LIS3DH5setupER12LIS3DHConfig>
 80a02d4:	4604      	mov	r4, r0
  Serial.printlnf("setupSuccess=%d", setupSuccess);
 80a02d6:	f003 fea3 	bl	80a4020 <_Z16_fetch_usbserialv>
    }

    template <typename... Args>
    inline size_t printlnf(const char* format, Args... args)
    {
        return this->printf_impl(true, format, args...);
 80a02da:	4623      	mov	r3, r4
 80a02dc:	4a03      	ldr	r2, [pc, #12]	; (80a02ec <_Z10accel_initv+0x30>)
 80a02de:	2101      	movs	r1, #1
 80a02e0:	f003 fa8f 	bl	80a3802 <_ZN5Print11printf_implEbPKcz>
}
 80a02e4:	b004      	add	sp, #16
 80a02e6:	bd10      	pop	{r4, pc}
 80a02e8:	2000037c 	.word	0x2000037c
 80a02ec:	080a5790 	.word	0x080a5790

080a02f0 <_Z11others_initv>:

void others_init() {
 80a02f0:	b508      	push	{r3, lr}
	// Line sensors
  	pinMode(FL, INPUT);
 80a02f2:	4b15      	ldr	r3, [pc, #84]	; (80a0348 <_Z11others_initv+0x58>)
 80a02f4:	2100      	movs	r1, #0
 80a02f6:	8818      	ldrh	r0, [r3, #0]
 80a02f8:	f004 f83a 	bl	80a4370 <pinMode>
  	pinMode(FR, INPUT);
 80a02fc:	4b13      	ldr	r3, [pc, #76]	; (80a034c <_Z11others_initv+0x5c>)
 80a02fe:	2100      	movs	r1, #0
 80a0300:	8818      	ldrh	r0, [r3, #0]
 80a0302:	f004 f835 	bl	80a4370 <pinMode>
  	pinMode(BL, INPUT);
 80a0306:	4b12      	ldr	r3, [pc, #72]	; (80a0350 <_Z11others_initv+0x60>)
 80a0308:	2100      	movs	r1, #0
 80a030a:	8818      	ldrh	r0, [r3, #0]
 80a030c:	f004 f830 	bl	80a4370 <pinMode>
  	pinMode(BR, INPUT);
 80a0310:	4b10      	ldr	r3, [pc, #64]	; (80a0354 <_Z11others_initv+0x64>)
 80a0312:	2100      	movs	r1, #0
 80a0314:	8818      	ldrh	r0, [r3, #0]
 80a0316:	f004 f82b 	bl	80a4370 <pinMode>
  	// Remote switch
  	pinMode(RS, INPUT);
 80a031a:	4b0f      	ldr	r3, [pc, #60]	; (80a0358 <_Z11others_initv+0x68>)
 80a031c:	2100      	movs	r1, #0
 80a031e:	8818      	ldrh	r0, [r3, #0]
 80a0320:	f004 f826 	bl	80a4370 <pinMode>
  	// Car ESCs
  	pinMode(Lmotor, OUTPUT);
 80a0324:	4b0d      	ldr	r3, [pc, #52]	; (80a035c <_Z11others_initv+0x6c>)
 80a0326:	2101      	movs	r1, #1
 80a0328:	8818      	ldrh	r0, [r3, #0]
 80a032a:	f004 f821 	bl	80a4370 <pinMode>
  	pinMode(Rmotor, OUTPUT);
 80a032e:	4b0c      	ldr	r3, [pc, #48]	; (80a0360 <_Z11others_initv+0x70>)
 80a0330:	2101      	movs	r1, #1
 80a0332:	8818      	ldrh	r0, [r3, #0]
 80a0334:	f004 f81c 	bl	80a4370 <pinMode>

  	// ***Remove for competition***
  	// ***Serial monitor***
  	Serial.begin(9600);	// *** need to modify before comp ***
 80a0338:	f003 fe72 	bl	80a4020 <_Z16_fetch_usbserialv>
}
 80a033c:	e8bd 4008 	ldmia.w	sp!, {r3, lr}
  	pinMode(Lmotor, OUTPUT);
  	pinMode(Rmotor, OUTPUT);

  	// ***Remove for competition***
  	// ***Serial monitor***
  	Serial.begin(9600);	// *** need to modify before comp ***
 80a0340:	f44f 5116 	mov.w	r1, #9600	; 0x2580
 80a0344:	f003 be52 	b.w	80a3fec <_ZN9USBSerial5beginEl>
 80a0348:	20000328 	.word	0x20000328
 80a034c:	20000318 	.word	0x20000318
 80a0350:	2000031c 	.word	0x2000031c
 80a0354:	20000320 	.word	0x20000320
 80a0358:	20000300 	.word	0x20000300
 80a035c:	20000348 	.word	0x20000348
 80a0360:	2000033c 	.word	0x2000033c

080a0364 <_Z14interrupt_initv>:
}

void interrupt_init() {
 80a0364:	b513      	push	{r0, r1, r4, lr}
	// Line sensors
	attachInterrupt(FL,FLISR,CHANGE);
 80a0366:	4b18      	ldr	r3, [pc, #96]	; (80a03c8 <_Z14interrupt_initv+0x64>)
 80a0368:	2400      	movs	r4, #0
 80a036a:	8818      	ldrh	r0, [r3, #0]
 80a036c:	4622      	mov	r2, r4
 80a036e:	9400      	str	r4, [sp, #0]
 80a0370:	f04f 33ff 	mov.w	r3, #4294967295
 80a0374:	4915      	ldr	r1, [pc, #84]	; (80a03cc <_Z14interrupt_initv+0x68>)
 80a0376:	f003 feb7 	bl	80a40e8 <_Z15attachInterrupttPFvvE13InterruptModeah>
  	attachInterrupt(FR,FRISR,CHANGE);
 80a037a:	4b15      	ldr	r3, [pc, #84]	; (80a03d0 <_Z14interrupt_initv+0x6c>)
 80a037c:	4622      	mov	r2, r4
 80a037e:	8818      	ldrh	r0, [r3, #0]
 80a0380:	4914      	ldr	r1, [pc, #80]	; (80a03d4 <_Z14interrupt_initv+0x70>)
 80a0382:	9400      	str	r4, [sp, #0]
 80a0384:	f04f 33ff 	mov.w	r3, #4294967295
 80a0388:	f003 feae 	bl	80a40e8 <_Z15attachInterrupttPFvvE13InterruptModeah>
  	attachInterrupt(BL,BLISR,CHANGE);
 80a038c:	4b12      	ldr	r3, [pc, #72]	; (80a03d8 <_Z14interrupt_initv+0x74>)
 80a038e:	4622      	mov	r2, r4
 80a0390:	8818      	ldrh	r0, [r3, #0]
 80a0392:	4912      	ldr	r1, [pc, #72]	; (80a03dc <_Z14interrupt_initv+0x78>)
 80a0394:	9400      	str	r4, [sp, #0]
 80a0396:	f04f 33ff 	mov.w	r3, #4294967295
 80a039a:	f003 fea5 	bl	80a40e8 <_Z15attachInterrupttPFvvE13InterruptModeah>
  	attachInterrupt(BR,BRISR,CHANGE);
 80a039e:	4b10      	ldr	r3, [pc, #64]	; (80a03e0 <_Z14interrupt_initv+0x7c>)
 80a03a0:	4622      	mov	r2, r4
 80a03a2:	8818      	ldrh	r0, [r3, #0]
 80a03a4:	490f      	ldr	r1, [pc, #60]	; (80a03e4 <_Z14interrupt_initv+0x80>)
 80a03a6:	9400      	str	r4, [sp, #0]
 80a03a8:	f04f 33ff 	mov.w	r3, #4294967295
 80a03ac:	f003 fe9c 	bl	80a40e8 <_Z15attachInterrupttPFvvE13InterruptModeah>
  	// Remote switch
  	attachInterrupt(RS,RSISR,CHANGE);
 80a03b0:	4b0d      	ldr	r3, [pc, #52]	; (80a03e8 <_Z14interrupt_initv+0x84>)
 80a03b2:	4622      	mov	r2, r4
 80a03b4:	8818      	ldrh	r0, [r3, #0]
 80a03b6:	490d      	ldr	r1, [pc, #52]	; (80a03ec <_Z14interrupt_initv+0x88>)
 80a03b8:	9400      	str	r4, [sp, #0]
 80a03ba:	f04f 33ff 	mov.w	r3, #4294967295
 80a03be:	f003 fe93 	bl	80a40e8 <_Z15attachInterrupttPFvvE13InterruptModeah>
}
 80a03c2:	b002      	add	sp, #8
 80a03c4:	bd10      	pop	{r4, pc}
 80a03c6:	bf00      	nop
 80a03c8:	20000328 	.word	0x20000328
 80a03cc:	080a00b5 	.word	0x080a00b5
 80a03d0:	20000318 	.word	0x20000318
 80a03d4:	080a00d5 	.word	0x080a00d5
 80a03d8:	2000031c 	.word	0x2000031c
 80a03dc:	080a00f5 	.word	0x080a00f5
 80a03e0:	20000320 	.word	0x20000320
 80a03e4:	080a0115 	.word	0x080a0115
 80a03e8:	20000300 	.word	0x20000300
 80a03ec:	080a0135 	.word	0x080a0135

080a03f0 <_Z8ESC_initv>:

void ESC_init() {
 80a03f0:	b5f7      	push	{r0, r1, r2, r4, r5, r6, r7, lr}
	// Necessary for Servo objects
  	LESC.attach(Lmotor);
 80a03f2:	4b13      	ldr	r3, [pc, #76]	; (80a0440 <_Z8ESC_initv+0x50>)
 80a03f4:	4d13      	ldr	r5, [pc, #76]	; (80a0444 <_Z8ESC_initv+0x54>)
 80a03f6:	2600      	movs	r6, #0
 80a03f8:	27b4      	movs	r7, #180	; 0xb4
 80a03fa:	8819      	ldrh	r1, [r3, #0]
 80a03fc:	f44f 7208 	mov.w	r2, #544	; 0x220
 80a0400:	e88d 00c0 	stmia.w	sp, {r6, r7}
 80a0404:	f44f 6316 	mov.w	r3, #2400	; 0x960
 80a0408:	4628      	mov	r0, r5
 80a040a:	f003 f872 	bl	80a34f2 <_ZN5Servo6attachEtttss>
  	RESC.attach(Rmotor);
 80a040e:	4c0e      	ldr	r4, [pc, #56]	; (80a0448 <_Z8ESC_initv+0x58>)
 80a0410:	4b0e      	ldr	r3, [pc, #56]	; (80a044c <_Z8ESC_initv+0x5c>)
 80a0412:	f44f 7208 	mov.w	r2, #544	; 0x220
 80a0416:	8819      	ldrh	r1, [r3, #0]
 80a0418:	4620      	mov	r0, r4
 80a041a:	f44f 6316 	mov.w	r3, #2400	; 0x960
 80a041e:	e88d 00c0 	stmia.w	sp, {r6, r7}
 80a0422:	f003 f866 	bl	80a34f2 <_ZN5Servo6attachEtttss>
  	// Write stop command
  	LESC.writeMicroseconds(1500);
 80a0426:	4628      	mov	r0, r5
 80a0428:	f240 51dc 	movw	r1, #1500	; 0x5dc
 80a042c:	f003 f82d 	bl	80a348a <_ZN5Servo17writeMicrosecondsEt>
  	RESC.writeMicroseconds(1500);
 80a0430:	f240 51dc 	movw	r1, #1500	; 0x5dc
 80a0434:	4620      	mov	r0, r4
}
 80a0436:	b003      	add	sp, #12
 80a0438:	e8bd 40f0 	ldmia.w	sp!, {r4, r5, r6, r7, lr}
	// Necessary for Servo objects
  	LESC.attach(Lmotor);
  	RESC.attach(Rmotor);
  	// Write stop command
  	LESC.writeMicroseconds(1500);
  	RESC.writeMicroseconds(1500);
 80a043c:	f003 b825 	b.w	80a348a <_ZN5Servo17writeMicrosecondsEt>
 80a0440:	20000348 	.word	0x20000348
 80a0444:	2000036c 	.word	0x2000036c
 80a0448:	200003e0 	.word	0x200003e0
 80a044c:	2000033c 	.word	0x2000033c

080a0450 <_Z10fuzzy_initv>:
}

void fuzzy_init() {
 80a0450:	e92d 4ff0 	stmdb	sp!, {r4, r5, r6, r7, r8, r9, sl, fp, lr}
  // low = far, high = close

  // INPUT: 1 of 4
  FuzzyInput* LL_input = new FuzzyInput(1);
 80a0454:	2010      	movs	r0, #16
  	// Write stop command
  	LESC.writeMicroseconds(1500);
  	RESC.writeMicroseconds(1500);
}

void fuzzy_init() {
 80a0456:	b097      	sub	sp, #92	; 0x5c
  // low = far, high = close

  // INPUT: 1 of 4
  FuzzyInput* LL_input = new FuzzyInput(1);
 80a0458:	f7ff fe1f 	bl	80a009a <_Znwj>
 80a045c:	4604      	mov	r4, r0
 80a045e:	b110      	cbz	r0, 80a0466 <_Z10fuzzy_initv+0x16>
 80a0460:	2101      	movs	r1, #1
 80a0462:	f002 f950 	bl	80a2706 <_ZN10FuzzyInputC1Ei>
  FuzzySet* LL_low = new FuzzySet(low1, low2, low3, low4);
 80a0466:	2014      	movs	r0, #20
 80a0468:	f7ff fe17 	bl	80a009a <_Znwj>
 80a046c:	4605      	mov	r5, r0
 80a046e:	b1c8      	cbz	r0, 80a04a4 <_Z10fuzzy_initv+0x54>
 80a0470:	4ba3      	ldr	r3, [pc, #652]	; (80a0700 <_Z10fuzzy_initv+0x2b0>)
 80a0472:	6818      	ldr	r0, [r3, #0]
 80a0474:	f004 ff1e 	bl	80a52b4 <__aeabi_i2f>
 80a0478:	4ba2      	ldr	r3, [pc, #648]	; (80a0704 <_Z10fuzzy_initv+0x2b4>)
 80a047a:	4680      	mov	r8, r0
 80a047c:	6818      	ldr	r0, [r3, #0]
 80a047e:	f004 ff19 	bl	80a52b4 <__aeabi_i2f>
 80a0482:	4ba1      	ldr	r3, [pc, #644]	; (80a0708 <_Z10fuzzy_initv+0x2b8>)
 80a0484:	4607      	mov	r7, r0
 80a0486:	6818      	ldr	r0, [r3, #0]
 80a0488:	f004 ff14 	bl	80a52b4 <__aeabi_i2f>
 80a048c:	4b9f      	ldr	r3, [pc, #636]	; (80a070c <_Z10fuzzy_initv+0x2bc>)
 80a048e:	4606      	mov	r6, r0
 80a0490:	6818      	ldr	r0, [r3, #0]
 80a0492:	f004 ff0f 	bl	80a52b4 <__aeabi_i2f>
 80a0496:	4643      	mov	r3, r8
 80a0498:	9000      	str	r0, [sp, #0]
 80a049a:	463a      	mov	r2, r7
 80a049c:	4631      	mov	r1, r6
 80a049e:	4628      	mov	r0, r5
 80a04a0:	f002 fbad 	bl	80a2bfe <_ZN8FuzzySetC1Effff>
  FuzzySet* LL_med = new FuzzySet(med1, med2, med3, med4);
 80a04a4:	2014      	movs	r0, #20
 80a04a6:	f7ff fdf8 	bl	80a009a <_Znwj>
 80a04aa:	9002      	str	r0, [sp, #8]
 80a04ac:	b1c8      	cbz	r0, 80a04e2 <_Z10fuzzy_initv+0x92>
 80a04ae:	4b98      	ldr	r3, [pc, #608]	; (80a0710 <_Z10fuzzy_initv+0x2c0>)
 80a04b0:	6818      	ldr	r0, [r3, #0]
 80a04b2:	f004 feff 	bl	80a52b4 <__aeabi_i2f>
 80a04b6:	4b97      	ldr	r3, [pc, #604]	; (80a0714 <_Z10fuzzy_initv+0x2c4>)
 80a04b8:	4681      	mov	r9, r0
 80a04ba:	6818      	ldr	r0, [r3, #0]
 80a04bc:	f004 fefa 	bl	80a52b4 <__aeabi_i2f>
 80a04c0:	4b95      	ldr	r3, [pc, #596]	; (80a0718 <_Z10fuzzy_initv+0x2c8>)
 80a04c2:	4607      	mov	r7, r0
 80a04c4:	6818      	ldr	r0, [r3, #0]
 80a04c6:	f004 fef5 	bl	80a52b4 <__aeabi_i2f>
 80a04ca:	4b94      	ldr	r3, [pc, #592]	; (80a071c <_Z10fuzzy_initv+0x2cc>)
 80a04cc:	4606      	mov	r6, r0
 80a04ce:	6818      	ldr	r0, [r3, #0]
 80a04d0:	f004 fef0 	bl	80a52b4 <__aeabi_i2f>
 80a04d4:	464b      	mov	r3, r9
 80a04d6:	9000      	str	r0, [sp, #0]
 80a04d8:	463a      	mov	r2, r7
 80a04da:	4631      	mov	r1, r6
 80a04dc:	9802      	ldr	r0, [sp, #8]
 80a04de:	f002 fb8e 	bl	80a2bfe <_ZN8FuzzySetC1Effff>
  FuzzySet* LL_high = new FuzzySet(high1, high2, high3, high4);
 80a04e2:	2014      	movs	r0, #20
 80a04e4:	f7ff fdd9 	bl	80a009a <_Znwj>
 80a04e8:	4607      	mov	r7, r0
 80a04ea:	b1c8      	cbz	r0, 80a0520 <_Z10fuzzy_initv+0xd0>
 80a04ec:	4b8c      	ldr	r3, [pc, #560]	; (80a0720 <_Z10fuzzy_initv+0x2d0>)
 80a04ee:	6818      	ldr	r0, [r3, #0]
 80a04f0:	f004 fee0 	bl	80a52b4 <__aeabi_i2f>
 80a04f4:	4b8b      	ldr	r3, [pc, #556]	; (80a0724 <_Z10fuzzy_initv+0x2d4>)
 80a04f6:	4682      	mov	sl, r0
 80a04f8:	6818      	ldr	r0, [r3, #0]
 80a04fa:	f004 fedb 	bl	80a52b4 <__aeabi_i2f>
 80a04fe:	4b8a      	ldr	r3, [pc, #552]	; (80a0728 <_Z10fuzzy_initv+0x2d8>)
 80a0500:	4681      	mov	r9, r0
 80a0502:	6818      	ldr	r0, [r3, #0]
 80a0504:	f004 fed6 	bl	80a52b4 <__aeabi_i2f>
 80a0508:	4b88      	ldr	r3, [pc, #544]	; (80a072c <_Z10fuzzy_initv+0x2dc>)
 80a050a:	4606      	mov	r6, r0
 80a050c:	6818      	ldr	r0, [r3, #0]
 80a050e:	f004 fed1 	bl	80a52b4 <__aeabi_i2f>
 80a0512:	4653      	mov	r3, sl
 80a0514:	9000      	str	r0, [sp, #0]
 80a0516:	464a      	mov	r2, r9
 80a0518:	4631      	mov	r1, r6
 80a051a:	4638      	mov	r0, r7
 80a051c:	f002 fb6f 	bl	80a2bfe <_ZN8FuzzySetC1Effff>
  LL_input->addFuzzySet(LL_low);
 80a0520:	4629      	mov	r1, r5
 80a0522:	4620      	mov	r0, r4
 80a0524:	f002 f90b 	bl	80a273e <_ZN7FuzzyIO11addFuzzySetEP8FuzzySet>
  LL_input->addFuzzySet(LL_med);
  LL_input->addFuzzySet(LL_high);
  fuzzy->addFuzzyInput(LL_input);
 80a0528:	4e81      	ldr	r6, [pc, #516]	; (80a0730 <_Z10fuzzy_initv+0x2e0>)
  FuzzyInput* LL_input = new FuzzyInput(1);
  FuzzySet* LL_low = new FuzzySet(low1, low2, low3, low4);
  FuzzySet* LL_med = new FuzzySet(med1, med2, med3, med4);
  FuzzySet* LL_high = new FuzzySet(high1, high2, high3, high4);
  LL_input->addFuzzySet(LL_low);
  LL_input->addFuzzySet(LL_med);
 80a052a:	9902      	ldr	r1, [sp, #8]
 80a052c:	4620      	mov	r0, r4
 80a052e:	f002 f906 	bl	80a273e <_ZN7FuzzyIO11addFuzzySetEP8FuzzySet>
  LL_input->addFuzzySet(LL_high);
 80a0532:	4639      	mov	r1, r7
 80a0534:	4620      	mov	r0, r4
 80a0536:	f002 f902 	bl	80a273e <_ZN7FuzzyIO11addFuzzySetEP8FuzzySet>
  fuzzy->addFuzzyInput(LL_input);
 80a053a:	4621      	mov	r1, r4
 80a053c:	6830      	ldr	r0, [r6, #0]
 80a053e:	f002 fc32 	bl	80a2da6 <_ZN5Fuzzy13addFuzzyInputEP10FuzzyInput>

  // INPUT: 2 of 4
  FuzzyInput* LM_input = new FuzzyInput(2);
 80a0542:	2010      	movs	r0, #16
 80a0544:	f7ff fda9 	bl	80a009a <_Znwj>
 80a0548:	46b3      	mov	fp, r6
 80a054a:	4604      	mov	r4, r0
 80a054c:	b110      	cbz	r0, 80a0554 <_Z10fuzzy_initv+0x104>
 80a054e:	2102      	movs	r1, #2
 80a0550:	f002 f8d9 	bl	80a2706 <_ZN10FuzzyInputC1Ei>
  FuzzySet* LM_low = new FuzzySet(low1, low2, low3, low4);
 80a0554:	2014      	movs	r0, #20
 80a0556:	f7ff fda0 	bl	80a009a <_Znwj>
 80a055a:	4606      	mov	r6, r0
 80a055c:	b1c8      	cbz	r0, 80a0592 <_Z10fuzzy_initv+0x142>
 80a055e:	4b68      	ldr	r3, [pc, #416]	; (80a0700 <_Z10fuzzy_initv+0x2b0>)
 80a0560:	6818      	ldr	r0, [r3, #0]
 80a0562:	f004 fea7 	bl	80a52b4 <__aeabi_i2f>
 80a0566:	4a67      	ldr	r2, [pc, #412]	; (80a0704 <_Z10fuzzy_initv+0x2b4>)
 80a0568:	4680      	mov	r8, r0
 80a056a:	6810      	ldr	r0, [r2, #0]
 80a056c:	f004 fea2 	bl	80a52b4 <__aeabi_i2f>
 80a0570:	4a65      	ldr	r2, [pc, #404]	; (80a0708 <_Z10fuzzy_initv+0x2b8>)
 80a0572:	4682      	mov	sl, r0
 80a0574:	6810      	ldr	r0, [r2, #0]
 80a0576:	f004 fe9d 	bl	80a52b4 <__aeabi_i2f>
 80a057a:	4a64      	ldr	r2, [pc, #400]	; (80a070c <_Z10fuzzy_initv+0x2bc>)
 80a057c:	4681      	mov	r9, r0
 80a057e:	6810      	ldr	r0, [r2, #0]
 80a0580:	f004 fe98 	bl	80a52b4 <__aeabi_i2f>
 80a0584:	4643      	mov	r3, r8
 80a0586:	9000      	str	r0, [sp, #0]
 80a0588:	4652      	mov	r2, sl
 80a058a:	4649      	mov	r1, r9
 80a058c:	4630      	mov	r0, r6
 80a058e:	f002 fb36 	bl	80a2bfe <_ZN8FuzzySetC1Effff>
  FuzzySet* LM_med = new FuzzySet(med1, med2, med3, med4);
 80a0592:	2014      	movs	r0, #20
 80a0594:	f7ff fd81 	bl	80a009a <_Znwj>
 80a0598:	4681      	mov	r9, r0
 80a059a:	b1c8      	cbz	r0, 80a05d0 <_Z10fuzzy_initv+0x180>
 80a059c:	4b5c      	ldr	r3, [pc, #368]	; (80a0710 <_Z10fuzzy_initv+0x2c0>)
 80a059e:	6818      	ldr	r0, [r3, #0]
 80a05a0:	f004 fe88 	bl	80a52b4 <__aeabi_i2f>
 80a05a4:	4a5b      	ldr	r2, [pc, #364]	; (80a0714 <_Z10fuzzy_initv+0x2c4>)
 80a05a6:	9003      	str	r0, [sp, #12]
 80a05a8:	6810      	ldr	r0, [r2, #0]
 80a05aa:	f004 fe83 	bl	80a52b4 <__aeabi_i2f>
 80a05ae:	495a      	ldr	r1, [pc, #360]	; (80a0718 <_Z10fuzzy_initv+0x2c8>)
 80a05b0:	4680      	mov	r8, r0
 80a05b2:	6808      	ldr	r0, [r1, #0]
 80a05b4:	f004 fe7e 	bl	80a52b4 <__aeabi_i2f>
 80a05b8:	4958      	ldr	r1, [pc, #352]	; (80a071c <_Z10fuzzy_initv+0x2cc>)
 80a05ba:	4682      	mov	sl, r0
 80a05bc:	6808      	ldr	r0, [r1, #0]
 80a05be:	f004 fe79 	bl	80a52b4 <__aeabi_i2f>
 80a05c2:	9b03      	ldr	r3, [sp, #12]
 80a05c4:	9000      	str	r0, [sp, #0]
 80a05c6:	4642      	mov	r2, r8
 80a05c8:	4651      	mov	r1, sl
 80a05ca:	4648      	mov	r0, r9
 80a05cc:	f002 fb17 	bl	80a2bfe <_ZN8FuzzySetC1Effff>
  FuzzySet* LM_high = new FuzzySet(high1, high2, high3, high4);
 80a05d0:	2014      	movs	r0, #20
 80a05d2:	f7ff fd62 	bl	80a009a <_Znwj>
 80a05d6:	4682      	mov	sl, r0
 80a05d8:	b1c8      	cbz	r0, 80a060e <_Z10fuzzy_initv+0x1be>
 80a05da:	4b51      	ldr	r3, [pc, #324]	; (80a0720 <_Z10fuzzy_initv+0x2d0>)
 80a05dc:	6818      	ldr	r0, [r3, #0]
 80a05de:	f004 fe69 	bl	80a52b4 <__aeabi_i2f>
 80a05e2:	4a50      	ldr	r2, [pc, #320]	; (80a0724 <_Z10fuzzy_initv+0x2d4>)
 80a05e4:	9004      	str	r0, [sp, #16]
 80a05e6:	6810      	ldr	r0, [r2, #0]
 80a05e8:	f004 fe64 	bl	80a52b4 <__aeabi_i2f>
 80a05ec:	494e      	ldr	r1, [pc, #312]	; (80a0728 <_Z10fuzzy_initv+0x2d8>)
 80a05ee:	9003      	str	r0, [sp, #12]
 80a05f0:	6808      	ldr	r0, [r1, #0]
 80a05f2:	f004 fe5f 	bl	80a52b4 <__aeabi_i2f>
 80a05f6:	4680      	mov	r8, r0
 80a05f8:	484c      	ldr	r0, [pc, #304]	; (80a072c <_Z10fuzzy_initv+0x2dc>)
 80a05fa:	6800      	ldr	r0, [r0, #0]
 80a05fc:	f004 fe5a 	bl	80a52b4 <__aeabi_i2f>
 80a0600:	9b04      	ldr	r3, [sp, #16]
 80a0602:	9000      	str	r0, [sp, #0]
 80a0604:	9a03      	ldr	r2, [sp, #12]
 80a0606:	4641      	mov	r1, r8
 80a0608:	4650      	mov	r0, sl
 80a060a:	f002 faf8 	bl	80a2bfe <_ZN8FuzzySetC1Effff>
  LM_input->addFuzzySet(LM_low);
 80a060e:	4631      	mov	r1, r6
 80a0610:	4620      	mov	r0, r4
 80a0612:	f002 f894 	bl	80a273e <_ZN7FuzzyIO11addFuzzySetEP8FuzzySet>
  LM_input->addFuzzySet(LM_med);
 80a0616:	4649      	mov	r1, r9
 80a0618:	4620      	mov	r0, r4
 80a061a:	f002 f890 	bl	80a273e <_ZN7FuzzyIO11addFuzzySetEP8FuzzySet>
  LM_input->addFuzzySet(LM_high);
 80a061e:	4651      	mov	r1, sl
 80a0620:	4620      	mov	r0, r4
 80a0622:	f002 f88c 	bl	80a273e <_ZN7FuzzyIO11addFuzzySetEP8FuzzySet>
  fuzzy->addFuzzyInput(LM_input);
 80a0626:	4621      	mov	r1, r4
 80a0628:	f8db 0000 	ldr.w	r0, [fp]
 80a062c:	f002 fbbb 	bl	80a2da6 <_ZN5Fuzzy13addFuzzyInputEP10FuzzyInput>

  // INPUT: 3 of 4
  FuzzyInput* RM_input = new FuzzyInput(3);
 80a0630:	2010      	movs	r0, #16
 80a0632:	f7ff fd32 	bl	80a009a <_Znwj>
 80a0636:	4604      	mov	r4, r0
 80a0638:	b110      	cbz	r0, 80a0640 <_Z10fuzzy_initv+0x1f0>
 80a063a:	2103      	movs	r1, #3
 80a063c:	f002 f863 	bl	80a2706 <_ZN10FuzzyInputC1Ei>
  FuzzySet* RM_low = new FuzzySet(low1, low2, low3, low4);
 80a0640:	2014      	movs	r0, #20
 80a0642:	f7ff fd2a 	bl	80a009a <_Znwj>
 80a0646:	9003      	str	r0, [sp, #12]
 80a0648:	b1c8      	cbz	r0, 80a067e <_Z10fuzzy_initv+0x22e>
 80a064a:	4b2d      	ldr	r3, [pc, #180]	; (80a0700 <_Z10fuzzy_initv+0x2b0>)
 80a064c:	6818      	ldr	r0, [r3, #0]
 80a064e:	f004 fe31 	bl	80a52b4 <__aeabi_i2f>
 80a0652:	4a2c      	ldr	r2, [pc, #176]	; (80a0704 <_Z10fuzzy_initv+0x2b4>)
 80a0654:	9004      	str	r0, [sp, #16]
 80a0656:	6810      	ldr	r0, [r2, #0]
 80a0658:	f004 fe2c 	bl	80a52b4 <__aeabi_i2f>
 80a065c:	492a      	ldr	r1, [pc, #168]	; (80a0708 <_Z10fuzzy_initv+0x2b8>)
 80a065e:	4680      	mov	r8, r0
 80a0660:	6808      	ldr	r0, [r1, #0]
 80a0662:	f004 fe27 	bl	80a52b4 <__aeabi_i2f>
 80a0666:	4929      	ldr	r1, [pc, #164]	; (80a070c <_Z10fuzzy_initv+0x2bc>)
 80a0668:	4683      	mov	fp, r0
 80a066a:	6808      	ldr	r0, [r1, #0]
 80a066c:	f004 fe22 	bl	80a52b4 <__aeabi_i2f>
 80a0670:	9b04      	ldr	r3, [sp, #16]
 80a0672:	9000      	str	r0, [sp, #0]
 80a0674:	4642      	mov	r2, r8
 80a0676:	4659      	mov	r1, fp
 80a0678:	9803      	ldr	r0, [sp, #12]
 80a067a:	f002 fac0 	bl	80a2bfe <_ZN8FuzzySetC1Effff>
  FuzzySet* RM_med = new FuzzySet(med1, med2, med3, med4);
 80a067e:	2014      	movs	r0, #20
 80a0680:	f7ff fd0b 	bl	80a009a <_Znwj>
 80a0684:	9004      	str	r0, [sp, #16]
 80a0686:	b1c8      	cbz	r0, 80a06bc <_Z10fuzzy_initv+0x26c>
 80a0688:	4b21      	ldr	r3, [pc, #132]	; (80a0710 <_Z10fuzzy_initv+0x2c0>)
 80a068a:	6818      	ldr	r0, [r3, #0]
 80a068c:	f004 fe12 	bl	80a52b4 <__aeabi_i2f>
 80a0690:	4a20      	ldr	r2, [pc, #128]	; (80a0714 <_Z10fuzzy_initv+0x2c4>)
 80a0692:	9005      	str	r0, [sp, #20]
 80a0694:	6810      	ldr	r0, [r2, #0]
 80a0696:	f004 fe0d 	bl	80a52b4 <__aeabi_i2f>
 80a069a:	491f      	ldr	r1, [pc, #124]	; (80a0718 <_Z10fuzzy_initv+0x2c8>)
 80a069c:	4680      	mov	r8, r0
 80a069e:	6808      	ldr	r0, [r1, #0]
 80a06a0:	f004 fe08 	bl	80a52b4 <__aeabi_i2f>
 80a06a4:	491d      	ldr	r1, [pc, #116]	; (80a071c <_Z10fuzzy_initv+0x2cc>)
 80a06a6:	4683      	mov	fp, r0
 80a06a8:	6808      	ldr	r0, [r1, #0]
 80a06aa:	f004 fe03 	bl	80a52b4 <__aeabi_i2f>
 80a06ae:	9b05      	ldr	r3, [sp, #20]
 80a06b0:	9000      	str	r0, [sp, #0]
 80a06b2:	4642      	mov	r2, r8
 80a06b4:	4659      	mov	r1, fp
 80a06b6:	9804      	ldr	r0, [sp, #16]
 80a06b8:	f002 faa1 	bl	80a2bfe <_ZN8FuzzySetC1Effff>
  FuzzySet* RM_high = new FuzzySet(high1, high2, high3, high4);
 80a06bc:	2014      	movs	r0, #20
 80a06be:	f7ff fcec 	bl	80a009a <_Znwj>
 80a06c2:	4680      	mov	r8, r0
 80a06c4:	2800      	cmp	r0, #0
 80a06c6:	d035      	beq.n	80a0734 <_Z10fuzzy_initv+0x2e4>
 80a06c8:	4b15      	ldr	r3, [pc, #84]	; (80a0720 <_Z10fuzzy_initv+0x2d0>)
 80a06ca:	6818      	ldr	r0, [r3, #0]
 80a06cc:	f004 fdf2 	bl	80a52b4 <__aeabi_i2f>
 80a06d0:	4a14      	ldr	r2, [pc, #80]	; (80a0724 <_Z10fuzzy_initv+0x2d4>)
 80a06d2:	9006      	str	r0, [sp, #24]
 80a06d4:	6810      	ldr	r0, [r2, #0]
 80a06d6:	f004 fded 	bl	80a52b4 <__aeabi_i2f>
 80a06da:	4913      	ldr	r1, [pc, #76]	; (80a0728 <_Z10fuzzy_initv+0x2d8>)
 80a06dc:	9005      	str	r0, [sp, #20]
 80a06de:	6808      	ldr	r0, [r1, #0]
 80a06e0:	f004 fde8 	bl	80a52b4 <__aeabi_i2f>
 80a06e4:	4911      	ldr	r1, [pc, #68]	; (80a072c <_Z10fuzzy_initv+0x2dc>)
 80a06e6:	4683      	mov	fp, r0
 80a06e8:	6808      	ldr	r0, [r1, #0]
 80a06ea:	f004 fde3 	bl	80a52b4 <__aeabi_i2f>
 80a06ee:	9b06      	ldr	r3, [sp, #24]
 80a06f0:	9000      	str	r0, [sp, #0]
 80a06f2:	9a05      	ldr	r2, [sp, #20]
 80a06f4:	4659      	mov	r1, fp
 80a06f6:	4640      	mov	r0, r8
 80a06f8:	f002 fa81 	bl	80a2bfe <_ZN8FuzzySetC1Effff>
 80a06fc:	e01a      	b.n	80a0734 <_Z10fuzzy_initv+0x2e4>
 80a06fe:	bf00      	nop
 80a0700:	20000310 	.word	0x20000310
 80a0704:	2000030c 	.word	0x2000030c
 80a0708:	20000308 	.word	0x20000308
 80a070c:	20000314 	.word	0x20000314
 80a0710:	20000354 	.word	0x20000354
 80a0714:	20000350 	.word	0x20000350
 80a0718:	2000034c 	.word	0x2000034c
 80a071c:	20000358 	.word	0x20000358
 80a0720:	20000330 	.word	0x20000330
 80a0724:	20000338 	.word	0x20000338
 80a0728:	20000410 	.word	0x20000410
 80a072c:	20000334 	.word	0x20000334
 80a0730:	20000390 	.word	0x20000390
  RM_input->addFuzzySet(RM_low);
 80a0734:	9903      	ldr	r1, [sp, #12]
 80a0736:	4620      	mov	r0, r4
 80a0738:	f002 f801 	bl	80a273e <_ZN7FuzzyIO11addFuzzySetEP8FuzzySet>
  RM_input->addFuzzySet(RM_med);
 80a073c:	9904      	ldr	r1, [sp, #16]
 80a073e:	4620      	mov	r0, r4
 80a0740:	f001 fffd 	bl	80a273e <_ZN7FuzzyIO11addFuzzySetEP8FuzzySet>
  RM_input->addFuzzySet(RM_high);
 80a0744:	4641      	mov	r1, r8
 80a0746:	4620      	mov	r0, r4
 80a0748:	f001 fff9 	bl	80a273e <_ZN7FuzzyIO11addFuzzySetEP8FuzzySet>
  fuzzy->addFuzzyInput(RM_input);
 80a074c:	4ba4      	ldr	r3, [pc, #656]	; (80a09e0 <_Z10fuzzy_initv+0x590>)
 80a074e:	4621      	mov	r1, r4
 80a0750:	6818      	ldr	r0, [r3, #0]
 80a0752:	f002 fb28 	bl	80a2da6 <_ZN5Fuzzy13addFuzzyInputEP10FuzzyInput>

  // INPUT: 4 of 4
  FuzzyInput* RR_input = new FuzzyInput(4);
 80a0756:	2010      	movs	r0, #16
 80a0758:	f7ff fc9f 	bl	80a009a <_Znwj>
 80a075c:	4683      	mov	fp, r0
 80a075e:	b110      	cbz	r0, 80a0766 <_Z10fuzzy_initv+0x316>
 80a0760:	2104      	movs	r1, #4
 80a0762:	f001 ffd0 	bl	80a2706 <_ZN10FuzzyInputC1Ei>
  FuzzySet* RR_low = new FuzzySet(low1, low2, low3, low4);
 80a0766:	2014      	movs	r0, #20
 80a0768:	f7ff fc97 	bl	80a009a <_Znwj>
 80a076c:	4604      	mov	r4, r0
 80a076e:	b1c0      	cbz	r0, 80a07a2 <_Z10fuzzy_initv+0x352>
 80a0770:	4b9c      	ldr	r3, [pc, #624]	; (80a09e4 <_Z10fuzzy_initv+0x594>)
 80a0772:	6818      	ldr	r0, [r3, #0]
 80a0774:	f004 fd9e 	bl	80a52b4 <__aeabi_i2f>
 80a0778:	4a9b      	ldr	r2, [pc, #620]	; (80a09e8 <_Z10fuzzy_initv+0x598>)
 80a077a:	9007      	str	r0, [sp, #28]
 80a077c:	6810      	ldr	r0, [r2, #0]
 80a077e:	f004 fd99 	bl	80a52b4 <__aeabi_i2f>
 80a0782:	499a      	ldr	r1, [pc, #616]	; (80a09ec <_Z10fuzzy_initv+0x59c>)
 80a0784:	9006      	str	r0, [sp, #24]
 80a0786:	6808      	ldr	r0, [r1, #0]
 80a0788:	f004 fd94 	bl	80a52b4 <__aeabi_i2f>
 80a078c:	9005      	str	r0, [sp, #20]
 80a078e:	4898      	ldr	r0, [pc, #608]	; (80a09f0 <_Z10fuzzy_initv+0x5a0>)
 80a0790:	6800      	ldr	r0, [r0, #0]
 80a0792:	f004 fd8f 	bl	80a52b4 <__aeabi_i2f>
 80a0796:	a905      	add	r1, sp, #20
 80a0798:	9000      	str	r0, [sp, #0]
 80a079a:	c90e      	ldmia	r1, {r1, r2, r3}
 80a079c:	4620      	mov	r0, r4
 80a079e:	f002 fa2e 	bl	80a2bfe <_ZN8FuzzySetC1Effff>
  FuzzySet* RR_med = new FuzzySet(med1, med2, med3, med4);
 80a07a2:	2014      	movs	r0, #20
 80a07a4:	f7ff fc79 	bl	80a009a <_Znwj>
 80a07a8:	9005      	str	r0, [sp, #20]
 80a07aa:	b1b8      	cbz	r0, 80a07dc <_Z10fuzzy_initv+0x38c>
 80a07ac:	4b91      	ldr	r3, [pc, #580]	; (80a09f4 <_Z10fuzzy_initv+0x5a4>)
 80a07ae:	6818      	ldr	r0, [r3, #0]
 80a07b0:	f004 fd80 	bl	80a52b4 <__aeabi_i2f>
 80a07b4:	4a90      	ldr	r2, [pc, #576]	; (80a09f8 <_Z10fuzzy_initv+0x5a8>)
 80a07b6:	9008      	str	r0, [sp, #32]
 80a07b8:	6810      	ldr	r0, [r2, #0]
 80a07ba:	f004 fd7b 	bl	80a52b4 <__aeabi_i2f>
 80a07be:	498f      	ldr	r1, [pc, #572]	; (80a09fc <_Z10fuzzy_initv+0x5ac>)
 80a07c0:	9007      	str	r0, [sp, #28]
 80a07c2:	6808      	ldr	r0, [r1, #0]
 80a07c4:	f004 fd76 	bl	80a52b4 <__aeabi_i2f>
 80a07c8:	9006      	str	r0, [sp, #24]
 80a07ca:	488d      	ldr	r0, [pc, #564]	; (80a0a00 <_Z10fuzzy_initv+0x5b0>)
 80a07cc:	6800      	ldr	r0, [r0, #0]
 80a07ce:	f004 fd71 	bl	80a52b4 <__aeabi_i2f>
 80a07d2:	9000      	str	r0, [sp, #0]
 80a07d4:	a805      	add	r0, sp, #20
 80a07d6:	c80f      	ldmia	r0, {r0, r1, r2, r3}
 80a07d8:	f002 fa11 	bl	80a2bfe <_ZN8FuzzySetC1Effff>
  FuzzySet* RR_high = new FuzzySet(high1, high2, high3, high4);
 80a07dc:	2014      	movs	r0, #20
 80a07de:	f7ff fc5c 	bl	80a009a <_Znwj>
 80a07e2:	9007      	str	r0, [sp, #28]
 80a07e4:	b1c8      	cbz	r0, 80a081a <_Z10fuzzy_initv+0x3ca>
 80a07e6:	4b87      	ldr	r3, [pc, #540]	; (80a0a04 <_Z10fuzzy_initv+0x5b4>)
 80a07e8:	6818      	ldr	r0, [r3, #0]
 80a07ea:	f004 fd63 	bl	80a52b4 <__aeabi_i2f>
 80a07ee:	4a86      	ldr	r2, [pc, #536]	; (80a0a08 <_Z10fuzzy_initv+0x5b8>)
 80a07f0:	9009      	str	r0, [sp, #36]	; 0x24
 80a07f2:	6810      	ldr	r0, [r2, #0]
 80a07f4:	f004 fd5e 	bl	80a52b4 <__aeabi_i2f>
 80a07f8:	4984      	ldr	r1, [pc, #528]	; (80a0a0c <_Z10fuzzy_initv+0x5bc>)
 80a07fa:	9008      	str	r0, [sp, #32]
 80a07fc:	6808      	ldr	r0, [r1, #0]
 80a07fe:	f004 fd59 	bl	80a52b4 <__aeabi_i2f>
 80a0802:	9006      	str	r0, [sp, #24]
 80a0804:	4882      	ldr	r0, [pc, #520]	; (80a0a10 <_Z10fuzzy_initv+0x5c0>)
 80a0806:	6800      	ldr	r0, [r0, #0]
 80a0808:	f004 fd54 	bl	80a52b4 <__aeabi_i2f>
 80a080c:	9b09      	ldr	r3, [sp, #36]	; 0x24
 80a080e:	9000      	str	r0, [sp, #0]
 80a0810:	9a08      	ldr	r2, [sp, #32]
 80a0812:	9906      	ldr	r1, [sp, #24]
 80a0814:	9807      	ldr	r0, [sp, #28]
 80a0816:	f002 f9f2 	bl	80a2bfe <_ZN8FuzzySetC1Effff>
  RR_input->addFuzzySet(RR_low);
 80a081a:	4621      	mov	r1, r4
 80a081c:	4658      	mov	r0, fp
 80a081e:	f001 ff8e 	bl	80a273e <_ZN7FuzzyIO11addFuzzySetEP8FuzzySet>
  RR_input->addFuzzySet(RR_med);
 80a0822:	9905      	ldr	r1, [sp, #20]
 80a0824:	4658      	mov	r0, fp
 80a0826:	f001 ff8a 	bl	80a273e <_ZN7FuzzyIO11addFuzzySetEP8FuzzySet>
  RR_input->addFuzzySet(RR_high);
 80a082a:	9907      	ldr	r1, [sp, #28]
 80a082c:	4658      	mov	r0, fp
 80a082e:	f001 ff86 	bl	80a273e <_ZN7FuzzyIO11addFuzzySetEP8FuzzySet>
  fuzzy->addFuzzyInput(RR_input);
 80a0832:	4b6b      	ldr	r3, [pc, #428]	; (80a09e0 <_Z10fuzzy_initv+0x590>)
 80a0834:	4659      	mov	r1, fp
 80a0836:	6818      	ldr	r0, [r3, #0]
 80a0838:	f002 fab5 	bl	80a2da6 <_ZN5Fuzzy13addFuzzyInputEP10FuzzyInput>

  // OUTPUT: 1 of 1 (Test 1 *********************************)
  FuzzyOutput* drive_state = new FuzzyOutput(1);
 80a083c:	2018      	movs	r0, #24
 80a083e:	f7ff fc2c 	bl	80a009a <_Znwj>
 80a0842:	4683      	mov	fp, r0
 80a0844:	b110      	cbz	r0, 80a084c <_Z10fuzzy_initv+0x3fc>
 80a0846:	2101      	movs	r1, #1
 80a0848:	f001 ff95 	bl	80a2776 <_ZN11FuzzyOutputC1Ei>
  FuzzySet* full_left = new FuzzySet(0, 5, 15, 20);
 80a084c:	2014      	movs	r0, #20
 80a084e:	f7ff fc24 	bl	80a009a <_Znwj>
 80a0852:	900d      	str	r0, [sp, #52]	; 0x34
 80a0854:	b130      	cbz	r0, 80a0864 <_Z10fuzzy_initv+0x414>
 80a0856:	4b6f      	ldr	r3, [pc, #444]	; (80a0a14 <_Z10fuzzy_initv+0x5c4>)
 80a0858:	4a6f      	ldr	r2, [pc, #444]	; (80a0a18 <_Z10fuzzy_initv+0x5c8>)
 80a085a:	9300      	str	r3, [sp, #0]
 80a085c:	2100      	movs	r1, #0
 80a085e:	4b6f      	ldr	r3, [pc, #444]	; (80a0a1c <_Z10fuzzy_initv+0x5cc>)
 80a0860:	f002 f9cd 	bl	80a2bfe <_ZN8FuzzySetC1Effff>
  FuzzySet* small_left = new FuzzySet(25, 30, 35, 40);
 80a0864:	2014      	movs	r0, #20
 80a0866:	f7ff fc18 	bl	80a009a <_Znwj>
 80a086a:	900e      	str	r0, [sp, #56]	; 0x38
 80a086c:	b130      	cbz	r0, 80a087c <_Z10fuzzy_initv+0x42c>
 80a086e:	4b6c      	ldr	r3, [pc, #432]	; (80a0a20 <_Z10fuzzy_initv+0x5d0>)
 80a0870:	4a6c      	ldr	r2, [pc, #432]	; (80a0a24 <_Z10fuzzy_initv+0x5d4>)
 80a0872:	9300      	str	r3, [sp, #0]
 80a0874:	496c      	ldr	r1, [pc, #432]	; (80a0a28 <_Z10fuzzy_initv+0x5d8>)
 80a0876:	4b6d      	ldr	r3, [pc, #436]	; (80a0a2c <_Z10fuzzy_initv+0x5dc>)
 80a0878:	f002 f9c1 	bl	80a2bfe <_ZN8FuzzySetC1Effff>
  FuzzySet* center = new FuzzySet(45, 50, 55, 60);
 80a087c:	2014      	movs	r0, #20
 80a087e:	f7ff fc0c 	bl	80a009a <_Znwj>
 80a0882:	900f      	str	r0, [sp, #60]	; 0x3c
 80a0884:	b130      	cbz	r0, 80a0894 <_Z10fuzzy_initv+0x444>
 80a0886:	4b6a      	ldr	r3, [pc, #424]	; (80a0a30 <_Z10fuzzy_initv+0x5e0>)
 80a0888:	4a6a      	ldr	r2, [pc, #424]	; (80a0a34 <_Z10fuzzy_initv+0x5e4>)
 80a088a:	9300      	str	r3, [sp, #0]
 80a088c:	496a      	ldr	r1, [pc, #424]	; (80a0a38 <_Z10fuzzy_initv+0x5e8>)
 80a088e:	4b6b      	ldr	r3, [pc, #428]	; (80a0a3c <_Z10fuzzy_initv+0x5ec>)
 80a0890:	f002 f9b5 	bl	80a2bfe <_ZN8FuzzySetC1Effff>
  FuzzySet* small_right = new FuzzySet(65, 70, 75, 80);
 80a0894:	2014      	movs	r0, #20
 80a0896:	f7ff fc00 	bl	80a009a <_Znwj>
 80a089a:	9010      	str	r0, [sp, #64]	; 0x40
 80a089c:	b130      	cbz	r0, 80a08ac <_Z10fuzzy_initv+0x45c>
 80a089e:	4b68      	ldr	r3, [pc, #416]	; (80a0a40 <_Z10fuzzy_initv+0x5f0>)
 80a08a0:	4a68      	ldr	r2, [pc, #416]	; (80a0a44 <_Z10fuzzy_initv+0x5f4>)
 80a08a2:	9300      	str	r3, [sp, #0]
 80a08a4:	4968      	ldr	r1, [pc, #416]	; (80a0a48 <_Z10fuzzy_initv+0x5f8>)
 80a08a6:	4b69      	ldr	r3, [pc, #420]	; (80a0a4c <_Z10fuzzy_initv+0x5fc>)
 80a08a8:	f002 f9a9 	bl	80a2bfe <_ZN8FuzzySetC1Effff>
  FuzzySet* full_right = new FuzzySet(85, 90, 95, 100);
 80a08ac:	2014      	movs	r0, #20
 80a08ae:	f7ff fbf4 	bl	80a009a <_Znwj>
 80a08b2:	9011      	str	r0, [sp, #68]	; 0x44
 80a08b4:	b130      	cbz	r0, 80a08c4 <_Z10fuzzy_initv+0x474>
 80a08b6:	4b66      	ldr	r3, [pc, #408]	; (80a0a50 <_Z10fuzzy_initv+0x600>)
 80a08b8:	4a66      	ldr	r2, [pc, #408]	; (80a0a54 <_Z10fuzzy_initv+0x604>)
 80a08ba:	9300      	str	r3, [sp, #0]
 80a08bc:	4966      	ldr	r1, [pc, #408]	; (80a0a58 <_Z10fuzzy_initv+0x608>)
 80a08be:	4b67      	ldr	r3, [pc, #412]	; (80a0a5c <_Z10fuzzy_initv+0x60c>)
 80a08c0:	f002 f99d 	bl	80a2bfe <_ZN8FuzzySetC1Effff>
  drive_state->addFuzzySet(full_left);
 80a08c4:	990d      	ldr	r1, [sp, #52]	; 0x34
 80a08c6:	4658      	mov	r0, fp
 80a08c8:	f001 ff39 	bl	80a273e <_ZN7FuzzyIO11addFuzzySetEP8FuzzySet>
  drive_state->addFuzzySet(small_left);
 80a08cc:	990e      	ldr	r1, [sp, #56]	; 0x38
 80a08ce:	4658      	mov	r0, fp
 80a08d0:	f001 ff35 	bl	80a273e <_ZN7FuzzyIO11addFuzzySetEP8FuzzySet>
  drive_state->addFuzzySet(center);
 80a08d4:	990f      	ldr	r1, [sp, #60]	; 0x3c
 80a08d6:	4658      	mov	r0, fp
 80a08d8:	f001 ff31 	bl	80a273e <_ZN7FuzzyIO11addFuzzySetEP8FuzzySet>
  drive_state->addFuzzySet(small_right);
 80a08dc:	9910      	ldr	r1, [sp, #64]	; 0x40
 80a08de:	4658      	mov	r0, fp
 80a08e0:	f001 ff2d 	bl	80a273e <_ZN7FuzzyIO11addFuzzySetEP8FuzzySet>
  drive_state->addFuzzySet(full_right);
 80a08e4:	9911      	ldr	r1, [sp, #68]	; 0x44
 80a08e6:	4658      	mov	r0, fp
 80a08e8:	f001 ff29 	bl	80a273e <_ZN7FuzzyIO11addFuzzySetEP8FuzzySet>
  fuzzy->addFuzzyOutput(drive_state);
 80a08ec:	4b3c      	ldr	r3, [pc, #240]	; (80a09e0 <_Z10fuzzy_initv+0x590>)
 80a08ee:	4659      	mov	r1, fp
 80a08f0:	6818      	ldr	r0, [r3, #0]
 80a08f2:	f002 fa6b 	bl	80a2dcc <_ZN5Fuzzy14addFuzzyOutputEP11FuzzyOutput>

  // Building Left FuzzyRuleAntecedents (ALL COMBINATIONS)
  FuzzyRuleAntecedent* left_low_high = new FuzzyRuleAntecedent();
 80a08f6:	2018      	movs	r0, #24
 80a08f8:	f7ff fbcf 	bl	80a009a <_Znwj>
 80a08fc:	900c      	str	r0, [sp, #48]	; 0x30
 80a08fe:	b108      	cbz	r0, 80a0904 <_Z10fuzzy_initv+0x4b4>
 80a0900:	f002 fadc 	bl	80a2ebc <_ZN19FuzzyRuleAntecedentC1Ev>
  left_low_high->joinWithAND(LL_low, LM_high);
 80a0904:	4652      	mov	r2, sl
 80a0906:	4629      	mov	r1, r5
 80a0908:	980c      	ldr	r0, [sp, #48]	; 0x30
 80a090a:	f002 fadf 	bl	80a2ecc <_ZN19FuzzyRuleAntecedent11joinWithANDEP8FuzzySetS1_>
  FuzzyRuleAntecedent* left_med_high = new FuzzyRuleAntecedent();
 80a090e:	2018      	movs	r0, #24
 80a0910:	f7ff fbc3 	bl	80a009a <_Znwj>
 80a0914:	9008      	str	r0, [sp, #32]
 80a0916:	b108      	cbz	r0, 80a091c <_Z10fuzzy_initv+0x4cc>
 80a0918:	f002 fad0 	bl	80a2ebc <_ZN19FuzzyRuleAntecedentC1Ev>
  left_med_high->joinWithAND(LL_med, LM_high);
 80a091c:	4652      	mov	r2, sl
 80a091e:	9902      	ldr	r1, [sp, #8]
 80a0920:	9808      	ldr	r0, [sp, #32]
 80a0922:	f002 fad3 	bl	80a2ecc <_ZN19FuzzyRuleAntecedent11joinWithANDEP8FuzzySetS1_>
  FuzzyRuleAntecedent* left_low_med = new FuzzyRuleAntecedent();
 80a0926:	2018      	movs	r0, #24
 80a0928:	f7ff fbb7 	bl	80a009a <_Znwj>
 80a092c:	9009      	str	r0, [sp, #36]	; 0x24
 80a092e:	b108      	cbz	r0, 80a0934 <_Z10fuzzy_initv+0x4e4>
 80a0930:	f002 fac4 	bl	80a2ebc <_ZN19FuzzyRuleAntecedentC1Ev>
  left_low_med->joinWithAND(LL_low, LM_med);
 80a0934:	464a      	mov	r2, r9
 80a0936:	4629      	mov	r1, r5
 80a0938:	9809      	ldr	r0, [sp, #36]	; 0x24
 80a093a:	f002 fac7 	bl	80a2ecc <_ZN19FuzzyRuleAntecedent11joinWithANDEP8FuzzySetS1_>
  FuzzyRuleAntecedent* left_med_med = new FuzzyRuleAntecedent();
 80a093e:	2018      	movs	r0, #24
 80a0940:	f7ff fbab 	bl	80a009a <_Znwj>
 80a0944:	9006      	str	r0, [sp, #24]
 80a0946:	b108      	cbz	r0, 80a094c <_Z10fuzzy_initv+0x4fc>
 80a0948:	f002 fab8 	bl	80a2ebc <_ZN19FuzzyRuleAntecedentC1Ev>
  left_med_med->joinWithAND(LL_med, LM_med);
 80a094c:	464a      	mov	r2, r9
 80a094e:	9902      	ldr	r1, [sp, #8]
 80a0950:	9806      	ldr	r0, [sp, #24]
 80a0952:	f002 fabb 	bl	80a2ecc <_ZN19FuzzyRuleAntecedent11joinWithANDEP8FuzzySetS1_>
  FuzzyRuleAntecedent* left_high_high = new FuzzyRuleAntecedent();
 80a0956:	2018      	movs	r0, #24
 80a0958:	f7ff fb9f 	bl	80a009a <_Znwj>
 80a095c:	900b      	str	r0, [sp, #44]	; 0x2c
 80a095e:	b108      	cbz	r0, 80a0964 <_Z10fuzzy_initv+0x514>
 80a0960:	f002 faac 	bl	80a2ebc <_ZN19FuzzyRuleAntecedentC1Ev>
  left_high_high->joinWithAND(LL_high, LM_high);
 80a0964:	4652      	mov	r2, sl
 80a0966:	4639      	mov	r1, r7
 80a0968:	980b      	ldr	r0, [sp, #44]	; 0x2c
 80a096a:	f002 faaf 	bl	80a2ecc <_ZN19FuzzyRuleAntecedent11joinWithANDEP8FuzzySetS1_>
  FuzzyRuleAntecedent* left_high_med = new FuzzyRuleAntecedent();
 80a096e:	2018      	movs	r0, #24
 80a0970:	f7ff fb93 	bl	80a009a <_Znwj>
 80a0974:	9012      	str	r0, [sp, #72]	; 0x48
 80a0976:	b108      	cbz	r0, 80a097c <_Z10fuzzy_initv+0x52c>
 80a0978:	f002 faa0 	bl	80a2ebc <_ZN19FuzzyRuleAntecedentC1Ev>
  left_high_med->joinWithAND(LL_high, LM_med);
 80a097c:	464a      	mov	r2, r9
 80a097e:	4639      	mov	r1, r7
 80a0980:	9812      	ldr	r0, [sp, #72]	; 0x48
 80a0982:	f002 faa3 	bl	80a2ecc <_ZN19FuzzyRuleAntecedent11joinWithANDEP8FuzzySetS1_>
  FuzzyRuleAntecedent* left_med_low = new FuzzyRuleAntecedent();
 80a0986:	2018      	movs	r0, #24
 80a0988:	f7ff fb87 	bl	80a009a <_Znwj>
 80a098c:	9013      	str	r0, [sp, #76]	; 0x4c
 80a098e:	b108      	cbz	r0, 80a0994 <_Z10fuzzy_initv+0x544>
 80a0990:	f002 fa94 	bl	80a2ebc <_ZN19FuzzyRuleAntecedentC1Ev>
  left_med_low->joinWithAND(LL_med, LM_low);
 80a0994:	4632      	mov	r2, r6
 80a0996:	9902      	ldr	r1, [sp, #8]
 80a0998:	9813      	ldr	r0, [sp, #76]	; 0x4c
 80a099a:	f002 fa97 	bl	80a2ecc <_ZN19FuzzyRuleAntecedent11joinWithANDEP8FuzzySetS1_>
  FuzzyRuleAntecedent* left_high_low = new FuzzyRuleAntecedent();
 80a099e:	2018      	movs	r0, #24
 80a09a0:	f7ff fb7b 	bl	80a009a <_Znwj>
 80a09a4:	9014      	str	r0, [sp, #80]	; 0x50
 80a09a6:	b108      	cbz	r0, 80a09ac <_Z10fuzzy_initv+0x55c>
 80a09a8:	f002 fa88 	bl	80a2ebc <_ZN19FuzzyRuleAntecedentC1Ev>
  left_high_low->joinWithAND(LL_high, LM_low);
 80a09ac:	4632      	mov	r2, r6
 80a09ae:	4639      	mov	r1, r7
 80a09b0:	9814      	ldr	r0, [sp, #80]	; 0x50
 80a09b2:	f002 fa8b 	bl	80a2ecc <_ZN19FuzzyRuleAntecedent11joinWithANDEP8FuzzySetS1_>
  FuzzyRuleAntecedent* left_low_low = new FuzzyRuleAntecedent();
 80a09b6:	2018      	movs	r0, #24
 80a09b8:	f7ff fb6f 	bl	80a009a <_Znwj>
 80a09bc:	4683      	mov	fp, r0
 80a09be:	b108      	cbz	r0, 80a09c4 <_Z10fuzzy_initv+0x574>
 80a09c0:	f002 fa7c 	bl	80a2ebc <_ZN19FuzzyRuleAntecedentC1Ev>
  left_low_low->joinWithAND(LL_low, LM_low);
 80a09c4:	4632      	mov	r2, r6
 80a09c6:	4629      	mov	r1, r5
 80a09c8:	4658      	mov	r0, fp
 80a09ca:	f002 fa7f 	bl	80a2ecc <_ZN19FuzzyRuleAntecedent11joinWithANDEP8FuzzySetS1_>

  // Building Right FuzzyRuleAntecedents
  FuzzyRuleAntecedent* right_high_low = new FuzzyRuleAntecedent();
 80a09ce:	2018      	movs	r0, #24
 80a09d0:	f7ff fb63 	bl	80a009a <_Znwj>
 80a09d4:	4606      	mov	r6, r0
 80a09d6:	2800      	cmp	r0, #0
 80a09d8:	d042      	beq.n	80a0a60 <_Z10fuzzy_initv+0x610>
 80a09da:	f002 fa6f 	bl	80a2ebc <_ZN19FuzzyRuleAntecedentC1Ev>
 80a09de:	e03f      	b.n	80a0a60 <_Z10fuzzy_initv+0x610>
 80a09e0:	20000390 	.word	0x20000390
 80a09e4:	20000310 	.word	0x20000310
 80a09e8:	2000030c 	.word	0x2000030c
 80a09ec:	20000308 	.word	0x20000308
 80a09f0:	20000314 	.word	0x20000314
 80a09f4:	20000354 	.word	0x20000354
 80a09f8:	20000350 	.word	0x20000350
 80a09fc:	2000034c 	.word	0x2000034c
 80a0a00:	20000358 	.word	0x20000358
 80a0a04:	20000330 	.word	0x20000330
 80a0a08:	20000338 	.word	0x20000338
 80a0a0c:	20000410 	.word	0x20000410
 80a0a10:	20000334 	.word	0x20000334
 80a0a14:	41a00000 	.word	0x41a00000
 80a0a18:	40a00000 	.word	0x40a00000
 80a0a1c:	41700000 	.word	0x41700000
 80a0a20:	42200000 	.word	0x42200000
 80a0a24:	41f00000 	.word	0x41f00000
 80a0a28:	41c80000 	.word	0x41c80000
 80a0a2c:	420c0000 	.word	0x420c0000
 80a0a30:	42700000 	.word	0x42700000
 80a0a34:	42480000 	.word	0x42480000
 80a0a38:	42340000 	.word	0x42340000
 80a0a3c:	425c0000 	.word	0x425c0000
 80a0a40:	42a00000 	.word	0x42a00000
 80a0a44:	428c0000 	.word	0x428c0000
 80a0a48:	42820000 	.word	0x42820000
 80a0a4c:	42960000 	.word	0x42960000
 80a0a50:	42c80000 	.word	0x42c80000
 80a0a54:	42b40000 	.word	0x42b40000
 80a0a58:	42aa0000 	.word	0x42aa0000
 80a0a5c:	42be0000 	.word	0x42be0000
  right_high_low->joinWithAND(RM_high, RR_low);
 80a0a60:	4622      	mov	r2, r4
 80a0a62:	4641      	mov	r1, r8
 80a0a64:	4630      	mov	r0, r6
 80a0a66:	f002 fa31 	bl	80a2ecc <_ZN19FuzzyRuleAntecedent11joinWithANDEP8FuzzySetS1_>
  FuzzyRuleAntecedent* right_high_med = new FuzzyRuleAntecedent();
 80a0a6a:	2018      	movs	r0, #24
 80a0a6c:	f7ff fb15 	bl	80a009a <_Znwj>
 80a0a70:	900a      	str	r0, [sp, #40]	; 0x28
 80a0a72:	b108      	cbz	r0, 80a0a78 <_Z10fuzzy_initv+0x628>
 80a0a74:	f002 fa22 	bl	80a2ebc <_ZN19FuzzyRuleAntecedentC1Ev>
  right_high_med->joinWithAND(RM_high, RR_med);
 80a0a78:	9a05      	ldr	r2, [sp, #20]
 80a0a7a:	4641      	mov	r1, r8
 80a0a7c:	980a      	ldr	r0, [sp, #40]	; 0x28
 80a0a7e:	f002 fa25 	bl	80a2ecc <_ZN19FuzzyRuleAntecedent11joinWithANDEP8FuzzySetS1_>
  FuzzyRuleAntecedent* right_med_low = new FuzzyRuleAntecedent();
 80a0a82:	2018      	movs	r0, #24
 80a0a84:	f7ff fb09 	bl	80a009a <_Znwj>
 80a0a88:	4607      	mov	r7, r0
 80a0a8a:	b108      	cbz	r0, 80a0a90 <_Z10fuzzy_initv+0x640>
 80a0a8c:	f002 fa16 	bl	80a2ebc <_ZN19FuzzyRuleAntecedentC1Ev>
  right_med_low->joinWithAND(RM_med, RR_low);
 80a0a90:	4622      	mov	r2, r4
 80a0a92:	9904      	ldr	r1, [sp, #16]
 80a0a94:	4638      	mov	r0, r7
 80a0a96:	f002 fa19 	bl	80a2ecc <_ZN19FuzzyRuleAntecedent11joinWithANDEP8FuzzySetS1_>
  FuzzyRuleAntecedent* right_low_med = new FuzzyRuleAntecedent();
 80a0a9a:	2018      	movs	r0, #24
 80a0a9c:	f7ff fafd 	bl	80a009a <_Znwj>
 80a0aa0:	9015      	str	r0, [sp, #84]	; 0x54
 80a0aa2:	b108      	cbz	r0, 80a0aa8 <_Z10fuzzy_initv+0x658>
 80a0aa4:	f002 fa0a 	bl	80a2ebc <_ZN19FuzzyRuleAntecedentC1Ev>
  right_low_med->joinWithAND(RM_low, RR_med);
 80a0aa8:	9a05      	ldr	r2, [sp, #20]
 80a0aaa:	9903      	ldr	r1, [sp, #12]
 80a0aac:	9815      	ldr	r0, [sp, #84]	; 0x54
 80a0aae:	f002 fa0d 	bl	80a2ecc <_ZN19FuzzyRuleAntecedent11joinWithANDEP8FuzzySetS1_>
  FuzzyRuleAntecedent* right_low_low = new FuzzyRuleAntecedent();
 80a0ab2:	2018      	movs	r0, #24
 80a0ab4:	f7ff faf1 	bl	80a009a <_Znwj>
 80a0ab8:	4605      	mov	r5, r0
 80a0aba:	b108      	cbz	r0, 80a0ac0 <_Z10fuzzy_initv+0x670>
 80a0abc:	f002 f9fe 	bl	80a2ebc <_ZN19FuzzyRuleAntecedentC1Ev>
  right_low_low->joinWithAND(RM_low, RR_low);
 80a0ac0:	4622      	mov	r2, r4
 80a0ac2:	9903      	ldr	r1, [sp, #12]
 80a0ac4:	4628      	mov	r0, r5
 80a0ac6:	f002 fa01 	bl	80a2ecc <_ZN19FuzzyRuleAntecedent11joinWithANDEP8FuzzySetS1_>
  FuzzyRuleAntecedent* right_med_med = new FuzzyRuleAntecedent();
 80a0aca:	2018      	movs	r0, #24
 80a0acc:	f7ff fae5 	bl	80a009a <_Znwj>
 80a0ad0:	9002      	str	r0, [sp, #8]
 80a0ad2:	b108      	cbz	r0, 80a0ad8 <_Z10fuzzy_initv+0x688>
 80a0ad4:	f002 f9f2 	bl	80a2ebc <_ZN19FuzzyRuleAntecedentC1Ev>
  right_med_med->joinWithAND(RM_med, RR_med);
 80a0ad8:	9a05      	ldr	r2, [sp, #20]
 80a0ada:	9904      	ldr	r1, [sp, #16]
 80a0adc:	9802      	ldr	r0, [sp, #8]
 80a0ade:	f002 f9f5 	bl	80a2ecc <_ZN19FuzzyRuleAntecedent11joinWithANDEP8FuzzySetS1_>
  FuzzyRuleAntecedent* right_low_high = new FuzzyRuleAntecedent();
 80a0ae2:	2018      	movs	r0, #24
 80a0ae4:	f7ff fad9 	bl	80a009a <_Znwj>
 80a0ae8:	9005      	str	r0, [sp, #20]
 80a0aea:	b108      	cbz	r0, 80a0af0 <_Z10fuzzy_initv+0x6a0>
 80a0aec:	f002 f9e6 	bl	80a2ebc <_ZN19FuzzyRuleAntecedentC1Ev>
  right_low_high->joinWithAND(RM_low, RR_high);
 80a0af0:	9a07      	ldr	r2, [sp, #28]
 80a0af2:	9903      	ldr	r1, [sp, #12]
 80a0af4:	9805      	ldr	r0, [sp, #20]
 80a0af6:	f002 f9e9 	bl	80a2ecc <_ZN19FuzzyRuleAntecedent11joinWithANDEP8FuzzySetS1_>
  FuzzyRuleAntecedent* right_high_high = new FuzzyRuleAntecedent();
 80a0afa:	2018      	movs	r0, #24
 80a0afc:	f7ff facd 	bl	80a009a <_Znwj>
 80a0b00:	9003      	str	r0, [sp, #12]
 80a0b02:	b108      	cbz	r0, 80a0b08 <_Z10fuzzy_initv+0x6b8>
 80a0b04:	f002 f9da 	bl	80a2ebc <_ZN19FuzzyRuleAntecedentC1Ev>
  right_high_high->joinWithAND(RM_high, RR_high);
 80a0b08:	9a07      	ldr	r2, [sp, #28]
 80a0b0a:	4641      	mov	r1, r8
 80a0b0c:	9803      	ldr	r0, [sp, #12]
 80a0b0e:	f002 f9dd 	bl	80a2ecc <_ZN19FuzzyRuleAntecedent11joinWithANDEP8FuzzySetS1_>
  FuzzyRuleAntecedent* right_med_high = new FuzzyRuleAntecedent();
 80a0b12:	2018      	movs	r0, #24
 80a0b14:	f7ff fac1 	bl	80a009a <_Znwj>
 80a0b18:	9007      	str	r0, [sp, #28]
 80a0b1a:	b108      	cbz	r0, 80a0b20 <_Z10fuzzy_initv+0x6d0>
 80a0b1c:	f002 f9ce 	bl	80a2ebc <_ZN19FuzzyRuleAntecedentC1Ev>
  right_med_high->joinWithAND(RM_med, RM_high);
 80a0b20:	4642      	mov	r2, r8
 80a0b22:	9904      	ldr	r1, [sp, #16]
 80a0b24:	9807      	ldr	r0, [sp, #28]
 80a0b26:	f002 f9d1 	bl	80a2ecc <_ZN19FuzzyRuleAntecedent11joinWithANDEP8FuzzySetS1_>

  // Building drive FuzzyRuleConsequents (Test 1 *********************************)
  // NOTE: you can add multiple outputs to 1 consequent
  FuzzyRuleConsequent* drive_center = new FuzzyRuleConsequent();
 80a0b2a:	2008      	movs	r0, #8
 80a0b2c:	f7ff fab5 	bl	80a009a <_Znwj>
 80a0b30:	4681      	mov	r9, r0
 80a0b32:	b108      	cbz	r0, 80a0b38 <_Z10fuzzy_initv+0x6e8>
 80a0b34:	f002 f90c 	bl	80a2d50 <_ZN19FuzzyRuleConsequentC1Ev>
  drive_center->addOutput(center);
 80a0b38:	990f      	ldr	r1, [sp, #60]	; 0x3c
 80a0b3a:	4648      	mov	r0, r9
 80a0b3c:	f002 f90c 	bl	80a2d58 <_ZN19FuzzyRuleConsequent9addOutputEP8FuzzySet>
  FuzzyRuleConsequent* drive_small_left = new FuzzyRuleConsequent();
 80a0b40:	2008      	movs	r0, #8
 80a0b42:	f7ff faaa 	bl	80a009a <_Znwj>
 80a0b46:	4680      	mov	r8, r0
 80a0b48:	b108      	cbz	r0, 80a0b4e <_Z10fuzzy_initv+0x6fe>
 80a0b4a:	f002 f901 	bl	80a2d50 <_ZN19FuzzyRuleConsequentC1Ev>
  drive_small_left->addOutput(small_left);  
 80a0b4e:	990e      	ldr	r1, [sp, #56]	; 0x38
 80a0b50:	4640      	mov	r0, r8
 80a0b52:	f002 f901 	bl	80a2d58 <_ZN19FuzzyRuleConsequent9addOutputEP8FuzzySet>
  FuzzyRuleConsequent* drive_full_left = new FuzzyRuleConsequent();
 80a0b56:	2008      	movs	r0, #8
 80a0b58:	f7ff fa9f 	bl	80a009a <_Znwj>
 80a0b5c:	9004      	str	r0, [sp, #16]
 80a0b5e:	b108      	cbz	r0, 80a0b64 <_Z10fuzzy_initv+0x714>
 80a0b60:	f002 f8f6 	bl	80a2d50 <_ZN19FuzzyRuleConsequentC1Ev>
  drive_full_left->addOutput(full_left);
 80a0b64:	990d      	ldr	r1, [sp, #52]	; 0x34
 80a0b66:	9804      	ldr	r0, [sp, #16]
 80a0b68:	f002 f8f6 	bl	80a2d58 <_ZN19FuzzyRuleConsequent9addOutputEP8FuzzySet>
  FuzzyRuleConsequent* drive_full_right = new FuzzyRuleConsequent();
 80a0b6c:	2008      	movs	r0, #8
 80a0b6e:	f7ff fa94 	bl	80a009a <_Znwj>
 80a0b72:	900d      	str	r0, [sp, #52]	; 0x34
 80a0b74:	b108      	cbz	r0, 80a0b7a <_Z10fuzzy_initv+0x72a>
 80a0b76:	f002 f8eb 	bl	80a2d50 <_ZN19FuzzyRuleConsequentC1Ev>
  drive_full_right->addOutput(full_right);
 80a0b7a:	9911      	ldr	r1, [sp, #68]	; 0x44
 80a0b7c:	980d      	ldr	r0, [sp, #52]	; 0x34
 80a0b7e:	f002 f8eb 	bl	80a2d58 <_ZN19FuzzyRuleConsequent9addOutputEP8FuzzySet>
  FuzzyRuleConsequent* drive_small_right = new FuzzyRuleConsequent();
 80a0b82:	2008      	movs	r0, #8
 80a0b84:	f7ff fa89 	bl	80a009a <_Znwj>
 80a0b88:	4604      	mov	r4, r0
 80a0b8a:	b108      	cbz	r0, 80a0b90 <_Z10fuzzy_initv+0x740>
 80a0b8c:	f002 f8e0 	bl	80a2d50 <_ZN19FuzzyRuleConsequentC1Ev>
  drive_small_right->addOutput(small_right);
 80a0b90:	9910      	ldr	r1, [sp, #64]	; 0x40
 80a0b92:	4620      	mov	r0, r4
 80a0b94:	f002 f8e0 	bl	80a2d58 <_ZN19FuzzyRuleConsequent9addOutputEP8FuzzySet>

  // Building Complete FuzzyRuleAntedecents (Test 1 *********************************)
  // Combining (2) Left and (2) Right antecedents, merging with (1) drive consequent
  // And adding the FuzzyRules
  FuzzyRuleAntecedent* LHHL = new FuzzyRuleAntecedent();
 80a0b98:	2018      	movs	r0, #24
 80a0b9a:	f7ff fa7e 	bl	80a009a <_Znwj>
 80a0b9e:	4682      	mov	sl, r0
 80a0ba0:	b108      	cbz	r0, 80a0ba6 <_Z10fuzzy_initv+0x756>
 80a0ba2:	f002 f98b 	bl	80a2ebc <_ZN19FuzzyRuleAntecedentC1Ev>
  LHHL->joinWithAND(left_low_high, right_high_low);
 80a0ba6:	4632      	mov	r2, r6
 80a0ba8:	990c      	ldr	r1, [sp, #48]	; 0x30
 80a0baa:	4650      	mov	r0, sl
 80a0bac:	f002 f99d 	bl	80a2eea <_ZN19FuzzyRuleAntecedent11joinWithANDEPS_S0_>
  FuzzyRule* fr1 = new FuzzyRule(1, LHHL, drive_center);
 80a0bb0:	2010      	movs	r0, #16
 80a0bb2:	f7ff fa72 	bl	80a009a <_Znwj>
 80a0bb6:	900e      	str	r0, [sp, #56]	; 0x38
 80a0bb8:	b120      	cbz	r0, 80a0bc4 <_Z10fuzzy_initv+0x774>
 80a0bba:	464b      	mov	r3, r9
 80a0bbc:	4652      	mov	r2, sl
 80a0bbe:	2101      	movs	r1, #1
 80a0bc0:	f001 fb6a 	bl	80a2298 <_ZN9FuzzyRuleC1EiP19FuzzyRuleAntecedentP19FuzzyRuleConsequent>
  fuzzy->addFuzzyRule(fr1);
 80a0bc4:	4bb5      	ldr	r3, [pc, #724]	; (80a0e9c <_Z10fuzzy_initv+0xa4c>)
 80a0bc6:	990e      	ldr	r1, [sp, #56]	; 0x38
 80a0bc8:	6818      	ldr	r0, [r3, #0]
 80a0bca:	f002 f917 	bl	80a2dfc <_ZN5Fuzzy12addFuzzyRuleEP9FuzzyRule>

  FuzzyRuleAntecedent* MHHL = new FuzzyRuleAntecedent();
 80a0bce:	2018      	movs	r0, #24
 80a0bd0:	f7ff fa63 	bl	80a009a <_Znwj>
 80a0bd4:	4682      	mov	sl, r0
 80a0bd6:	b108      	cbz	r0, 80a0bdc <_Z10fuzzy_initv+0x78c>
 80a0bd8:	f002 f970 	bl	80a2ebc <_ZN19FuzzyRuleAntecedentC1Ev>
  MHHL->joinWithAND(left_med_high, right_high_low);
 80a0bdc:	4632      	mov	r2, r6
 80a0bde:	9908      	ldr	r1, [sp, #32]
 80a0be0:	4650      	mov	r0, sl
 80a0be2:	f002 f982 	bl	80a2eea <_ZN19FuzzyRuleAntecedent11joinWithANDEPS_S0_>
  FuzzyRule* fr2 = new FuzzyRule(2, MHHL, drive_center);
 80a0be6:	2010      	movs	r0, #16
 80a0be8:	f7ff fa57 	bl	80a009a <_Znwj>
 80a0bec:	4606      	mov	r6, r0
 80a0bee:	b120      	cbz	r0, 80a0bfa <_Z10fuzzy_initv+0x7aa>
 80a0bf0:	464b      	mov	r3, r9
 80a0bf2:	4652      	mov	r2, sl
 80a0bf4:	2102      	movs	r1, #2
 80a0bf6:	f001 fb4f 	bl	80a2298 <_ZN9FuzzyRuleC1EiP19FuzzyRuleAntecedentP19FuzzyRuleConsequent>
  fuzzy->addFuzzyRule(fr2); 
 80a0bfa:	4ba8      	ldr	r3, [pc, #672]	; (80a0e9c <_Z10fuzzy_initv+0xa4c>)
 80a0bfc:	4631      	mov	r1, r6
 80a0bfe:	6818      	ldr	r0, [r3, #0]
 80a0c00:	f002 f8fc 	bl	80a2dfc <_ZN5Fuzzy12addFuzzyRuleEP9FuzzyRule>

  FuzzyRuleAntecedent* LHHM = new FuzzyRuleAntecedent();
 80a0c04:	2018      	movs	r0, #24
 80a0c06:	f7ff fa48 	bl	80a009a <_Znwj>
 80a0c0a:	4606      	mov	r6, r0
 80a0c0c:	b108      	cbz	r0, 80a0c12 <_Z10fuzzy_initv+0x7c2>
 80a0c0e:	f002 f955 	bl	80a2ebc <_ZN19FuzzyRuleAntecedentC1Ev>
  LHHM->joinWithAND(left_low_high, right_high_med);
 80a0c12:	9a0a      	ldr	r2, [sp, #40]	; 0x28
 80a0c14:	990c      	ldr	r1, [sp, #48]	; 0x30
 80a0c16:	4630      	mov	r0, r6
 80a0c18:	f002 f967 	bl	80a2eea <_ZN19FuzzyRuleAntecedent11joinWithANDEPS_S0_>
  FuzzyRule* fr3 = new FuzzyRule(3, LHHM, drive_center);
 80a0c1c:	2010      	movs	r0, #16
 80a0c1e:	f7ff fa3c 	bl	80a009a <_Znwj>
 80a0c22:	4682      	mov	sl, r0
 80a0c24:	b120      	cbz	r0, 80a0c30 <_Z10fuzzy_initv+0x7e0>
 80a0c26:	464b      	mov	r3, r9
 80a0c28:	4632      	mov	r2, r6
 80a0c2a:	2103      	movs	r1, #3
 80a0c2c:	f001 fb34 	bl	80a2298 <_ZN9FuzzyRuleC1EiP19FuzzyRuleAntecedentP19FuzzyRuleConsequent>
  fuzzy->addFuzzyRule(fr3);
 80a0c30:	4b9a      	ldr	r3, [pc, #616]	; (80a0e9c <_Z10fuzzy_initv+0xa4c>)
 80a0c32:	4651      	mov	r1, sl
 80a0c34:	6818      	ldr	r0, [r3, #0]
 80a0c36:	f002 f8e1 	bl	80a2dfc <_ZN5Fuzzy12addFuzzyRuleEP9FuzzyRule>

  FuzzyRuleAntecedent* LMML = new FuzzyRuleAntecedent();
 80a0c3a:	2018      	movs	r0, #24
 80a0c3c:	f7ff fa2d 	bl	80a009a <_Znwj>
 80a0c40:	4606      	mov	r6, r0
 80a0c42:	b108      	cbz	r0, 80a0c48 <_Z10fuzzy_initv+0x7f8>
 80a0c44:	f002 f93a 	bl	80a2ebc <_ZN19FuzzyRuleAntecedentC1Ev>
  LMML->joinWithAND(left_low_med, right_med_low);
 80a0c48:	463a      	mov	r2, r7
 80a0c4a:	9909      	ldr	r1, [sp, #36]	; 0x24
 80a0c4c:	4630      	mov	r0, r6
 80a0c4e:	f002 f94c 	bl	80a2eea <_ZN19FuzzyRuleAntecedent11joinWithANDEPS_S0_>
  FuzzyRule* fr4 = new FuzzyRule(4, LMML, drive_center);
 80a0c52:	2010      	movs	r0, #16
 80a0c54:	f7ff fa21 	bl	80a009a <_Znwj>
 80a0c58:	4682      	mov	sl, r0
 80a0c5a:	b120      	cbz	r0, 80a0c66 <_Z10fuzzy_initv+0x816>
 80a0c5c:	464b      	mov	r3, r9
 80a0c5e:	4632      	mov	r2, r6
 80a0c60:	2104      	movs	r1, #4
 80a0c62:	f001 fb19 	bl	80a2298 <_ZN9FuzzyRuleC1EiP19FuzzyRuleAntecedentP19FuzzyRuleConsequent>
  fuzzy->addFuzzyRule(fr4);
 80a0c66:	4b8d      	ldr	r3, [pc, #564]	; (80a0e9c <_Z10fuzzy_initv+0xa4c>)
 80a0c68:	4651      	mov	r1, sl
 80a0c6a:	6818      	ldr	r0, [r3, #0]
 80a0c6c:	f002 f8c6 	bl	80a2dfc <_ZN5Fuzzy12addFuzzyRuleEP9FuzzyRule>

  FuzzyRuleAntecedent* MMMM = new FuzzyRuleAntecedent();
 80a0c70:	2018      	movs	r0, #24
 80a0c72:	f7ff fa12 	bl	80a009a <_Znwj>
 80a0c76:	4606      	mov	r6, r0
 80a0c78:	b108      	cbz	r0, 80a0c7e <_Z10fuzzy_initv+0x82e>
 80a0c7a:	f002 f91f 	bl	80a2ebc <_ZN19FuzzyRuleAntecedentC1Ev>
  MMMM->joinWithAND(left_med_med, right_med_med);
 80a0c7e:	9a02      	ldr	r2, [sp, #8]
 80a0c80:	9906      	ldr	r1, [sp, #24]
 80a0c82:	4630      	mov	r0, r6
 80a0c84:	f002 f931 	bl	80a2eea <_ZN19FuzzyRuleAntecedent11joinWithANDEPS_S0_>
  FuzzyRule* fr5 = new FuzzyRule(5, MMMM, drive_center);
 80a0c88:	2010      	movs	r0, #16
 80a0c8a:	f7ff fa06 	bl	80a009a <_Znwj>
 80a0c8e:	4682      	mov	sl, r0
 80a0c90:	b120      	cbz	r0, 80a0c9c <_Z10fuzzy_initv+0x84c>
 80a0c92:	464b      	mov	r3, r9
 80a0c94:	4632      	mov	r2, r6
 80a0c96:	2105      	movs	r1, #5
 80a0c98:	f001 fafe 	bl	80a2298 <_ZN9FuzzyRuleC1EiP19FuzzyRuleAntecedentP19FuzzyRuleConsequent>
  fuzzy->addFuzzyRule(fr5);
 80a0c9c:	4b7f      	ldr	r3, [pc, #508]	; (80a0e9c <_Z10fuzzy_initv+0xa4c>)
 80a0c9e:	4651      	mov	r1, sl
 80a0ca0:	6818      	ldr	r0, [r3, #0]
 80a0ca2:	f002 f8ab 	bl	80a2dfc <_ZN5Fuzzy12addFuzzyRuleEP9FuzzyRule>

  FuzzyRuleAntecedent* HHLL = new FuzzyRuleAntecedent();
 80a0ca6:	2018      	movs	r0, #24
 80a0ca8:	f7ff f9f7 	bl	80a009a <_Znwj>
 80a0cac:	4606      	mov	r6, r0
 80a0cae:	b108      	cbz	r0, 80a0cb4 <_Z10fuzzy_initv+0x864>
 80a0cb0:	f002 f904 	bl	80a2ebc <_ZN19FuzzyRuleAntecedentC1Ev>
  HHLL->joinWithAND(left_high_high, right_low_low);
 80a0cb4:	462a      	mov	r2, r5
 80a0cb6:	990b      	ldr	r1, [sp, #44]	; 0x2c
 80a0cb8:	4630      	mov	r0, r6
 80a0cba:	f002 f916 	bl	80a2eea <_ZN19FuzzyRuleAntecedent11joinWithANDEPS_S0_>
  FuzzyRule* fr6 = new FuzzyRule(6, HHLL, drive_small_left);
 80a0cbe:	2010      	movs	r0, #16
 80a0cc0:	f7ff f9eb 	bl	80a009a <_Znwj>
 80a0cc4:	4681      	mov	r9, r0
 80a0cc6:	b120      	cbz	r0, 80a0cd2 <_Z10fuzzy_initv+0x882>
 80a0cc8:	4643      	mov	r3, r8
 80a0cca:	4632      	mov	r2, r6
 80a0ccc:	2106      	movs	r1, #6
 80a0cce:	f001 fae3 	bl	80a2298 <_ZN9FuzzyRuleC1EiP19FuzzyRuleAntecedentP19FuzzyRuleConsequent>
  fuzzy->addFuzzyRule(fr6);
 80a0cd2:	4b72      	ldr	r3, [pc, #456]	; (80a0e9c <_Z10fuzzy_initv+0xa4c>)
 80a0cd4:	4649      	mov	r1, r9
 80a0cd6:	6818      	ldr	r0, [r3, #0]
 80a0cd8:	f002 f890 	bl	80a2dfc <_ZN5Fuzzy12addFuzzyRuleEP9FuzzyRule>

  FuzzyRuleAntecedent* HHML = new FuzzyRuleAntecedent();
 80a0cdc:	2018      	movs	r0, #24
 80a0cde:	f7ff f9dc 	bl	80a009a <_Znwj>
 80a0ce2:	4606      	mov	r6, r0
 80a0ce4:	b108      	cbz	r0, 80a0cea <_Z10fuzzy_initv+0x89a>
 80a0ce6:	f002 f8e9 	bl	80a2ebc <_ZN19FuzzyRuleAntecedentC1Ev>
  HHML->joinWithAND(left_high_high, right_med_low);
 80a0cea:	463a      	mov	r2, r7
 80a0cec:	990b      	ldr	r1, [sp, #44]	; 0x2c
 80a0cee:	4630      	mov	r0, r6
 80a0cf0:	f002 f8fb 	bl	80a2eea <_ZN19FuzzyRuleAntecedent11joinWithANDEPS_S0_>
  FuzzyRule* fr7 = new FuzzyRule(6, HHML, drive_small_left);
 80a0cf4:	2010      	movs	r0, #16
 80a0cf6:	f7ff f9d0 	bl	80a009a <_Znwj>
 80a0cfa:	4681      	mov	r9, r0
 80a0cfc:	b120      	cbz	r0, 80a0d08 <_Z10fuzzy_initv+0x8b8>
 80a0cfe:	4643      	mov	r3, r8
 80a0d00:	4632      	mov	r2, r6
 80a0d02:	2106      	movs	r1, #6
 80a0d04:	f001 fac8 	bl	80a2298 <_ZN9FuzzyRuleC1EiP19FuzzyRuleAntecedentP19FuzzyRuleConsequent>
  fuzzy->addFuzzyRule(fr7);
 80a0d08:	4b64      	ldr	r3, [pc, #400]	; (80a0e9c <_Z10fuzzy_initv+0xa4c>)
 80a0d0a:	4649      	mov	r1, r9
 80a0d0c:	6818      	ldr	r0, [r3, #0]
 80a0d0e:	f002 f875 	bl	80a2dfc <_ZN5Fuzzy12addFuzzyRuleEP9FuzzyRule>

  FuzzyRuleAntecedent* HHMM = new FuzzyRuleAntecedent();
 80a0d12:	2018      	movs	r0, #24
 80a0d14:	f7ff f9c1 	bl	80a009a <_Znwj>
 80a0d18:	4606      	mov	r6, r0
 80a0d1a:	b108      	cbz	r0, 80a0d20 <_Z10fuzzy_initv+0x8d0>
 80a0d1c:	f002 f8ce 	bl	80a2ebc <_ZN19FuzzyRuleAntecedentC1Ev>
  HHMM->joinWithAND(left_high_high, right_med_med);
 80a0d20:	9a02      	ldr	r2, [sp, #8]
 80a0d22:	990b      	ldr	r1, [sp, #44]	; 0x2c
 80a0d24:	4630      	mov	r0, r6
 80a0d26:	f002 f8e0 	bl	80a2eea <_ZN19FuzzyRuleAntecedent11joinWithANDEPS_S0_>
  FuzzyRule* fr8 = new FuzzyRule(8, HHMM, drive_small_left);
 80a0d2a:	2010      	movs	r0, #16
 80a0d2c:	f7ff f9b5 	bl	80a009a <_Znwj>
 80a0d30:	4681      	mov	r9, r0
 80a0d32:	b120      	cbz	r0, 80a0d3e <_Z10fuzzy_initv+0x8ee>
 80a0d34:	4643      	mov	r3, r8
 80a0d36:	4632      	mov	r2, r6
 80a0d38:	2108      	movs	r1, #8
 80a0d3a:	f001 faad 	bl	80a2298 <_ZN9FuzzyRuleC1EiP19FuzzyRuleAntecedentP19FuzzyRuleConsequent>
  fuzzy->addFuzzyRule(fr8);
 80a0d3e:	4b57      	ldr	r3, [pc, #348]	; (80a0e9c <_Z10fuzzy_initv+0xa4c>)
 80a0d40:	4649      	mov	r1, r9
 80a0d42:	6818      	ldr	r0, [r3, #0]
 80a0d44:	f002 f85a 	bl	80a2dfc <_ZN5Fuzzy12addFuzzyRuleEP9FuzzyRule>

  FuzzyRuleAntecedent* MHMM = new FuzzyRuleAntecedent();
 80a0d48:	2018      	movs	r0, #24
 80a0d4a:	f7ff f9a6 	bl	80a009a <_Znwj>
 80a0d4e:	4606      	mov	r6, r0
 80a0d50:	b108      	cbz	r0, 80a0d56 <_Z10fuzzy_initv+0x906>
 80a0d52:	f002 f8b3 	bl	80a2ebc <_ZN19FuzzyRuleAntecedentC1Ev>
  MHMM->joinWithAND(left_med_high, right_med_med);
 80a0d56:	9a02      	ldr	r2, [sp, #8]
 80a0d58:	9908      	ldr	r1, [sp, #32]
 80a0d5a:	4630      	mov	r0, r6
 80a0d5c:	f002 f8c5 	bl	80a2eea <_ZN19FuzzyRuleAntecedent11joinWithANDEPS_S0_>
  FuzzyRule* fr9 = new FuzzyRule(9, MHMM, drive_small_left);
 80a0d60:	2010      	movs	r0, #16
 80a0d62:	f7ff f99a 	bl	80a009a <_Znwj>
 80a0d66:	4681      	mov	r9, r0
 80a0d68:	b120      	cbz	r0, 80a0d74 <_Z10fuzzy_initv+0x924>
 80a0d6a:	4643      	mov	r3, r8
 80a0d6c:	4632      	mov	r2, r6
 80a0d6e:	2109      	movs	r1, #9
 80a0d70:	f001 fa92 	bl	80a2298 <_ZN9FuzzyRuleC1EiP19FuzzyRuleAntecedentP19FuzzyRuleConsequent>
  fuzzy->addFuzzyRule(fr9);
 80a0d74:	4b49      	ldr	r3, [pc, #292]	; (80a0e9c <_Z10fuzzy_initv+0xa4c>)
 80a0d76:	4649      	mov	r1, r9
 80a0d78:	6818      	ldr	r0, [r3, #0]
 80a0d7a:	f002 f83f 	bl	80a2dfc <_ZN5Fuzzy12addFuzzyRuleEP9FuzzyRule>

  FuzzyRuleAntecedent* MHML = new FuzzyRuleAntecedent();
 80a0d7e:	2018      	movs	r0, #24
 80a0d80:	f7ff f98b 	bl	80a009a <_Znwj>
 80a0d84:	4606      	mov	r6, r0
 80a0d86:	b108      	cbz	r0, 80a0d8c <_Z10fuzzy_initv+0x93c>
 80a0d88:	f002 f898 	bl	80a2ebc <_ZN19FuzzyRuleAntecedentC1Ev>
  MHML->joinWithAND(left_med_high, right_med_low);
 80a0d8c:	463a      	mov	r2, r7
 80a0d8e:	9908      	ldr	r1, [sp, #32]
 80a0d90:	4630      	mov	r0, r6
 80a0d92:	f002 f8aa 	bl	80a2eea <_ZN19FuzzyRuleAntecedent11joinWithANDEPS_S0_>
  FuzzyRule* fr10 = new FuzzyRule(10, MHML, drive_small_left);
 80a0d96:	2010      	movs	r0, #16
 80a0d98:	f7ff f97f 	bl	80a009a <_Znwj>
 80a0d9c:	4681      	mov	r9, r0
 80a0d9e:	b120      	cbz	r0, 80a0daa <_Z10fuzzy_initv+0x95a>
 80a0da0:	4643      	mov	r3, r8
 80a0da2:	4632      	mov	r2, r6
 80a0da4:	210a      	movs	r1, #10
 80a0da6:	f001 fa77 	bl	80a2298 <_ZN9FuzzyRuleC1EiP19FuzzyRuleAntecedentP19FuzzyRuleConsequent>
  fuzzy->addFuzzyRule(fr10);
 80a0daa:	4b3c      	ldr	r3, [pc, #240]	; (80a0e9c <_Z10fuzzy_initv+0xa4c>)
 80a0dac:	4649      	mov	r1, r9
 80a0dae:	6818      	ldr	r0, [r3, #0]
 80a0db0:	f002 f824 	bl	80a2dfc <_ZN5Fuzzy12addFuzzyRuleEP9FuzzyRule>

  FuzzyRuleAntecedent* MHLL = new FuzzyRuleAntecedent();
 80a0db4:	2018      	movs	r0, #24
 80a0db6:	f7ff f970 	bl	80a009a <_Znwj>
 80a0dba:	4606      	mov	r6, r0
 80a0dbc:	b108      	cbz	r0, 80a0dc2 <_Z10fuzzy_initv+0x972>
 80a0dbe:	f002 f87d 	bl	80a2ebc <_ZN19FuzzyRuleAntecedentC1Ev>
  MHLL->joinWithAND(left_med_high, right_low_low);
 80a0dc2:	462a      	mov	r2, r5
 80a0dc4:	9908      	ldr	r1, [sp, #32]
 80a0dc6:	4630      	mov	r0, r6
 80a0dc8:	f002 f88f 	bl	80a2eea <_ZN19FuzzyRuleAntecedent11joinWithANDEPS_S0_>
  FuzzyRule* fr11 = new FuzzyRule(11, MHLL, drive_small_left);
 80a0dcc:	2010      	movs	r0, #16
 80a0dce:	f7ff f964 	bl	80a009a <_Znwj>
 80a0dd2:	4681      	mov	r9, r0
 80a0dd4:	b120      	cbz	r0, 80a0de0 <_Z10fuzzy_initv+0x990>
 80a0dd6:	4643      	mov	r3, r8
 80a0dd8:	4632      	mov	r2, r6
 80a0dda:	210b      	movs	r1, #11
 80a0ddc:	f001 fa5c 	bl	80a2298 <_ZN9FuzzyRuleC1EiP19FuzzyRuleAntecedentP19FuzzyRuleConsequent>
  fuzzy->addFuzzyRule(fr11);
 80a0de0:	4b2e      	ldr	r3, [pc, #184]	; (80a0e9c <_Z10fuzzy_initv+0xa4c>)
 80a0de2:	4649      	mov	r1, r9
 80a0de4:	6818      	ldr	r0, [r3, #0]
 80a0de6:	f002 f809 	bl	80a2dfc <_ZN5Fuzzy12addFuzzyRuleEP9FuzzyRule>

  FuzzyRuleAntecedent* MMML = new FuzzyRuleAntecedent();
 80a0dea:	2018      	movs	r0, #24
 80a0dec:	f7ff f955 	bl	80a009a <_Znwj>
 80a0df0:	4606      	mov	r6, r0
 80a0df2:	b108      	cbz	r0, 80a0df8 <_Z10fuzzy_initv+0x9a8>
 80a0df4:	f002 f862 	bl	80a2ebc <_ZN19FuzzyRuleAntecedentC1Ev>
  MMML->joinWithAND(left_med_med, right_med_low);
 80a0df8:	463a      	mov	r2, r7
 80a0dfa:	9906      	ldr	r1, [sp, #24]
 80a0dfc:	4630      	mov	r0, r6
 80a0dfe:	f002 f874 	bl	80a2eea <_ZN19FuzzyRuleAntecedent11joinWithANDEPS_S0_>
  FuzzyRule* fr12 = new FuzzyRule(12, MMML, drive_small_left);
 80a0e02:	2010      	movs	r0, #16
 80a0e04:	f7ff f949 	bl	80a009a <_Znwj>
 80a0e08:	4607      	mov	r7, r0
 80a0e0a:	b120      	cbz	r0, 80a0e16 <_Z10fuzzy_initv+0x9c6>
 80a0e0c:	4643      	mov	r3, r8
 80a0e0e:	4632      	mov	r2, r6
 80a0e10:	210c      	movs	r1, #12
 80a0e12:	f001 fa41 	bl	80a2298 <_ZN9FuzzyRuleC1EiP19FuzzyRuleAntecedentP19FuzzyRuleConsequent>
  fuzzy->addFuzzyRule(fr12);
 80a0e16:	4b21      	ldr	r3, [pc, #132]	; (80a0e9c <_Z10fuzzy_initv+0xa4c>)
 80a0e18:	4639      	mov	r1, r7
 80a0e1a:	6818      	ldr	r0, [r3, #0]
 80a0e1c:	f001 ffee 	bl	80a2dfc <_ZN5Fuzzy12addFuzzyRuleEP9FuzzyRule>

  FuzzyRuleAntecedent* MMLL = new FuzzyRuleAntecedent();
 80a0e20:	2018      	movs	r0, #24
 80a0e22:	f7ff f93a 	bl	80a009a <_Znwj>
 80a0e26:	4606      	mov	r6, r0
 80a0e28:	b108      	cbz	r0, 80a0e2e <_Z10fuzzy_initv+0x9de>
 80a0e2a:	f002 f847 	bl	80a2ebc <_ZN19FuzzyRuleAntecedentC1Ev>
  MMLL->joinWithAND(left_med_med, right_low_low);
 80a0e2e:	462a      	mov	r2, r5
 80a0e30:	9906      	ldr	r1, [sp, #24]
 80a0e32:	4630      	mov	r0, r6
 80a0e34:	f002 f859 	bl	80a2eea <_ZN19FuzzyRuleAntecedent11joinWithANDEPS_S0_>
  FuzzyRule* fr13 = new FuzzyRule(13, MMLL, drive_small_left);
 80a0e38:	2010      	movs	r0, #16
 80a0e3a:	f7ff f92e 	bl	80a009a <_Znwj>
 80a0e3e:	4607      	mov	r7, r0
 80a0e40:	b120      	cbz	r0, 80a0e4c <_Z10fuzzy_initv+0x9fc>
 80a0e42:	4643      	mov	r3, r8
 80a0e44:	4632      	mov	r2, r6
 80a0e46:	210d      	movs	r1, #13
 80a0e48:	f001 fa26 	bl	80a2298 <_ZN9FuzzyRuleC1EiP19FuzzyRuleAntecedentP19FuzzyRuleConsequent>
  fuzzy->addFuzzyRule(fr13);
 80a0e4c:	4b13      	ldr	r3, [pc, #76]	; (80a0e9c <_Z10fuzzy_initv+0xa4c>)
 80a0e4e:	4639      	mov	r1, r7
 80a0e50:	6818      	ldr	r0, [r3, #0]
 80a0e52:	f001 ffd3 	bl	80a2dfc <_ZN5Fuzzy12addFuzzyRuleEP9FuzzyRule>

  FuzzyRuleAntecedent* HMLL = new FuzzyRuleAntecedent();
 80a0e56:	2018      	movs	r0, #24
 80a0e58:	f7ff f91f 	bl	80a009a <_Znwj>
 80a0e5c:	4606      	mov	r6, r0
 80a0e5e:	b108      	cbz	r0, 80a0e64 <_Z10fuzzy_initv+0xa14>
 80a0e60:	f002 f82c 	bl	80a2ebc <_ZN19FuzzyRuleAntecedentC1Ev>
  HMLL->joinWithAND(left_high_med, right_low_low);
 80a0e64:	462a      	mov	r2, r5
 80a0e66:	9912      	ldr	r1, [sp, #72]	; 0x48
 80a0e68:	4630      	mov	r0, r6
 80a0e6a:	f002 f83e 	bl	80a2eea <_ZN19FuzzyRuleAntecedent11joinWithANDEPS_S0_>
  FuzzyRule* fr14 = new FuzzyRule(14, HMLL, drive_small_left);
 80a0e6e:	2010      	movs	r0, #16
 80a0e70:	f7ff f913 	bl	80a009a <_Znwj>
 80a0e74:	4607      	mov	r7, r0
 80a0e76:	b120      	cbz	r0, 80a0e82 <_Z10fuzzy_initv+0xa32>
 80a0e78:	4643      	mov	r3, r8
 80a0e7a:	4632      	mov	r2, r6
 80a0e7c:	210e      	movs	r1, #14
 80a0e7e:	f001 fa0b 	bl	80a2298 <_ZN9FuzzyRuleC1EiP19FuzzyRuleAntecedentP19FuzzyRuleConsequent>
  fuzzy->addFuzzyRule(fr14);
 80a0e82:	4b06      	ldr	r3, [pc, #24]	; (80a0e9c <_Z10fuzzy_initv+0xa4c>)
 80a0e84:	4639      	mov	r1, r7
 80a0e86:	6818      	ldr	r0, [r3, #0]
 80a0e88:	f001 ffb8 	bl	80a2dfc <_ZN5Fuzzy12addFuzzyRuleEP9FuzzyRule>

  FuzzyRuleAntecedent* MLLL = new FuzzyRuleAntecedent();
 80a0e8c:	2018      	movs	r0, #24
 80a0e8e:	f7ff f904 	bl	80a009a <_Znwj>
 80a0e92:	4606      	mov	r6, r0
 80a0e94:	b120      	cbz	r0, 80a0ea0 <_Z10fuzzy_initv+0xa50>
 80a0e96:	f002 f811 	bl	80a2ebc <_ZN19FuzzyRuleAntecedentC1Ev>
 80a0e9a:	e001      	b.n	80a0ea0 <_Z10fuzzy_initv+0xa50>
 80a0e9c:	20000390 	.word	0x20000390
  MLLL->joinWithAND(left_med_low, right_low_low);
 80a0ea0:	462a      	mov	r2, r5
 80a0ea2:	9913      	ldr	r1, [sp, #76]	; 0x4c
 80a0ea4:	4630      	mov	r0, r6
 80a0ea6:	f002 f820 	bl	80a2eea <_ZN19FuzzyRuleAntecedent11joinWithANDEPS_S0_>
  FuzzyRule* fr15 = new FuzzyRule(15, MLLL, drive_small_left);
 80a0eaa:	2010      	movs	r0, #16
 80a0eac:	f7ff f8f5 	bl	80a009a <_Znwj>
 80a0eb0:	4607      	mov	r7, r0
 80a0eb2:	b120      	cbz	r0, 80a0ebe <_Z10fuzzy_initv+0xa6e>
 80a0eb4:	4643      	mov	r3, r8
 80a0eb6:	4632      	mov	r2, r6
 80a0eb8:	210f      	movs	r1, #15
 80a0eba:	f001 f9ed 	bl	80a2298 <_ZN9FuzzyRuleC1EiP19FuzzyRuleAntecedentP19FuzzyRuleConsequent>
  fuzzy->addFuzzyRule(fr15);
 80a0ebe:	4ea0      	ldr	r6, [pc, #640]	; (80a1140 <_Z10fuzzy_initv+0xcf0>)
 80a0ec0:	4639      	mov	r1, r7
 80a0ec2:	6830      	ldr	r0, [r6, #0]
 80a0ec4:	f001 ff9a 	bl	80a2dfc <_ZN5Fuzzy12addFuzzyRuleEP9FuzzyRule>

  FuzzyRuleAntecedent* HLLL = new FuzzyRuleAntecedent();
 80a0ec8:	2018      	movs	r0, #24
 80a0eca:	f7ff f8e6 	bl	80a009a <_Znwj>
 80a0ece:	4607      	mov	r7, r0
 80a0ed0:	b108      	cbz	r0, 80a0ed6 <_Z10fuzzy_initv+0xa86>
 80a0ed2:	f001 fff3 	bl	80a2ebc <_ZN19FuzzyRuleAntecedentC1Ev>
  HLLL->joinWithAND(left_high_low, right_low_low);
 80a0ed6:	462a      	mov	r2, r5
 80a0ed8:	9914      	ldr	r1, [sp, #80]	; 0x50
 80a0eda:	4638      	mov	r0, r7
 80a0edc:	f002 f805 	bl	80a2eea <_ZN19FuzzyRuleAntecedent11joinWithANDEPS_S0_>
  FuzzyRule* fr16 = new FuzzyRule(16, HLLL, drive_full_left);
 80a0ee0:	2010      	movs	r0, #16
 80a0ee2:	f7ff f8da 	bl	80a009a <_Znwj>
 80a0ee6:	4605      	mov	r5, r0
 80a0ee8:	b120      	cbz	r0, 80a0ef4 <_Z10fuzzy_initv+0xaa4>
 80a0eea:	9b04      	ldr	r3, [sp, #16]
 80a0eec:	463a      	mov	r2, r7
 80a0eee:	2110      	movs	r1, #16
 80a0ef0:	f001 f9d2 	bl	80a2298 <_ZN9FuzzyRuleC1EiP19FuzzyRuleAntecedentP19FuzzyRuleConsequent>
  fuzzy->addFuzzyRule(fr16);
 80a0ef4:	4629      	mov	r1, r5
 80a0ef6:	6830      	ldr	r0, [r6, #0]
 80a0ef8:	f001 ff80 	bl	80a2dfc <_ZN5Fuzzy12addFuzzyRuleEP9FuzzyRule>

  FuzzyRuleAntecedent* LLLH = new FuzzyRuleAntecedent();
 80a0efc:	2018      	movs	r0, #24
 80a0efe:	f7ff f8cc 	bl	80a009a <_Znwj>
 80a0f02:	4605      	mov	r5, r0
 80a0f04:	b108      	cbz	r0, 80a0f0a <_Z10fuzzy_initv+0xaba>
 80a0f06:	f001 ffd9 	bl	80a2ebc <_ZN19FuzzyRuleAntecedentC1Ev>
  LLLH->joinWithAND(left_low_low, right_low_high);
 80a0f0a:	9a05      	ldr	r2, [sp, #20]
 80a0f0c:	4659      	mov	r1, fp
 80a0f0e:	4628      	mov	r0, r5
 80a0f10:	f001 ffeb 	bl	80a2eea <_ZN19FuzzyRuleAntecedent11joinWithANDEPS_S0_>
  FuzzyRule* fr17 = new FuzzyRule(17, LLLH, drive_full_right);
 80a0f14:	2010      	movs	r0, #16
 80a0f16:	f7ff f8c0 	bl	80a009a <_Znwj>
 80a0f1a:	4606      	mov	r6, r0
 80a0f1c:	b120      	cbz	r0, 80a0f28 <_Z10fuzzy_initv+0xad8>
 80a0f1e:	9b0d      	ldr	r3, [sp, #52]	; 0x34
 80a0f20:	462a      	mov	r2, r5
 80a0f22:	2111      	movs	r1, #17
 80a0f24:	f001 f9b8 	bl	80a2298 <_ZN9FuzzyRuleC1EiP19FuzzyRuleAntecedentP19FuzzyRuleConsequent>
  fuzzy->addFuzzyRule(fr17);
 80a0f28:	4d85      	ldr	r5, [pc, #532]	; (80a1140 <_Z10fuzzy_initv+0xcf0>)
 80a0f2a:	4631      	mov	r1, r6
 80a0f2c:	6828      	ldr	r0, [r5, #0]
 80a0f2e:	f001 ff65 	bl	80a2dfc <_ZN5Fuzzy12addFuzzyRuleEP9FuzzyRule>

  FuzzyRuleAntecedent* LLHH = new FuzzyRuleAntecedent();
 80a0f32:	2018      	movs	r0, #24
 80a0f34:	f7ff f8b1 	bl	80a009a <_Znwj>
 80a0f38:	4606      	mov	r6, r0
 80a0f3a:	b108      	cbz	r0, 80a0f40 <_Z10fuzzy_initv+0xaf0>
 80a0f3c:	f001 ffbe 	bl	80a2ebc <_ZN19FuzzyRuleAntecedentC1Ev>
  LLHH->joinWithAND(left_low_low, right_high_high);
 80a0f40:	9a03      	ldr	r2, [sp, #12]
 80a0f42:	4659      	mov	r1, fp
 80a0f44:	4630      	mov	r0, r6
 80a0f46:	f001 ffd0 	bl	80a2eea <_ZN19FuzzyRuleAntecedent11joinWithANDEPS_S0_>
  FuzzyRule* fr18 = new FuzzyRule(18, LLHH, drive_small_right);
 80a0f4a:	2010      	movs	r0, #16
 80a0f4c:	f7ff f8a5 	bl	80a009a <_Znwj>
 80a0f50:	4607      	mov	r7, r0
 80a0f52:	b120      	cbz	r0, 80a0f5e <_Z10fuzzy_initv+0xb0e>
 80a0f54:	4623      	mov	r3, r4
 80a0f56:	4632      	mov	r2, r6
 80a0f58:	2112      	movs	r1, #18
 80a0f5a:	f001 f99d 	bl	80a2298 <_ZN9FuzzyRuleC1EiP19FuzzyRuleAntecedentP19FuzzyRuleConsequent>
  fuzzy->addFuzzyRule(fr18);
 80a0f5e:	4639      	mov	r1, r7
 80a0f60:	6828      	ldr	r0, [r5, #0]
 80a0f62:	f001 ff4b 	bl	80a2dfc <_ZN5Fuzzy12addFuzzyRuleEP9FuzzyRule>

  FuzzyRuleAntecedent* LMHH = new FuzzyRuleAntecedent();
 80a0f66:	2018      	movs	r0, #24
 80a0f68:	f7ff f897 	bl	80a009a <_Znwj>
 80a0f6c:	4606      	mov	r6, r0
 80a0f6e:	b108      	cbz	r0, 80a0f74 <_Z10fuzzy_initv+0xb24>
 80a0f70:	f001 ffa4 	bl	80a2ebc <_ZN19FuzzyRuleAntecedentC1Ev>
  LMHH->joinWithAND(left_low_med, right_high_high);
 80a0f74:	9a03      	ldr	r2, [sp, #12]
 80a0f76:	9909      	ldr	r1, [sp, #36]	; 0x24
 80a0f78:	4630      	mov	r0, r6
 80a0f7a:	f001 ffb6 	bl	80a2eea <_ZN19FuzzyRuleAntecedent11joinWithANDEPS_S0_>
  FuzzyRule* fr19 = new FuzzyRule(19, LMHH, drive_small_right);
 80a0f7e:	2010      	movs	r0, #16
 80a0f80:	f7ff f88b 	bl	80a009a <_Znwj>
 80a0f84:	4607      	mov	r7, r0
 80a0f86:	b120      	cbz	r0, 80a0f92 <_Z10fuzzy_initv+0xb42>
 80a0f88:	4623      	mov	r3, r4
 80a0f8a:	4632      	mov	r2, r6
 80a0f8c:	2113      	movs	r1, #19
 80a0f8e:	f001 f983 	bl	80a2298 <_ZN9FuzzyRuleC1EiP19FuzzyRuleAntecedentP19FuzzyRuleConsequent>
  fuzzy->addFuzzyRule(fr19);
 80a0f92:	4639      	mov	r1, r7
 80a0f94:	6828      	ldr	r0, [r5, #0]
 80a0f96:	f001 ff31 	bl	80a2dfc <_ZN5Fuzzy12addFuzzyRuleEP9FuzzyRule>

  FuzzyRuleAntecedent* MMHH = new FuzzyRuleAntecedent();
 80a0f9a:	2018      	movs	r0, #24
 80a0f9c:	f7ff f87d 	bl	80a009a <_Znwj>
 80a0fa0:	4606      	mov	r6, r0
 80a0fa2:	b108      	cbz	r0, 80a0fa8 <_Z10fuzzy_initv+0xb58>
 80a0fa4:	f001 ff8a 	bl	80a2ebc <_ZN19FuzzyRuleAntecedentC1Ev>
  MMHH->joinWithAND(left_med_med, right_high_high);
 80a0fa8:	9a03      	ldr	r2, [sp, #12]
 80a0faa:	9906      	ldr	r1, [sp, #24]
 80a0fac:	4630      	mov	r0, r6
 80a0fae:	f001 ff9c 	bl	80a2eea <_ZN19FuzzyRuleAntecedent11joinWithANDEPS_S0_>
  FuzzyRule* fr20 = new FuzzyRule(20, MMHH, drive_small_right);
 80a0fb2:	2010      	movs	r0, #16
 80a0fb4:	f7ff f871 	bl	80a009a <_Znwj>
 80a0fb8:	4607      	mov	r7, r0
 80a0fba:	b120      	cbz	r0, 80a0fc6 <_Z10fuzzy_initv+0xb76>
 80a0fbc:	4623      	mov	r3, r4
 80a0fbe:	4632      	mov	r2, r6
 80a0fc0:	2114      	movs	r1, #20
 80a0fc2:	f001 f969 	bl	80a2298 <_ZN9FuzzyRuleC1EiP19FuzzyRuleAntecedentP19FuzzyRuleConsequent>
  fuzzy->addFuzzyRule(fr20);
 80a0fc6:	4639      	mov	r1, r7
 80a0fc8:	6828      	ldr	r0, [r5, #0]
 80a0fca:	f001 ff17 	bl	80a2dfc <_ZN5Fuzzy12addFuzzyRuleEP9FuzzyRule>

  FuzzyRuleAntecedent* MMHM = new FuzzyRuleAntecedent();
 80a0fce:	2018      	movs	r0, #24
 80a0fd0:	f7ff f863 	bl	80a009a <_Znwj>
 80a0fd4:	4606      	mov	r6, r0
 80a0fd6:	b108      	cbz	r0, 80a0fdc <_Z10fuzzy_initv+0xb8c>
 80a0fd8:	f001 ff70 	bl	80a2ebc <_ZN19FuzzyRuleAntecedentC1Ev>
  MMHM->joinWithAND(left_med_med, right_high_med);
 80a0fdc:	9a0a      	ldr	r2, [sp, #40]	; 0x28
 80a0fde:	9906      	ldr	r1, [sp, #24]
 80a0fe0:	4630      	mov	r0, r6
 80a0fe2:	f001 ff82 	bl	80a2eea <_ZN19FuzzyRuleAntecedent11joinWithANDEPS_S0_>
  FuzzyRule* fr21 = new FuzzyRule(21, MMHM, drive_small_right);
 80a0fe6:	2010      	movs	r0, #16
 80a0fe8:	f7ff f857 	bl	80a009a <_Znwj>
 80a0fec:	4607      	mov	r7, r0
 80a0fee:	b120      	cbz	r0, 80a0ffa <_Z10fuzzy_initv+0xbaa>
 80a0ff0:	4623      	mov	r3, r4
 80a0ff2:	4632      	mov	r2, r6
 80a0ff4:	2115      	movs	r1, #21
 80a0ff6:	f001 f94f 	bl	80a2298 <_ZN9FuzzyRuleC1EiP19FuzzyRuleAntecedentP19FuzzyRuleConsequent>
  fuzzy->addFuzzyRule(fr21);
 80a0ffa:	4639      	mov	r1, r7
 80a0ffc:	6828      	ldr	r0, [r5, #0]
 80a0ffe:	f001 fefd 	bl	80a2dfc <_ZN5Fuzzy12addFuzzyRuleEP9FuzzyRule>

  FuzzyRuleAntecedent* LMHM = new FuzzyRuleAntecedent();
 80a1002:	2018      	movs	r0, #24
 80a1004:	f7ff f849 	bl	80a009a <_Znwj>
 80a1008:	4606      	mov	r6, r0
 80a100a:	b108      	cbz	r0, 80a1010 <_Z10fuzzy_initv+0xbc0>
 80a100c:	f001 ff56 	bl	80a2ebc <_ZN19FuzzyRuleAntecedentC1Ev>
  LMHM->joinWithAND(left_low_med, right_high_med);
 80a1010:	9a0a      	ldr	r2, [sp, #40]	; 0x28
 80a1012:	9909      	ldr	r1, [sp, #36]	; 0x24
 80a1014:	4630      	mov	r0, r6
 80a1016:	f001 ff68 	bl	80a2eea <_ZN19FuzzyRuleAntecedent11joinWithANDEPS_S0_>
  FuzzyRule* fr22 = new FuzzyRule(22, LMHM, drive_small_right);
 80a101a:	2010      	movs	r0, #16
 80a101c:	f7ff f83d 	bl	80a009a <_Znwj>
 80a1020:	4607      	mov	r7, r0
 80a1022:	b120      	cbz	r0, 80a102e <_Z10fuzzy_initv+0xbde>
 80a1024:	4623      	mov	r3, r4
 80a1026:	4632      	mov	r2, r6
 80a1028:	2116      	movs	r1, #22
 80a102a:	f001 f935 	bl	80a2298 <_ZN9FuzzyRuleC1EiP19FuzzyRuleAntecedentP19FuzzyRuleConsequent>
  fuzzy->addFuzzyRule(fr22);
 80a102e:	4639      	mov	r1, r7
 80a1030:	6828      	ldr	r0, [r5, #0]
 80a1032:	f001 fee3 	bl	80a2dfc <_ZN5Fuzzy12addFuzzyRuleEP9FuzzyRule>

  FuzzyRuleAntecedent* LLHM = new FuzzyRuleAntecedent();
 80a1036:	2018      	movs	r0, #24
 80a1038:	f7ff f82f 	bl	80a009a <_Znwj>
 80a103c:	4606      	mov	r6, r0
 80a103e:	b108      	cbz	r0, 80a1044 <_Z10fuzzy_initv+0xbf4>
 80a1040:	f001 ff3c 	bl	80a2ebc <_ZN19FuzzyRuleAntecedentC1Ev>
  LLHM->joinWithAND(left_low_low, right_high_med);
 80a1044:	9a0a      	ldr	r2, [sp, #40]	; 0x28
 80a1046:	4659      	mov	r1, fp
 80a1048:	4630      	mov	r0, r6
 80a104a:	f001 ff4e 	bl	80a2eea <_ZN19FuzzyRuleAntecedent11joinWithANDEPS_S0_>
  FuzzyRule* fr23 = new FuzzyRule(23, LLHM, drive_small_right);
 80a104e:	2010      	movs	r0, #16
 80a1050:	f7ff f823 	bl	80a009a <_Znwj>
 80a1054:	4607      	mov	r7, r0
 80a1056:	b120      	cbz	r0, 80a1062 <_Z10fuzzy_initv+0xc12>
 80a1058:	4623      	mov	r3, r4
 80a105a:	4632      	mov	r2, r6
 80a105c:	2117      	movs	r1, #23
 80a105e:	f001 f91b 	bl	80a2298 <_ZN9FuzzyRuleC1EiP19FuzzyRuleAntecedentP19FuzzyRuleConsequent>
  fuzzy->addFuzzyRule(fr23);
 80a1062:	4639      	mov	r1, r7
 80a1064:	6828      	ldr	r0, [r5, #0]
 80a1066:	f001 fec9 	bl	80a2dfc <_ZN5Fuzzy12addFuzzyRuleEP9FuzzyRule>

  FuzzyRuleAntecedent* LMMM = new FuzzyRuleAntecedent();
 80a106a:	2018      	movs	r0, #24
 80a106c:	f7ff f815 	bl	80a009a <_Znwj>
 80a1070:	4606      	mov	r6, r0
 80a1072:	b108      	cbz	r0, 80a1078 <_Z10fuzzy_initv+0xc28>
 80a1074:	f001 ff22 	bl	80a2ebc <_ZN19FuzzyRuleAntecedentC1Ev>
  LMMM->joinWithAND(left_low_med, right_med_med);
 80a1078:	9a02      	ldr	r2, [sp, #8]
 80a107a:	9909      	ldr	r1, [sp, #36]	; 0x24
 80a107c:	4630      	mov	r0, r6
 80a107e:	f001 ff34 	bl	80a2eea <_ZN19FuzzyRuleAntecedent11joinWithANDEPS_S0_>
  FuzzyRule* fr24 = new FuzzyRule(24, LMMM, drive_small_right);
 80a1082:	2010      	movs	r0, #16
 80a1084:	f7ff f809 	bl	80a009a <_Znwj>
 80a1088:	4607      	mov	r7, r0
 80a108a:	b120      	cbz	r0, 80a1096 <_Z10fuzzy_initv+0xc46>
 80a108c:	4623      	mov	r3, r4
 80a108e:	4632      	mov	r2, r6
 80a1090:	2118      	movs	r1, #24
 80a1092:	f001 f901 	bl	80a2298 <_ZN9FuzzyRuleC1EiP19FuzzyRuleAntecedentP19FuzzyRuleConsequent>
  fuzzy->addFuzzyRule(fr24);
 80a1096:	4639      	mov	r1, r7
 80a1098:	6828      	ldr	r0, [r5, #0]
 80a109a:	f001 feaf 	bl	80a2dfc <_ZN5Fuzzy12addFuzzyRuleEP9FuzzyRule>

  FuzzyRuleAntecedent* LLMM = new FuzzyRuleAntecedent();
 80a109e:	2018      	movs	r0, #24
 80a10a0:	f7fe fffb 	bl	80a009a <_Znwj>
 80a10a4:	4606      	mov	r6, r0
 80a10a6:	b108      	cbz	r0, 80a10ac <_Z10fuzzy_initv+0xc5c>
 80a10a8:	f001 ff08 	bl	80a2ebc <_ZN19FuzzyRuleAntecedentC1Ev>
  LLMM->joinWithAND(left_low_low, right_med_med);
 80a10ac:	9a02      	ldr	r2, [sp, #8]
 80a10ae:	4659      	mov	r1, fp
 80a10b0:	4630      	mov	r0, r6
 80a10b2:	f001 ff1a 	bl	80a2eea <_ZN19FuzzyRuleAntecedent11joinWithANDEPS_S0_>
  FuzzyRule* fr25 = new FuzzyRule(25, LLMM, drive_small_right);
 80a10b6:	2010      	movs	r0, #16
 80a10b8:	f7fe ffef 	bl	80a009a <_Znwj>
 80a10bc:	4607      	mov	r7, r0
 80a10be:	b120      	cbz	r0, 80a10ca <_Z10fuzzy_initv+0xc7a>
 80a10c0:	4623      	mov	r3, r4
 80a10c2:	4632      	mov	r2, r6
 80a10c4:	2119      	movs	r1, #25
 80a10c6:	f001 f8e7 	bl	80a2298 <_ZN9FuzzyRuleC1EiP19FuzzyRuleAntecedentP19FuzzyRuleConsequent>
  fuzzy->addFuzzyRule(fr25);
 80a10ca:	4639      	mov	r1, r7
 80a10cc:	6828      	ldr	r0, [r5, #0]
 80a10ce:	f001 fe95 	bl	80a2dfc <_ZN5Fuzzy12addFuzzyRuleEP9FuzzyRule>

  FuzzyRuleAntecedent* LLMH = new FuzzyRuleAntecedent();
 80a10d2:	2018      	movs	r0, #24
 80a10d4:	f7fe ffe1 	bl	80a009a <_Znwj>
 80a10d8:	4606      	mov	r6, r0
 80a10da:	b108      	cbz	r0, 80a10e0 <_Z10fuzzy_initv+0xc90>
 80a10dc:	f001 feee 	bl	80a2ebc <_ZN19FuzzyRuleAntecedentC1Ev>
  LLMH->joinWithAND(left_low_low, right_med_high);
 80a10e0:	9a07      	ldr	r2, [sp, #28]
 80a10e2:	4659      	mov	r1, fp
 80a10e4:	4630      	mov	r0, r6
 80a10e6:	f001 ff00 	bl	80a2eea <_ZN19FuzzyRuleAntecedent11joinWithANDEPS_S0_>
  FuzzyRule* fr26 = new FuzzyRule(26, LLMH, drive_small_right);
 80a10ea:	2010      	movs	r0, #16
 80a10ec:	f7fe ffd5 	bl	80a009a <_Znwj>
 80a10f0:	4607      	mov	r7, r0
 80a10f2:	b120      	cbz	r0, 80a10fe <_Z10fuzzy_initv+0xcae>
 80a10f4:	4623      	mov	r3, r4
 80a10f6:	4632      	mov	r2, r6
 80a10f8:	211a      	movs	r1, #26
 80a10fa:	f001 f8cd 	bl	80a2298 <_ZN9FuzzyRuleC1EiP19FuzzyRuleAntecedentP19FuzzyRuleConsequent>
  fuzzy->addFuzzyRule(fr26);
 80a10fe:	4639      	mov	r1, r7
 80a1100:	6828      	ldr	r0, [r5, #0]
 80a1102:	f001 fe7b 	bl	80a2dfc <_ZN5Fuzzy12addFuzzyRuleEP9FuzzyRule>

  FuzzyRuleAntecedent* LLLM = new FuzzyRuleAntecedent();
 80a1106:	2018      	movs	r0, #24
 80a1108:	f7fe ffc7 	bl	80a009a <_Znwj>
 80a110c:	4606      	mov	r6, r0
 80a110e:	b108      	cbz	r0, 80a1114 <_Z10fuzzy_initv+0xcc4>
 80a1110:	f001 fed4 	bl	80a2ebc <_ZN19FuzzyRuleAntecedentC1Ev>
  LLLM->joinWithAND(left_low_low, right_low_med);
 80a1114:	9a15      	ldr	r2, [sp, #84]	; 0x54
 80a1116:	4659      	mov	r1, fp
 80a1118:	4630      	mov	r0, r6
 80a111a:	f001 fee6 	bl	80a2eea <_ZN19FuzzyRuleAntecedent11joinWithANDEPS_S0_>
  FuzzyRule* fr27 = new FuzzyRule(27, LLLM, drive_small_right);
 80a111e:	2010      	movs	r0, #16
 80a1120:	f7fe ffbb 	bl	80a009a <_Znwj>
 80a1124:	4607      	mov	r7, r0
 80a1126:	b120      	cbz	r0, 80a1132 <_Z10fuzzy_initv+0xce2>
 80a1128:	4623      	mov	r3, r4
 80a112a:	4632      	mov	r2, r6
 80a112c:	211b      	movs	r1, #27
 80a112e:	f001 f8b3 	bl	80a2298 <_ZN9FuzzyRuleC1EiP19FuzzyRuleAntecedentP19FuzzyRuleConsequent>
  fuzzy->addFuzzyRule(fr27);
 80a1132:	4639      	mov	r1, r7
 80a1134:	6828      	ldr	r0, [r5, #0]
}
 80a1136:	b017      	add	sp, #92	; 0x5c
 80a1138:	e8bd 4ff0 	ldmia.w	sp!, {r4, r5, r6, r7, r8, r9, sl, fp, lr}
  fuzzy->addFuzzyRule(fr26);

  FuzzyRuleAntecedent* LLLM = new FuzzyRuleAntecedent();
  LLLM->joinWithAND(left_low_low, right_low_med);
  FuzzyRule* fr27 = new FuzzyRule(27, LLLM, drive_small_right);
  fuzzy->addFuzzyRule(fr27);
 80a113c:	f001 be5e 	b.w	80a2dfc <_ZN5Fuzzy12addFuzzyRuleEP9FuzzyRule>
 80a1140:	20000390 	.word	0x20000390

080a1144 <setup>:

int distance = 8192;
int L_command = 1500;
int R_command = 1500;

void setup() {
 80a1144:	b538      	push	{r3, r4, r5, lr}
	tof_init();			// ToF and I2C
 80a1146:	f7ff f805 	bl	80a0154 <_Z8tof_initv>
	accel_init();		// accelerometer
 80a114a:	f7ff f8b7 	bl	80a02bc <_Z10accel_initv>
	others_init();		// line, remote, esc, ***printing***
 80a114e:	f7ff f8cf 	bl	80a02f0 <_Z11others_initv>
	interrupt_init();	// interrupts for lines and remote
 80a1152:	f7ff f907 	bl	80a0364 <_Z14interrupt_initv>
	ESC_init();			// Car ESCs
 80a1156:	f7ff f94b 	bl	80a03f0 <_Z8ESC_initv>
	// Particle.variable("distance", distance);
	// Particle.variable("Left_ESC", L_command);
	// Particle.variable("Right_ESC", R_command);
	// *********************************************

    while(!RSflag) {  // initial LOW
 80a115a:	4c14      	ldr	r4, [pc, #80]	; (80a11ac <setup+0x68>)
 80a115c:	7823      	ldrb	r3, [r4, #0]
 80a115e:	b92b      	cbnz	r3, 80a116c <setup+0x28>
    	Serial.println("Waiting for Start");
 80a1160:	f002 ff5e 	bl	80a4020 <_Z16_fetch_usbserialv>
 80a1164:	4912      	ldr	r1, [pc, #72]	; (80a11b0 <setup+0x6c>)
 80a1166:	f002 fa2b 	bl	80a35c0 <_ZN5Print7printlnEPKc>
	// Particle.variable("distance", distance);
	// Particle.variable("Left_ESC", L_command);
	// Particle.variable("Right_ESC", R_command);
	// *********************************************

    while(!RSflag) {  // initial LOW
 80a116a:	e7f7      	b.n	80a115c <setup+0x18>
    	Serial.println("Waiting for Start");
    	// Particle.publish("Waiting for Start");
  	}
  	Serial.println("Starting in 5 seconds...");
 80a116c:	f002 ff58 	bl	80a4020 <_Z16_fetch_usbserialv>
 80a1170:	4910      	ldr	r1, [pc, #64]	; (80a11b4 <setup+0x70>)
 80a1172:	f002 fa25 	bl	80a35c0 <_ZN5Print7printlnEPKc>
  	// Particle.publish("Starting in 5 seconds...");
  	delay(5000);
 80a1176:	f241 3088 	movw	r0, #5000	; 0x1388
 80a117a:	f002 fbab 	bl	80a38d4 <delay>
  	Serial.println("GO!");
 80a117e:	f002 ff4f 	bl	80a4020 <_Z16_fetch_usbserialv>
 80a1182:	490d      	ldr	r1, [pc, #52]	; (80a11b8 <setup+0x74>)
 80a1184:	f002 fa1c 	bl	80a35c0 <_ZN5Print7printlnEPKc>
#endif

#include "timer_hal.h"
#include "delay_hal.h"

inline system_tick_t millis(void) { return HAL_Timer_Get_Milli_Seconds(); }
 80a1188:	f001 ffee 	bl	80a3168 <HAL_Timer_Get_Milli_Seconds>
 80a118c:	4605      	mov	r5, r0


  	// ***********TIME FUZZY**********************************
  	unsigned long currentTime = millis();

  	fuzzy_init();		// Fuzzy library************
 80a118e:	f7ff f95f 	bl	80a0450 <_Z10fuzzy_initv>

  	Serial.println(millis() - currentTime);
 80a1192:	f002 ff45 	bl	80a4020 <_Z16_fetch_usbserialv>
 80a1196:	4604      	mov	r4, r0
 80a1198:	f001 ffe6 	bl	80a3168 <HAL_Timer_Get_Milli_Seconds>
 80a119c:	220a      	movs	r2, #10
 80a119e:	1b41      	subs	r1, r0, r5
 80a11a0:	4620      	mov	r0, r4
  	// SHOW HOW MUCH TIME IT TAKES FOR FUZZY TO INITIALIZE




}
 80a11a2:	e8bd 4038 	ldmia.w	sp!, {r3, r4, r5, lr}
  	// ***********TIME FUZZY**********************************
  	unsigned long currentTime = millis();

  	fuzzy_init();		// Fuzzy library************

  	Serial.println(millis() - currentTime);
 80a11a6:	f002 ba41 	b.w	80a362c <_ZN5Print7printlnEmi>
 80a11aa:	bf00      	nop
 80a11ac:	200003f0 	.word	0x200003f0
 80a11b0:	080a57a0 	.word	0x080a57a0
 80a11b4:	080a57b2 	.word	0x080a57b2
 80a11b8:	080a57cb 	.word	0x080a57cb

080a11bc <loop>:



}

void loop(){
 80a11bc:	e92d 43f0 	stmdb	sp!, {r4, r5, r6, r7, r8, r9, lr}
	// sensorx.readRangeContinuousMillimeters();
	LL_distance = sensor0.readRangeContinuousMillimeters();
 80a11c0:	4869      	ldr	r0, [pc, #420]	; (80a1368 <loop+0x1ac>)



}

void loop(){
 80a11c2:	b085      	sub	sp, #20
	// sensorx.readRangeContinuousMillimeters();
	LL_distance = sensor0.readRangeContinuousMillimeters();
 80a11c4:	f000 face 	bl	80a1764 <_ZN7VL53L0X30readRangeContinuousMillimetersEv>
 80a11c8:	4d68      	ldr	r5, [pc, #416]	; (80a136c <loop+0x1b0>)
	LM_distance = sensor1.readRangeContinuousMillimeters();
 80a11ca:	4e69      	ldr	r6, [pc, #420]	; (80a1370 <loop+0x1b4>)

}

void loop(){
	// sensorx.readRangeContinuousMillimeters();
	LL_distance = sensor0.readRangeContinuousMillimeters();
 80a11cc:	6028      	str	r0, [r5, #0]
	LM_distance = sensor1.readRangeContinuousMillimeters();
 80a11ce:	4869      	ldr	r0, [pc, #420]	; (80a1374 <loop+0x1b8>)
 80a11d0:	f000 fac8 	bl	80a1764 <_ZN7VL53L0X30readRangeContinuousMillimetersEv>
 80a11d4:	6030      	str	r0, [r6, #0]
	RM_distance = sensor2.readRangeContinuousMillimeters();
 80a11d6:	4868      	ldr	r0, [pc, #416]	; (80a1378 <loop+0x1bc>)
 80a11d8:	f000 fac4 	bl	80a1764 <_ZN7VL53L0X30readRangeContinuousMillimetersEv>
 80a11dc:	4f67      	ldr	r7, [pc, #412]	; (80a137c <loop+0x1c0>)
	RR_distance = sensor3.readRangeContinuousMillimeters();
 80a11de:	4c68      	ldr	r4, [pc, #416]	; (80a1380 <loop+0x1c4>)

void loop(){
	// sensorx.readRangeContinuousMillimeters();
	LL_distance = sensor0.readRangeContinuousMillimeters();
	LM_distance = sensor1.readRangeContinuousMillimeters();
	RM_distance = sensor2.readRangeContinuousMillimeters();
 80a11e0:	6038      	str	r0, [r7, #0]
	RR_distance = sensor3.readRangeContinuousMillimeters();
 80a11e2:	4868      	ldr	r0, [pc, #416]	; (80a1384 <loop+0x1c8>)
 80a11e4:	f000 fabe 	bl	80a1764 <_ZN7VL53L0X30readRangeContinuousMillimetersEv>
 80a11e8:	6020      	str	r0, [r4, #0]

	if (sensor0.timeoutOccurred() || sensor1.timeoutOccurred() || sensor2.timeoutOccurred() || sensor3.timeoutOccurred()) { Serial.print(" SENSOR TIMEOUT"); }
 80a11ea:	485f      	ldr	r0, [pc, #380]	; (80a1368 <loop+0x1ac>)
 80a11ec:	f000 fae0 	bl	80a17b0 <_ZN7VL53L0X15timeoutOccurredEv>
 80a11f0:	46a0      	mov	r8, r4
 80a11f2:	2800      	cmp	r0, #0
 80a11f4:	f040 80b2 	bne.w	80a135c <loop+0x1a0>
 80a11f8:	485e      	ldr	r0, [pc, #376]	; (80a1374 <loop+0x1b8>)
 80a11fa:	f000 fad9 	bl	80a17b0 <_ZN7VL53L0X15timeoutOccurredEv>
 80a11fe:	2800      	cmp	r0, #0
 80a1200:	f040 80ac 	bne.w	80a135c <loop+0x1a0>
 80a1204:	485c      	ldr	r0, [pc, #368]	; (80a1378 <loop+0x1bc>)
 80a1206:	f000 fad3 	bl	80a17b0 <_ZN7VL53L0X15timeoutOccurredEv>
 80a120a:	2800      	cmp	r0, #0
 80a120c:	f040 80a6 	bne.w	80a135c <loop+0x1a0>
 80a1210:	485c      	ldr	r0, [pc, #368]	; (80a1384 <loop+0x1c8>)
 80a1212:	f000 facd 	bl	80a17b0 <_ZN7VL53L0X15timeoutOccurredEv>
 80a1216:	2800      	cmp	r0, #0
 80a1218:	f040 80a0 	bne.w	80a135c <loop+0x1a0>
	// xESC.writeMicroseconds(yyyy);
	// ***TBD***
  
  	// FUZZY **************************************************

  	fuzzy->setInput(1, LL_distance);
 80a121c:	6828      	ldr	r0, [r5, #0]
 80a121e:	f004 f849 	bl	80a52b4 <__aeabi_i2f>
 80a1222:	4c59      	ldr	r4, [pc, #356]	; (80a1388 <loop+0x1cc>)
 80a1224:	4602      	mov	r2, r0
 80a1226:	2101      	movs	r1, #1
 80a1228:	6820      	ldr	r0, [r4, #0]
 80a122a:	f001 fdfa 	bl	80a2e22 <_ZN5Fuzzy8setInputEif>
  	fuzzy->setInput(2, LM_distance);
 80a122e:	6830      	ldr	r0, [r6, #0]
 80a1230:	f004 f840 	bl	80a52b4 <__aeabi_i2f>
 80a1234:	2102      	movs	r1, #2
 80a1236:	4602      	mov	r2, r0
 80a1238:	6820      	ldr	r0, [r4, #0]
 80a123a:	f001 fdf2 	bl	80a2e22 <_ZN5Fuzzy8setInputEif>
  	fuzzy->setInput(3, RM_distance);
 80a123e:	6838      	ldr	r0, [r7, #0]
 80a1240:	f004 f838 	bl	80a52b4 <__aeabi_i2f>
 80a1244:	2103      	movs	r1, #3
 80a1246:	4602      	mov	r2, r0
 80a1248:	6820      	ldr	r0, [r4, #0]
 80a124a:	f001 fdea 	bl	80a2e22 <_ZN5Fuzzy8setInputEif>
  	fuzzy->setInput(4, RR_distance);
 80a124e:	f8d8 0000 	ldr.w	r0, [r8]
 80a1252:	f004 f82f 	bl	80a52b4 <__aeabi_i2f>
 80a1256:	2104      	movs	r1, #4
 80a1258:	4602      	mov	r2, r0
 80a125a:	6820      	ldr	r0, [r4, #0]
 80a125c:	f001 fde1 	bl	80a2e22 <_ZN5Fuzzy8setInputEif>
  
  	fuzzy->fuzzify();
 80a1260:	6820      	ldr	r0, [r4, #0]
 80a1262:	f001 fdf2 	bl	80a2e4a <_ZN5Fuzzy7fuzzifyEv>

  	float output = fuzzy->defuzzify(1);
 80a1266:	2101      	movs	r1, #1
 80a1268:	6820      	ldr	r0, [r4, #0]
 80a126a:	f001 fe15 	bl	80a2e98 <_ZN5Fuzzy9defuzzifyEi>
 80a126e:	4681      	mov	r9, r0

  	Serial.print("OUTPUT: ");
 80a1270:	f002 fed6 	bl	80a4020 <_Z16_fetch_usbserialv>
 80a1274:	4945      	ldr	r1, [pc, #276]	; (80a138c <loop+0x1d0>)
 80a1276:	f002 f990 	bl	80a359a <_ZN5Print5printEPKc>
  	Serial.print(output);
 80a127a:	f002 fed1 	bl	80a4020 <_Z16_fetch_usbserialv>
 80a127e:	4604      	mov	r4, r0
 80a1280:	4648      	mov	r0, r9
 80a1282:	f003 fbc1 	bl	80a4a08 <__aeabi_f2d>
 80a1286:	2302      	movs	r3, #2
 80a1288:	4602      	mov	r2, r0
 80a128a:	9300      	str	r3, [sp, #0]
 80a128c:	4620      	mov	r0, r4
 80a128e:	460b      	mov	r3, r1
 80a1290:	f002 fab2 	bl	80a37f8 <_ZN5Print5printEdi>
  	Serial.print(" | ");
 80a1294:	f002 fec4 	bl	80a4020 <_Z16_fetch_usbserialv>
 80a1298:	493d      	ldr	r1, [pc, #244]	; (80a1390 <loop+0x1d4>)
 80a129a:	f002 f97e 	bl	80a359a <_ZN5Print5printEPKc>

  	Serial.print("sensor 0:");
 80a129e:	f002 febf 	bl	80a4020 <_Z16_fetch_usbserialv>
 80a12a2:	493c      	ldr	r1, [pc, #240]	; (80a1394 <loop+0x1d8>)
 80a12a4:	f002 f979 	bl	80a359a <_ZN5Print5printEPKc>
  	Serial.print(LL_distance);
 80a12a8:	f002 feba 	bl	80a4020 <_Z16_fetch_usbserialv>
 80a12ac:	220a      	movs	r2, #10
 80a12ae:	6829      	ldr	r1, [r5, #0]
 80a12b0:	f002 f9e8 	bl	80a3684 <_ZN5Print5printEii>
  	Serial.print(" | ");
 80a12b4:	f002 feb4 	bl	80a4020 <_Z16_fetch_usbserialv>
 80a12b8:	4935      	ldr	r1, [pc, #212]	; (80a1390 <loop+0x1d4>)
 80a12ba:	f002 f96e 	bl	80a359a <_ZN5Print5printEPKc>
  	Serial.print("sensor 1:");
 80a12be:	f002 feaf 	bl	80a4020 <_Z16_fetch_usbserialv>
 80a12c2:	4935      	ldr	r1, [pc, #212]	; (80a1398 <loop+0x1dc>)
 80a12c4:	f002 f969 	bl	80a359a <_ZN5Print5printEPKc>
  	Serial.print(LM_distance);
 80a12c8:	f002 feaa 	bl	80a4020 <_Z16_fetch_usbserialv>
 80a12cc:	220a      	movs	r2, #10
 80a12ce:	6831      	ldr	r1, [r6, #0]
 80a12d0:	f002 f9d8 	bl	80a3684 <_ZN5Print5printEii>
  	Serial.print(" | ");
 80a12d4:	f002 fea4 	bl	80a4020 <_Z16_fetch_usbserialv>
 80a12d8:	492d      	ldr	r1, [pc, #180]	; (80a1390 <loop+0x1d4>)
 80a12da:	f002 f95e 	bl	80a359a <_ZN5Print5printEPKc>
  	Serial.print("sensor 2:");
 80a12de:	f002 fe9f 	bl	80a4020 <_Z16_fetch_usbserialv>
 80a12e2:	492e      	ldr	r1, [pc, #184]	; (80a139c <loop+0x1e0>)
 80a12e4:	f002 f959 	bl	80a359a <_ZN5Print5printEPKc>
  	Serial.print(RM_distance);
 80a12e8:	f002 fe9a 	bl	80a4020 <_Z16_fetch_usbserialv>
 80a12ec:	220a      	movs	r2, #10
 80a12ee:	6839      	ldr	r1, [r7, #0]
 80a12f0:	f002 f9c8 	bl	80a3684 <_ZN5Print5printEii>
  	Serial.print(" | ");
 80a12f4:	f002 fe94 	bl	80a4020 <_Z16_fetch_usbserialv>
 80a12f8:	4925      	ldr	r1, [pc, #148]	; (80a1390 <loop+0x1d4>)
 80a12fa:	f002 f94e 	bl	80a359a <_ZN5Print5printEPKc>
  	Serial.print("sensor 3:");
 80a12fe:	f002 fe8f 	bl	80a4020 <_Z16_fetch_usbserialv>
 80a1302:	4927      	ldr	r1, [pc, #156]	; (80a13a0 <loop+0x1e4>)
 80a1304:	f002 f949 	bl	80a359a <_ZN5Print5printEPKc>
  	Serial.println(RR_distance);
 80a1308:	f002 fe8a 	bl	80a4020 <_Z16_fetch_usbserialv>
 80a130c:	220a      	movs	r2, #10
 80a130e:	f8d8 1000 	ldr.w	r1, [r8]
 80a1312:	f002 f9b9 	bl	80a3688 <_ZN5Print7printlnEii>
  	delay(100);
 80a1316:	2064      	movs	r0, #100	; 0x64
 80a1318:	f002 fadc 	bl	80a38d4 <delay>
  	// FUZZY ***********************************************


  	// obligatory sampling from accelerometer
  	LIS3DHSample sample;
  	if(!accel.getSample(sample)) {
 80a131c:	a902      	add	r1, sp, #8
 80a131e:	4821      	ldr	r0, [pc, #132]	; (80a13a4 <loop+0x1e8>)
 80a1320:	f000 ff1a 	bl	80a2158 <_ZN6LIS3DH9getSampleER12LIS3DHSample>
 80a1324:	4601      	mov	r1, r0
 80a1326:	b928      	cbnz	r0, 80a1334 <loop+0x178>
      return _function(funcKey, std::bind(func, instance, _1));
    }

    inline bool publish(const char *eventName, PublishFlag eventType=PUBLIC)
    {
        return publish(eventName, NULL, 60, PublishFlag::flag_t(eventType));
 80a1328:	4b1f      	ldr	r3, [pc, #124]	; (80a13a8 <loop+0x1ec>)
 80a132a:	223c      	movs	r2, #60	; 0x3c
 80a132c:	781b      	ldrb	r3, [r3, #0]
 80a132e:	481f      	ldr	r0, [pc, #124]	; (80a13ac <loop+0x1f0>)
 80a1330:	f002 fd46 	bl	80a3dc0 <_ZN10CloudClass7publishEPKcS1_im>
  		//Serial.println("no sample"); // ********************************
  		Particle.publish("no sample");
  	}

  	if(RSflag == HIGH) {
 80a1334:	4b1e      	ldr	r3, [pc, #120]	; (80a13b0 <loop+0x1f4>)
 80a1336:	4c1f      	ldr	r4, [pc, #124]	; (80a13b4 <loop+0x1f8>)
 80a1338:	781a      	ldrb	r2, [r3, #0]
 80a133a:	4b1f      	ldr	r3, [pc, #124]	; (80a13b8 <loop+0x1fc>)
 80a133c:	b11a      	cbz	r2, 80a1346 <loop+0x18a>
  		L_command = 1500;
 80a133e:	f240 52dc 	movw	r2, #1500	; 0x5dc
 80a1342:	601a      	str	r2, [r3, #0]
    	R_command = 1500;
 80a1344:	6022      	str	r2, [r4, #0]
  	}

  	LESC.writeMicroseconds(L_command);
 80a1346:	8819      	ldrh	r1, [r3, #0]
 80a1348:	481c      	ldr	r0, [pc, #112]	; (80a13bc <loop+0x200>)
 80a134a:	f002 f89e 	bl	80a348a <_ZN5Servo17writeMicrosecondsEt>
  	RESC.writeMicroseconds(R_command);
 80a134e:	8821      	ldrh	r1, [r4, #0]
 80a1350:	481b      	ldr	r0, [pc, #108]	; (80a13c0 <loop+0x204>)
 80a1352:	f002 f89a 	bl	80a348a <_ZN5Servo17writeMicrosecondsEt>
 80a1356:	b005      	add	sp, #20
 80a1358:	e8bd 83f0 	ldmia.w	sp!, {r4, r5, r6, r7, r8, r9, pc}
	LL_distance = sensor0.readRangeContinuousMillimeters();
	LM_distance = sensor1.readRangeContinuousMillimeters();
	RM_distance = sensor2.readRangeContinuousMillimeters();
	RR_distance = sensor3.readRangeContinuousMillimeters();

	if (sensor0.timeoutOccurred() || sensor1.timeoutOccurred() || sensor2.timeoutOccurred() || sensor3.timeoutOccurred()) { Serial.print(" SENSOR TIMEOUT"); }
 80a135c:	f002 fe60 	bl	80a4020 <_Z16_fetch_usbserialv>
 80a1360:	4918      	ldr	r1, [pc, #96]	; (80a13c4 <loop+0x208>)
 80a1362:	f002 f91a 	bl	80a359a <_ZN5Print5printEPKc>
 80a1366:	e759      	b.n	80a121c <loop+0x60>
 80a1368:	20000394 	.word	0x20000394
 80a136c:	20000418 	.word	0x20000418
 80a1370:	200003f4 	.word	0x200003f4
 80a1374:	200003f8 	.word	0x200003f8
 80a1378:	200003ac 	.word	0x200003ac
 80a137c:	20000414 	.word	0x20000414
 80a1380:	20000368 	.word	0x20000368
 80a1384:	200003c4 	.word	0x200003c4
 80a1388:	20000390 	.word	0x20000390
 80a138c:	080a57cf 	.word	0x080a57cf
 80a1390:	080a57d8 	.word	0x080a57d8
 80a1394:	080a57dc 	.word	0x080a57dc
 80a1398:	080a57e6 	.word	0x080a57e6
 80a139c:	080a57f0 	.word	0x080a57f0
 80a13a0:	080a57fa 	.word	0x080a57fa
 80a13a4:	2000037c 	.word	0x2000037c
 80a13a8:	200003dc 	.word	0x200003dc
 80a13ac:	080a5804 	.word	0x080a5804
 80a13b0:	200003f0 	.word	0x200003f0
 80a13b4:	20000304 	.word	0x20000304
 80a13b8:	20000340 	.word	0x20000340
 80a13bc:	2000036c 	.word	0x2000036c
 80a13c0:	200003e0 	.word	0x200003e0
 80a13c4:	080a580e 	.word	0x080a580e

080a13c8 <_GLOBAL__sub_I_high1>:

class PublishFlag
{
public:
	typedef uint8_t flag_t;
	PublishFlag(flag_t flag) : flag_(flag) {}
 80a13c8:	4b1b      	ldr	r3, [pc, #108]	; (80a1438 <_GLOBAL__sub_I_high1+0x70>)
    	R_command = 1500;
  	}

  	LESC.writeMicroseconds(L_command);
  	RESC.writeMicroseconds(R_command);
 80a13ca:	b510      	push	{r4, lr}
 80a13cc:	2200      	movs	r2, #0
 80a13ce:	701a      	strb	r2, [r3, #0]
inline int32_t pinReadFast(pin_t _pin)
{
	return ((PIN_MAP[_pin].gpio_peripheral->IDR & PIN_MAP[_pin].gpio_pin) == 0 ? LOW : HIGH);
}
#elif defined(STM32F2XX)
static STM32_Pin_Info* PIN_MAP = HAL_Pin_Map();
 80a13d0:	f001 fe72 	bl	80a30b8 <HAL_Pin_Map>

#if !defined(PARTICLE)
#  include <Wire.h>
#endif

VL53L0X sensor0;
 80a13d4:	4819      	ldr	r0, [pc, #100]	; (80a143c <_GLOBAL__sub_I_high1+0x74>)
 80a13d6:	f000 f84d 	bl	80a1474 <_ZN7VL53L0XC1Ev>
VL53L0X sensor1;
 80a13da:	4819      	ldr	r0, [pc, #100]	; (80a1440 <_GLOBAL__sub_I_high1+0x78>)
 80a13dc:	f000 f84a 	bl	80a1474 <_ZN7VL53L0XC1Ev>
VL53L0X sensor2;
 80a13e0:	4818      	ldr	r0, [pc, #96]	; (80a1444 <_GLOBAL__sub_I_high1+0x7c>)
 80a13e2:	f000 f847 	bl	80a1474 <_ZN7VL53L0XC1Ev>
VL53L0X sensor3;
 80a13e6:	4818      	ldr	r0, [pc, #96]	; (80a1448 <_GLOBAL__sub_I_high1+0x80>)
 80a13e8:	f000 f844 	bl	80a1474 <_ZN7VL53L0XC1Ev>
int BL = D5;
int BR = D6;

int RS = D4;

Servo LESC;
 80a13ec:	4817      	ldr	r0, [pc, #92]	; (80a144c <_GLOBAL__sub_I_high1+0x84>)
 80a13ee:	f002 f86c 	bl	80a34ca <_ZN5ServoC1Ev>
Servo RESC;
 80a13f2:	4817      	ldr	r0, [pc, #92]	; (80a1450 <_GLOBAL__sub_I_high1+0x88>)
 80a13f4:	f002 f869 	bl	80a34ca <_ZN5ServoC1Ev>
boolean BLflag = true;
boolean BRflag = true;

boolean RSflag = false;

Fuzzy* fuzzy = new Fuzzy();
 80a13f8:	2018      	movs	r0, #24
 80a13fa:	f7fe fe4e 	bl	80a009a <_Znwj>
 80a13fe:	4604      	mov	r4, r0
 80a1400:	b108      	cbz	r0, 80a1406 <_GLOBAL__sub_I_high1+0x3e>
 80a1402:	f001 fcc8 	bl	80a2d96 <_ZN5FuzzyC1Ev>
 80a1406:	4b13      	ldr	r3, [pc, #76]	; (80a1454 <_GLOBAL__sub_I_high1+0x8c>)

SYSTEM_THREAD(ENABLED);
 80a1408:	2100      	movs	r1, #0
 80a140a:	2001      	movs	r0, #1
boolean BLflag = true;
boolean BRflag = true;

boolean RSflag = false;

Fuzzy* fuzzy = new Fuzzy();
 80a140c:	601c      	str	r4, [r3, #0]

SYSTEM_THREAD(ENABLED);
 80a140e:	f001 ffbd 	bl	80a338c <system_thread_set_state>

class SystemClass {
public:

    SystemClass(System_Mode_TypeDef mode = DEFAULT) {
        set_system_mode(mode);
 80a1412:	2003      	movs	r0, #3
 80a1414:	f001 ffaa 	bl	80a336c <set_system_mode>
// Try to print on web console**************************
SYSTEM_MODE(MANUAL);

// Accelerometer
const unsigned long PRINT_SAMPLE_PERIOD = 100;
LIS3DHI2C accel(Wire, 0, WKP);
 80a1418:	f003 f822 	bl	80a4460 <_Z19__fetch_global_Wirev>
 80a141c:	2200      	movs	r2, #0
 80a141e:	4601      	mov	r1, r0
 80a1420:	2311      	movs	r3, #17
 80a1422:	480d      	ldr	r0, [pc, #52]	; (80a1458 <_GLOBAL__sub_I_high1+0x90>)
 80a1424:	f000 ff2c 	bl	80a2280 <_ZN9LIS3DHI2CC1ER7TwoWirehi>
    	R_command = 1500;
  	}

  	LESC.writeMicroseconds(L_command);
  	RESC.writeMicroseconds(R_command);
 80a1428:	e8bd 4010 	ldmia.w	sp!, {r4, lr}
// Try to print on web console**************************
SYSTEM_MODE(MANUAL);

// Accelerometer
const unsigned long PRINT_SAMPLE_PERIOD = 100;
LIS3DHI2C accel(Wire, 0, WKP);
 80a142c:	4a0b      	ldr	r2, [pc, #44]	; (80a145c <_GLOBAL__sub_I_high1+0x94>)
 80a142e:	490c      	ldr	r1, [pc, #48]	; (80a1460 <_GLOBAL__sub_I_high1+0x98>)
 80a1430:	4809      	ldr	r0, [pc, #36]	; (80a1458 <_GLOBAL__sub_I_high1+0x90>)
 80a1432:	f003 b835 	b.w	80a44a0 <__aeabi_atexit>
 80a1436:	bf00      	nop
 80a1438:	200003dc 	.word	0x200003dc
 80a143c:	20000394 	.word	0x20000394
 80a1440:	200003f8 	.word	0x200003f8
 80a1444:	200003ac 	.word	0x200003ac
 80a1448:	200003c4 	.word	0x200003c4
 80a144c:	2000036c 	.word	0x2000036c
 80a1450:	200003e0 	.word	0x200003e0
 80a1454:	20000390 	.word	0x20000390
 80a1458:	2000037c 	.word	0x2000037c
 80a145c:	20000364 	.word	0x20000364
 80a1460:	080a2045 	.word	0x080a2045

080a1464 <_ZN7TwoWire5writeEm>:
  virtual int peek(void);
  virtual void flush(void);
  void onReceive(void (*)(int));
  void onRequest(void (*)(void));

  inline size_t write(unsigned long n) { return write((uint8_t)n); }
 80a1464:	6803      	ldr	r3, [r0, #0]
 80a1466:	b2c9      	uxtb	r1, r1
 80a1468:	689b      	ldr	r3, [r3, #8]
 80a146a:	4718      	bx	r3

080a146c <_ZN7TwoWire5writeEi>:
  inline size_t write(long n) { return write((uint8_t)n); }
  inline size_t write(unsigned int n) { return write((uint8_t)n); }
  inline size_t write(int n) { return write((uint8_t)n); }
 80a146c:	6803      	ldr	r3, [r0, #0]
 80a146e:	b2c9      	uxtb	r1, r1
 80a1470:	689b      	ldr	r3, [r3, #8]
 80a1472:	4718      	bx	r3

080a1474 <_ZN7VL53L0XC1Ev>:
// Constructors ////////////////////////////////////////////////////////////////

VL53L0X::VL53L0X(void)
  : address(ADDRESS_DEFAULT)
  , io_timeout(0) // no timeout
  , did_timeout(false)
 80a1474:	2229      	movs	r2, #41	; 0x29
 80a1476:	7042      	strb	r2, [r0, #1]
 80a1478:	2200      	movs	r2, #0
 80a147a:	6042      	str	r2, [r0, #4]
 80a147c:	7202      	strb	r2, [r0, #8]
{
}
 80a147e:	4770      	bx	lr

080a1480 <_ZN7VL53L0X8writeRegEhh>:
  return true;
}

// Write an 8-bit register
void VL53L0X::writeReg(uint8_t reg, uint8_t value)
{
 80a1480:	b570      	push	{r4, r5, r6, lr}
 80a1482:	4604      	mov	r4, r0
 80a1484:	4615      	mov	r5, r2
 80a1486:	460e      	mov	r6, r1
  Wire.beginTransmission(address);
 80a1488:	f002 ffea 	bl	80a4460 <_Z19__fetch_global_Wirev>
 80a148c:	7861      	ldrb	r1, [r4, #1]
 80a148e:	f002 ff26 	bl	80a42de <_ZN7TwoWire17beginTransmissionEh>
  Wire.write(reg);
 80a1492:	f002 ffe5 	bl	80a4460 <_Z19__fetch_global_Wirev>
 80a1496:	6803      	ldr	r3, [r0, #0]
 80a1498:	4631      	mov	r1, r6
 80a149a:	689b      	ldr	r3, [r3, #8]
 80a149c:	4798      	blx	r3
  Wire.write(value);
 80a149e:	f002 ffdf 	bl	80a4460 <_Z19__fetch_global_Wirev>
 80a14a2:	6803      	ldr	r3, [r0, #0]
 80a14a4:	4629      	mov	r1, r5
 80a14a6:	689b      	ldr	r3, [r3, #8]
 80a14a8:	4798      	blx	r3
  last_status = Wire.endTransmission();
 80a14aa:	f002 ffd9 	bl	80a4460 <_Z19__fetch_global_Wirev>
 80a14ae:	f002 ff1e 	bl	80a42ee <_ZN7TwoWire15endTransmissionEv>
 80a14b2:	7020      	strb	r0, [r4, #0]
 80a14b4:	bd70      	pop	{r4, r5, r6, pc}

080a14b6 <_ZN7VL53L0X10setAddressEh>:
}

// Public Methods //////////////////////////////////////////////////////////////

void VL53L0X::setAddress(uint8_t new_addr)
{
 80a14b6:	b538      	push	{r3, r4, r5, lr}
 80a14b8:	4605      	mov	r5, r0
 80a14ba:	460c      	mov	r4, r1
  writeReg(I2C_SLAVE_DEVICE_ADDRESS, new_addr & 0x7F);
 80a14bc:	f001 027f 	and.w	r2, r1, #127	; 0x7f
 80a14c0:	218a      	movs	r1, #138	; 0x8a
 80a14c2:	f7ff ffdd 	bl	80a1480 <_ZN7VL53L0X8writeRegEhh>
  address = new_addr;
 80a14c6:	706c      	strb	r4, [r5, #1]
 80a14c8:	bd38      	pop	{r3, r4, r5, pc}

080a14ca <_ZN7VL53L0X13writeReg16BitEht>:
  last_status = Wire.endTransmission();
}

// Write a 16-bit register
void VL53L0X::writeReg16Bit(uint8_t reg, uint16_t value)
{
 80a14ca:	b570      	push	{r4, r5, r6, lr}
 80a14cc:	4604      	mov	r4, r0
 80a14ce:	4615      	mov	r5, r2
 80a14d0:	460e      	mov	r6, r1
  Wire.beginTransmission(address);
 80a14d2:	f002 ffc5 	bl	80a4460 <_Z19__fetch_global_Wirev>
 80a14d6:	7861      	ldrb	r1, [r4, #1]
 80a14d8:	f002 ff01 	bl	80a42de <_ZN7TwoWire17beginTransmissionEh>
  Wire.write(reg);
 80a14dc:	f002 ffc0 	bl	80a4460 <_Z19__fetch_global_Wirev>
 80a14e0:	6803      	ldr	r3, [r0, #0]
 80a14e2:	4631      	mov	r1, r6
 80a14e4:	689b      	ldr	r3, [r3, #8]
 80a14e6:	4798      	blx	r3
  Wire.write((value >> 8) & 0xFF); // value high byte
 80a14e8:	f002 ffba 	bl	80a4460 <_Z19__fetch_global_Wirev>
 80a14ec:	0a29      	lsrs	r1, r5, #8
 80a14ee:	f7ff ffbd 	bl	80a146c <_ZN7TwoWire5writeEi>
  Wire.write( value       & 0xFF); // value low byte
 80a14f2:	f002 ffb5 	bl	80a4460 <_Z19__fetch_global_Wirev>
 80a14f6:	b2e9      	uxtb	r1, r5
 80a14f8:	f7ff ffb8 	bl	80a146c <_ZN7TwoWire5writeEi>
  last_status = Wire.endTransmission();
 80a14fc:	f002 ffb0 	bl	80a4460 <_Z19__fetch_global_Wirev>
 80a1500:	f002 fef5 	bl	80a42ee <_ZN7TwoWire15endTransmissionEv>
 80a1504:	7020      	strb	r0, [r4, #0]
 80a1506:	bd70      	pop	{r4, r5, r6, pc}

080a1508 <_ZN7VL53L0X13writeReg32BitEhm>:
}

// Write a 32-bit register
void VL53L0X::writeReg32Bit(uint8_t reg, uint32_t value)
{
 80a1508:	b570      	push	{r4, r5, r6, lr}
 80a150a:	4605      	mov	r5, r0
 80a150c:	4614      	mov	r4, r2
 80a150e:	460e      	mov	r6, r1
  Wire.beginTransmission(address);
 80a1510:	f002 ffa6 	bl	80a4460 <_Z19__fetch_global_Wirev>
 80a1514:	7869      	ldrb	r1, [r5, #1]
 80a1516:	f002 fee2 	bl	80a42de <_ZN7TwoWire17beginTransmissionEh>
  Wire.write(reg);
 80a151a:	f002 ffa1 	bl	80a4460 <_Z19__fetch_global_Wirev>
 80a151e:	6803      	ldr	r3, [r0, #0]
 80a1520:	4631      	mov	r1, r6
 80a1522:	689b      	ldr	r3, [r3, #8]
 80a1524:	4798      	blx	r3
  Wire.write((value >> 24) & 0xFF); // value highest byte
 80a1526:	f002 ff9b 	bl	80a4460 <_Z19__fetch_global_Wirev>
 80a152a:	0e21      	lsrs	r1, r4, #24
 80a152c:	f7ff ff9a 	bl	80a1464 <_ZN7TwoWire5writeEm>
  Wire.write((value >> 16) & 0xFF);
 80a1530:	f002 ff96 	bl	80a4460 <_Z19__fetch_global_Wirev>
 80a1534:	f3c4 4107 	ubfx	r1, r4, #16, #8
 80a1538:	f7ff ff94 	bl	80a1464 <_ZN7TwoWire5writeEm>
  Wire.write((value >>  8) & 0xFF);
 80a153c:	f002 ff90 	bl	80a4460 <_Z19__fetch_global_Wirev>
 80a1540:	f3c4 2107 	ubfx	r1, r4, #8, #8
 80a1544:	f7ff ff8e 	bl	80a1464 <_ZN7TwoWire5writeEm>
  Wire.write( value        & 0xFF); // value lowest byte
 80a1548:	f002 ff8a 	bl	80a4460 <_Z19__fetch_global_Wirev>
 80a154c:	b2e1      	uxtb	r1, r4
 80a154e:	f7ff ff89 	bl	80a1464 <_ZN7TwoWire5writeEm>
  last_status = Wire.endTransmission();
 80a1552:	f002 ff85 	bl	80a4460 <_Z19__fetch_global_Wirev>
 80a1556:	f002 feca 	bl	80a42ee <_ZN7TwoWire15endTransmissionEv>
 80a155a:	7028      	strb	r0, [r5, #0]
 80a155c:	bd70      	pop	{r4, r5, r6, pc}

080a155e <_ZN7VL53L0X7readRegEh>:
}

// Read an 8-bit register
uint8_t VL53L0X::readReg(uint8_t reg)
{
 80a155e:	b538      	push	{r3, r4, r5, lr}
 80a1560:	4604      	mov	r4, r0
 80a1562:	460d      	mov	r5, r1
  uint8_t value;

  Wire.beginTransmission(address);
 80a1564:	f002 ff7c 	bl	80a4460 <_Z19__fetch_global_Wirev>
 80a1568:	7861      	ldrb	r1, [r4, #1]
 80a156a:	f002 feb8 	bl	80a42de <_ZN7TwoWire17beginTransmissionEh>
  Wire.write(reg);
 80a156e:	f002 ff77 	bl	80a4460 <_Z19__fetch_global_Wirev>
 80a1572:	6803      	ldr	r3, [r0, #0]
 80a1574:	4629      	mov	r1, r5
 80a1576:	689b      	ldr	r3, [r3, #8]
 80a1578:	4798      	blx	r3
  last_status = Wire.endTransmission();
 80a157a:	f002 ff71 	bl	80a4460 <_Z19__fetch_global_Wirev>
 80a157e:	f002 feb6 	bl	80a42ee <_ZN7TwoWire15endTransmissionEv>
 80a1582:	7020      	strb	r0, [r4, #0]

  Wire.requestFrom(address, (uint8_t)1);
 80a1584:	f002 ff6c 	bl	80a4460 <_Z19__fetch_global_Wirev>
 80a1588:	2201      	movs	r2, #1
 80a158a:	7861      	ldrb	r1, [r4, #1]
 80a158c:	f002 fe9f 	bl	80a42ce <_ZN7TwoWire11requestFromEhh>
  value = Wire.read();
 80a1590:	f002 ff66 	bl	80a4460 <_Z19__fetch_global_Wirev>
 80a1594:	6803      	ldr	r3, [r0, #0]
 80a1596:	695b      	ldr	r3, [r3, #20]
 80a1598:	4798      	blx	r3

  return value;
}
 80a159a:	b2c0      	uxtb	r0, r0
 80a159c:	bd38      	pop	{r3, r4, r5, pc}

080a159e <_ZN7VL53L0X12readReg16BitEh>:

// Read a 16-bit register
uint16_t VL53L0X::readReg16Bit(uint8_t reg)
{
 80a159e:	b538      	push	{r3, r4, r5, lr}
 80a15a0:	4604      	mov	r4, r0
 80a15a2:	460d      	mov	r5, r1
  uint16_t value;

  Wire.beginTransmission(address);
 80a15a4:	f002 ff5c 	bl	80a4460 <_Z19__fetch_global_Wirev>
 80a15a8:	7861      	ldrb	r1, [r4, #1]
 80a15aa:	f002 fe98 	bl	80a42de <_ZN7TwoWire17beginTransmissionEh>
  Wire.write(reg);
 80a15ae:	f002 ff57 	bl	80a4460 <_Z19__fetch_global_Wirev>
 80a15b2:	6803      	ldr	r3, [r0, #0]
 80a15b4:	4629      	mov	r1, r5
 80a15b6:	689b      	ldr	r3, [r3, #8]
 80a15b8:	4798      	blx	r3
  last_status = Wire.endTransmission();
 80a15ba:	f002 ff51 	bl	80a4460 <_Z19__fetch_global_Wirev>
 80a15be:	f002 fe96 	bl	80a42ee <_ZN7TwoWire15endTransmissionEv>
 80a15c2:	7020      	strb	r0, [r4, #0]

  Wire.requestFrom(address, (uint8_t)2);
 80a15c4:	f002 ff4c 	bl	80a4460 <_Z19__fetch_global_Wirev>
 80a15c8:	7861      	ldrb	r1, [r4, #1]
 80a15ca:	2202      	movs	r2, #2
 80a15cc:	f002 fe7f 	bl	80a42ce <_ZN7TwoWire11requestFromEhh>
  value  = (uint16_t)Wire.read() << 8; // value high byte
 80a15d0:	f002 ff46 	bl	80a4460 <_Z19__fetch_global_Wirev>
 80a15d4:	6803      	ldr	r3, [r0, #0]
 80a15d6:	695b      	ldr	r3, [r3, #20]
 80a15d8:	4798      	blx	r3
 80a15da:	4604      	mov	r4, r0
  value |=           Wire.read();      // value low byte
 80a15dc:	f002 ff40 	bl	80a4460 <_Z19__fetch_global_Wirev>
 80a15e0:	6803      	ldr	r3, [r0, #0]
 80a15e2:	695b      	ldr	r3, [r3, #20]
 80a15e4:	4798      	blx	r3
 80a15e6:	ea40 2004 	orr.w	r0, r0, r4, lsl #8

  return value;
}
 80a15ea:	b280      	uxth	r0, r0
 80a15ec:	bd38      	pop	{r3, r4, r5, pc}

080a15ee <_ZN7VL53L0X10writeMultiEhPKhh>:
}

// Write an arbitrary number of bytes from the given array to the sensor,
// starting at the given register
void VL53L0X::writeMulti(uint8_t reg, uint8_t const * src, uint8_t count)
{
 80a15ee:	b5f8      	push	{r3, r4, r5, r6, r7, lr}
 80a15f0:	4606      	mov	r6, r0
 80a15f2:	4614      	mov	r4, r2
 80a15f4:	461d      	mov	r5, r3
 80a15f6:	460f      	mov	r7, r1
  Wire.beginTransmission(address);
 80a15f8:	f002 ff32 	bl	80a4460 <_Z19__fetch_global_Wirev>
 80a15fc:	7871      	ldrb	r1, [r6, #1]
 80a15fe:	f002 fe6e 	bl	80a42de <_ZN7TwoWire17beginTransmissionEh>
  Wire.write(reg);
 80a1602:	f002 ff2d 	bl	80a4460 <_Z19__fetch_global_Wirev>
 80a1606:	6803      	ldr	r3, [r0, #0]
 80a1608:	4639      	mov	r1, r7
 80a160a:	689b      	ldr	r3, [r3, #8]
 80a160c:	4798      	blx	r3
 80a160e:	4425      	add	r5, r4

  while (count-- > 0)
 80a1610:	42ac      	cmp	r4, r5
 80a1612:	d007      	beq.n	80a1624 <_ZN7VL53L0X10writeMultiEhPKhh+0x36>
  {
    Wire.write(*(src++));
 80a1614:	f002 ff24 	bl	80a4460 <_Z19__fetch_global_Wirev>
 80a1618:	6803      	ldr	r3, [r0, #0]
 80a161a:	f814 1b01 	ldrb.w	r1, [r4], #1
 80a161e:	689b      	ldr	r3, [r3, #8]
 80a1620:	4798      	blx	r3
void VL53L0X::writeMulti(uint8_t reg, uint8_t const * src, uint8_t count)
{
  Wire.beginTransmission(address);
  Wire.write(reg);

  while (count-- > 0)
 80a1622:	e7f5      	b.n	80a1610 <_ZN7VL53L0X10writeMultiEhPKhh+0x22>
  {
    Wire.write(*(src++));
  }

  last_status = Wire.endTransmission();
 80a1624:	f002 ff1c 	bl	80a4460 <_Z19__fetch_global_Wirev>
 80a1628:	f002 fe61 	bl	80a42ee <_ZN7TwoWire15endTransmissionEv>
 80a162c:	7030      	strb	r0, [r6, #0]
 80a162e:	bdf8      	pop	{r3, r4, r5, r6, r7, pc}

080a1630 <_ZN7VL53L0X9readMultiEhPhh>:
}

// Read an arbitrary number of bytes from the sensor, starting at the given
// register, into the given array
void VL53L0X::readMulti(uint8_t reg, uint8_t * dst, uint8_t count)
{
 80a1630:	b5f8      	push	{r3, r4, r5, r6, r7, lr}
 80a1632:	4606      	mov	r6, r0
 80a1634:	4614      	mov	r4, r2
 80a1636:	461d      	mov	r5, r3
 80a1638:	460f      	mov	r7, r1
  Wire.beginTransmission(address);
 80a163a:	f002 ff11 	bl	80a4460 <_Z19__fetch_global_Wirev>
 80a163e:	7871      	ldrb	r1, [r6, #1]
 80a1640:	f002 fe4d 	bl	80a42de <_ZN7TwoWire17beginTransmissionEh>
  Wire.write(reg);
 80a1644:	f002 ff0c 	bl	80a4460 <_Z19__fetch_global_Wirev>
 80a1648:	6803      	ldr	r3, [r0, #0]
 80a164a:	4639      	mov	r1, r7
 80a164c:	689b      	ldr	r3, [r3, #8]
 80a164e:	4798      	blx	r3
  last_status = Wire.endTransmission();
 80a1650:	f002 ff06 	bl	80a4460 <_Z19__fetch_global_Wirev>
 80a1654:	f002 fe4b 	bl	80a42ee <_ZN7TwoWire15endTransmissionEv>
 80a1658:	7030      	strb	r0, [r6, #0]

  Wire.requestFrom(address, count);
 80a165a:	f002 ff01 	bl	80a4460 <_Z19__fetch_global_Wirev>
 80a165e:	462a      	mov	r2, r5
 80a1660:	7871      	ldrb	r1, [r6, #1]
 80a1662:	f002 fe34 	bl	80a42ce <_ZN7TwoWire11requestFromEhh>
 80a1666:	4425      	add	r5, r4

  while (count-- > 0)
 80a1668:	42ac      	cmp	r4, r5
 80a166a:	d007      	beq.n	80a167c <_ZN7VL53L0X9readMultiEhPhh+0x4c>
  {
    *(dst++) = Wire.read();
 80a166c:	f002 fef8 	bl	80a4460 <_Z19__fetch_global_Wirev>
 80a1670:	6803      	ldr	r3, [r0, #0]
 80a1672:	695b      	ldr	r3, [r3, #20]
 80a1674:	4798      	blx	r3
 80a1676:	f804 0b01 	strb.w	r0, [r4], #1
  Wire.write(reg);
  last_status = Wire.endTransmission();

  Wire.requestFrom(address, count);

  while (count-- > 0)
 80a167a:	e7f5      	b.n	80a1668 <_ZN7VL53L0X9readMultiEhPhh+0x38>
 80a167c:	bdf8      	pop	{r3, r4, r5, r6, r7, pc}
	...

080a1680 <_ZN7VL53L0X18setSignalRateLimitEf>:
// Setting a lower limit increases the potential range of the sensor but also
// seems to increase the likelihood of getting an inaccurate reading because of
// unwanted reflections from objects other than the intended target.
// Defaults to 0.25 MCPS as initialized by the ST API and this library.
bool VL53L0X::setSignalRateLimit(float limit_Mcps)
{
 80a1680:	b570      	push	{r4, r5, r6, lr}
 80a1682:	460d      	mov	r5, r1
 80a1684:	4606      	mov	r6, r0
  if (limit_Mcps < 0 || limit_Mcps > 511.99) { return false; }
 80a1686:	2100      	movs	r1, #0
 80a1688:	4628      	mov	r0, r5
 80a168a:	f004 f805 	bl	80a5698 <__aeabi_fcmplt>
 80a168e:	b9b0      	cbnz	r0, 80a16be <_ZN7VL53L0X18setSignalRateLimitEf+0x3e>
 80a1690:	4628      	mov	r0, r5
 80a1692:	f003 f9b9 	bl	80a4a08 <__aeabi_f2d>
 80a1696:	a30c      	add	r3, pc, #48	; (adr r3, 80a16c8 <_ZN7VL53L0X18setSignalRateLimitEf+0x48>)
 80a1698:	e9d3 2300 	ldrd	r2, r3, [r3]
 80a169c:	f003 fc98 	bl	80a4fd0 <__aeabi_dcmpgt>
 80a16a0:	b968      	cbnz	r0, 80a16be <_ZN7VL53L0X18setSignalRateLimitEf+0x3e>

  // Q9.7 fixed point format (9 integer bits, 7 fractional bits)
  writeReg16Bit(FINAL_RANGE_CONFIG_MIN_COUNT_RATE_RTN_LIMIT, limit_Mcps * (1 << 7));
 80a16a2:	f04f 4186 	mov.w	r1, #1124073472	; 0x43000000
 80a16a6:	4628      	mov	r0, r5
 80a16a8:	f003 fe58 	bl	80a535c <__aeabi_fmul>
 80a16ac:	f004 f81c 	bl	80a56e8 <__aeabi_f2uiz>
 80a16b0:	2144      	movs	r1, #68	; 0x44
 80a16b2:	b282      	uxth	r2, r0
 80a16b4:	4630      	mov	r0, r6
 80a16b6:	f7ff ff08 	bl	80a14ca <_ZN7VL53L0X13writeReg16BitEht>
 80a16ba:	2001      	movs	r0, #1
 80a16bc:	bd70      	pop	{r4, r5, r6, pc}
// seems to increase the likelihood of getting an inaccurate reading because of
// unwanted reflections from objects other than the intended target.
// Defaults to 0.25 MCPS as initialized by the ST API and this library.
bool VL53L0X::setSignalRateLimit(float limit_Mcps)
{
  if (limit_Mcps < 0 || limit_Mcps > 511.99) { return false; }
 80a16be:	2000      	movs	r0, #0
 80a16c0:	bd70      	pop	{r4, r5, r6, pc}
 80a16c2:	bf00      	nop
 80a16c4:	f3af 8000 	nop.w
 80a16c8:	0a3d70a4 	.word	0x0a3d70a4
 80a16cc:	407fffd7 	.word	0x407fffd7

080a16d0 <_ZN7VL53L0X19getVcselPulsePeriodENS_15vcselPeriodTypeE>:
}

// Get the VCSEL pulse period in PCLKs for the given period type.
// based on VL53L0X_get_vcsel_pulse_period()
uint8_t VL53L0X::getVcselPulsePeriod(vcselPeriodType type)
{
 80a16d0:	b508      	push	{r3, lr}
  if (type == VcselPeriodPreRange)
 80a16d2:	b909      	cbnz	r1, 80a16d8 <_ZN7VL53L0X19getVcselPulsePeriodENS_15vcselPeriodTypeE+0x8>
  {
    return decodeVcselPeriod(readReg(PRE_RANGE_CONFIG_VCSEL_PERIOD));
 80a16d4:	2150      	movs	r1, #80	; 0x50
 80a16d6:	e002      	b.n	80a16de <_ZN7VL53L0X19getVcselPulsePeriodENS_15vcselPeriodTypeE+0xe>
  }
  else if (type == VcselPeriodFinalRange)
 80a16d8:	2901      	cmp	r1, #1
 80a16da:	d106      	bne.n	80a16ea <_ZN7VL53L0X19getVcselPulsePeriodENS_15vcselPeriodTypeE+0x1a>
  {
    return decodeVcselPeriod(readReg(FINAL_RANGE_CONFIG_VCSEL_PERIOD));
 80a16dc:	2170      	movs	r1, #112	; 0x70
 80a16de:	f7ff ff3e 	bl	80a155e <_ZN7VL53L0X7readRegEh>
 80a16e2:	3001      	adds	r0, #1
 80a16e4:	0040      	lsls	r0, r0, #1
 80a16e6:	b2c0      	uxtb	r0, r0
 80a16e8:	bd08      	pop	{r3, pc}
  }
  else { return 255; }
 80a16ea:	20ff      	movs	r0, #255	; 0xff
}
 80a16ec:	bd08      	pop	{r3, pc}

080a16ee <_ZN7VL53L0X15startContinuousEm>:
// often as possible); otherwise, continuous timed mode is used, with the given
// inter-measurement period in milliseconds determining how often the sensor
// takes a measurement.
// based on VL53L0X_StartMeasurement()
void VL53L0X::startContinuous(uint32_t period_ms)
{
 80a16ee:	b538      	push	{r3, r4, r5, lr}
 80a16f0:	4604      	mov	r4, r0
 80a16f2:	460d      	mov	r5, r1
  writeReg(0x80, 0x01);
 80a16f4:	2201      	movs	r2, #1
 80a16f6:	2180      	movs	r1, #128	; 0x80
 80a16f8:	f7ff fec2 	bl	80a1480 <_ZN7VL53L0X8writeRegEhh>
  writeReg(0xFF, 0x01);
 80a16fc:	2201      	movs	r2, #1
 80a16fe:	21ff      	movs	r1, #255	; 0xff
 80a1700:	4620      	mov	r0, r4
 80a1702:	f7ff febd 	bl	80a1480 <_ZN7VL53L0X8writeRegEhh>
  writeReg(0x00, 0x00);
 80a1706:	2200      	movs	r2, #0
 80a1708:	4611      	mov	r1, r2
 80a170a:	4620      	mov	r0, r4
 80a170c:	f7ff feb8 	bl	80a1480 <_ZN7VL53L0X8writeRegEhh>
  writeReg(0x91, stop_variable);
 80a1710:	7c22      	ldrb	r2, [r4, #16]
 80a1712:	2191      	movs	r1, #145	; 0x91
 80a1714:	4620      	mov	r0, r4
 80a1716:	f7ff feb3 	bl	80a1480 <_ZN7VL53L0X8writeRegEhh>
  writeReg(0x00, 0x01);
 80a171a:	2201      	movs	r2, #1
 80a171c:	2100      	movs	r1, #0
 80a171e:	4620      	mov	r0, r4
 80a1720:	f7ff feae 	bl	80a1480 <_ZN7VL53L0X8writeRegEhh>
  writeReg(0xFF, 0x00);
 80a1724:	2200      	movs	r2, #0
 80a1726:	21ff      	movs	r1, #255	; 0xff
 80a1728:	4620      	mov	r0, r4
 80a172a:	f7ff fea9 	bl	80a1480 <_ZN7VL53L0X8writeRegEhh>
  writeReg(0x80, 0x00);
 80a172e:	2200      	movs	r2, #0
 80a1730:	2180      	movs	r1, #128	; 0x80
 80a1732:	4620      	mov	r0, r4
 80a1734:	f7ff fea4 	bl	80a1480 <_ZN7VL53L0X8writeRegEhh>

  if (period_ms != 0)
 80a1738:	b16d      	cbz	r5, 80a1756 <_ZN7VL53L0X15startContinuousEm+0x68>
  {
    // continuous timed mode

    // VL53L0X_SetInterMeasurementPeriodMilliSeconds() begin

    uint16_t osc_calibrate_val = readReg16Bit(OSC_CALIBRATE_VAL);
 80a173a:	21f8      	movs	r1, #248	; 0xf8
 80a173c:	4620      	mov	r0, r4
 80a173e:	f7ff ff2e 	bl	80a159e <_ZN7VL53L0X12readReg16BitEh>

    if (osc_calibrate_val != 0)
 80a1742:	b100      	cbz	r0, 80a1746 <_ZN7VL53L0X15startContinuousEm+0x58>
    {
      period_ms *= osc_calibrate_val;
 80a1744:	4345      	muls	r5, r0
    }

    writeReg32Bit(SYSTEM_INTERMEASUREMENT_PERIOD, period_ms);
 80a1746:	462a      	mov	r2, r5
 80a1748:	2104      	movs	r1, #4
 80a174a:	4620      	mov	r0, r4
 80a174c:	f7ff fedc 	bl	80a1508 <_ZN7VL53L0X13writeReg32BitEhm>

    // VL53L0X_SetInterMeasurementPeriodMilliSeconds() end

    writeReg(SYSRANGE_START, 0x04); // VL53L0X_REG_SYSRANGE_MODE_TIMED
 80a1750:	2204      	movs	r2, #4
 80a1752:	2100      	movs	r1, #0
 80a1754:	e001      	b.n	80a175a <_ZN7VL53L0X15startContinuousEm+0x6c>
  }
  else
  {
    // continuous back-to-back mode
    writeReg(SYSRANGE_START, 0x02); // VL53L0X_REG_SYSRANGE_MODE_BACKTOBACK
 80a1756:	4629      	mov	r1, r5
 80a1758:	2202      	movs	r2, #2
 80a175a:	4620      	mov	r0, r4
  }
}
 80a175c:	e8bd 4038 	ldmia.w	sp!, {r3, r4, r5, lr}
    writeReg(SYSRANGE_START, 0x04); // VL53L0X_REG_SYSRANGE_MODE_TIMED
  }
  else
  {
    // continuous back-to-back mode
    writeReg(SYSRANGE_START, 0x02); // VL53L0X_REG_SYSRANGE_MODE_BACKTOBACK
 80a1760:	f7ff be8e 	b.w	80a1480 <_ZN7VL53L0X8writeRegEhh>

080a1764 <_ZN7VL53L0X30readRangeContinuousMillimetersEv>:

// Returns a range reading in millimeters when continuous mode is active
// (readRangeSingleMillimeters() also calls this function after starting a
// single-shot range measurement)
uint16_t VL53L0X::readRangeContinuousMillimeters(void)
{
 80a1764:	b538      	push	{r3, r4, r5, lr}
 80a1766:	4604      	mov	r4, r0
 80a1768:	f001 fcfe 	bl	80a3168 <HAL_Timer_Get_Milli_Seconds>
  startTimeout();
 80a176c:	60e0      	str	r0, [r4, #12]
  while ((readReg(RESULT_INTERRUPT_STATUS) & 0x07) == 0)
 80a176e:	2113      	movs	r1, #19
 80a1770:	4620      	mov	r0, r4
 80a1772:	f7ff fef4 	bl	80a155e <_ZN7VL53L0X7readRegEh>
 80a1776:	0743      	lsls	r3, r0, #29
 80a1778:	d10e      	bne.n	80a1798 <_ZN7VL53L0X30readRangeContinuousMillimetersEv+0x34>
  {
    if (checkTimeoutExpired())
 80a177a:	6863      	ldr	r3, [r4, #4]
 80a177c:	2b00      	cmp	r3, #0
 80a177e:	d0f6      	beq.n	80a176e <_ZN7VL53L0X30readRangeContinuousMillimetersEv+0xa>
 80a1780:	f001 fcf2 	bl	80a3168 <HAL_Timer_Get_Milli_Seconds>
 80a1784:	68e3      	ldr	r3, [r4, #12]
 80a1786:	1ac0      	subs	r0, r0, r3
 80a1788:	6863      	ldr	r3, [r4, #4]
 80a178a:	4298      	cmp	r0, r3
 80a178c:	d9ef      	bls.n	80a176e <_ZN7VL53L0X30readRangeContinuousMillimetersEv+0xa>
    {
      did_timeout = true;
 80a178e:	2301      	movs	r3, #1
 80a1790:	7223      	strb	r3, [r4, #8]
      return 65535;
 80a1792:	f64f 70ff 	movw	r0, #65535	; 0xffff
  uint16_t range = readReg16Bit(RESULT_RANGE_STATUS + 10);

  writeReg(SYSTEM_INTERRUPT_CLEAR, 0x01);

  return range;
}
 80a1796:	bd38      	pop	{r3, r4, r5, pc}
    }
  }

  // assumptions: Linearity Corrective Gain is 1000 (default);
  // fractional ranging is not enabled
  uint16_t range = readReg16Bit(RESULT_RANGE_STATUS + 10);
 80a1798:	211e      	movs	r1, #30
 80a179a:	4620      	mov	r0, r4
 80a179c:	f7ff feff 	bl	80a159e <_ZN7VL53L0X12readReg16BitEh>
 80a17a0:	4605      	mov	r5, r0

  writeReg(SYSTEM_INTERRUPT_CLEAR, 0x01);
 80a17a2:	2201      	movs	r2, #1
 80a17a4:	4620      	mov	r0, r4
 80a17a6:	210b      	movs	r1, #11
 80a17a8:	f7ff fe6a 	bl	80a1480 <_ZN7VL53L0X8writeRegEhh>
 80a17ac:	4628      	mov	r0, r5
 80a17ae:	bd38      	pop	{r3, r4, r5, pc}

080a17b0 <_ZN7VL53L0X15timeoutOccurredEv>:
}

// Did a timeout occur in one of the read functions since the last call to
// timeoutOccurred()?
bool VL53L0X::timeoutOccurred()
{
 80a17b0:	4603      	mov	r3, r0
  bool tmp = did_timeout;
  did_timeout = false;
 80a17b2:	2200      	movs	r2, #0

// Did a timeout occur in one of the read functions since the last call to
// timeoutOccurred()?
bool VL53L0X::timeoutOccurred()
{
  bool tmp = did_timeout;
 80a17b4:	7a00      	ldrb	r0, [r0, #8]
  did_timeout = false;
 80a17b6:	721a      	strb	r2, [r3, #8]
  return tmp;
}
 80a17b8:	4770      	bx	lr

080a17ba <_ZN7VL53L0X11getSpadInfoEPhPb>:

// Get reference SPAD (single photon avalanche diode) count and type
// based on VL53L0X_get_info_from_device(),
// but only gets reference SPAD count and type
bool VL53L0X::getSpadInfo(uint8_t * count, bool * type_is_aperture)
{
 80a17ba:	b5f8      	push	{r3, r4, r5, r6, r7, lr}
 80a17bc:	4604      	mov	r4, r0
 80a17be:	460f      	mov	r7, r1
 80a17c0:	4616      	mov	r6, r2
  uint8_t tmp;

  writeReg(0x80, 0x01);
 80a17c2:	2180      	movs	r1, #128	; 0x80
 80a17c4:	2201      	movs	r2, #1
 80a17c6:	f7ff fe5b 	bl	80a1480 <_ZN7VL53L0X8writeRegEhh>
  writeReg(0xFF, 0x01);
 80a17ca:	2201      	movs	r2, #1
 80a17cc:	21ff      	movs	r1, #255	; 0xff
 80a17ce:	4620      	mov	r0, r4
 80a17d0:	f7ff fe56 	bl	80a1480 <_ZN7VL53L0X8writeRegEhh>
  writeReg(0x00, 0x00);
 80a17d4:	2200      	movs	r2, #0
 80a17d6:	4611      	mov	r1, r2
 80a17d8:	4620      	mov	r0, r4
 80a17da:	f7ff fe51 	bl	80a1480 <_ZN7VL53L0X8writeRegEhh>

  writeReg(0xFF, 0x06);
 80a17de:	2206      	movs	r2, #6
 80a17e0:	21ff      	movs	r1, #255	; 0xff
 80a17e2:	4620      	mov	r0, r4
 80a17e4:	f7ff fe4c 	bl	80a1480 <_ZN7VL53L0X8writeRegEhh>
  writeReg(0x83, readReg(0x83) | 0x04);
 80a17e8:	2183      	movs	r1, #131	; 0x83
 80a17ea:	4620      	mov	r0, r4
 80a17ec:	f7ff feb7 	bl	80a155e <_ZN7VL53L0X7readRegEh>
 80a17f0:	f040 0204 	orr.w	r2, r0, #4
 80a17f4:	b2d2      	uxtb	r2, r2
 80a17f6:	2183      	movs	r1, #131	; 0x83
 80a17f8:	4620      	mov	r0, r4
 80a17fa:	f7ff fe41 	bl	80a1480 <_ZN7VL53L0X8writeRegEhh>
  writeReg(0xFF, 0x07);
 80a17fe:	2207      	movs	r2, #7
 80a1800:	21ff      	movs	r1, #255	; 0xff
 80a1802:	4620      	mov	r0, r4
 80a1804:	f7ff fe3c 	bl	80a1480 <_ZN7VL53L0X8writeRegEhh>
  writeReg(0x81, 0x01);
 80a1808:	2201      	movs	r2, #1
 80a180a:	2181      	movs	r1, #129	; 0x81
 80a180c:	4620      	mov	r0, r4
 80a180e:	f7ff fe37 	bl	80a1480 <_ZN7VL53L0X8writeRegEhh>

  writeReg(0x80, 0x01);
 80a1812:	2201      	movs	r2, #1
 80a1814:	2180      	movs	r1, #128	; 0x80
 80a1816:	4620      	mov	r0, r4
 80a1818:	f7ff fe32 	bl	80a1480 <_ZN7VL53L0X8writeRegEhh>

  writeReg(0x94, 0x6b);
 80a181c:	226b      	movs	r2, #107	; 0x6b
 80a181e:	2194      	movs	r1, #148	; 0x94
 80a1820:	4620      	mov	r0, r4
 80a1822:	f7ff fe2d 	bl	80a1480 <_ZN7VL53L0X8writeRegEhh>
  writeReg(0x83, 0x00);
 80a1826:	2200      	movs	r2, #0
 80a1828:	2183      	movs	r1, #131	; 0x83
 80a182a:	4620      	mov	r0, r4
 80a182c:	f7ff fe28 	bl	80a1480 <_ZN7VL53L0X8writeRegEhh>
 80a1830:	f001 fc9a 	bl	80a3168 <HAL_Timer_Get_Milli_Seconds>
  startTimeout();
 80a1834:	60e0      	str	r0, [r4, #12]
  while (readReg(0x83) == 0x00)
 80a1836:	2183      	movs	r1, #131	; 0x83
 80a1838:	4620      	mov	r0, r4
 80a183a:	f7ff fe90 	bl	80a155e <_ZN7VL53L0X7readRegEh>
 80a183e:	4605      	mov	r5, r0
 80a1840:	b958      	cbnz	r0, 80a185a <_ZN7VL53L0X11getSpadInfoEPhPb+0xa0>
  {
    if (checkTimeoutExpired()) { return false; }
 80a1842:	6863      	ldr	r3, [r4, #4]
 80a1844:	2b00      	cmp	r3, #0
 80a1846:	d0f6      	beq.n	80a1836 <_ZN7VL53L0X11getSpadInfoEPhPb+0x7c>
 80a1848:	f001 fc8e 	bl	80a3168 <HAL_Timer_Get_Milli_Seconds>
 80a184c:	68e3      	ldr	r3, [r4, #12]
 80a184e:	1ac0      	subs	r0, r0, r3
 80a1850:	6863      	ldr	r3, [r4, #4]
 80a1852:	4298      	cmp	r0, r3
 80a1854:	d9ef      	bls.n	80a1836 <_ZN7VL53L0X11getSpadInfoEPhPb+0x7c>
 80a1856:	4628      	mov	r0, r5

  writeReg(0xFF, 0x00);
  writeReg(0x80, 0x00);

  return true;
}
 80a1858:	bdf8      	pop	{r3, r4, r5, r6, r7, pc}
  startTimeout();
  while (readReg(0x83) == 0x00)
  {
    if (checkTimeoutExpired()) { return false; }
  }
  writeReg(0x83, 0x01);
 80a185a:	2201      	movs	r2, #1
 80a185c:	4620      	mov	r0, r4
 80a185e:	2183      	movs	r1, #131	; 0x83
 80a1860:	f7ff fe0e 	bl	80a1480 <_ZN7VL53L0X8writeRegEhh>
  tmp = readReg(0x92);
 80a1864:	2192      	movs	r1, #146	; 0x92
 80a1866:	4620      	mov	r0, r4
 80a1868:	f7ff fe79 	bl	80a155e <_ZN7VL53L0X7readRegEh>

  *count = tmp & 0x7f;
 80a186c:	f000 037f 	and.w	r3, r0, #127	; 0x7f
  *type_is_aperture = (tmp >> 7) & 0x01;
 80a1870:	f3c0 10c0 	ubfx	r0, r0, #7, #1
    if (checkTimeoutExpired()) { return false; }
  }
  writeReg(0x83, 0x01);
  tmp = readReg(0x92);

  *count = tmp & 0x7f;
 80a1874:	703b      	strb	r3, [r7, #0]
  *type_is_aperture = (tmp >> 7) & 0x01;

  writeReg(0x81, 0x00);
 80a1876:	2200      	movs	r2, #0
  }
  writeReg(0x83, 0x01);
  tmp = readReg(0x92);

  *count = tmp & 0x7f;
  *type_is_aperture = (tmp >> 7) & 0x01;
 80a1878:	7030      	strb	r0, [r6, #0]

  writeReg(0x81, 0x00);
 80a187a:	2181      	movs	r1, #129	; 0x81
 80a187c:	4620      	mov	r0, r4
 80a187e:	f7ff fdff 	bl	80a1480 <_ZN7VL53L0X8writeRegEhh>
  writeReg(0xFF, 0x06);
 80a1882:	2206      	movs	r2, #6
 80a1884:	4620      	mov	r0, r4
 80a1886:	21ff      	movs	r1, #255	; 0xff
 80a1888:	f7ff fdfa 	bl	80a1480 <_ZN7VL53L0X8writeRegEhh>
  writeReg(0x83, readReg( 0x83  & ~0x04));
 80a188c:	2183      	movs	r1, #131	; 0x83
 80a188e:	4620      	mov	r0, r4
 80a1890:	f7ff fe65 	bl	80a155e <_ZN7VL53L0X7readRegEh>
 80a1894:	2183      	movs	r1, #131	; 0x83
 80a1896:	4602      	mov	r2, r0
 80a1898:	4620      	mov	r0, r4
 80a189a:	f7ff fdf1 	bl	80a1480 <_ZN7VL53L0X8writeRegEhh>
  writeReg(0xFF, 0x01);
 80a189e:	4620      	mov	r0, r4
 80a18a0:	2201      	movs	r2, #1
 80a18a2:	21ff      	movs	r1, #255	; 0xff
 80a18a4:	f7ff fdec 	bl	80a1480 <_ZN7VL53L0X8writeRegEhh>
  writeReg(0x00, 0x01);
 80a18a8:	4620      	mov	r0, r4
 80a18aa:	2201      	movs	r2, #1
 80a18ac:	2100      	movs	r1, #0
 80a18ae:	f7ff fde7 	bl	80a1480 <_ZN7VL53L0X8writeRegEhh>

  writeReg(0xFF, 0x00);
 80a18b2:	4620      	mov	r0, r4
 80a18b4:	2200      	movs	r2, #0
 80a18b6:	21ff      	movs	r1, #255	; 0xff
 80a18b8:	f7ff fde2 	bl	80a1480 <_ZN7VL53L0X8writeRegEhh>
  writeReg(0x80, 0x00);
 80a18bc:	4620      	mov	r0, r4
 80a18be:	2200      	movs	r2, #0
 80a18c0:	2180      	movs	r1, #128	; 0x80
 80a18c2:	f7ff fddd 	bl	80a1480 <_ZN7VL53L0X8writeRegEhh>

  return true;
 80a18c6:	2001      	movs	r0, #1
 80a18c8:	bdf8      	pop	{r3, r4, r5, r6, r7, pc}

080a18ca <_ZN7VL53L0X22getSequenceStepEnablesEPNS_19SequenceStepEnablesE>:
}

// Get sequence step enables
// based on VL53L0X_GetSequenceStepEnables()
void VL53L0X::getSequenceStepEnables(SequenceStepEnables * enables)
{
 80a18ca:	b510      	push	{r4, lr}
 80a18cc:	460c      	mov	r4, r1
  uint8_t sequence_config = readReg(SYSTEM_SEQUENCE_CONFIG);
 80a18ce:	2101      	movs	r1, #1
 80a18d0:	f7ff fe45 	bl	80a155e <_ZN7VL53L0X7readRegEh>

  enables->tcc          = (sequence_config >> 4) & 0x1;
 80a18d4:	f3c0 1300 	ubfx	r3, r0, #4, #1
 80a18d8:	7023      	strb	r3, [r4, #0]
  enables->dss          = (sequence_config >> 3) & 0x1;
 80a18da:	f3c0 03c0 	ubfx	r3, r0, #3, #1
 80a18de:	70a3      	strb	r3, [r4, #2]
  enables->msrc         = (sequence_config >> 2) & 0x1;
 80a18e0:	f3c0 0380 	ubfx	r3, r0, #2, #1
 80a18e4:	7063      	strb	r3, [r4, #1]
  enables->pre_range    = (sequence_config >> 6) & 0x1;
 80a18e6:	f3c0 1380 	ubfx	r3, r0, #6, #1
  enables->final_range  = (sequence_config >> 7) & 0x1;
 80a18ea:	f3c0 10c0 	ubfx	r0, r0, #7, #1
  uint8_t sequence_config = readReg(SYSTEM_SEQUENCE_CONFIG);

  enables->tcc          = (sequence_config >> 4) & 0x1;
  enables->dss          = (sequence_config >> 3) & 0x1;
  enables->msrc         = (sequence_config >> 2) & 0x1;
  enables->pre_range    = (sequence_config >> 6) & 0x1;
 80a18ee:	70e3      	strb	r3, [r4, #3]
  enables->final_range  = (sequence_config >> 7) & 0x1;
 80a18f0:	7120      	strb	r0, [r4, #4]
 80a18f2:	bd10      	pop	{r4, pc}

080a18f4 <_ZN7VL53L0X13decodeTimeoutEm>:
// Decode sequence step timeout in MCLKs from register value
// based on VL53L0X_decode_timeout()
// Note: the original function returned a uint32_t, but the return value is
// always stored in a uint16_t.
uint16_t VL53L0X::decodeTimeout(uint32_t reg_val)
{
 80a18f4:	f64f 73ff 	movw	r3, #65535	; 0xffff
 80a18f8:	4298      	cmp	r0, r3
 80a18fa:	bf28      	it	cs
 80a18fc:	4618      	movcs	r0, r3
  if (reg_val > 0xFFFF) reg_val = 0xFFFF;
  // format: "(LSByte * 2^MSByte) + 1"
  return (uint16_t)((reg_val & 0x00FF) <<
         (uint16_t)((reg_val & 0xFF00) >> 8)) + 1;
 80a18fe:	b2c3      	uxtb	r3, r0
 80a1900:	0a00      	lsrs	r0, r0, #8
 80a1902:	fa03 f000 	lsl.w	r0, r3, r0
 80a1906:	3001      	adds	r0, #1
}
 80a1908:	b280      	uxth	r0, r0
 80a190a:	4770      	bx	lr

080a190c <_ZN7VL53L0X13encodeTimeoutEm>:
// based on VL53L0X_encode_timeout()
// Note: the original function took a uint16_t, but the argument passed to it
// is always uint32_t with uint16_t values only.
uint16_t VL53L0X::encodeTimeout(uint32_t timeout_mclks)
{
  if (timeout_mclks > 0xFFFF) timeout_mclks = 0xFFFF;
 80a190c:	f5b0 3f80 	cmp.w	r0, #65536	; 0x10000
 80a1910:	d201      	bcs.n	80a1916 <_ZN7VL53L0X13encodeTimeoutEm+0xa>

  // format: "(LSByte * 2^MSByte) + 1"
  uint32_t ls_byte = 0;
  uint16_t ms_byte = 0;

  if (timeout_mclks > 0)
 80a1912:	b178      	cbz	r0, 80a1934 <_ZN7VL53L0X13encodeTimeoutEm+0x28>
 80a1914:	e001      	b.n	80a191a <_ZN7VL53L0X13encodeTimeoutEm+0xe>
// based on VL53L0X_encode_timeout()
// Note: the original function took a uint16_t, but the argument passed to it
// is always uint32_t with uint16_t values only.
uint16_t VL53L0X::encodeTimeout(uint32_t timeout_mclks)
{
  if (timeout_mclks > 0xFFFF) timeout_mclks = 0xFFFF;
 80a1916:	f64f 70ff 	movw	r0, #65535	; 0xffff
  uint32_t ls_byte = 0;
  uint16_t ms_byte = 0;

  if (timeout_mclks > 0)
  {
    ls_byte = timeout_mclks - 1;
 80a191a:	3801      	subs	r0, #1
 80a191c:	2300      	movs	r3, #0

    while ((ls_byte & 0xFFFFFF00) > 0)
 80a191e:	f030 01ff 	bics.w	r1, r0, #255	; 0xff
 80a1922:	b29a      	uxth	r2, r3
 80a1924:	f103 0301 	add.w	r3, r3, #1
 80a1928:	d001      	beq.n	80a192e <_ZN7VL53L0X13encodeTimeoutEm+0x22>
    {
      ls_byte >>= 1;
 80a192a:	0840      	lsrs	r0, r0, #1

  if (timeout_mclks > 0)
  {
    ls_byte = timeout_mclks - 1;

    while ((ls_byte & 0xFFFFFF00) > 0)
 80a192c:	e7f7      	b.n	80a191e <_ZN7VL53L0X13encodeTimeoutEm+0x12>
    {
      ls_byte >>= 1;
      ms_byte++;
    }

    return (ms_byte << 8) | (ls_byte & 0xFF);
 80a192e:	ea40 2002 	orr.w	r0, r0, r2, lsl #8
 80a1932:	b280      	uxth	r0, r0
  }
  else { return 0; }
}
 80a1934:	4770      	bx	lr
	...

080a1938 <_ZN7VL53L0X26timeoutMclksToMicrosecondsEmh>:

// Convert sequence step timeout from MCLKs to microseconds with given VCSEL period in PCLKs
// based on VL53L0X_calc_timeout_us()
uint32_t VL53L0X::timeoutMclksToMicroseconds(uint32_t timeout_period_mclks, uint8_t vcsel_period_pclks)
{
  uint32_t macro_period_ns = calcMacroPeriod(vcsel_period_pclks);
 80a1938:	4b08      	ldr	r3, [pc, #32]	; (80a195c <_ZN7VL53L0X26timeoutMclksToMicrosecondsEmh+0x24>)

  return ((timeout_period_mclks * macro_period_ns) + (macro_period_ns / 2)) / 1000;
 80a193a:	f44f 727a 	mov.w	r2, #1000	; 0x3e8

// Convert sequence step timeout from MCLKs to microseconds with given VCSEL period in PCLKs
// based on VL53L0X_calc_timeout_us()
uint32_t VL53L0X::timeoutMclksToMicroseconds(uint32_t timeout_period_mclks, uint8_t vcsel_period_pclks)
{
  uint32_t macro_period_ns = calcMacroPeriod(vcsel_period_pclks);
 80a193e:	4359      	muls	r1, r3
}

// Convert sequence step timeout from MCLKs to microseconds with given VCSEL period in PCLKs
// based on VL53L0X_calc_timeout_us()
uint32_t VL53L0X::timeoutMclksToMicroseconds(uint32_t timeout_period_mclks, uint8_t vcsel_period_pclks)
{
 80a1940:	b510      	push	{r4, lr}
  uint32_t macro_period_ns = calcMacroPeriod(vcsel_period_pclks);
 80a1942:	f501 71fa 	add.w	r1, r1, #500	; 0x1f4

  return ((timeout_period_mclks * macro_period_ns) + (macro_period_ns / 2)) / 1000;
 80a1946:	f44f 64fa 	mov.w	r4, #2000	; 0x7d0
 80a194a:	fbb1 f3f2 	udiv	r3, r1, r2
 80a194e:	fbb1 f1f4 	udiv	r1, r1, r4
 80a1952:	fb00 1003 	mla	r0, r0, r3, r1
}
 80a1956:	fbb0 f0f2 	udiv	r0, r0, r2
 80a195a:	bd10      	pop	{r4, pc}
 80a195c:	003a2f00 	.word	0x003a2f00

080a1960 <_ZN7VL53L0X23getSequenceStepTimeoutsEPKNS_19SequenceStepEnablesEPNS_20SequenceStepTimeoutsE>:
// Get sequence step timeouts
// based on get_sequence_step_timeout(),
// but gets all timeouts instead of just the requested one, and also stores
// intermediate values
void VL53L0X::getSequenceStepTimeouts(SequenceStepEnables const * enables, SequenceStepTimeouts * timeouts)
{
 80a1960:	b570      	push	{r4, r5, r6, lr}
 80a1962:	460e      	mov	r6, r1
  timeouts->pre_range_vcsel_period_pclks = getVcselPulsePeriod(VcselPeriodPreRange);
 80a1964:	2100      	movs	r1, #0
// Get sequence step timeouts
// based on get_sequence_step_timeout(),
// but gets all timeouts instead of just the requested one, and also stores
// intermediate values
void VL53L0X::getSequenceStepTimeouts(SequenceStepEnables const * enables, SequenceStepTimeouts * timeouts)
{
 80a1966:	4614      	mov	r4, r2
 80a1968:	4605      	mov	r5, r0
  timeouts->pre_range_vcsel_period_pclks = getVcselPulsePeriod(VcselPeriodPreRange);
 80a196a:	f7ff feb1 	bl	80a16d0 <_ZN7VL53L0X19getVcselPulsePeriodENS_15vcselPeriodTypeE>

  timeouts->msrc_dss_tcc_mclks = readReg(MSRC_CONFIG_TIMEOUT_MACROP) + 1;
 80a196e:	2146      	movs	r1, #70	; 0x46
// based on get_sequence_step_timeout(),
// but gets all timeouts instead of just the requested one, and also stores
// intermediate values
void VL53L0X::getSequenceStepTimeouts(SequenceStepEnables const * enables, SequenceStepTimeouts * timeouts)
{
  timeouts->pre_range_vcsel_period_pclks = getVcselPulsePeriod(VcselPeriodPreRange);
 80a1970:	8020      	strh	r0, [r4, #0]

  timeouts->msrc_dss_tcc_mclks = readReg(MSRC_CONFIG_TIMEOUT_MACROP) + 1;
 80a1972:	4628      	mov	r0, r5
 80a1974:	f7ff fdf3 	bl	80a155e <_ZN7VL53L0X7readRegEh>
 80a1978:	3001      	adds	r0, #1
 80a197a:	b280      	uxth	r0, r0
  timeouts->msrc_dss_tcc_us =
    timeoutMclksToMicroseconds(timeouts->msrc_dss_tcc_mclks,
 80a197c:	7821      	ldrb	r1, [r4, #0]
// intermediate values
void VL53L0X::getSequenceStepTimeouts(SequenceStepEnables const * enables, SequenceStepTimeouts * timeouts)
{
  timeouts->pre_range_vcsel_period_pclks = getVcselPulsePeriod(VcselPeriodPreRange);

  timeouts->msrc_dss_tcc_mclks = readReg(MSRC_CONFIG_TIMEOUT_MACROP) + 1;
 80a197e:	80a0      	strh	r0, [r4, #4]
  timeouts->msrc_dss_tcc_us =
    timeoutMclksToMicroseconds(timeouts->msrc_dss_tcc_mclks,
 80a1980:	f7ff ffda 	bl	80a1938 <_ZN7VL53L0X26timeoutMclksToMicrosecondsEmh>
                               timeouts->pre_range_vcsel_period_pclks);

  timeouts->pre_range_mclks =
    decodeTimeout(readReg16Bit(PRE_RANGE_CONFIG_TIMEOUT_MACROP_HI));
 80a1984:	2151      	movs	r1, #81	; 0x51
  timeouts->pre_range_vcsel_period_pclks = getVcselPulsePeriod(VcselPeriodPreRange);

  timeouts->msrc_dss_tcc_mclks = readReg(MSRC_CONFIG_TIMEOUT_MACROP) + 1;
  timeouts->msrc_dss_tcc_us =
    timeoutMclksToMicroseconds(timeouts->msrc_dss_tcc_mclks,
                               timeouts->pre_range_vcsel_period_pclks);
 80a1986:	60e0      	str	r0, [r4, #12]

  timeouts->pre_range_mclks =
    decodeTimeout(readReg16Bit(PRE_RANGE_CONFIG_TIMEOUT_MACROP_HI));
 80a1988:	4628      	mov	r0, r5
 80a198a:	f7ff fe08 	bl	80a159e <_ZN7VL53L0X12readReg16BitEh>
 80a198e:	f7ff ffb1 	bl	80a18f4 <_ZN7VL53L0X13decodeTimeoutEm>
  timeouts->pre_range_us =
    timeoutMclksToMicroseconds(timeouts->pre_range_mclks,
 80a1992:	7821      	ldrb	r1, [r4, #0]
  timeouts->msrc_dss_tcc_us =
    timeoutMclksToMicroseconds(timeouts->msrc_dss_tcc_mclks,
                               timeouts->pre_range_vcsel_period_pclks);

  timeouts->pre_range_mclks =
    decodeTimeout(readReg16Bit(PRE_RANGE_CONFIG_TIMEOUT_MACROP_HI));
 80a1994:	80e0      	strh	r0, [r4, #6]
  timeouts->pre_range_us =
    timeoutMclksToMicroseconds(timeouts->pre_range_mclks,
 80a1996:	f7ff ffcf 	bl	80a1938 <_ZN7VL53L0X26timeoutMclksToMicrosecondsEmh>
  {
    return decodeVcselPeriod(readReg(PRE_RANGE_CONFIG_VCSEL_PERIOD));
  }
  else if (type == VcselPeriodFinalRange)
  {
    return decodeVcselPeriod(readReg(FINAL_RANGE_CONFIG_VCSEL_PERIOD));
 80a199a:	2170      	movs	r1, #112	; 0x70

  timeouts->pre_range_mclks =
    decodeTimeout(readReg16Bit(PRE_RANGE_CONFIG_TIMEOUT_MACROP_HI));
  timeouts->pre_range_us =
    timeoutMclksToMicroseconds(timeouts->pre_range_mclks,
                               timeouts->pre_range_vcsel_period_pclks);
 80a199c:	6120      	str	r0, [r4, #16]
  {
    return decodeVcselPeriod(readReg(PRE_RANGE_CONFIG_VCSEL_PERIOD));
  }
  else if (type == VcselPeriodFinalRange)
  {
    return decodeVcselPeriod(readReg(FINAL_RANGE_CONFIG_VCSEL_PERIOD));
 80a199e:	4628      	mov	r0, r5
 80a19a0:	f7ff fddd 	bl	80a155e <_ZN7VL53L0X7readRegEh>
    decodeTimeout(readReg16Bit(PRE_RANGE_CONFIG_TIMEOUT_MACROP_HI));
  timeouts->pre_range_us =
    timeoutMclksToMicroseconds(timeouts->pre_range_mclks,
                               timeouts->pre_range_vcsel_period_pclks);

  timeouts->final_range_vcsel_period_pclks = getVcselPulsePeriod(VcselPeriodFinalRange);
 80a19a4:	3001      	adds	r0, #1
 80a19a6:	0040      	lsls	r0, r0, #1
 80a19a8:	b2c0      	uxtb	r0, r0
 80a19aa:	8060      	strh	r0, [r4, #2]

  timeouts->final_range_mclks =
    decodeTimeout(readReg16Bit(FINAL_RANGE_CONFIG_TIMEOUT_MACROP_HI));
 80a19ac:	2171      	movs	r1, #113	; 0x71
 80a19ae:	4628      	mov	r0, r5
 80a19b0:	f7ff fdf5 	bl	80a159e <_ZN7VL53L0X12readReg16BitEh>
 80a19b4:	f7ff ff9e 	bl	80a18f4 <_ZN7VL53L0X13decodeTimeoutEm>
 80a19b8:	8120      	strh	r0, [r4, #8]

  if (enables->pre_range)
 80a19ba:	78f3      	ldrb	r3, [r6, #3]
 80a19bc:	b113      	cbz	r3, 80a19c4 <_ZN7VL53L0X23getSequenceStepTimeoutsEPKNS_19SequenceStepEnablesEPNS_20SequenceStepTimeoutsE+0x64>
  {
    timeouts->final_range_mclks -= timeouts->pre_range_mclks;
 80a19be:	88e3      	ldrh	r3, [r4, #6]
 80a19c0:	1ac0      	subs	r0, r0, r3
 80a19c2:	8120      	strh	r0, [r4, #8]
  }

  timeouts->final_range_us =
    timeoutMclksToMicroseconds(timeouts->final_range_mclks,
 80a19c4:	78a1      	ldrb	r1, [r4, #2]
 80a19c6:	8920      	ldrh	r0, [r4, #8]
 80a19c8:	f7ff ffb6 	bl	80a1938 <_ZN7VL53L0X26timeoutMclksToMicrosecondsEmh>
                               timeouts->final_range_vcsel_period_pclks);
 80a19cc:	6160      	str	r0, [r4, #20]
 80a19ce:	bd70      	pop	{r4, r5, r6, pc}

080a19d0 <_ZN7VL53L0X26getMeasurementTimingBudgetEv>:

// Get the measurement timing budget in microseconds
// based on VL53L0X_get_measurement_timing_budget_micro_seconds()
// in us
uint32_t VL53L0X::getMeasurementTimingBudget(void)
{
 80a19d0:	b510      	push	{r4, lr}
 80a19d2:	4604      	mov	r4, r0
 80a19d4:	b088      	sub	sp, #32
  uint16_t const FinalRangeOverhead = 550;

  // "Start and end overhead times always present"
  uint32_t budget_us = StartOverhead + EndOverhead;

  getSequenceStepEnables(&enables);
 80a19d6:	4669      	mov	r1, sp
 80a19d8:	f7ff ff77 	bl	80a18ca <_ZN7VL53L0X22getSequenceStepEnablesEPNS_19SequenceStepEnablesE>
  getSequenceStepTimeouts(&enables, &timeouts);
 80a19dc:	aa02      	add	r2, sp, #8
 80a19de:	4669      	mov	r1, sp
 80a19e0:	4620      	mov	r0, r4
 80a19e2:	f7ff ffbd 	bl	80a1960 <_ZN7VL53L0X23getSequenceStepTimeoutsEPKNS_19SequenceStepEnablesEPNS_20SequenceStepTimeoutsE>

  if (enables.tcc)
 80a19e6:	f89d 3000 	ldrb.w	r3, [sp]
 80a19ea:	b11b      	cbz	r3, 80a19f4 <_ZN7VL53L0X26getMeasurementTimingBudgetEv+0x24>
  {
    budget_us += (timeouts.msrc_dss_tcc_us + TccOverhead);
 80a19ec:	9805      	ldr	r0, [sp, #20]
 80a19ee:	f600 5084 	addw	r0, r0, #3460	; 0xd84
 80a19f2:	e001      	b.n	80a19f8 <_ZN7VL53L0X26getMeasurementTimingBudgetEv+0x28>
  uint16_t const DssOverhead        = 690;
  uint16_t const PreRangeOverhead   = 660;
  uint16_t const FinalRangeOverhead = 550;

  // "Start and end overhead times always present"
  uint32_t budget_us = StartOverhead + EndOverhead;
 80a19f4:	f640 3036 	movw	r0, #2870	; 0xb36
  if (enables.tcc)
  {
    budget_us += (timeouts.msrc_dss_tcc_us + TccOverhead);
  }

  if (enables.dss)
 80a19f8:	f89d 3002 	ldrb.w	r3, [sp, #2]
 80a19fc:	b12b      	cbz	r3, 80a1a0a <_ZN7VL53L0X26getMeasurementTimingBudgetEv+0x3a>
  {
    budget_us += 2 * (timeouts.msrc_dss_tcc_us + DssOverhead);
 80a19fe:	9b05      	ldr	r3, [sp, #20]
 80a1a00:	f203 23b2 	addw	r3, r3, #690	; 0x2b2
 80a1a04:	eb00 0043 	add.w	r0, r0, r3, lsl #1
 80a1a08:	e006      	b.n	80a1a18 <_ZN7VL53L0X26getMeasurementTimingBudgetEv+0x48>
  }
  else if (enables.msrc)
 80a1a0a:	f89d 3001 	ldrb.w	r3, [sp, #1]
 80a1a0e:	b11b      	cbz	r3, 80a1a18 <_ZN7VL53L0X26getMeasurementTimingBudgetEv+0x48>
  {
    budget_us += (timeouts.msrc_dss_tcc_us + MsrcOverhead);
 80a1a10:	9b05      	ldr	r3, [sp, #20]
 80a1a12:	f503 7325 	add.w	r3, r3, #660	; 0x294
 80a1a16:	4418      	add	r0, r3
  }

  if (enables.pre_range)
 80a1a18:	f89d 3003 	ldrb.w	r3, [sp, #3]
 80a1a1c:	b11b      	cbz	r3, 80a1a26 <_ZN7VL53L0X26getMeasurementTimingBudgetEv+0x56>
  {
    budget_us += (timeouts.pre_range_us + PreRangeOverhead);
 80a1a1e:	9b06      	ldr	r3, [sp, #24]
 80a1a20:	f503 7325 	add.w	r3, r3, #660	; 0x294
 80a1a24:	4418      	add	r0, r3
  }

  if (enables.final_range)
 80a1a26:	f89d 3004 	ldrb.w	r3, [sp, #4]
 80a1a2a:	b11b      	cbz	r3, 80a1a34 <_ZN7VL53L0X26getMeasurementTimingBudgetEv+0x64>
  {
    budget_us += (timeouts.final_range_us + FinalRangeOverhead);
 80a1a2c:	9b07      	ldr	r3, [sp, #28]
 80a1a2e:	f203 2326 	addw	r3, r3, #550	; 0x226
 80a1a32:	4418      	add	r0, r3
  }

  measurement_timing_budget_us = budget_us; // store for internal reuse
 80a1a34:	6160      	str	r0, [r4, #20]
  return budget_us;
}
 80a1a36:	b008      	add	sp, #32
 80a1a38:	bd10      	pop	{r4, pc}
	...

080a1a3c <_ZN7VL53L0X26timeoutMicrosecondsToMclksEmh>:

// Convert sequence step timeout from microseconds to MCLKs with given VCSEL period in PCLKs
// based on VL53L0X_calc_timeout_mclks()
uint32_t VL53L0X::timeoutMicrosecondsToMclks(uint32_t timeout_period_us, uint8_t vcsel_period_pclks)
{
  uint32_t macro_period_ns = calcMacroPeriod(vcsel_period_pclks);
 80a1a3c:	4b08      	ldr	r3, [pc, #32]	; (80a1a60 <_ZN7VL53L0X26timeoutMicrosecondsToMclksEmh+0x24>)

  return (((timeout_period_us * 1000) + (macro_period_ns / 2)) / macro_period_ns);
 80a1a3e:	f44f 727a 	mov.w	r2, #1000	; 0x3e8

// Convert sequence step timeout from microseconds to MCLKs with given VCSEL period in PCLKs
// based on VL53L0X_calc_timeout_mclks()
uint32_t VL53L0X::timeoutMicrosecondsToMclks(uint32_t timeout_period_us, uint8_t vcsel_period_pclks)
{
  uint32_t macro_period_ns = calcMacroPeriod(vcsel_period_pclks);
 80a1a42:	4359      	muls	r1, r3

  return (((timeout_period_us * 1000) + (macro_period_ns / 2)) / macro_period_ns);
 80a1a44:	f44f 63fa 	mov.w	r3, #2000	; 0x7d0

// Convert sequence step timeout from microseconds to MCLKs with given VCSEL period in PCLKs
// based on VL53L0X_calc_timeout_mclks()
uint32_t VL53L0X::timeoutMicrosecondsToMclks(uint32_t timeout_period_us, uint8_t vcsel_period_pclks)
{
  uint32_t macro_period_ns = calcMacroPeriod(vcsel_period_pclks);
 80a1a48:	f501 71fa 	add.w	r1, r1, #500	; 0x1f4

  return (((timeout_period_us * 1000) + (macro_period_ns / 2)) / macro_period_ns);
 80a1a4c:	fbb1 f3f3 	udiv	r3, r1, r3
 80a1a50:	fbb1 f1f2 	udiv	r1, r1, r2
 80a1a54:	fb02 3000 	mla	r0, r2, r0, r3
}
 80a1a58:	fbb0 f0f1 	udiv	r0, r0, r1
 80a1a5c:	4770      	bx	lr
 80a1a5e:	bf00      	nop
 80a1a60:	003a2f00 	.word	0x003a2f00

080a1a64 <_ZN7VL53L0X26setMeasurementTimingBudgetEm>:
  uint16_t const PreRangeOverhead   = 660;
  uint16_t const FinalRangeOverhead = 550;

  uint32_t const MinTimingBudget = 20000;

  if (budget_us < MinTimingBudget) { return false; }
 80a1a64:	f644 631f 	movw	r3, #19999	; 0x4e1f
// budget allows for more accurate measurements. Increasing the budget by a
// factor of N decreases the range measurement standard deviation by a factor of
// sqrt(N). Defaults to about 33 milliseconds; the minimum is 20 ms.
// based on VL53L0X_set_measurement_timing_budget_micro_seconds()
bool VL53L0X::setMeasurementTimingBudget(uint32_t budget_us)
{
 80a1a68:	b5f0      	push	{r4, r5, r6, r7, lr}
  uint16_t const PreRangeOverhead   = 660;
  uint16_t const FinalRangeOverhead = 550;

  uint32_t const MinTimingBudget = 20000;

  if (budget_us < MinTimingBudget) { return false; }
 80a1a6a:	4299      	cmp	r1, r3
// budget allows for more accurate measurements. Increasing the budget by a
// factor of N decreases the range measurement standard deviation by a factor of
// sqrt(N). Defaults to about 33 milliseconds; the minimum is 20 ms.
// based on VL53L0X_set_measurement_timing_budget_micro_seconds()
bool VL53L0X::setMeasurementTimingBudget(uint32_t budget_us)
{
 80a1a6c:	b089      	sub	sp, #36	; 0x24
 80a1a6e:	4606      	mov	r6, r0
 80a1a70:	460d      	mov	r5, r1
  uint16_t const PreRangeOverhead   = 660;
  uint16_t const FinalRangeOverhead = 550;

  uint32_t const MinTimingBudget = 20000;

  if (budget_us < MinTimingBudget) { return false; }
 80a1a72:	d942      	bls.n	80a1afa <_ZN7VL53L0X26setMeasurementTimingBudgetEm+0x96>

  uint32_t used_budget_us = StartOverhead + EndOverhead;

  getSequenceStepEnables(&enables);
 80a1a74:	4669      	mov	r1, sp
 80a1a76:	f7ff ff28 	bl	80a18ca <_ZN7VL53L0X22getSequenceStepEnablesEPNS_19SequenceStepEnablesE>
  getSequenceStepTimeouts(&enables, &timeouts);
 80a1a7a:	aa02      	add	r2, sp, #8
 80a1a7c:	4669      	mov	r1, sp
 80a1a7e:	4630      	mov	r0, r6
 80a1a80:	f7ff ff6e 	bl	80a1960 <_ZN7VL53L0X23getSequenceStepTimeoutsEPKNS_19SequenceStepEnablesEPNS_20SequenceStepTimeoutsE>

  if (enables.tcc)
 80a1a84:	f89d 3000 	ldrb.w	r3, [sp]
 80a1a88:	b11b      	cbz	r3, 80a1a92 <_ZN7VL53L0X26setMeasurementTimingBudgetEm+0x2e>
  {
    used_budget_us += (timeouts.msrc_dss_tcc_us + TccOverhead);
 80a1a8a:	9805      	ldr	r0, [sp, #20]
 80a1a8c:	f600 3036 	addw	r0, r0, #2870	; 0xb36
 80a1a90:	e001      	b.n	80a1a96 <_ZN7VL53L0X26setMeasurementTimingBudgetEm+0x32>

  uint32_t const MinTimingBudget = 20000;

  if (budget_us < MinTimingBudget) { return false; }

  uint32_t used_budget_us = StartOverhead + EndOverhead;
 80a1a92:	f640 00e8 	movw	r0, #2280	; 0x8e8
  if (enables.tcc)
  {
    used_budget_us += (timeouts.msrc_dss_tcc_us + TccOverhead);
  }

  if (enables.dss)
 80a1a96:	f89d 3002 	ldrb.w	r3, [sp, #2]
 80a1a9a:	b12b      	cbz	r3, 80a1aa8 <_ZN7VL53L0X26setMeasurementTimingBudgetEm+0x44>
  {
    used_budget_us += 2 * (timeouts.msrc_dss_tcc_us + DssOverhead);
 80a1a9c:	9b05      	ldr	r3, [sp, #20]
 80a1a9e:	f203 23b2 	addw	r3, r3, #690	; 0x2b2
 80a1aa2:	eb00 0043 	add.w	r0, r0, r3, lsl #1
 80a1aa6:	e006      	b.n	80a1ab6 <_ZN7VL53L0X26setMeasurementTimingBudgetEm+0x52>
  }
  else if (enables.msrc)
 80a1aa8:	f89d 3001 	ldrb.w	r3, [sp, #1]
 80a1aac:	b11b      	cbz	r3, 80a1ab6 <_ZN7VL53L0X26setMeasurementTimingBudgetEm+0x52>
  {
    used_budget_us += (timeouts.msrc_dss_tcc_us + MsrcOverhead);
 80a1aae:	9b05      	ldr	r3, [sp, #20]
 80a1ab0:	f503 7325 	add.w	r3, r3, #660	; 0x294
 80a1ab4:	4418      	add	r0, r3
  }

  if (enables.pre_range)
 80a1ab6:	f89d 7003 	ldrb.w	r7, [sp, #3]
 80a1aba:	b11f      	cbz	r7, 80a1ac4 <_ZN7VL53L0X26setMeasurementTimingBudgetEm+0x60>
  {
    used_budget_us += (timeouts.pre_range_us + PreRangeOverhead);
 80a1abc:	9b06      	ldr	r3, [sp, #24]
 80a1abe:	f503 7325 	add.w	r3, r3, #660	; 0x294
 80a1ac2:	4418      	add	r0, r3
  }

  if (enables.final_range)
 80a1ac4:	f89d 4004 	ldrb.w	r4, [sp, #4]
 80a1ac8:	b1ac      	cbz	r4, 80a1af6 <_ZN7VL53L0X26setMeasurementTimingBudgetEm+0x92>
  {
    used_budget_us += FinalRangeOverhead;
 80a1aca:	f200 2026 	addw	r0, r0, #550	; 0x226
    // budget and the sum of all other timeouts within the sequence.
    // If there is no room for the final range timeout, then an error
    // will be set. Otherwise the remaining time will be applied to
    // the final range."

    if (used_budget_us > budget_us)
 80a1ace:	4285      	cmp	r5, r0
 80a1ad0:	d313      	bcc.n	80a1afa <_ZN7VL53L0X26setMeasurementTimingBudgetEm+0x96>
    //  timeouts must be expressed in macro periods MClks
    //  because they have different vcsel periods."

    uint32_t final_range_timeout_mclks =
      timeoutMicrosecondsToMclks(final_range_timeout_us,
                                 timeouts.final_range_vcsel_period_pclks);
 80a1ad2:	f89d 100a 	ldrb.w	r1, [sp, #10]
 80a1ad6:	1a28      	subs	r0, r5, r0
 80a1ad8:	f7ff ffb0 	bl	80a1a3c <_ZN7VL53L0X26timeoutMicrosecondsToMclksEmh>

    if (enables.pre_range)
 80a1adc:	b117      	cbz	r7, 80a1ae4 <_ZN7VL53L0X26setMeasurementTimingBudgetEm+0x80>
    {
      final_range_timeout_mclks += timeouts.pre_range_mclks;
 80a1ade:	f8bd 300e 	ldrh.w	r3, [sp, #14]
 80a1ae2:	4418      	add	r0, r3
    }

    writeReg16Bit(FINAL_RANGE_CONFIG_TIMEOUT_MACROP_HI,
 80a1ae4:	f7ff ff12 	bl	80a190c <_ZN7VL53L0X13encodeTimeoutEm>
      encodeTimeout(final_range_timeout_mclks));
 80a1ae8:	2171      	movs	r1, #113	; 0x71
 80a1aea:	4602      	mov	r2, r0
 80a1aec:	4630      	mov	r0, r6
 80a1aee:	f7ff fcec 	bl	80a14ca <_ZN7VL53L0X13writeReg16BitEht>

    // set_sequence_step_timeout() end

    measurement_timing_budget_us = budget_us; // store for internal reuse
 80a1af2:	6175      	str	r5, [r6, #20]
 80a1af4:	e002      	b.n	80a1afc <_ZN7VL53L0X26setMeasurementTimingBudgetEm+0x98>
  }
  return true;
 80a1af6:	2401      	movs	r4, #1
 80a1af8:	e000      	b.n	80a1afc <_ZN7VL53L0X26setMeasurementTimingBudgetEm+0x98>
  uint16_t const PreRangeOverhead   = 660;
  uint16_t const FinalRangeOverhead = 550;

  uint32_t const MinTimingBudget = 20000;

  if (budget_us < MinTimingBudget) { return false; }
 80a1afa:	2400      	movs	r4, #0
    // set_sequence_step_timeout() end

    measurement_timing_budget_us = budget_us; // store for internal reuse
  }
  return true;
}
 80a1afc:	4620      	mov	r0, r4
 80a1afe:	b009      	add	sp, #36	; 0x24
 80a1b00:	bdf0      	pop	{r4, r5, r6, r7, pc}

080a1b02 <_ZN7VL53L0X27performSingleRefCalibrationEh>:
}


// based on VL53L0X_perform_single_ref_calibration()
bool VL53L0X::performSingleRefCalibration(uint8_t vhv_init_byte)
{
 80a1b02:	b538      	push	{r3, r4, r5, lr}
  writeReg(SYSRANGE_START, 0x01 | vhv_init_byte); // VL53L0X_REG_SYSRANGE_MODE_START_STOP
 80a1b04:	f041 0201 	orr.w	r2, r1, #1
 80a1b08:	2100      	movs	r1, #0
}


// based on VL53L0X_perform_single_ref_calibration()
bool VL53L0X::performSingleRefCalibration(uint8_t vhv_init_byte)
{
 80a1b0a:	4604      	mov	r4, r0
  writeReg(SYSRANGE_START, 0x01 | vhv_init_byte); // VL53L0X_REG_SYSRANGE_MODE_START_STOP
 80a1b0c:	f7ff fcb8 	bl	80a1480 <_ZN7VL53L0X8writeRegEhh>
 80a1b10:	f001 fb2a 	bl	80a3168 <HAL_Timer_Get_Milli_Seconds>

  startTimeout();
 80a1b14:	60e0      	str	r0, [r4, #12]
  while ((readReg(RESULT_INTERRUPT_STATUS) & 0x07) == 0)
 80a1b16:	2113      	movs	r1, #19
 80a1b18:	4620      	mov	r0, r4
 80a1b1a:	f7ff fd20 	bl	80a155e <_ZN7VL53L0X7readRegEh>
 80a1b1e:	f010 0507 	ands.w	r5, r0, #7
 80a1b22:	d10b      	bne.n	80a1b3c <_ZN7VL53L0X27performSingleRefCalibrationEh+0x3a>
  {
    if (checkTimeoutExpired()) { return false; }
 80a1b24:	6863      	ldr	r3, [r4, #4]
 80a1b26:	2b00      	cmp	r3, #0
 80a1b28:	d0f5      	beq.n	80a1b16 <_ZN7VL53L0X27performSingleRefCalibrationEh+0x14>
 80a1b2a:	f001 fb1d 	bl	80a3168 <HAL_Timer_Get_Milli_Seconds>
 80a1b2e:	68e3      	ldr	r3, [r4, #12]
 80a1b30:	1ac0      	subs	r0, r0, r3
 80a1b32:	6863      	ldr	r3, [r4, #4]
 80a1b34:	4298      	cmp	r0, r3
 80a1b36:	d9ee      	bls.n	80a1b16 <_ZN7VL53L0X27performSingleRefCalibrationEh+0x14>
 80a1b38:	4628      	mov	r0, r5
  writeReg(SYSTEM_INTERRUPT_CLEAR, 0x01);

  writeReg(SYSRANGE_START, 0x00);

  return true;
}
 80a1b3a:	bd38      	pop	{r3, r4, r5, pc}
  while ((readReg(RESULT_INTERRUPT_STATUS) & 0x07) == 0)
  {
    if (checkTimeoutExpired()) { return false; }
  }

  writeReg(SYSTEM_INTERRUPT_CLEAR, 0x01);
 80a1b3c:	4620      	mov	r0, r4
 80a1b3e:	2201      	movs	r2, #1
 80a1b40:	210b      	movs	r1, #11
 80a1b42:	f7ff fc9d 	bl	80a1480 <_ZN7VL53L0X8writeRegEhh>

  writeReg(SYSRANGE_START, 0x00);
 80a1b46:	2200      	movs	r2, #0
 80a1b48:	4620      	mov	r0, r4
 80a1b4a:	4611      	mov	r1, r2
 80a1b4c:	f7ff fc98 	bl	80a1480 <_ZN7VL53L0X8writeRegEhh>
 80a1b50:	2001      	movs	r0, #1
 80a1b52:	bd38      	pop	{r3, r4, r5, pc}

080a1b54 <_ZN7VL53L0X4initEb>:
// is performed by ST on the bare modules; it seems like that should work well
// enough unless a cover glass is added.
// If io_2v8 (optional) is true or not given, the sensor is configured for 2V8
// mode.
bool VL53L0X::init(bool io_2v8)
{
 80a1b54:	b5f0      	push	{r4, r5, r6, r7, lr}
 80a1b56:	4604      	mov	r4, r0
 80a1b58:	b085      	sub	sp, #20
  // VL53L0X_DataInit() begin

  // sensor uses 1V8 mode for I/O by default; switch to 2V8 mode if necessary
  if (io_2v8)
 80a1b5a:	b149      	cbz	r1, 80a1b70 <_ZN7VL53L0X4initEb+0x1c>
  {
    writeReg(VHV_CONFIG_PAD_SCL_SDA__EXTSUP_HV,
      readReg(VHV_CONFIG_PAD_SCL_SDA__EXTSUP_HV) | 0x01); // set bit 0
 80a1b5c:	2189      	movs	r1, #137	; 0x89
 80a1b5e:	f7ff fcfe 	bl	80a155e <_ZN7VL53L0X7readRegEh>
 80a1b62:	f040 0201 	orr.w	r2, r0, #1
 80a1b66:	b2d2      	uxtb	r2, r2
 80a1b68:	2189      	movs	r1, #137	; 0x89
 80a1b6a:	4620      	mov	r0, r4
 80a1b6c:	f7ff fc88 	bl	80a1480 <_ZN7VL53L0X8writeRegEhh>
  }

  // "Set I2C standard mode"
  writeReg(0x88, 0x00);
 80a1b70:	2200      	movs	r2, #0
 80a1b72:	2188      	movs	r1, #136	; 0x88
 80a1b74:	4620      	mov	r0, r4
 80a1b76:	f7ff fc83 	bl	80a1480 <_ZN7VL53L0X8writeRegEhh>

  writeReg(0x80, 0x01);
 80a1b7a:	2201      	movs	r2, #1
 80a1b7c:	2180      	movs	r1, #128	; 0x80
 80a1b7e:	4620      	mov	r0, r4
 80a1b80:	f7ff fc7e 	bl	80a1480 <_ZN7VL53L0X8writeRegEhh>
  writeReg(0xFF, 0x01);
 80a1b84:	2201      	movs	r2, #1
 80a1b86:	21ff      	movs	r1, #255	; 0xff
 80a1b88:	4620      	mov	r0, r4
 80a1b8a:	f7ff fc79 	bl	80a1480 <_ZN7VL53L0X8writeRegEhh>
  writeReg(0x00, 0x00);
 80a1b8e:	2200      	movs	r2, #0
 80a1b90:	4611      	mov	r1, r2
 80a1b92:	4620      	mov	r0, r4
 80a1b94:	f7ff fc74 	bl	80a1480 <_ZN7VL53L0X8writeRegEhh>
  stop_variable = readReg(0x91);
 80a1b98:	2191      	movs	r1, #145	; 0x91
 80a1b9a:	4620      	mov	r0, r4
 80a1b9c:	f7ff fcdf 	bl	80a155e <_ZN7VL53L0X7readRegEh>
  writeReg(0x00, 0x01);
 80a1ba0:	2201      	movs	r2, #1
  writeReg(0x88, 0x00);

  writeReg(0x80, 0x01);
  writeReg(0xFF, 0x01);
  writeReg(0x00, 0x00);
  stop_variable = readReg(0x91);
 80a1ba2:	7420      	strb	r0, [r4, #16]
  writeReg(0x00, 0x01);
 80a1ba4:	2100      	movs	r1, #0
 80a1ba6:	4620      	mov	r0, r4
 80a1ba8:	f7ff fc6a 	bl	80a1480 <_ZN7VL53L0X8writeRegEhh>
  writeReg(0xFF, 0x00);
 80a1bac:	2200      	movs	r2, #0
 80a1bae:	21ff      	movs	r1, #255	; 0xff
 80a1bb0:	4620      	mov	r0, r4
 80a1bb2:	f7ff fc65 	bl	80a1480 <_ZN7VL53L0X8writeRegEhh>
  writeReg(0x80, 0x00);
 80a1bb6:	2200      	movs	r2, #0
 80a1bb8:	2180      	movs	r1, #128	; 0x80
 80a1bba:	4620      	mov	r0, r4
 80a1bbc:	f7ff fc60 	bl	80a1480 <_ZN7VL53L0X8writeRegEhh>

  // disable SIGNAL_RATE_MSRC (bit 1) and SIGNAL_RATE_PRE_RANGE (bit 4) limit checks
  writeReg(MSRC_CONFIG_CONTROL, readReg(MSRC_CONFIG_CONTROL) | 0x12);
 80a1bc0:	2160      	movs	r1, #96	; 0x60
 80a1bc2:	4620      	mov	r0, r4
 80a1bc4:	f7ff fccb 	bl	80a155e <_ZN7VL53L0X7readRegEh>
 80a1bc8:	f040 0212 	orr.w	r2, r0, #18
 80a1bcc:	b2d2      	uxtb	r2, r2
 80a1bce:	2160      	movs	r1, #96	; 0x60
 80a1bd0:	4620      	mov	r0, r4
 80a1bd2:	f7ff fc55 	bl	80a1480 <_ZN7VL53L0X8writeRegEhh>

  // set final range signal rate limit to 0.25 MCPS (million counts per second)
  setSignalRateLimit(0.25);
 80a1bd6:	f04f 517a 	mov.w	r1, #1048576000	; 0x3e800000
 80a1bda:	4620      	mov	r0, r4
 80a1bdc:	f7ff fd50 	bl	80a1680 <_ZN7VL53L0X18setSignalRateLimitEf>

  writeReg(SYSTEM_SEQUENCE_CONFIG, 0xFF);
 80a1be0:	22ff      	movs	r2, #255	; 0xff
 80a1be2:	2101      	movs	r1, #1
 80a1be4:	4620      	mov	r0, r4
 80a1be6:	f7ff fc4b 	bl	80a1480 <_ZN7VL53L0X8writeRegEhh>

  // VL53L0X_StaticInit() begin

  uint8_t spad_count;
  bool spad_type_is_aperture;
  if (!getSpadInfo(&spad_count, &spad_type_is_aperture)) { return false; }
 80a1bea:	f10d 0207 	add.w	r2, sp, #7
 80a1bee:	f10d 0106 	add.w	r1, sp, #6
 80a1bf2:	4620      	mov	r0, r4
 80a1bf4:	f7ff fde1 	bl	80a17ba <_ZN7VL53L0X11getSpadInfoEPhPb>
 80a1bf8:	b908      	cbnz	r0, 80a1bfe <_ZN7VL53L0X4initEb+0xaa>
 80a1bfa:	2500      	movs	r5, #0
 80a1bfc:	e21d      	b.n	80a203a <_ZN7VL53L0X4initEb+0x4e6>

  // The SPAD map (RefGoodSpadMap) is read by VL53L0X_get_info_from_device() in
  // the API, but the same data seems to be more easily readable from
  // GLOBAL_CONFIG_SPAD_ENABLES_REF_0 through _6, so read it from there
  uint8_t ref_spad_map[6];
  readMulti(GLOBAL_CONFIG_SPAD_ENABLES_REF_0, ref_spad_map, 6);
 80a1bfe:	2306      	movs	r3, #6
 80a1c00:	aa02      	add	r2, sp, #8
 80a1c02:	21b0      	movs	r1, #176	; 0xb0
 80a1c04:	4620      	mov	r0, r4
 80a1c06:	f7ff fd13 	bl	80a1630 <_ZN7VL53L0X9readMultiEhPhh>

  // -- VL53L0X_set_reference_spads() begin (assume NVM values are valid)

  writeReg(0xFF, 0x01);
 80a1c0a:	2201      	movs	r2, #1
 80a1c0c:	21ff      	movs	r1, #255	; 0xff
 80a1c0e:	4620      	mov	r0, r4
 80a1c10:	f7ff fc36 	bl	80a1480 <_ZN7VL53L0X8writeRegEhh>
  writeReg(DYNAMIC_SPAD_REF_EN_START_OFFSET, 0x00);
 80a1c14:	2200      	movs	r2, #0
 80a1c16:	214f      	movs	r1, #79	; 0x4f
 80a1c18:	4620      	mov	r0, r4
 80a1c1a:	f7ff fc31 	bl	80a1480 <_ZN7VL53L0X8writeRegEhh>
  writeReg(DYNAMIC_SPAD_NUM_REQUESTED_REF_SPAD, 0x2C);
 80a1c1e:	222c      	movs	r2, #44	; 0x2c
 80a1c20:	214e      	movs	r1, #78	; 0x4e
 80a1c22:	4620      	mov	r0, r4
 80a1c24:	f7ff fc2c 	bl	80a1480 <_ZN7VL53L0X8writeRegEhh>
  writeReg(0xFF, 0x00);
 80a1c28:	2200      	movs	r2, #0
 80a1c2a:	21ff      	movs	r1, #255	; 0xff
 80a1c2c:	4620      	mov	r0, r4
 80a1c2e:	f7ff fc27 	bl	80a1480 <_ZN7VL53L0X8writeRegEhh>
  uint8_t first_spad_to_enable = spad_type_is_aperture ? 12 : 0; // 12 is the first aperture spad
  uint8_t spads_enabled = 0;

  for (uint8_t i = 0; i < 48; i++)
  {
    if (i < first_spad_to_enable || spads_enabled == spad_count)
 80a1c32:	2500      	movs	r5, #0

  writeReg(0xFF, 0x01);
  writeReg(DYNAMIC_SPAD_REF_EN_START_OFFSET, 0x00);
  writeReg(DYNAMIC_SPAD_NUM_REQUESTED_REF_SPAD, 0x2C);
  writeReg(0xFF, 0x00);
  writeReg(GLOBAL_CONFIG_REF_EN_START_SELECT, 0xB4);
 80a1c34:	4620      	mov	r0, r4
 80a1c36:	21b6      	movs	r1, #182	; 0xb6
 80a1c38:	22b4      	movs	r2, #180	; 0xb4
 80a1c3a:	f7ff fc21 	bl	80a1480 <_ZN7VL53L0X8writeRegEhh>

  uint8_t first_spad_to_enable = spad_type_is_aperture ? 12 : 0; // 12 is the first aperture spad
  uint8_t spads_enabled = 0;
 80a1c3e:	4629      	mov	r1, r5
  writeReg(DYNAMIC_SPAD_REF_EN_START_OFFSET, 0x00);
  writeReg(DYNAMIC_SPAD_NUM_REQUESTED_REF_SPAD, 0x2C);
  writeReg(0xFF, 0x00);
  writeReg(GLOBAL_CONFIG_REF_EN_START_SELECT, 0xB4);

  uint8_t first_spad_to_enable = spad_type_is_aperture ? 12 : 0; // 12 is the first aperture spad
 80a1c40:	f89d 3007 	ldrb.w	r3, [sp, #7]
  uint8_t spads_enabled = 0;

  for (uint8_t i = 0; i < 48; i++)
  {
    if (i < first_spad_to_enable || spads_enabled == spad_count)
 80a1c44:	f89d 6006 	ldrb.w	r6, [sp, #6]
  writeReg(DYNAMIC_SPAD_REF_EN_START_OFFSET, 0x00);
  writeReg(DYNAMIC_SPAD_NUM_REQUESTED_REF_SPAD, 0x2C);
  writeReg(0xFF, 0x00);
  writeReg(GLOBAL_CONFIG_REF_EN_START_SELECT, 0xB4);

  uint8_t first_spad_to_enable = spad_type_is_aperture ? 12 : 0; // 12 is the first aperture spad
 80a1c48:	2b00      	cmp	r3, #0
 80a1c4a:	bf14      	ite	ne
 80a1c4c:	200c      	movne	r0, #12
 80a1c4e:	2000      	moveq	r0, #0
  {
    if (i < first_spad_to_enable || spads_enabled == spad_count)
    {
      // This bit is lower than the first one that should be enabled, or
      // (reference_spad_count) bits have already been enabled, so zero this bit
      ref_spad_map[i / 8] &= ~(1 << (i % 8));
 80a1c50:	2701      	movs	r7, #1
 80a1c52:	b2eb      	uxtb	r3, r5
 80a1c54:	08da      	lsrs	r2, r3, #3
  uint8_t first_spad_to_enable = spad_type_is_aperture ? 12 : 0; // 12 is the first aperture spad
  uint8_t spads_enabled = 0;

  for (uint8_t i = 0; i < 48; i++)
  {
    if (i < first_spad_to_enable || spads_enabled == spad_count)
 80a1c56:	4298      	cmp	r0, r3
    {
      // This bit is lower than the first one that should be enabled, or
      // (reference_spad_count) bits have already been enabled, so zero this bit
      ref_spad_map[i / 8] &= ~(1 << (i % 8));
 80a1c58:	f10d 0e10 	add.w	lr, sp, #16
 80a1c5c:	f003 0307 	and.w	r3, r3, #7
 80a1c60:	4472      	add	r2, lr
  uint8_t first_spad_to_enable = spad_type_is_aperture ? 12 : 0; // 12 is the first aperture spad
  uint8_t spads_enabled = 0;

  for (uint8_t i = 0; i < 48; i++)
  {
    if (i < first_spad_to_enable || spads_enabled == spad_count)
 80a1c62:	d801      	bhi.n	80a1c68 <_ZN7VL53L0X4initEb+0x114>
 80a1c64:	428e      	cmp	r6, r1
 80a1c66:	d108      	bne.n	80a1c7a <_ZN7VL53L0X4initEb+0x126>
    {
      // This bit is lower than the first one that should be enabled, or
      // (reference_spad_count) bits have already been enabled, so zero this bit
      ref_spad_map[i / 8] &= ~(1 << (i % 8));
 80a1c68:	f812 ec08 	ldrb.w	lr, [r2, #-8]
 80a1c6c:	fa07 f303 	lsl.w	r3, r7, r3
 80a1c70:	ea2e 0303 	bic.w	r3, lr, r3
 80a1c74:	f802 3c08 	strb.w	r3, [r2, #-8]
 80a1c78:	e007      	b.n	80a1c8a <_ZN7VL53L0X4initEb+0x136>
    }
    else if ((ref_spad_map[i / 8] >> (i % 8)) & 0x1)
 80a1c7a:	f812 2c08 	ldrb.w	r2, [r2, #-8]
 80a1c7e:	fa42 f303 	asr.w	r3, r2, r3
 80a1c82:	07db      	lsls	r3, r3, #31
    {
      spads_enabled++;
 80a1c84:	bf44      	itt	mi
 80a1c86:	3101      	addmi	r1, #1
 80a1c88:	b2c9      	uxtbmi	r1, r1
 80a1c8a:	3501      	adds	r5, #1
  writeReg(GLOBAL_CONFIG_REF_EN_START_SELECT, 0xB4);

  uint8_t first_spad_to_enable = spad_type_is_aperture ? 12 : 0; // 12 is the first aperture spad
  uint8_t spads_enabled = 0;

  for (uint8_t i = 0; i < 48; i++)
 80a1c8c:	2d30      	cmp	r5, #48	; 0x30
 80a1c8e:	d1e0      	bne.n	80a1c52 <_ZN7VL53L0X4initEb+0xfe>
    {
      spads_enabled++;
    }
  }

  writeMulti(GLOBAL_CONFIG_SPAD_ENABLES_REF_0, ref_spad_map, 6);
 80a1c90:	2306      	movs	r3, #6
 80a1c92:	aa02      	add	r2, sp, #8
 80a1c94:	21b0      	movs	r1, #176	; 0xb0
 80a1c96:	4620      	mov	r0, r4
 80a1c98:	f7ff fca9 	bl	80a15ee <_ZN7VL53L0X10writeMultiEhPKhh>
  // -- VL53L0X_set_reference_spads() end

  // -- VL53L0X_load_tuning_settings() begin
  // DefaultTuningSettings from vl53l0x_tuning.h

  writeReg(0xFF, 0x01);
 80a1c9c:	2201      	movs	r2, #1
 80a1c9e:	21ff      	movs	r1, #255	; 0xff
 80a1ca0:	4620      	mov	r0, r4
 80a1ca2:	f7ff fbed 	bl	80a1480 <_ZN7VL53L0X8writeRegEhh>
  writeReg(0x00, 0x00);
 80a1ca6:	2200      	movs	r2, #0
 80a1ca8:	4611      	mov	r1, r2
 80a1caa:	4620      	mov	r0, r4
 80a1cac:	f7ff fbe8 	bl	80a1480 <_ZN7VL53L0X8writeRegEhh>

  writeReg(0xFF, 0x00);
 80a1cb0:	2200      	movs	r2, #0
 80a1cb2:	21ff      	movs	r1, #255	; 0xff
 80a1cb4:	4620      	mov	r0, r4
 80a1cb6:	f7ff fbe3 	bl	80a1480 <_ZN7VL53L0X8writeRegEhh>
  writeReg(0x09, 0x00);
 80a1cba:	2200      	movs	r2, #0
 80a1cbc:	2109      	movs	r1, #9
 80a1cbe:	4620      	mov	r0, r4
 80a1cc0:	f7ff fbde 	bl	80a1480 <_ZN7VL53L0X8writeRegEhh>
  writeReg(0x10, 0x00);
 80a1cc4:	2200      	movs	r2, #0
 80a1cc6:	2110      	movs	r1, #16
 80a1cc8:	4620      	mov	r0, r4
 80a1cca:	f7ff fbd9 	bl	80a1480 <_ZN7VL53L0X8writeRegEhh>
  writeReg(0x11, 0x00);
 80a1cce:	2200      	movs	r2, #0
 80a1cd0:	2111      	movs	r1, #17
 80a1cd2:	4620      	mov	r0, r4
 80a1cd4:	f7ff fbd4 	bl	80a1480 <_ZN7VL53L0X8writeRegEhh>

  writeReg(0x24, 0x01);
 80a1cd8:	2201      	movs	r2, #1
 80a1cda:	2124      	movs	r1, #36	; 0x24
 80a1cdc:	4620      	mov	r0, r4
 80a1cde:	f7ff fbcf 	bl	80a1480 <_ZN7VL53L0X8writeRegEhh>
  writeReg(0x25, 0xFF);
 80a1ce2:	22ff      	movs	r2, #255	; 0xff
 80a1ce4:	2125      	movs	r1, #37	; 0x25
 80a1ce6:	4620      	mov	r0, r4
 80a1ce8:	f7ff fbca 	bl	80a1480 <_ZN7VL53L0X8writeRegEhh>
  writeReg(0x75, 0x00);
 80a1cec:	2200      	movs	r2, #0
 80a1cee:	2175      	movs	r1, #117	; 0x75
 80a1cf0:	4620      	mov	r0, r4
 80a1cf2:	f7ff fbc5 	bl	80a1480 <_ZN7VL53L0X8writeRegEhh>

  writeReg(0xFF, 0x01);
 80a1cf6:	2201      	movs	r2, #1
 80a1cf8:	21ff      	movs	r1, #255	; 0xff
 80a1cfa:	4620      	mov	r0, r4
 80a1cfc:	f7ff fbc0 	bl	80a1480 <_ZN7VL53L0X8writeRegEhh>
  writeReg(0x4E, 0x2C);
 80a1d00:	222c      	movs	r2, #44	; 0x2c
 80a1d02:	214e      	movs	r1, #78	; 0x4e
 80a1d04:	4620      	mov	r0, r4
 80a1d06:	f7ff fbbb 	bl	80a1480 <_ZN7VL53L0X8writeRegEhh>
  writeReg(0x48, 0x00);
 80a1d0a:	2200      	movs	r2, #0
 80a1d0c:	2148      	movs	r1, #72	; 0x48
 80a1d0e:	4620      	mov	r0, r4
 80a1d10:	f7ff fbb6 	bl	80a1480 <_ZN7VL53L0X8writeRegEhh>
  writeReg(0x30, 0x20);
 80a1d14:	2220      	movs	r2, #32
 80a1d16:	4629      	mov	r1, r5
 80a1d18:	4620      	mov	r0, r4
 80a1d1a:	f7ff fbb1 	bl	80a1480 <_ZN7VL53L0X8writeRegEhh>

  writeReg(0xFF, 0x00);
 80a1d1e:	2200      	movs	r2, #0
 80a1d20:	21ff      	movs	r1, #255	; 0xff
 80a1d22:	4620      	mov	r0, r4
 80a1d24:	f7ff fbac 	bl	80a1480 <_ZN7VL53L0X8writeRegEhh>
  writeReg(0x30, 0x09);
 80a1d28:	2209      	movs	r2, #9
 80a1d2a:	4629      	mov	r1, r5
 80a1d2c:	4620      	mov	r0, r4
 80a1d2e:	f7ff fba7 	bl	80a1480 <_ZN7VL53L0X8writeRegEhh>
  writeReg(0x54, 0x00);
 80a1d32:	2200      	movs	r2, #0
 80a1d34:	2154      	movs	r1, #84	; 0x54
 80a1d36:	4620      	mov	r0, r4
 80a1d38:	f7ff fba2 	bl	80a1480 <_ZN7VL53L0X8writeRegEhh>
  writeReg(0x31, 0x04);
 80a1d3c:	2204      	movs	r2, #4
 80a1d3e:	2131      	movs	r1, #49	; 0x31
 80a1d40:	4620      	mov	r0, r4
 80a1d42:	f7ff fb9d 	bl	80a1480 <_ZN7VL53L0X8writeRegEhh>
  writeReg(0x32, 0x03);
 80a1d46:	2203      	movs	r2, #3
 80a1d48:	2132      	movs	r1, #50	; 0x32
 80a1d4a:	4620      	mov	r0, r4
 80a1d4c:	f7ff fb98 	bl	80a1480 <_ZN7VL53L0X8writeRegEhh>
  writeReg(0x40, 0x83);
 80a1d50:	2283      	movs	r2, #131	; 0x83
 80a1d52:	2140      	movs	r1, #64	; 0x40
 80a1d54:	4620      	mov	r0, r4
 80a1d56:	f7ff fb93 	bl	80a1480 <_ZN7VL53L0X8writeRegEhh>
  writeReg(0x46, 0x25);
 80a1d5a:	2225      	movs	r2, #37	; 0x25
 80a1d5c:	2146      	movs	r1, #70	; 0x46
 80a1d5e:	4620      	mov	r0, r4
 80a1d60:	f7ff fb8e 	bl	80a1480 <_ZN7VL53L0X8writeRegEhh>
  writeReg(0x60, 0x00);
 80a1d64:	2200      	movs	r2, #0
 80a1d66:	2160      	movs	r1, #96	; 0x60
 80a1d68:	4620      	mov	r0, r4
 80a1d6a:	f7ff fb89 	bl	80a1480 <_ZN7VL53L0X8writeRegEhh>
  writeReg(0x27, 0x00);
 80a1d6e:	2200      	movs	r2, #0
 80a1d70:	2127      	movs	r1, #39	; 0x27
 80a1d72:	4620      	mov	r0, r4
 80a1d74:	f7ff fb84 	bl	80a1480 <_ZN7VL53L0X8writeRegEhh>
  writeReg(0x50, 0x06);
 80a1d78:	2206      	movs	r2, #6
 80a1d7a:	2150      	movs	r1, #80	; 0x50
 80a1d7c:	4620      	mov	r0, r4
 80a1d7e:	f7ff fb7f 	bl	80a1480 <_ZN7VL53L0X8writeRegEhh>
  writeReg(0x51, 0x00);
 80a1d82:	2200      	movs	r2, #0
 80a1d84:	2151      	movs	r1, #81	; 0x51
 80a1d86:	4620      	mov	r0, r4
 80a1d88:	f7ff fb7a 	bl	80a1480 <_ZN7VL53L0X8writeRegEhh>
  writeReg(0x52, 0x96);
 80a1d8c:	2296      	movs	r2, #150	; 0x96
 80a1d8e:	2152      	movs	r1, #82	; 0x52
 80a1d90:	4620      	mov	r0, r4
 80a1d92:	f7ff fb75 	bl	80a1480 <_ZN7VL53L0X8writeRegEhh>
  writeReg(0x56, 0x08);
 80a1d96:	2208      	movs	r2, #8
 80a1d98:	2156      	movs	r1, #86	; 0x56
 80a1d9a:	4620      	mov	r0, r4
 80a1d9c:	f7ff fb70 	bl	80a1480 <_ZN7VL53L0X8writeRegEhh>
  writeReg(0x57, 0x30);
 80a1da0:	462a      	mov	r2, r5
 80a1da2:	2157      	movs	r1, #87	; 0x57
 80a1da4:	4620      	mov	r0, r4
 80a1da6:	f7ff fb6b 	bl	80a1480 <_ZN7VL53L0X8writeRegEhh>
  writeReg(0x61, 0x00);
 80a1daa:	2200      	movs	r2, #0
 80a1dac:	2161      	movs	r1, #97	; 0x61
 80a1dae:	4620      	mov	r0, r4
 80a1db0:	f7ff fb66 	bl	80a1480 <_ZN7VL53L0X8writeRegEhh>
  writeReg(0x62, 0x00);
 80a1db4:	2200      	movs	r2, #0
 80a1db6:	2162      	movs	r1, #98	; 0x62
 80a1db8:	4620      	mov	r0, r4
 80a1dba:	f7ff fb61 	bl	80a1480 <_ZN7VL53L0X8writeRegEhh>
  writeReg(0x64, 0x00);
 80a1dbe:	2200      	movs	r2, #0
 80a1dc0:	2164      	movs	r1, #100	; 0x64
 80a1dc2:	4620      	mov	r0, r4
 80a1dc4:	f7ff fb5c 	bl	80a1480 <_ZN7VL53L0X8writeRegEhh>
  writeReg(0x65, 0x00);
 80a1dc8:	2200      	movs	r2, #0
 80a1dca:	2165      	movs	r1, #101	; 0x65
 80a1dcc:	4620      	mov	r0, r4
 80a1dce:	f7ff fb57 	bl	80a1480 <_ZN7VL53L0X8writeRegEhh>
  writeReg(0x66, 0xA0);
 80a1dd2:	22a0      	movs	r2, #160	; 0xa0
 80a1dd4:	2166      	movs	r1, #102	; 0x66
 80a1dd6:	4620      	mov	r0, r4
 80a1dd8:	f7ff fb52 	bl	80a1480 <_ZN7VL53L0X8writeRegEhh>

  writeReg(0xFF, 0x01);
 80a1ddc:	2201      	movs	r2, #1
 80a1dde:	21ff      	movs	r1, #255	; 0xff
 80a1de0:	4620      	mov	r0, r4
 80a1de2:	f7ff fb4d 	bl	80a1480 <_ZN7VL53L0X8writeRegEhh>
  writeReg(0x22, 0x32);
 80a1de6:	2232      	movs	r2, #50	; 0x32
 80a1de8:	2122      	movs	r1, #34	; 0x22
 80a1dea:	4620      	mov	r0, r4
 80a1dec:	f7ff fb48 	bl	80a1480 <_ZN7VL53L0X8writeRegEhh>
  writeReg(0x47, 0x14);
 80a1df0:	2214      	movs	r2, #20
 80a1df2:	2147      	movs	r1, #71	; 0x47
 80a1df4:	4620      	mov	r0, r4
 80a1df6:	f7ff fb43 	bl	80a1480 <_ZN7VL53L0X8writeRegEhh>
  writeReg(0x49, 0xFF);
 80a1dfa:	22ff      	movs	r2, #255	; 0xff
 80a1dfc:	2149      	movs	r1, #73	; 0x49
 80a1dfe:	4620      	mov	r0, r4
 80a1e00:	f7ff fb3e 	bl	80a1480 <_ZN7VL53L0X8writeRegEhh>
  writeReg(0x4A, 0x00);
 80a1e04:	2200      	movs	r2, #0
 80a1e06:	214a      	movs	r1, #74	; 0x4a
 80a1e08:	4620      	mov	r0, r4
 80a1e0a:	f7ff fb39 	bl	80a1480 <_ZN7VL53L0X8writeRegEhh>

  writeReg(0xFF, 0x00);
 80a1e0e:	2200      	movs	r2, #0
 80a1e10:	21ff      	movs	r1, #255	; 0xff
 80a1e12:	4620      	mov	r0, r4
 80a1e14:	f7ff fb34 	bl	80a1480 <_ZN7VL53L0X8writeRegEhh>
  writeReg(0x7A, 0x0A);
 80a1e18:	220a      	movs	r2, #10
 80a1e1a:	217a      	movs	r1, #122	; 0x7a
 80a1e1c:	4620      	mov	r0, r4
 80a1e1e:	f7ff fb2f 	bl	80a1480 <_ZN7VL53L0X8writeRegEhh>
  writeReg(0x7B, 0x00);
 80a1e22:	2200      	movs	r2, #0
 80a1e24:	217b      	movs	r1, #123	; 0x7b
 80a1e26:	4620      	mov	r0, r4
 80a1e28:	f7ff fb2a 	bl	80a1480 <_ZN7VL53L0X8writeRegEhh>
  writeReg(0x78, 0x21);
 80a1e2c:	2221      	movs	r2, #33	; 0x21
 80a1e2e:	2178      	movs	r1, #120	; 0x78
 80a1e30:	4620      	mov	r0, r4
 80a1e32:	f7ff fb25 	bl	80a1480 <_ZN7VL53L0X8writeRegEhh>

  writeReg(0xFF, 0x01);
 80a1e36:	2201      	movs	r2, #1
 80a1e38:	21ff      	movs	r1, #255	; 0xff
 80a1e3a:	4620      	mov	r0, r4
 80a1e3c:	f7ff fb20 	bl	80a1480 <_ZN7VL53L0X8writeRegEhh>
  writeReg(0x23, 0x34);
 80a1e40:	2234      	movs	r2, #52	; 0x34
 80a1e42:	2123      	movs	r1, #35	; 0x23
 80a1e44:	4620      	mov	r0, r4
 80a1e46:	f7ff fb1b 	bl	80a1480 <_ZN7VL53L0X8writeRegEhh>
  writeReg(0x42, 0x00);
 80a1e4a:	2200      	movs	r2, #0
 80a1e4c:	2142      	movs	r1, #66	; 0x42
 80a1e4e:	4620      	mov	r0, r4
 80a1e50:	f7ff fb16 	bl	80a1480 <_ZN7VL53L0X8writeRegEhh>
  writeReg(0x44, 0xFF);
 80a1e54:	22ff      	movs	r2, #255	; 0xff
 80a1e56:	2144      	movs	r1, #68	; 0x44
 80a1e58:	4620      	mov	r0, r4
 80a1e5a:	f7ff fb11 	bl	80a1480 <_ZN7VL53L0X8writeRegEhh>
  writeReg(0x45, 0x26);
 80a1e5e:	2226      	movs	r2, #38	; 0x26
 80a1e60:	2145      	movs	r1, #69	; 0x45
 80a1e62:	4620      	mov	r0, r4
 80a1e64:	f7ff fb0c 	bl	80a1480 <_ZN7VL53L0X8writeRegEhh>
  writeReg(0x46, 0x05);
 80a1e68:	2205      	movs	r2, #5
 80a1e6a:	2146      	movs	r1, #70	; 0x46
 80a1e6c:	4620      	mov	r0, r4
 80a1e6e:	f7ff fb07 	bl	80a1480 <_ZN7VL53L0X8writeRegEhh>
  writeReg(0x40, 0x40);
 80a1e72:	2240      	movs	r2, #64	; 0x40
 80a1e74:	4611      	mov	r1, r2
 80a1e76:	4620      	mov	r0, r4
 80a1e78:	f7ff fb02 	bl	80a1480 <_ZN7VL53L0X8writeRegEhh>
  writeReg(0x0E, 0x06);
 80a1e7c:	2206      	movs	r2, #6
 80a1e7e:	210e      	movs	r1, #14
 80a1e80:	4620      	mov	r0, r4
 80a1e82:	f7ff fafd 	bl	80a1480 <_ZN7VL53L0X8writeRegEhh>
  writeReg(0x20, 0x1A);
 80a1e86:	221a      	movs	r2, #26
 80a1e88:	2120      	movs	r1, #32
 80a1e8a:	4620      	mov	r0, r4
 80a1e8c:	f7ff faf8 	bl	80a1480 <_ZN7VL53L0X8writeRegEhh>
  writeReg(0x43, 0x40);
 80a1e90:	2240      	movs	r2, #64	; 0x40
 80a1e92:	2143      	movs	r1, #67	; 0x43
 80a1e94:	4620      	mov	r0, r4
 80a1e96:	f7ff faf3 	bl	80a1480 <_ZN7VL53L0X8writeRegEhh>

  writeReg(0xFF, 0x00);
 80a1e9a:	2200      	movs	r2, #0
 80a1e9c:	21ff      	movs	r1, #255	; 0xff
 80a1e9e:	4620      	mov	r0, r4
 80a1ea0:	f7ff faee 	bl	80a1480 <_ZN7VL53L0X8writeRegEhh>
  writeReg(0x34, 0x03);
 80a1ea4:	2203      	movs	r2, #3
 80a1ea6:	2134      	movs	r1, #52	; 0x34
 80a1ea8:	4620      	mov	r0, r4
 80a1eaa:	f7ff fae9 	bl	80a1480 <_ZN7VL53L0X8writeRegEhh>
  writeReg(0x35, 0x44);
 80a1eae:	2244      	movs	r2, #68	; 0x44
 80a1eb0:	2135      	movs	r1, #53	; 0x35
 80a1eb2:	4620      	mov	r0, r4
 80a1eb4:	f7ff fae4 	bl	80a1480 <_ZN7VL53L0X8writeRegEhh>

  writeReg(0xFF, 0x01);
 80a1eb8:	2201      	movs	r2, #1
 80a1eba:	21ff      	movs	r1, #255	; 0xff
 80a1ebc:	4620      	mov	r0, r4
 80a1ebe:	f7ff fadf 	bl	80a1480 <_ZN7VL53L0X8writeRegEhh>
  writeReg(0x31, 0x04);
 80a1ec2:	2204      	movs	r2, #4
 80a1ec4:	2131      	movs	r1, #49	; 0x31
 80a1ec6:	4620      	mov	r0, r4
 80a1ec8:	f7ff fada 	bl	80a1480 <_ZN7VL53L0X8writeRegEhh>
  writeReg(0x4B, 0x09);
 80a1ecc:	2209      	movs	r2, #9
 80a1ece:	214b      	movs	r1, #75	; 0x4b
 80a1ed0:	4620      	mov	r0, r4
 80a1ed2:	f7ff fad5 	bl	80a1480 <_ZN7VL53L0X8writeRegEhh>
  writeReg(0x4C, 0x05);
 80a1ed6:	2205      	movs	r2, #5
 80a1ed8:	214c      	movs	r1, #76	; 0x4c
 80a1eda:	4620      	mov	r0, r4
 80a1edc:	f7ff fad0 	bl	80a1480 <_ZN7VL53L0X8writeRegEhh>
  writeReg(0x4D, 0x04);
 80a1ee0:	2204      	movs	r2, #4
 80a1ee2:	214d      	movs	r1, #77	; 0x4d
 80a1ee4:	4620      	mov	r0, r4
 80a1ee6:	f7ff facb 	bl	80a1480 <_ZN7VL53L0X8writeRegEhh>

  writeReg(0xFF, 0x00);
 80a1eea:	2200      	movs	r2, #0
 80a1eec:	21ff      	movs	r1, #255	; 0xff
 80a1eee:	4620      	mov	r0, r4
 80a1ef0:	f7ff fac6 	bl	80a1480 <_ZN7VL53L0X8writeRegEhh>
  writeReg(0x44, 0x00);
 80a1ef4:	2200      	movs	r2, #0
 80a1ef6:	2144      	movs	r1, #68	; 0x44
 80a1ef8:	4620      	mov	r0, r4
 80a1efa:	f7ff fac1 	bl	80a1480 <_ZN7VL53L0X8writeRegEhh>
  writeReg(0x45, 0x20);
 80a1efe:	2220      	movs	r2, #32
 80a1f00:	2145      	movs	r1, #69	; 0x45
 80a1f02:	4620      	mov	r0, r4
 80a1f04:	f7ff fabc 	bl	80a1480 <_ZN7VL53L0X8writeRegEhh>
  writeReg(0x47, 0x08);
 80a1f08:	2208      	movs	r2, #8
 80a1f0a:	2147      	movs	r1, #71	; 0x47
 80a1f0c:	4620      	mov	r0, r4
 80a1f0e:	f7ff fab7 	bl	80a1480 <_ZN7VL53L0X8writeRegEhh>
  writeReg(0x48, 0x28);
 80a1f12:	2228      	movs	r2, #40	; 0x28
 80a1f14:	2148      	movs	r1, #72	; 0x48
 80a1f16:	4620      	mov	r0, r4
 80a1f18:	f7ff fab2 	bl	80a1480 <_ZN7VL53L0X8writeRegEhh>
  writeReg(0x67, 0x00);
 80a1f1c:	2200      	movs	r2, #0
 80a1f1e:	2167      	movs	r1, #103	; 0x67
 80a1f20:	4620      	mov	r0, r4
 80a1f22:	f7ff faad 	bl	80a1480 <_ZN7VL53L0X8writeRegEhh>
  writeReg(0x70, 0x04);
 80a1f26:	2204      	movs	r2, #4
 80a1f28:	2170      	movs	r1, #112	; 0x70
 80a1f2a:	4620      	mov	r0, r4
 80a1f2c:	f7ff faa8 	bl	80a1480 <_ZN7VL53L0X8writeRegEhh>
  writeReg(0x71, 0x01);
 80a1f30:	2201      	movs	r2, #1
 80a1f32:	2171      	movs	r1, #113	; 0x71
 80a1f34:	4620      	mov	r0, r4
 80a1f36:	f7ff faa3 	bl	80a1480 <_ZN7VL53L0X8writeRegEhh>
  writeReg(0x72, 0xFE);
 80a1f3a:	22fe      	movs	r2, #254	; 0xfe
 80a1f3c:	2172      	movs	r1, #114	; 0x72
 80a1f3e:	4620      	mov	r0, r4
 80a1f40:	f7ff fa9e 	bl	80a1480 <_ZN7VL53L0X8writeRegEhh>
  writeReg(0x76, 0x00);
 80a1f44:	2200      	movs	r2, #0
 80a1f46:	2176      	movs	r1, #118	; 0x76
 80a1f48:	4620      	mov	r0, r4
 80a1f4a:	f7ff fa99 	bl	80a1480 <_ZN7VL53L0X8writeRegEhh>
  writeReg(0x77, 0x00);
 80a1f4e:	2200      	movs	r2, #0
 80a1f50:	2177      	movs	r1, #119	; 0x77
 80a1f52:	4620      	mov	r0, r4
 80a1f54:	f7ff fa94 	bl	80a1480 <_ZN7VL53L0X8writeRegEhh>

  writeReg(0xFF, 0x01);
 80a1f58:	2201      	movs	r2, #1
 80a1f5a:	21ff      	movs	r1, #255	; 0xff
 80a1f5c:	4620      	mov	r0, r4
 80a1f5e:	f7ff fa8f 	bl	80a1480 <_ZN7VL53L0X8writeRegEhh>
  writeReg(0x0D, 0x01);
 80a1f62:	2201      	movs	r2, #1
 80a1f64:	210d      	movs	r1, #13
 80a1f66:	4620      	mov	r0, r4
 80a1f68:	f7ff fa8a 	bl	80a1480 <_ZN7VL53L0X8writeRegEhh>

  writeReg(0xFF, 0x00);
 80a1f6c:	2200      	movs	r2, #0
 80a1f6e:	21ff      	movs	r1, #255	; 0xff
 80a1f70:	4620      	mov	r0, r4
 80a1f72:	f7ff fa85 	bl	80a1480 <_ZN7VL53L0X8writeRegEhh>
  writeReg(0x80, 0x01);
 80a1f76:	2201      	movs	r2, #1
 80a1f78:	2180      	movs	r1, #128	; 0x80
 80a1f7a:	4620      	mov	r0, r4
 80a1f7c:	f7ff fa80 	bl	80a1480 <_ZN7VL53L0X8writeRegEhh>
  writeReg(0x01, 0xF8);
 80a1f80:	22f8      	movs	r2, #248	; 0xf8
 80a1f82:	2101      	movs	r1, #1
 80a1f84:	4620      	mov	r0, r4
 80a1f86:	f7ff fa7b 	bl	80a1480 <_ZN7VL53L0X8writeRegEhh>

  writeReg(0xFF, 0x01);
 80a1f8a:	2201      	movs	r2, #1
 80a1f8c:	21ff      	movs	r1, #255	; 0xff
 80a1f8e:	4620      	mov	r0, r4
 80a1f90:	f7ff fa76 	bl	80a1480 <_ZN7VL53L0X8writeRegEhh>
  writeReg(0x8E, 0x01);
 80a1f94:	2201      	movs	r2, #1
 80a1f96:	218e      	movs	r1, #142	; 0x8e
 80a1f98:	4620      	mov	r0, r4
 80a1f9a:	f7ff fa71 	bl	80a1480 <_ZN7VL53L0X8writeRegEhh>
  writeReg(0x00, 0x01);
 80a1f9e:	2201      	movs	r2, #1
 80a1fa0:	2100      	movs	r1, #0
 80a1fa2:	4620      	mov	r0, r4
 80a1fa4:	f7ff fa6c 	bl	80a1480 <_ZN7VL53L0X8writeRegEhh>
  writeReg(0xFF, 0x00);
 80a1fa8:	2200      	movs	r2, #0
 80a1faa:	21ff      	movs	r1, #255	; 0xff
 80a1fac:	4620      	mov	r0, r4
 80a1fae:	f7ff fa67 	bl	80a1480 <_ZN7VL53L0X8writeRegEhh>
  writeReg(0x80, 0x00);
 80a1fb2:	2200      	movs	r2, #0
 80a1fb4:	2180      	movs	r1, #128	; 0x80
 80a1fb6:	4620      	mov	r0, r4
 80a1fb8:	f7ff fa62 	bl	80a1480 <_ZN7VL53L0X8writeRegEhh>
  // -- VL53L0X_load_tuning_settings() end

  // "Set interrupt config to new sample ready"
  // -- VL53L0X_SetGpioConfig() begin

  writeReg(SYSTEM_INTERRUPT_CONFIG_GPIO, 0x04);
 80a1fbc:	2204      	movs	r2, #4
 80a1fbe:	210a      	movs	r1, #10
 80a1fc0:	4620      	mov	r0, r4
 80a1fc2:	f7ff fa5d 	bl	80a1480 <_ZN7VL53L0X8writeRegEhh>
  writeReg(GPIO_HV_MUX_ACTIVE_HIGH, readReg(GPIO_HV_MUX_ACTIVE_HIGH) & ~0x10); // active low
 80a1fc6:	2184      	movs	r1, #132	; 0x84
 80a1fc8:	4620      	mov	r0, r4
 80a1fca:	f7ff fac8 	bl	80a155e <_ZN7VL53L0X7readRegEh>
 80a1fce:	2184      	movs	r1, #132	; 0x84
 80a1fd0:	f000 02ef 	and.w	r2, r0, #239	; 0xef
 80a1fd4:	4620      	mov	r0, r4
 80a1fd6:	f7ff fa53 	bl	80a1480 <_ZN7VL53L0X8writeRegEhh>
  writeReg(SYSTEM_INTERRUPT_CLEAR, 0x01);
 80a1fda:	2201      	movs	r2, #1
 80a1fdc:	210b      	movs	r1, #11
 80a1fde:	4620      	mov	r0, r4
 80a1fe0:	f7ff fa4e 	bl	80a1480 <_ZN7VL53L0X8writeRegEhh>

  // -- VL53L0X_SetGpioConfig() end

  measurement_timing_budget_us = getMeasurementTimingBudget();
 80a1fe4:	4620      	mov	r0, r4
 80a1fe6:	f7ff fcf3 	bl	80a19d0 <_ZN7VL53L0X26getMeasurementTimingBudgetEv>
  // "Disable MSRC and TCC by default"
  // MSRC = Minimum Signal Rate Check
  // TCC = Target CentreCheck
  // -- VL53L0X_SetSequenceStepEnable() begin

  writeReg(SYSTEM_SEQUENCE_CONFIG, 0xE8);
 80a1fea:	22e8      	movs	r2, #232	; 0xe8
  writeReg(GPIO_HV_MUX_ACTIVE_HIGH, readReg(GPIO_HV_MUX_ACTIVE_HIGH) & ~0x10); // active low
  writeReg(SYSTEM_INTERRUPT_CLEAR, 0x01);

  // -- VL53L0X_SetGpioConfig() end

  measurement_timing_budget_us = getMeasurementTimingBudget();
 80a1fec:	6160      	str	r0, [r4, #20]
  // "Disable MSRC and TCC by default"
  // MSRC = Minimum Signal Rate Check
  // TCC = Target CentreCheck
  // -- VL53L0X_SetSequenceStepEnable() begin

  writeReg(SYSTEM_SEQUENCE_CONFIG, 0xE8);
 80a1fee:	2101      	movs	r1, #1
 80a1ff0:	4620      	mov	r0, r4
 80a1ff2:	f7ff fa45 	bl	80a1480 <_ZN7VL53L0X8writeRegEhh>

  // -- VL53L0X_SetSequenceStepEnable() end

  // "Recalculate timing budget"
  setMeasurementTimingBudget(measurement_timing_budget_us);
 80a1ff6:	6961      	ldr	r1, [r4, #20]
 80a1ff8:	4620      	mov	r0, r4
 80a1ffa:	f7ff fd33 	bl	80a1a64 <_ZN7VL53L0X26setMeasurementTimingBudgetEm>

  // VL53L0X_PerformRefCalibration() begin (VL53L0X_perform_ref_calibration())

  // -- VL53L0X_perform_vhv_calibration() begin

  writeReg(SYSTEM_SEQUENCE_CONFIG, 0x01);
 80a1ffe:	2201      	movs	r2, #1
 80a2000:	4611      	mov	r1, r2
 80a2002:	4620      	mov	r0, r4
 80a2004:	f7ff fa3c 	bl	80a1480 <_ZN7VL53L0X8writeRegEhh>
  if (!performSingleRefCalibration(0x40)) { return false; }
 80a2008:	2140      	movs	r1, #64	; 0x40
 80a200a:	4620      	mov	r0, r4
 80a200c:	f7ff fd79 	bl	80a1b02 <_ZN7VL53L0X27performSingleRefCalibrationEh>
 80a2010:	2800      	cmp	r0, #0
 80a2012:	f43f adf2 	beq.w	80a1bfa <_ZN7VL53L0X4initEb+0xa6>

  // -- VL53L0X_perform_vhv_calibration() end

  // -- VL53L0X_perform_phase_calibration() begin

  writeReg(SYSTEM_SEQUENCE_CONFIG, 0x02);
 80a2016:	2202      	movs	r2, #2
 80a2018:	2101      	movs	r1, #1
 80a201a:	4620      	mov	r0, r4
 80a201c:	f7ff fa30 	bl	80a1480 <_ZN7VL53L0X8writeRegEhh>
  if (!performSingleRefCalibration(0x00)) { return false; }
 80a2020:	2100      	movs	r1, #0
 80a2022:	4620      	mov	r0, r4
 80a2024:	f7ff fd6d 	bl	80a1b02 <_ZN7VL53L0X27performSingleRefCalibrationEh>
 80a2028:	4605      	mov	r5, r0
 80a202a:	2800      	cmp	r0, #0
 80a202c:	f43f ade5 	beq.w	80a1bfa <_ZN7VL53L0X4initEb+0xa6>

  // -- VL53L0X_perform_phase_calibration() end

  // "restore the previous Sequence Config"
  writeReg(SYSTEM_SEQUENCE_CONFIG, 0xE8);
 80a2030:	22e8      	movs	r2, #232	; 0xe8
 80a2032:	2101      	movs	r1, #1
 80a2034:	4620      	mov	r0, r4
 80a2036:	f7ff fa23 	bl	80a1480 <_ZN7VL53L0X8writeRegEhh>

  // VL53L0X_PerformRefCalibration() end

  return true;
}
 80a203a:	4628      	mov	r0, r5
 80a203c:	b005      	add	sp, #20
 80a203e:	bdf0      	pop	{r4, r5, r6, r7, pc}

080a2040 <_GLOBAL__sub_I__ZN7VL53L0XC2Ev>:
 80a2040:	f001 b83a 	b.w	80a30b8 <HAL_Pin_Map>

080a2044 <_ZN9LIS3DHI2CD1Ev>:

}

LIS3DHI2C::~LIS3DHI2C() {

}
 80a2044:	4770      	bx	lr

080a2046 <_ZN9LIS3DHI2CD0Ev>:

LIS3DHI2C::LIS3DHI2C(TwoWire &wire, uint8_t sad0, int intPin) : LIS3DH(intPin), wire(wire), sad0(sad0) {

}

LIS3DHI2C::~LIS3DHI2C() {
 80a2046:	b510      	push	{r4, lr}
 80a2048:	4604      	mov	r4, r0

}
 80a204a:	f7fe f828 	bl	80a009e <_ZdlPv>
 80a204e:	4620      	mov	r0, r4
 80a2050:	bd10      	pop	{r4, pc}

080a2052 <_ZN9LIS3DHI2C9writeDataEhPKhj>:
		buf[ii] = wire.read();
	}
	return true;
}

bool LIS3DHI2C::writeData(uint8_t addr, const uint8_t *buf, size_t numBytes) {
 80a2052:	b5f8      	push	{r3, r4, r5, r6, r7, lr}
 80a2054:	4605      	mov	r5, r0
 80a2056:	461e      	mov	r6, r3
 80a2058:	460f      	mov	r7, r1

	wire.beginTransmission(getI2CAddr());
 80a205a:	7c01      	ldrb	r1, [r0, #16]
 80a205c:	68c0      	ldr	r0, [r0, #12]
 80a205e:	f041 0118 	orr.w	r1, r1, #24
		buf[ii] = wire.read();
	}
	return true;
}

bool LIS3DHI2C::writeData(uint8_t addr, const uint8_t *buf, size_t numBytes) {
 80a2062:	4614      	mov	r4, r2

	wire.beginTransmission(getI2CAddr());
 80a2064:	f002 f93b 	bl	80a42de <_ZN7TwoWire17beginTransmissionEh>

	if (numBytes > 1) {
		addr |= I2C_INCREMENT;
	}
	wire.write(addr);
 80a2068:	68e8      	ldr	r0, [r5, #12]

bool LIS3DHI2C::writeData(uint8_t addr, const uint8_t *buf, size_t numBytes) {

	wire.beginTransmission(getI2CAddr());

	if (numBytes > 1) {
 80a206a:	2e01      	cmp	r6, #1
		addr |= I2C_INCREMENT;
	}
	wire.write(addr);
 80a206c:	6803      	ldr	r3, [r0, #0]
bool LIS3DHI2C::writeData(uint8_t addr, const uint8_t *buf, size_t numBytes) {

	wire.beginTransmission(getI2CAddr());

	if (numBytes > 1) {
		addr |= I2C_INCREMENT;
 80a206e:	bf88      	it	hi
 80a2070:	f047 0780 	orrhi.w	r7, r7, #128	; 0x80
	}
	wire.write(addr);
 80a2074:	689b      	ldr	r3, [r3, #8]
 80a2076:	4639      	mov	r1, r7
 80a2078:	4798      	blx	r3
 80a207a:	4426      	add	r6, r4
	for(size_t ii = 0; ii < numBytes; ii++) {
 80a207c:	42a6      	cmp	r6, r4
		wire.write(buf[ii]);
	}

	uint8_t res = wire.endTransmission();
 80a207e:	68e8      	ldr	r0, [r5, #12]

	if (numBytes > 1) {
		addr |= I2C_INCREMENT;
	}
	wire.write(addr);
	for(size_t ii = 0; ii < numBytes; ii++) {
 80a2080:	d005      	beq.n	80a208e <_ZN9LIS3DHI2C9writeDataEhPKhj+0x3c>
		wire.write(buf[ii]);
 80a2082:	6803      	ldr	r3, [r0, #0]
 80a2084:	f814 1b01 	ldrb.w	r1, [r4], #1
 80a2088:	689b      	ldr	r3, [r3, #8]
 80a208a:	4798      	blx	r3

	if (numBytes > 1) {
		addr |= I2C_INCREMENT;
	}
	wire.write(addr);
	for(size_t ii = 0; ii < numBytes; ii++) {
 80a208c:	e7f6      	b.n	80a207c <_ZN9LIS3DHI2C9writeDataEhPKhj+0x2a>
		wire.write(buf[ii]);
	}

	uint8_t res = wire.endTransmission();
 80a208e:	f002 f92e 	bl	80a42ee <_ZN7TwoWire15endTransmissionEv>

	return (res == 0);
}
 80a2092:	fab0 f080 	clz	r0, r0
 80a2096:	0940      	lsrs	r0, r0, #5
 80a2098:	bdf8      	pop	{r3, r4, r5, r6, r7, pc}

080a209a <_ZN9LIS3DHI2C8readDataEhPhj>:

LIS3DHI2C::LIS3DHI2C(uint8_t sad0, int intPin) : LIS3DH(intPin), wire(Wire), sad0(sad0) {

}

bool LIS3DHI2C::readData(uint8_t addr, uint8_t *buf, size_t numBytes) {
 80a209a:	b5f8      	push	{r3, r4, r5, r6, r7, lr}
 80a209c:	4604      	mov	r4, r0
 80a209e:	461e      	mov	r6, r3
 80a20a0:	460f      	mov	r7, r1
	wire.beginTransmission(getI2CAddr());
 80a20a2:	7c01      	ldrb	r1, [r0, #16]
 80a20a4:	68c0      	ldr	r0, [r0, #12]
 80a20a6:	f041 0118 	orr.w	r1, r1, #24

LIS3DHI2C::LIS3DHI2C(uint8_t sad0, int intPin) : LIS3DH(intPin), wire(Wire), sad0(sad0) {

}

bool LIS3DHI2C::readData(uint8_t addr, uint8_t *buf, size_t numBytes) {
 80a20aa:	4615      	mov	r5, r2
	wire.beginTransmission(getI2CAddr());
 80a20ac:	f002 f917 	bl	80a42de <_ZN7TwoWire17beginTransmissionEh>

	if (numBytes > 1) {
		addr |= I2C_INCREMENT;
	}
	wire.write(addr);
 80a20b0:	68e0      	ldr	r0, [r4, #12]
}

bool LIS3DHI2C::readData(uint8_t addr, uint8_t *buf, size_t numBytes) {
	wire.beginTransmission(getI2CAddr());

	if (numBytes > 1) {
 80a20b2:	2e01      	cmp	r6, #1
		addr |= I2C_INCREMENT;
	}
	wire.write(addr);
 80a20b4:	6803      	ldr	r3, [r0, #0]

bool LIS3DHI2C::readData(uint8_t addr, uint8_t *buf, size_t numBytes) {
	wire.beginTransmission(getI2CAddr());

	if (numBytes > 1) {
		addr |= I2C_INCREMENT;
 80a20b6:	bf88      	it	hi
 80a20b8:	f047 0780 	orrhi.w	r7, r7, #128	; 0x80
	}
	wire.write(addr);
 80a20bc:	689b      	ldr	r3, [r3, #8]
 80a20be:	4639      	mov	r1, r7
 80a20c0:	4798      	blx	r3

	uint8_t res = wire.endTransmission();
 80a20c2:	68e0      	ldr	r0, [r4, #12]
 80a20c4:	f002 f913 	bl	80a42ee <_ZN7TwoWire15endTransmissionEv>
	if (res != 0) {
 80a20c8:	b9a8      	cbnz	r0, 80a20f6 <_ZN9LIS3DHI2C8readDataEhPhj+0x5c>
		return false;
	}

	wire.requestFrom((int)getI2CAddr(), numBytes);
 80a20ca:	7c21      	ldrb	r1, [r4, #16]
 80a20cc:	4632      	mov	r2, r6
 80a20ce:	f041 0118 	orr.w	r1, r1, #24
 80a20d2:	68e0      	ldr	r0, [r4, #12]
 80a20d4:	f002 f8fe 	bl	80a42d4 <_ZN7TwoWire11requestFromEii>
 80a20d8:	442e      	add	r6, r5
	for(size_t ii = 0; ii < numBytes && wire.available(); ii++) {
 80a20da:	42ae      	cmp	r6, r5
 80a20dc:	d00d      	beq.n	80a20fa <_ZN9LIS3DHI2C8readDataEhPhj+0x60>
 80a20de:	68e0      	ldr	r0, [r4, #12]
 80a20e0:	6803      	ldr	r3, [r0, #0]
 80a20e2:	691b      	ldr	r3, [r3, #16]
 80a20e4:	4798      	blx	r3
 80a20e6:	b140      	cbz	r0, 80a20fa <_ZN9LIS3DHI2C8readDataEhPhj+0x60>
		buf[ii] = wire.read();
 80a20e8:	68e0      	ldr	r0, [r4, #12]
 80a20ea:	6803      	ldr	r3, [r0, #0]
 80a20ec:	695b      	ldr	r3, [r3, #20]
 80a20ee:	4798      	blx	r3
 80a20f0:	f805 0b01 	strb.w	r0, [r5], #1
 80a20f4:	e7f1      	b.n	80a20da <_ZN9LIS3DHI2C8readDataEhPhj+0x40>
	}
	wire.write(addr);

	uint8_t res = wire.endTransmission();
	if (res != 0) {
		return false;
 80a20f6:	2000      	movs	r0, #0
 80a20f8:	bdf8      	pop	{r3, r4, r5, r6, r7, pc}
 80a20fa:	2001      	movs	r0, #1
	wire.requestFrom((int)getI2CAddr(), numBytes);
	for(size_t ii = 0; ii < numBytes && wire.available(); ii++) {
		buf[ii] = wire.read();
	}
	return true;
}
 80a20fc:	bdf8      	pop	{r3, r4, r5, r6, r7, pc}

080a20fe <_ZN12LIS3DHConfigC1Ev>:
#include "LIS3DH.h"

// Official project location:
// https://github.com/rickkas7/LIS3DH

LIS3DHConfig::LIS3DHConfig() {
 80a20fe:	2200      	movs	r2, #0
 80a2100:	7002      	strb	r2, [r0, #0]
 80a2102:	7042      	strb	r2, [r0, #1]
 80a2104:	7082      	strb	r2, [r0, #2]
 80a2106:	70c2      	strb	r2, [r0, #3]
 80a2108:	7102      	strb	r2, [r0, #4]
 80a210a:	7142      	strb	r2, [r0, #5]
 80a210c:	7182      	strb	r2, [r0, #6]
 80a210e:	71c2      	strb	r2, [r0, #7]
 80a2110:	7202      	strb	r2, [r0, #8]
 80a2112:	7242      	strb	r2, [r0, #9]
 80a2114:	7282      	strb	r2, [r0, #10]
}
 80a2116:	4770      	bx	lr

080a2118 <_ZN12LIS3DHConfig12setAccelModeEh>:
}

LIS3DHConfig &LIS3DHConfig::setAccelMode(uint8_t rate) {

	// Enable specified rate, with XYZ detection enabled
	reg1 = rate | LIS3DH::CTRL_REG1_ZEN | LIS3DH::CTRL_REG1_YEN | LIS3DH::CTRL_REG1_XEN;
 80a2118:	f041 0107 	orr.w	r1, r1, #7
 80a211c:	7001      	strb	r1, [r0, #0]

	return *this;
}
 80a211e:	4770      	bx	lr

080a2120 <_ZN6LIS3DH13readRegister8Eh>:

	return pos;
}


uint8_t LIS3DH::readRegister8(uint8_t addr) {
 80a2120:	b513      	push	{r0, r1, r4, lr}

	uint8_t resp[1];
	readData(addr, resp, sizeof(resp));
 80a2122:	6803      	ldr	r3, [r0, #0]
 80a2124:	aa01      	add	r2, sp, #4
 80a2126:	689c      	ldr	r4, [r3, #8]
 80a2128:	2301      	movs	r3, #1
 80a212a:	47a0      	blx	r4

	return resp[0];
}
 80a212c:	f89d 0004 	ldrb.w	r0, [sp, #4]
 80a2130:	b002      	add	sp, #8
 80a2132:	bd10      	pop	{r4, pc}

080a2134 <_ZN6LIS3DH9hasDeviceEv>:
LIS3DH::~LIS3DH() {

}


bool LIS3DH::hasDevice() {
 80a2134:	b538      	push	{r3, r4, r5, lr}
 80a2136:	4605      	mov	r5, r0
 80a2138:	240a      	movs	r4, #10
	bool found = false;
	for(int tries = 0; tries < 10; tries++) {
		uint8_t whoami = readRegister8(REG_WHO_AM_I);
 80a213a:	210f      	movs	r1, #15
 80a213c:	4628      	mov	r0, r5
 80a213e:	f7ff ffef 	bl	80a2120 <_ZN6LIS3DH13readRegister8Eh>
		if (whoami == WHO_AM_I) {
 80a2142:	2833      	cmp	r0, #51	; 0x33
			found = true;
 80a2144:	f04f 0001 	mov.w	r0, #1

bool LIS3DH::hasDevice() {
	bool found = false;
	for(int tries = 0; tries < 10; tries++) {
		uint8_t whoami = readRegister8(REG_WHO_AM_I);
		if (whoami == WHO_AM_I) {
 80a2148:	d005      	beq.n	80a2156 <_ZN6LIS3DH9hasDeviceEv+0x22>
			found = true;
			break;
		}
		delay(1);
 80a214a:	f001 fbc3 	bl	80a38d4 <delay>
}


bool LIS3DH::hasDevice() {
	bool found = false;
	for(int tries = 0; tries < 10; tries++) {
 80a214e:	3c01      	subs	r4, #1
 80a2150:	d1f3      	bne.n	80a213a <_ZN6LIS3DH9hasDeviceEv+0x6>

}


bool LIS3DH::hasDevice() {
	bool found = false;
 80a2152:	4620      	mov	r0, r4
 80a2154:	bd38      	pop	{r3, r4, r5, pc}
			break;
		}
		delay(1);
	}
	return found;
}
 80a2156:	bd38      	pop	{r3, r4, r5, pc}

080a2158 <_ZN6LIS3DH9getSampleER12LIS3DHSample>:

	return result;
}


bool LIS3DH::getSample(LIS3DHSample &sample) {
 80a2158:	b5f7      	push	{r0, r1, r2, r4, r5, r6, r7, lr}
 80a215a:	460c      	mov	r4, r1
	uint8_t statusAuxReg = readRegister8(REG_STATUS_AUX);
 80a215c:	2107      	movs	r1, #7

	return result;
}


bool LIS3DH::getSample(LIS3DHSample &sample) {
 80a215e:	4606      	mov	r6, r0
	uint8_t statusAuxReg = readRegister8(REG_STATUS_AUX);
 80a2160:	f7ff ffde 	bl	80a2120 <_ZN6LIS3DH13readRegister8Eh>
 80a2164:	f000 0008 	and.w	r0, r0, #8

	bool hasData = ((statusAuxReg & STATUS_AUX_321DA) != 0);
 80a2168:	2800      	cmp	r0, #0
 80a216a:	bf14      	ite	ne
 80a216c:	2501      	movne	r5, #1
 80a216e:	2500      	moveq	r5, #0

	//Serial.printlnf("fifoSrcReg=0x%02x", fifoSrcReg);

	if (hasData) {
 80a2170:	d01b      	beq.n	80a21aa <_ZN6LIS3DH9getSampleER12LIS3DHSample+0x52>
		uint8_t resp[6];
		readData(REG_OUT_X_L, resp, sizeof(resp));
 80a2172:	6833      	ldr	r3, [r6, #0]
 80a2174:	466a      	mov	r2, sp
 80a2176:	689f      	ldr	r7, [r3, #8]
 80a2178:	2128      	movs	r1, #40	; 0x28
 80a217a:	2306      	movs	r3, #6
 80a217c:	4630      	mov	r0, r6
 80a217e:	47b8      	blx	r7

		sample.x = (int16_t) (resp[0] | (((uint16_t)resp[1]) << 8));
 80a2180:	f89d 2001 	ldrb.w	r2, [sp, #1]
 80a2184:	f89d 3000 	ldrb.w	r3, [sp]
 80a2188:	ea43 2302 	orr.w	r3, r3, r2, lsl #8
 80a218c:	8023      	strh	r3, [r4, #0]
		sample.y = (int16_t) (resp[2] | (((uint16_t)resp[3]) << 8));
 80a218e:	f89d 2003 	ldrb.w	r2, [sp, #3]
 80a2192:	f89d 3002 	ldrb.w	r3, [sp, #2]
 80a2196:	ea43 2302 	orr.w	r3, r3, r2, lsl #8
 80a219a:	8063      	strh	r3, [r4, #2]
		sample.z = (int16_t) (resp[4] | (((uint16_t)resp[5]) << 8));
 80a219c:	f89d 2005 	ldrb.w	r2, [sp, #5]
 80a21a0:	f89d 3004 	ldrb.w	r3, [sp, #4]
 80a21a4:	ea43 2302 	orr.w	r3, r3, r2, lsl #8
 80a21a8:	80a3      	strh	r3, [r4, #4]
	}
	return hasData;
}
 80a21aa:	4628      	mov	r0, r5
 80a21ac:	b003      	add	sp, #12
 80a21ae:	bdf0      	pop	{r4, r5, r6, r7, pc}

080a21b0 <_ZN6LIS3DH14writeRegister8Ehh>:

	return resp[0] | (((uint16_t)resp[1]) << 8);
}


void LIS3DH::writeRegister8(uint8_t addr, uint8_t value) {
 80a21b0:	b537      	push	{r0, r1, r2, r4, r5, lr}
	// Serial.printlnf("writeRegister addr=%02x value=%02x", addr, value);

	uint8_t req[1];
	req[0] = value;
 80a21b2:	ac02      	add	r4, sp, #8

	writeData(addr, req, sizeof(req));
 80a21b4:	6803      	ldr	r3, [r0, #0]

void LIS3DH::writeRegister8(uint8_t addr, uint8_t value) {
	// Serial.printlnf("writeRegister addr=%02x value=%02x", addr, value);

	uint8_t req[1];
	req[0] = value;
 80a21b6:	f804 2d04 	strb.w	r2, [r4, #-4]!

	writeData(addr, req, sizeof(req));
 80a21ba:	68dd      	ldr	r5, [r3, #12]
 80a21bc:	4622      	mov	r2, r4
 80a21be:	2301      	movs	r3, #1
 80a21c0:	47a8      	blx	r5
}
 80a21c2:	b003      	add	sp, #12
 80a21c4:	bd30      	pop	{r4, r5, pc}
	...

080a21c8 <_ZN6LIS3DH5setupER12LIS3DHConfig>:
		delay(1);
	}
	return found;
}

bool LIS3DH::setup(LIS3DHConfig &config) {
 80a21c8:	b570      	push	{r4, r5, r6, lr}
 80a21ca:	4604      	mov	r4, r0
 80a21cc:	460d      	mov	r5, r1

	if (!hasDevice()) {
 80a21ce:	f7ff ffb1 	bl	80a2134 <_ZN6LIS3DH9hasDeviceEv>
 80a21d2:	4606      	mov	r6, r0
 80a21d4:	b928      	cbnz	r0, 80a21e2 <_ZN6LIS3DH5setupER12LIS3DHConfig+0x1a>
		Serial.println("device not found");
 80a21d6:	f001 ff23 	bl	80a4020 <_Z16_fetch_usbserialv>
 80a21da:	4928      	ldr	r1, [pc, #160]	; (80a227c <_ZN6LIS3DH5setupER12LIS3DHConfig+0xb4>)
 80a21dc:	f001 f9f0 	bl	80a35c0 <_ZN5Print7printlnEPKc>
		return false;
 80a21e0:	e049      	b.n	80a2276 <_ZN6LIS3DH5setupER12LIS3DHConfig+0xae>
	}

	writeRegister8(REG_CTRL_REG1, config.reg1);
 80a21e2:	782a      	ldrb	r2, [r5, #0]
 80a21e4:	2120      	movs	r1, #32
 80a21e6:	4620      	mov	r0, r4
 80a21e8:	f7ff ffe2 	bl	80a21b0 <_ZN6LIS3DH14writeRegister8Ehh>
	writeRegister8(REG_CTRL_REG2, config.reg2);
 80a21ec:	786a      	ldrb	r2, [r5, #1]
 80a21ee:	2121      	movs	r1, #33	; 0x21
 80a21f0:	4620      	mov	r0, r4
 80a21f2:	f7ff ffdd 	bl	80a21b0 <_ZN6LIS3DH14writeRegister8Ehh>
	writeRegister8(REG_CTRL_REG3, config.reg3);
 80a21f6:	78aa      	ldrb	r2, [r5, #2]
 80a21f8:	2122      	movs	r1, #34	; 0x22
 80a21fa:	4620      	mov	r0, r4
 80a21fc:	f7ff ffd8 	bl	80a21b0 <_ZN6LIS3DH14writeRegister8Ehh>
	writeRegister8(REG_CTRL_REG4, config.reg4);
 80a2200:	78ea      	ldrb	r2, [r5, #3]
 80a2202:	2123      	movs	r1, #35	; 0x23
 80a2204:	4620      	mov	r0, r4
 80a2206:	f7ff ffd3 	bl	80a21b0 <_ZN6LIS3DH14writeRegister8Ehh>
	writeRegister8(REG_CTRL_REG5, config.reg5);
 80a220a:	792a      	ldrb	r2, [r5, #4]
 80a220c:	2124      	movs	r1, #36	; 0x24
 80a220e:	4620      	mov	r0, r4
 80a2210:	f7ff ffce 	bl	80a21b0 <_ZN6LIS3DH14writeRegister8Ehh>
	writeRegister8(REG_CTRL_REG6, config.reg6);
 80a2214:	796a      	ldrb	r2, [r5, #5]
 80a2216:	2125      	movs	r1, #37	; 0x25
 80a2218:	4620      	mov	r0, r4
 80a221a:	f7ff ffc9 	bl	80a21b0 <_ZN6LIS3DH14writeRegister8Ehh>

	if (config.setReference) {
 80a221e:	79ab      	ldrb	r3, [r5, #6]
 80a2220:	b11b      	cbz	r3, 80a222a <_ZN6LIS3DH5setupER12LIS3DHConfig+0x62>
		// In normal mode, reading the reference register sets it for the current normal force
		// (the normal force of gravity acting on the device)
		readRegister8(REG_REFERENCE);
 80a2222:	2126      	movs	r1, #38	; 0x26
 80a2224:	4620      	mov	r0, r4
 80a2226:	f7ff ff7b 	bl	80a2120 <_ZN6LIS3DH13readRegister8Eh>
	}
	// Set FIFO mode
	writeRegister8(REG_FIFO_CTRL_REG, config.fifoCtrlReg);
 80a222a:	7aaa      	ldrb	r2, [r5, #10]
 80a222c:	212e      	movs	r1, #46	; 0x2e
 80a222e:	4620      	mov	r0, r4
 80a2230:	f7ff ffbe 	bl	80a21b0 <_ZN6LIS3DH14writeRegister8Ehh>



	if ((config.reg3 & CTRL_REG3_I1_INT1) != 0) {
 80a2234:	78ab      	ldrb	r3, [r5, #2]
 80a2236:	065b      	lsls	r3, r3, #25
 80a2238:	d51d      	bpl.n	80a2276 <_ZN6LIS3DH5setupER12LIS3DHConfig+0xae>

		writeRegister8(REG_INT1_THS, config.int1_ths);
 80a223a:	79ea      	ldrb	r2, [r5, #7]
 80a223c:	2132      	movs	r1, #50	; 0x32
 80a223e:	4620      	mov	r0, r4
 80a2240:	f7ff ffb6 	bl	80a21b0 <_ZN6LIS3DH14writeRegister8Ehh>
		writeRegister8(REG_INT1_DURATION, config.int1_duration);
 80a2244:	7a2a      	ldrb	r2, [r5, #8]
 80a2246:	2133      	movs	r1, #51	; 0x33
 80a2248:	4620      	mov	r0, r4
 80a224a:	f7ff ffb1 	bl	80a21b0 <_ZN6LIS3DH14writeRegister8Ehh>

		if (intPin >= 0) {
 80a224e:	6863      	ldr	r3, [r4, #4]
 80a2250:	2b00      	cmp	r3, #0
 80a2252:	db0a      	blt.n	80a226a <_ZN6LIS3DH5setupER12LIS3DHConfig+0xa2>
			// as I can tell this never works. Merely setting the INT1_CFG does not ever generate an
			// interrupt for me.

			// Remember the INT1_CFG setting because we're apparently supposed to set it again after
			// clearing an interrupt.
			int1_cfg = config.int1_cfg;
 80a2254:	7a6a      	ldrb	r2, [r5, #9]
			writeRegister8(REG_INT1_CFG, int1_cfg);
 80a2256:	4620      	mov	r0, r4
			// as I can tell this never works. Merely setting the INT1_CFG does not ever generate an
			// interrupt for me.

			// Remember the INT1_CFG setting because we're apparently supposed to set it again after
			// clearing an interrupt.
			int1_cfg = config.int1_cfg;
 80a2258:	7222      	strb	r2, [r4, #8]
			writeRegister8(REG_INT1_CFG, int1_cfg);
 80a225a:	2130      	movs	r1, #48	; 0x30
 80a225c:	f7ff ffa8 	bl	80a21b0 <_ZN6LIS3DH14writeRegister8Ehh>

			// Clear the interrupt just in case
			readRegister8(REG_INT1_SRC);
 80a2260:	2131      	movs	r1, #49	; 0x31
 80a2262:	4620      	mov	r0, r4
 80a2264:	f7ff ff5c 	bl	80a2120 <_ZN6LIS3DH13readRegister8Eh>
 80a2268:	e005      	b.n	80a2276 <_ZN6LIS3DH5setupER12LIS3DHConfig+0xae>
		}
		else {
			int1_cfg = 0;
 80a226a:	2200      	movs	r2, #0
 80a226c:	7222      	strb	r2, [r4, #8]
			writeRegister8(REG_INT1_CFG, 0);
 80a226e:	2130      	movs	r1, #48	; 0x30
 80a2270:	4620      	mov	r0, r4
 80a2272:	f7ff ff9d 	bl	80a21b0 <_ZN6LIS3DH14writeRegister8Ehh>




	return true;
}
 80a2276:	4630      	mov	r0, r6
 80a2278:	bd70      	pop	{r4, r5, r6, pc}
 80a227a:	bf00      	nop
 80a227c:	080a5838 	.word	0x080a5838

080a2280 <_ZN9LIS3DHI2CC1ER7TwoWirehi>:

//
//
//

LIS3DHI2C::LIS3DHI2C(TwoWire &wire, uint8_t sad0, int intPin) : LIS3DH(intPin), wire(wire), sad0(sad0) {
 80a2280:	b510      	push	{r4, lr}

	return *this;
}


LIS3DH::LIS3DH(int intPin) : intPin(intPin) {
 80a2282:	6043      	str	r3, [r0, #4]

//
//
//

LIS3DHI2C::LIS3DHI2C(TwoWire &wire, uint8_t sad0, int intPin) : LIS3DH(intPin), wire(wire), sad0(sad0) {
 80a2284:	4b02      	ldr	r3, [pc, #8]	; (80a2290 <_ZN9LIS3DHI2CC1ER7TwoWirehi+0x10>)
 80a2286:	60c1      	str	r1, [r0, #12]
 80a2288:	6003      	str	r3, [r0, #0]
 80a228a:	7402      	strb	r2, [r0, #16]

}
 80a228c:	bd10      	pop	{r4, pc}
 80a228e:	bf00      	nop
 80a2290:	080a5828 	.word	0x080a5828

080a2294 <_GLOBAL__sub_I__ZN12LIS3DHConfigC2Ev>:
 80a2294:	f000 bf10 	b.w	80a30b8 <HAL_Pin_Map>

080a2298 <_ZN9FuzzyRuleC1EiP19FuzzyRuleAntecedentP19FuzzyRuleConsequent>:
#include "FuzzyRule.h"

FuzzyRule::FuzzyRule(){
}

FuzzyRule::FuzzyRule(int index, FuzzyRuleAntecedent* fuzzyRuleAntecedent, FuzzyRuleConsequent* fuzzyRuleConsequent){
 80a2298:	b510      	push	{r4, lr}
    this->index = index;
    this->fuzzyRuleAntecedent = fuzzyRuleAntecedent;
    this->fuzzyRuleConsequent = fuzzyRuleConsequent;
 80a229a:	60c3      	str	r3, [r0, #12]
    this->fired = false;
 80a229c:	2300      	movs	r3, #0

FuzzyRule::FuzzyRule(){
}

FuzzyRule::FuzzyRule(int index, FuzzyRuleAntecedent* fuzzyRuleAntecedent, FuzzyRuleConsequent* fuzzyRuleConsequent){
    this->index = index;
 80a229e:	6001      	str	r1, [r0, #0]
    this->fuzzyRuleAntecedent = fuzzyRuleAntecedent;
 80a22a0:	6082      	str	r2, [r0, #8]
    this->fuzzyRuleConsequent = fuzzyRuleConsequent;
    this->fired = false;
 80a22a2:	7103      	strb	r3, [r0, #4]
}
 80a22a4:	bd10      	pop	{r4, pc}

080a22a6 <_ZN9FuzzyRule18evaluateExpressionEv>:

int FuzzyRule::getIndex(){
    return this->index;
}

bool FuzzyRule::evaluateExpression(){
 80a22a6:	b538      	push	{r3, r4, r5, lr}
 80a22a8:	4604      	mov	r4, r0
    if (this->fuzzyRuleAntecedent != NULL){
 80a22aa:	6880      	ldr	r0, [r0, #8]
 80a22ac:	b170      	cbz	r0, 80a22cc <_ZN9FuzzyRule18evaluateExpressionEv+0x26>
        float powerOfAntecedent = this->fuzzyRuleAntecedent->evaluate();
 80a22ae:	f000 fe2b 	bl	80a2f08 <_ZN19FuzzyRuleAntecedent8evaluateEv>

        (powerOfAntecedent > 0.0) ?    (this->fired = true) : (this->fired = false);
 80a22b2:	2100      	movs	r1, #0
    return this->index;
}

bool FuzzyRule::evaluateExpression(){
    if (this->fuzzyRuleAntecedent != NULL){
        float powerOfAntecedent = this->fuzzyRuleAntecedent->evaluate();
 80a22b4:	4605      	mov	r5, r0

        (powerOfAntecedent > 0.0) ?    (this->fired = true) : (this->fired = false);
 80a22b6:	f003 fa0d 	bl	80a56d4 <__aeabi_fcmpgt>
 80a22ba:	b110      	cbz	r0, 80a22c2 <_ZN9FuzzyRule18evaluateExpressionEv+0x1c>
 80a22bc:	2301      	movs	r3, #1
 80a22be:	7123      	strb	r3, [r4, #4]
 80a22c0:	e000      	b.n	80a22c4 <_ZN9FuzzyRule18evaluateExpressionEv+0x1e>
 80a22c2:	7120      	strb	r0, [r4, #4]
        
        this->fuzzyRuleConsequent->evaluate(powerOfAntecedent);
 80a22c4:	4629      	mov	r1, r5
 80a22c6:	68e0      	ldr	r0, [r4, #12]
 80a22c8:	f000 fd59 	bl	80a2d7e <_ZN19FuzzyRuleConsequent8evaluateEf>
    }
    return this->fired;
}
 80a22cc:	7920      	ldrb	r0, [r4, #4]
 80a22ce:	bd38      	pop	{r3, r4, r5, pc}

080a22d0 <_ZN16FuzzyCompositionC1Ev>:
#include "FuzzyComposition.h"
#include <math.h>

// CONSTRUTORES
FuzzyComposition::FuzzyComposition(){
    this->pointsCursor     = NULL;
 80a22d0:	2200      	movs	r2, #0
 80a22d2:	6002      	str	r2, [r0, #0]
    this->points         = NULL;
 80a22d4:	6042      	str	r2, [r0, #4]
}
 80a22d6:	4770      	bx	lr

080a22d8 <_ZN16FuzzyComposition8addPointEff>:
// DESTRUTOR
FuzzyComposition::~FuzzyComposition(){
    this->cleanPoints(this->points);
}

bool FuzzyComposition::addPoint(float point, float pertinence){
 80a22d8:	b570      	push	{r4, r5, r6, lr}
 80a22da:	4604      	mov	r4, r0
    pointsArray* aux;
    // Alocando espao na memria
    if((aux = (pointsArray* ) malloc(sizeof(pointsArray))) == NULL){
 80a22dc:	2010      	movs	r0, #16
// DESTRUTOR
FuzzyComposition::~FuzzyComposition(){
    this->cleanPoints(this->points);
}

bool FuzzyComposition::addPoint(float point, float pertinence){
 80a22de:	460e      	mov	r6, r1
 80a22e0:	4615      	mov	r5, r2
    pointsArray* aux;
    // Alocando espao na memria
    if((aux = (pointsArray* ) malloc(sizeof(pointsArray))) == NULL){
 80a22e2:	f001 f893 	bl	80a340c <malloc>
 80a22e6:	2300      	movs	r3, #0
 80a22e8:	b170      	cbz	r0, 80a2308 <_ZN16FuzzyComposition8addPointEff+0x30>
        return false;
    }
    aux->previous = NULL;
 80a22ea:	6003      	str	r3, [r0, #0]
    aux->point = point;
 80a22ec:	6046      	str	r6, [r0, #4]
    aux->pertinence = pertinence;
 80a22ee:	6085      	str	r5, [r0, #8]
    aux->next = NULL;
 80a22f0:	60c3      	str	r3, [r0, #12]

    if(this->points == NULL){
 80a22f2:	6863      	ldr	r3, [r4, #4]
 80a22f4:	b913      	cbnz	r3, 80a22fc <_ZN16FuzzyComposition8addPointEff+0x24>
        this->points = aux;
 80a22f6:	6060      	str	r0, [r4, #4]
        this->pointsCursor  = aux;
 80a22f8:	6020      	str	r0, [r4, #0]
 80a22fa:	e004      	b.n	80a2306 <_ZN16FuzzyComposition8addPointEff+0x2e>
    }else{
        aux->previous = this->pointsCursor;
 80a22fc:	6823      	ldr	r3, [r4, #0]
 80a22fe:	6003      	str	r3, [r0, #0]
        this->pointsCursor = aux;
 80a2300:	6020      	str	r0, [r4, #0]
        aux->previous->next = this->pointsCursor;
 80a2302:	6803      	ldr	r3, [r0, #0]
 80a2304:	60d8      	str	r0, [r3, #12]
    }
    return true;
 80a2306:	2001      	movs	r0, #1
}
 80a2308:	bd70      	pop	{r4, r5, r6, pc}

080a230a <_ZN16FuzzyComposition10checkPointEff>:

bool FuzzyComposition::checkPoint(float point, float pertinence){
 80a230a:	b570      	push	{r4, r5, r6, lr}
 80a230c:	460d      	mov	r5, r1
 80a230e:	4616      	mov	r6, r2
    pointsArray* aux;
    aux = this->pointsCursor;
 80a2310:	6804      	ldr	r4, [r0, #0]
    while(aux != NULL){
 80a2312:	b15c      	cbz	r4, 80a232c <_ZN16FuzzyComposition10checkPointEff+0x22>
        if(aux->point == point && aux->pertinence == pertinence){
 80a2314:	4629      	mov	r1, r5
 80a2316:	6860      	ldr	r0, [r4, #4]
 80a2318:	f003 f9b4 	bl	80a5684 <__aeabi_fcmpeq>
 80a231c:	b120      	cbz	r0, 80a2328 <_ZN16FuzzyComposition10checkPointEff+0x1e>
 80a231e:	4631      	mov	r1, r6
 80a2320:	68a0      	ldr	r0, [r4, #8]
 80a2322:	f003 f9af 	bl	80a5684 <__aeabi_fcmpeq>
 80a2326:	b918      	cbnz	r0, 80a2330 <_ZN16FuzzyComposition10checkPointEff+0x26>
            return true;
        }
        aux = aux->previous;
 80a2328:	6824      	ldr	r4, [r4, #0]
}

bool FuzzyComposition::checkPoint(float point, float pertinence){
    pointsArray* aux;
    aux = this->pointsCursor;
    while(aux != NULL){
 80a232a:	e7f2      	b.n	80a2312 <_ZN16FuzzyComposition10checkPointEff+0x8>
        if(aux->point == point && aux->pertinence == pertinence){
            return true;
        }
        aux = aux->previous;
    }
    return false;
 80a232c:	4620      	mov	r0, r4
 80a232e:	bd70      	pop	{r4, r5, r6, pc}
bool FuzzyComposition::checkPoint(float point, float pertinence){
    pointsArray* aux;
    aux = this->pointsCursor;
    while(aux != NULL){
        if(aux->point == point && aux->pertinence == pertinence){
            return true;
 80a2330:	2001      	movs	r0, #1
        }
        aux = aux->previous;
    }
    return false;
}
 80a2332:	bd70      	pop	{r4, r5, r6, pc}

080a2334 <_ZN16FuzzyComposition8avaliateEv>:
        aux = aux->next;
    }
    return true;
}

float FuzzyComposition::avaliate(){
 80a2334:	e92d 4ff8 	stmdb	sp!, {r3, r4, r5, r6, r7, r8, r9, sl, fp, lr}
    pointsArray* aux;
    float numerator     = 0.0;
    float denominator   = 0.0;
 80a2338:	2700      	movs	r7, #0
    return true;
}

float FuzzyComposition::avaliate(){
    pointsArray* aux;
    float numerator     = 0.0;
 80a233a:	46ba      	mov	sl, r7
    float denominator   = 0.0;

    aux = this->points;
 80a233c:	6845      	ldr	r5, [r0, #4]
    while(aux != NULL){
 80a233e:	2d00      	cmp	r5, #0
 80a2340:	f000 80b1 	beq.w	80a24a6 <_ZN16FuzzyComposition8avaliateEv+0x172>
        if(aux->next != NULL){
 80a2344:	68ee      	ldr	r6, [r5, #12]
 80a2346:	b90e      	cbnz	r6, 80a234c <_ZN16FuzzyComposition8avaliateEv+0x18>
        aux = aux->next;
    }
    return true;
}

float FuzzyComposition::avaliate(){
 80a2348:	4635      	mov	r5, r6
 80a234a:	e7f8      	b.n	80a233e <_ZN16FuzzyComposition8avaliateEv+0xa>
    aux = this->points;
    while(aux != NULL){
        if(aux->next != NULL){
            float area = 0.0;
            float middle = 0.0;
            if(aux->point == aux->next->point){
 80a234c:	686c      	ldr	r4, [r5, #4]
 80a234e:	f8d6 8004 	ldr.w	r8, [r6, #4]
 80a2352:	4620      	mov	r0, r4
 80a2354:	4641      	mov	r1, r8
 80a2356:	f003 f995 	bl	80a5684 <__aeabi_fcmpeq>
 80a235a:	f8d5 b008 	ldr.w	fp, [r5, #8]
 80a235e:	b108      	cbz	r0, 80a2364 <_ZN16FuzzyComposition8avaliateEv+0x30>
                // Se Singleton
                area     = aux->pertinence;
 80a2360:	465d      	mov	r5, fp
 80a2362:	e091      	b.n	80a2488 <_ZN16FuzzyComposition8avaliateEv+0x154>
                middle   = aux->point;
            }else if(aux->pertinence == 0.0 || aux->next->pertinence == 0.0){
 80a2364:	2100      	movs	r1, #0
 80a2366:	4658      	mov	r0, fp
 80a2368:	f003 f98c 	bl	80a5684 <__aeabi_fcmpeq>
 80a236c:	b930      	cbnz	r0, 80a237c <_ZN16FuzzyComposition8avaliateEv+0x48>
 80a236e:	68b5      	ldr	r5, [r6, #8]
 80a2370:	2100      	movs	r1, #0
 80a2372:	4628      	mov	r0, r5
 80a2374:	f003 f986 	bl	80a5684 <__aeabi_fcmpeq>
 80a2378:	2800      	cmp	r0, #0
 80a237a:	d036      	beq.n	80a23ea <_ZN16FuzzyComposition8avaliateEv+0xb6>
                // Se triangulo
                float pertinence;
                if(aux->pertinence > 0.0){
 80a237c:	2100      	movs	r1, #0
 80a237e:	4658      	mov	r0, fp
 80a2380:	f003 f9a8 	bl	80a56d4 <__aeabi_fcmpgt>
 80a2384:	b908      	cbnz	r0, 80a238a <_ZN16FuzzyComposition8avaliateEv+0x56>
                    pertinence = aux->pertinence;
                }else{
                    pertinence = aux->next->pertinence;
 80a2386:	68b5      	ldr	r5, [r6, #8]
 80a2388:	e000      	b.n	80a238c <_ZN16FuzzyComposition8avaliateEv+0x58>
                middle   = aux->point;
            }else if(aux->pertinence == 0.0 || aux->next->pertinence == 0.0){
                // Se triangulo
                float pertinence;
                if(aux->pertinence > 0.0){
                    pertinence = aux->pertinence;
 80a238a:	465d      	mov	r5, fp
                }else{
                    pertinence = aux->next->pertinence;
                }
                area = ((aux->next->point - aux->point) * pertinence) / 2.0;
 80a238c:	4621      	mov	r1, r4
 80a238e:	4640      	mov	r0, r8
 80a2390:	f002 feda 	bl	80a5148 <__aeabi_fsub>
 80a2394:	4601      	mov	r1, r0
 80a2396:	4680      	mov	r8, r0
 80a2398:	4628      	mov	r0, r5
 80a239a:	f002 ffdf 	bl	80a535c <__aeabi_fmul>
 80a239e:	f04f 517c 	mov.w	r1, #1056964608	; 0x3f000000
 80a23a2:	f002 ffdb 	bl	80a535c <__aeabi_fmul>
                if(aux->pertinence < aux->next->pertinence){
 80a23a6:	68b1      	ldr	r1, [r6, #8]
                if(aux->pertinence > 0.0){
                    pertinence = aux->pertinence;
                }else{
                    pertinence = aux->next->pertinence;
                }
                area = ((aux->next->point - aux->point) * pertinence) / 2.0;
 80a23a8:	4605      	mov	r5, r0
                if(aux->pertinence < aux->next->pertinence){
 80a23aa:	4658      	mov	r0, fp
 80a23ac:	f003 f974 	bl	80a5698 <__aeabi_fcmplt>
 80a23b0:	b128      	cbz	r0, 80a23be <_ZN16FuzzyComposition8avaliateEv+0x8a>
                    middle = ((aux->next->point - aux->point) / 1.5) + aux->point;
 80a23b2:	4640      	mov	r0, r8
 80a23b4:	f002 fb28 	bl	80a4a08 <__aeabi_f2d>
 80a23b8:	2200      	movs	r2, #0
 80a23ba:	4b42      	ldr	r3, [pc, #264]	; (80a24c4 <_ZN16FuzzyComposition8avaliateEv+0x190>)
 80a23bc:	e004      	b.n	80a23c8 <_ZN16FuzzyComposition8avaliateEv+0x94>
                }else{
                    middle = ((aux->next->point - aux->point) / 3.0) + aux->point;
 80a23be:	4640      	mov	r0, r8
 80a23c0:	f002 fb22 	bl	80a4a08 <__aeabi_f2d>
 80a23c4:	4b40      	ldr	r3, [pc, #256]	; (80a24c8 <_ZN16FuzzyComposition8avaliateEv+0x194>)
 80a23c6:	2200      	movs	r2, #0
 80a23c8:	f002 fc9c 	bl	80a4d04 <__aeabi_ddiv>
 80a23cc:	4680      	mov	r8, r0
 80a23ce:	4620      	mov	r0, r4
 80a23d0:	4689      	mov	r9, r1
 80a23d2:	f002 fb19 	bl	80a4a08 <__aeabi_f2d>
 80a23d6:	4602      	mov	r2, r0
 80a23d8:	460b      	mov	r3, r1
 80a23da:	4640      	mov	r0, r8
 80a23dc:	4649      	mov	r1, r9
 80a23de:	f002 f9b5 	bl	80a474c <__adddf3>
 80a23e2:	f002 fe5d 	bl	80a50a0 <__aeabi_d2f>
 80a23e6:	4604      	mov	r4, r0
 80a23e8:	e04e      	b.n	80a2488 <_ZN16FuzzyComposition8avaliateEv+0x154>
                }
            }else if((aux->pertinence > 0.0 && aux->next->pertinence > 0.0) && (aux->pertinence == aux->next->pertinence)){
 80a23ea:	2100      	movs	r1, #0
 80a23ec:	4658      	mov	r0, fp
 80a23ee:	f003 f971 	bl	80a56d4 <__aeabi_fcmpgt>
 80a23f2:	2100      	movs	r1, #0
 80a23f4:	b1c0      	cbz	r0, 80a2428 <_ZN16FuzzyComposition8avaliateEv+0xf4>
 80a23f6:	4628      	mov	r0, r5
 80a23f8:	f003 f96c 	bl	80a56d4 <__aeabi_fcmpgt>
 80a23fc:	b1c0      	cbz	r0, 80a2430 <_ZN16FuzzyComposition8avaliateEv+0xfc>
 80a23fe:	4629      	mov	r1, r5
 80a2400:	4658      	mov	r0, fp
 80a2402:	f003 f93f 	bl	80a5684 <__aeabi_fcmpeq>
 80a2406:	b1e8      	cbz	r0, 80a2444 <_ZN16FuzzyComposition8avaliateEv+0x110>
                // Se quadrado
                area = (aux->next->point - aux->point) * aux->pertinence;
 80a2408:	4621      	mov	r1, r4
 80a240a:	4640      	mov	r0, r8
 80a240c:	f002 fe9c 	bl	80a5148 <__aeabi_fsub>
 80a2410:	4601      	mov	r1, r0
 80a2412:	4680      	mov	r8, r0
 80a2414:	4658      	mov	r0, fp
 80a2416:	f002 ffa1 	bl	80a535c <__aeabi_fmul>
 80a241a:	4605      	mov	r5, r0
                middle = ((aux->next->point - aux->point) / 2.0) + aux->point;
 80a241c:	4640      	mov	r0, r8
 80a241e:	f002 faf3 	bl	80a4a08 <__aeabi_f2d>
 80a2422:	2200      	movs	r2, #0
 80a2424:	4b29      	ldr	r3, [pc, #164]	; (80a24cc <_ZN16FuzzyComposition8avaliateEv+0x198>)
 80a2426:	e02a      	b.n	80a247e <_ZN16FuzzyComposition8avaliateEv+0x14a>
            }else if((aux->pertinence > 0.0 && aux->next->pertinence > 0.0) && (aux->pertinence != aux->next->pertinence)){
 80a2428:	4658      	mov	r0, fp
 80a242a:	f003 f953 	bl	80a56d4 <__aeabi_fcmpgt>
 80a242e:	b348      	cbz	r0, 80a2484 <_ZN16FuzzyComposition8avaliateEv+0x150>
 80a2430:	2100      	movs	r1, #0
 80a2432:	4628      	mov	r0, r5
 80a2434:	f003 f94e 	bl	80a56d4 <__aeabi_fcmpgt>
 80a2438:	b320      	cbz	r0, 80a2484 <_ZN16FuzzyComposition8avaliateEv+0x150>
 80a243a:	4629      	mov	r1, r5
 80a243c:	4658      	mov	r0, fp
 80a243e:	f003 f921 	bl	80a5684 <__aeabi_fcmpeq>
 80a2442:	b9f8      	cbnz	r0, 80a2484 <_ZN16FuzzyComposition8avaliateEv+0x150>
                // Se trapezio
                area = ((aux->pertinence + aux->next->pertinence) / 2.0) * (aux->next->point - aux->point);
 80a2444:	4621      	mov	r1, r4
 80a2446:	4640      	mov	r0, r8
 80a2448:	f002 fe7e 	bl	80a5148 <__aeabi_fsub>
 80a244c:	f002 fadc 	bl	80a4a08 <__aeabi_f2d>
 80a2450:	4680      	mov	r8, r0
 80a2452:	4689      	mov	r9, r1
 80a2454:	4658      	mov	r0, fp
 80a2456:	4629      	mov	r1, r5
 80a2458:	f002 fe78 	bl	80a514c <__addsf3>
 80a245c:	f002 fad4 	bl	80a4a08 <__aeabi_f2d>
 80a2460:	2200      	movs	r2, #0
 80a2462:	4b1a      	ldr	r3, [pc, #104]	; (80a24cc <_ZN16FuzzyComposition8avaliateEv+0x198>)
 80a2464:	f002 fb24 	bl	80a4ab0 <__aeabi_dmul>
 80a2468:	4642      	mov	r2, r8
 80a246a:	464b      	mov	r3, r9
 80a246c:	f002 fb20 	bl	80a4ab0 <__aeabi_dmul>
 80a2470:	f002 fe16 	bl	80a50a0 <__aeabi_d2f>
                middle = ((aux->next->point - aux->point) / 2.0) + aux->point;
 80a2474:	4649      	mov	r1, r9
                // Se quadrado
                area = (aux->next->point - aux->point) * aux->pertinence;
                middle = ((aux->next->point - aux->point) / 2.0) + aux->point;
            }else if((aux->pertinence > 0.0 && aux->next->pertinence > 0.0) && (aux->pertinence != aux->next->pertinence)){
                // Se trapezio
                area = ((aux->pertinence + aux->next->pertinence) / 2.0) * (aux->next->point - aux->point);
 80a2476:	4605      	mov	r5, r0
                middle = ((aux->next->point - aux->point) / 2.0) + aux->point;
 80a2478:	4640      	mov	r0, r8
 80a247a:	4b14      	ldr	r3, [pc, #80]	; (80a24cc <_ZN16FuzzyComposition8avaliateEv+0x198>)
 80a247c:	2200      	movs	r2, #0
 80a247e:	f002 fb17 	bl	80a4ab0 <__aeabi_dmul>
 80a2482:	e7a3      	b.n	80a23cc <_ZN16FuzzyComposition8avaliateEv+0x98>

    aux = this->points;
    while(aux != NULL){
        if(aux->next != NULL){
            float area = 0.0;
            float middle = 0.0;
 80a2484:	2400      	movs	r4, #0
    float denominator   = 0.0;

    aux = this->points;
    while(aux != NULL){
        if(aux->next != NULL){
            float area = 0.0;
 80a2486:	4625      	mov	r5, r4
            }else if((aux->pertinence > 0.0 && aux->next->pertinence > 0.0) && (aux->pertinence != aux->next->pertinence)){
                // Se trapezio
                area = ((aux->pertinence + aux->next->pertinence) / 2.0) * (aux->next->point - aux->point);
                middle = ((aux->next->point - aux->point) / 2.0) + aux->point;
            }
            numerator += middle * area;
 80a2488:	4621      	mov	r1, r4
 80a248a:	4628      	mov	r0, r5
 80a248c:	f002 ff66 	bl	80a535c <__aeabi_fmul>
 80a2490:	4601      	mov	r1, r0
 80a2492:	4650      	mov	r0, sl
 80a2494:	f002 fe5a 	bl	80a514c <__addsf3>
            denominator += area;
 80a2498:	4629      	mov	r1, r5
            }else if((aux->pertinence > 0.0 && aux->next->pertinence > 0.0) && (aux->pertinence != aux->next->pertinence)){
                // Se trapezio
                area = ((aux->pertinence + aux->next->pertinence) / 2.0) * (aux->next->point - aux->point);
                middle = ((aux->next->point - aux->point) / 2.0) + aux->point;
            }
            numerator += middle * area;
 80a249a:	4682      	mov	sl, r0
            denominator += area;
 80a249c:	4638      	mov	r0, r7
 80a249e:	f002 fe55 	bl	80a514c <__addsf3>
 80a24a2:	4607      	mov	r7, r0
 80a24a4:	e750      	b.n	80a2348 <_ZN16FuzzyComposition8avaliateEv+0x14>
        }
        aux = aux->next;
    }

    if(denominator == 0.0){
 80a24a6:	2100      	movs	r1, #0
 80a24a8:	4638      	mov	r0, r7
 80a24aa:	f003 f8eb 	bl	80a5684 <__aeabi_fcmpeq>
 80a24ae:	b928      	cbnz	r0, 80a24bc <_ZN16FuzzyComposition8avaliateEv+0x188>
        return 0.0;
    }else{
        return numerator / denominator;
 80a24b0:	4639      	mov	r1, r7
 80a24b2:	4650      	mov	r0, sl
 80a24b4:	f003 f806 	bl	80a54c4 <__aeabi_fdiv>
 80a24b8:	e8bd 8ff8 	ldmia.w	sp!, {r3, r4, r5, r6, r7, r8, r9, sl, fp, pc}
        }
        aux = aux->next;
    }

    if(denominator == 0.0){
        return 0.0;
 80a24bc:	2000      	movs	r0, #0
    }else{
        return numerator / denominator;
    }
}
 80a24be:	e8bd 8ff8 	ldmia.w	sp!, {r3, r4, r5, r6, r7, r8, r9, sl, fp, pc}
 80a24c2:	bf00      	nop
 80a24c4:	3ff80000 	.word	0x3ff80000
 80a24c8:	40080000 	.word	0x40080000
 80a24cc:	3fe00000 	.word	0x3fe00000

080a24d0 <_ZN16FuzzyComposition11cleanPointsEP11pointsArray>:
    this->pointsCursor = NULL;
    return true;
}

// MTODOS PRIVADOS
void FuzzyComposition::cleanPoints(pointsArray* aux){
 80a24d0:	b510      	push	{r4, lr}
    if(aux != NULL){
 80a24d2:	460c      	mov	r4, r1
 80a24d4:	b139      	cbz	r1, 80a24e6 <_ZN16FuzzyComposition11cleanPointsEP11pointsArray+0x16>
        // Esvaziando a memria alocada
        this->cleanPoints(aux->next);
 80a24d6:	68c9      	ldr	r1, [r1, #12]
 80a24d8:	f7ff fffa 	bl	80a24d0 <_ZN16FuzzyComposition11cleanPointsEP11pointsArray>
        free(aux);
 80a24dc:	4620      	mov	r0, r4
    }
}
 80a24de:	e8bd 4010 	ldmia.w	sp!, {r4, lr}
// MTODOS PRIVADOS
void FuzzyComposition::cleanPoints(pointsArray* aux){
    if(aux != NULL){
        // Esvaziando a memria alocada
        this->cleanPoints(aux->next);
        free(aux);
 80a24e2:	f000 bf9b 	b.w	80a341c <free>
 80a24e6:	bd10      	pop	{r4, pc}

080a24e8 <_ZN16FuzzyComposition5emptyEv>:
    }else{
        return numerator / denominator;
    }
}

bool FuzzyComposition::empty(){
 80a24e8:	b510      	push	{r4, lr}
 80a24ea:	4604      	mov	r4, r0
    // limpando a memria
    this->cleanPoints(this->points);
 80a24ec:	6841      	ldr	r1, [r0, #4]
 80a24ee:	f7ff ffef 	bl	80a24d0 <_ZN16FuzzyComposition11cleanPointsEP11pointsArray>
    // resetando os ponteiros
    this->points = NULL;
 80a24f2:	2300      	movs	r3, #0
 80a24f4:	6063      	str	r3, [r4, #4]
    this->pointsCursor = NULL;
 80a24f6:	6023      	str	r3, [r4, #0]
    return true;
}
 80a24f8:	2001      	movs	r0, #1
 80a24fa:	bd10      	pop	{r4, pc}

080a24fc <_ZN16FuzzyComposition8rmvPointEP11pointsArray>:

        return true;
    }
}

bool FuzzyComposition::rmvPoint(pointsArray* point){
 80a24fc:	b508      	push	{r3, lr}
    if(point != NULL){
 80a24fe:	b111      	cbz	r1, 80a2506 <_ZN16FuzzyComposition8rmvPointEP11pointsArray+0xa>
        free(point);
 80a2500:	4608      	mov	r0, r1
 80a2502:	f000 ff8b 	bl	80a341c <free>
    }
    return true;
}
 80a2506:	2001      	movs	r0, #1
 80a2508:	bd08      	pop	{r3, pc}
 80a250a:	0000      	movs	r0, r0
 80a250c:	0000      	movs	r0, r0
	...

080a2510 <_ZN16FuzzyComposition7rebuildEP11pointsArrayS1_S1_S1_>:
        this->cleanPoints(aux->next);
        free(aux);
    }
}

bool FuzzyComposition::rebuild(pointsArray* aSegmentBegin, pointsArray* aSegmentEnd, pointsArray* bSegmentBegin, pointsArray* bSegmentEnd){
 80a2510:	e92d 4ff0 	stmdb	sp!, {r4, r5, r6, r7, r8, r9, sl, fp, lr}
 80a2514:	461e      	mov	r6, r3
    float x1 = aSegmentBegin->point;
 80a2516:	684b      	ldr	r3, [r1, #4]
        this->cleanPoints(aux->next);
        free(aux);
    }
}

bool FuzzyComposition::rebuild(pointsArray* aSegmentBegin, pointsArray* aSegmentEnd, pointsArray* bSegmentBegin, pointsArray* bSegmentEnd){
 80a2518:	b087      	sub	sp, #28
    float x1 = aSegmentBegin->point;
 80a251a:	9301      	str	r3, [sp, #4]
    float y1 = aSegmentBegin->pertinence;
 80a251c:	688b      	ldr	r3, [r1, #8]
    float x2 = aSegmentEnd->point;
    float y2 = aSegmentEnd->pertinence;
    float x3 = bSegmentBegin->point;
    float y3 = bSegmentBegin->pertinence;
 80a251e:	f8d6 9008 	ldr.w	r9, [r6, #8]
    }
}

bool FuzzyComposition::rebuild(pointsArray* aSegmentBegin, pointsArray* aSegmentEnd, pointsArray* bSegmentBegin, pointsArray* bSegmentEnd){
    float x1 = aSegmentBegin->point;
    float y1 = aSegmentBegin->pertinence;
 80a2522:	9302      	str	r3, [sp, #8]
    float y4 = bSegmentEnd->pertinence;
    float point, pertinence;
    float denom, numera, numerb;
    float mua, mub;

    denom  = (y4 - y3) * (x2 - x1) - (x4 - x3) * (y2 - y1);
 80a2524:	9b10      	ldr	r3, [sp, #64]	; 0x40
        this->cleanPoints(aux->next);
        free(aux);
    }
}

bool FuzzyComposition::rebuild(pointsArray* aSegmentBegin, pointsArray* aSegmentEnd, pointsArray* bSegmentBegin, pointsArray* bSegmentEnd){
 80a2526:	9005      	str	r0, [sp, #20]
 80a2528:	460c      	mov	r4, r1
    float y4 = bSegmentEnd->pertinence;
    float point, pertinence;
    float denom, numera, numerb;
    float mua, mub;

    denom  = (y4 - y3) * (x2 - x1) - (x4 - x3) * (y2 - y1);
 80a252a:	6898      	ldr	r0, [r3, #8]
 80a252c:	4649      	mov	r1, r9
        this->cleanPoints(aux->next);
        free(aux);
    }
}

bool FuzzyComposition::rebuild(pointsArray* aSegmentBegin, pointsArray* aSegmentEnd, pointsArray* bSegmentBegin, pointsArray* bSegmentEnd){
 80a252e:	4617      	mov	r7, r2
    float y4 = bSegmentEnd->pertinence;
    float point, pertinence;
    float denom, numera, numerb;
    float mua, mub;

    denom  = (y4 - y3) * (x2 - x1) - (x4 - x3) * (y2 - y1);
 80a2530:	f002 fe0a 	bl	80a5148 <__aeabi_fsub>
 80a2534:	9901      	ldr	r1, [sp, #4]
 80a2536:	4682      	mov	sl, r0
 80a2538:	6878      	ldr	r0, [r7, #4]
 80a253a:	f002 fe05 	bl	80a5148 <__aeabi_fsub>
bool FuzzyComposition::rebuild(pointsArray* aSegmentBegin, pointsArray* aSegmentEnd, pointsArray* bSegmentBegin, pointsArray* bSegmentEnd){
    float x1 = aSegmentBegin->point;
    float y1 = aSegmentBegin->pertinence;
    float x2 = aSegmentEnd->point;
    float y2 = aSegmentEnd->pertinence;
    float x3 = bSegmentBegin->point;
 80a253e:	f8d6 8004 	ldr.w	r8, [r6, #4]
    float y4 = bSegmentEnd->pertinence;
    float point, pertinence;
    float denom, numera, numerb;
    float mua, mub;

    denom  = (y4 - y3) * (x2 - x1) - (x4 - x3) * (y2 - y1);
 80a2542:	9b10      	ldr	r3, [sp, #64]	; 0x40
 80a2544:	4641      	mov	r1, r8
 80a2546:	9003      	str	r0, [sp, #12]
 80a2548:	6858      	ldr	r0, [r3, #4]
 80a254a:	f002 fdfd 	bl	80a5148 <__aeabi_fsub>
 80a254e:	9902      	ldr	r1, [sp, #8]
 80a2550:	4683      	mov	fp, r0
 80a2552:	68b8      	ldr	r0, [r7, #8]
 80a2554:	f002 fdf8 	bl	80a5148 <__aeabi_fsub>
 80a2558:	9903      	ldr	r1, [sp, #12]
 80a255a:	9004      	str	r0, [sp, #16]
 80a255c:	4650      	mov	r0, sl
 80a255e:	f002 fefd 	bl	80a535c <__aeabi_fmul>
 80a2562:	9904      	ldr	r1, [sp, #16]
 80a2564:	4605      	mov	r5, r0
 80a2566:	4658      	mov	r0, fp
 80a2568:	f002 fef8 	bl	80a535c <__aeabi_fmul>
 80a256c:	4601      	mov	r1, r0
 80a256e:	4628      	mov	r0, r5
 80a2570:	f002 fdea 	bl	80a5148 <__aeabi_fsub>
    numera = (x4 - x3) * (y1 - y3) - (y4 - y3) * (x1 - x3);
 80a2574:	4649      	mov	r1, r9
    float y4 = bSegmentEnd->pertinence;
    float point, pertinence;
    float denom, numera, numerb;
    float mua, mub;

    denom  = (y4 - y3) * (x2 - x1) - (x4 - x3) * (y2 - y1);
 80a2576:	4605      	mov	r5, r0
    numera = (x4 - x3) * (y1 - y3) - (y4 - y3) * (x1 - x3);
 80a2578:	9802      	ldr	r0, [sp, #8]
 80a257a:	f002 fde5 	bl	80a5148 <__aeabi_fsub>
 80a257e:	4641      	mov	r1, r8
 80a2580:	4681      	mov	r9, r0
 80a2582:	9801      	ldr	r0, [sp, #4]
 80a2584:	f002 fde0 	bl	80a5148 <__aeabi_fsub>
 80a2588:	4649      	mov	r1, r9
 80a258a:	4680      	mov	r8, r0
 80a258c:	4658      	mov	r0, fp
 80a258e:	f002 fee5 	bl	80a535c <__aeabi_fmul>
 80a2592:	4641      	mov	r1, r8
 80a2594:	4683      	mov	fp, r0
 80a2596:	4650      	mov	r0, sl
 80a2598:	f002 fee0 	bl	80a535c <__aeabi_fmul>
 80a259c:	4601      	mov	r1, r0
 80a259e:	4658      	mov	r0, fp
 80a25a0:	f002 fdd2 	bl	80a5148 <__aeabi_fsub>
    numerb = (x2 - x1) * (y1 - y3) - (y2 - y1) * (x1 - x3);
 80a25a4:	4649      	mov	r1, r9
    float point, pertinence;
    float denom, numera, numerb;
    float mua, mub;

    denom  = (y4 - y3) * (x2 - x1) - (x4 - x3) * (y2 - y1);
    numera = (x4 - x3) * (y1 - y3) - (y4 - y3) * (x1 - x3);
 80a25a6:	4682      	mov	sl, r0
    numerb = (x2 - x1) * (y1 - y3) - (y2 - y1) * (x1 - x3);
 80a25a8:	9803      	ldr	r0, [sp, #12]
 80a25aa:	f002 fed7 	bl	80a535c <__aeabi_fmul>
 80a25ae:	4641      	mov	r1, r8
 80a25b0:	4681      	mov	r9, r0
 80a25b2:	9804      	ldr	r0, [sp, #16]
 80a25b4:	f002 fed2 	bl	80a535c <__aeabi_fmul>
 80a25b8:	4601      	mov	r1, r0
 80a25ba:	4648      	mov	r0, r9
 80a25bc:	f002 fdc4 	bl	80a5148 <__aeabi_fsub>

    if(denom < 0.0){
 80a25c0:	2100      	movs	r1, #0
    float denom, numera, numerb;
    float mua, mub;

    denom  = (y4 - y3) * (x2 - x1) - (x4 - x3) * (y2 - y1);
    numera = (x4 - x3) * (y1 - y3) - (y4 - y3) * (x1 - x3);
    numerb = (x2 - x1) * (y1 - y3) - (y2 - y1) * (x1 - x3);
 80a25c2:	4680      	mov	r8, r0

    if(denom < 0.0){
 80a25c4:	4628      	mov	r0, r5
 80a25c6:	f003 f867 	bl	80a5698 <__aeabi_fcmplt>
 80a25ca:	b108      	cbz	r0, 80a25d0 <_ZN16FuzzyComposition7rebuildEP11pointsArrayS1_S1_S1_+0xc0>
        denom *= -1.0;
 80a25cc:	f105 4500 	add.w	r5, r5, #2147483648	; 0x80000000
    }
    if(numera < 0.0){
 80a25d0:	2100      	movs	r1, #0
 80a25d2:	4650      	mov	r0, sl
 80a25d4:	f003 f860 	bl	80a5698 <__aeabi_fcmplt>
 80a25d8:	b108      	cbz	r0, 80a25de <_ZN16FuzzyComposition7rebuildEP11pointsArrayS1_S1_S1_+0xce>
        numera *= -1.0;
 80a25da:	f10a 4a00 	add.w	sl, sl, #2147483648	; 0x80000000
    }
    if(numerb < 0.0){
 80a25de:	2100      	movs	r1, #0
 80a25e0:	4640      	mov	r0, r8
 80a25e2:	f003 f859 	bl	80a5698 <__aeabi_fcmplt>
 80a25e6:	b108      	cbz	r0, 80a25ec <_ZN16FuzzyComposition7rebuildEP11pointsArrayS1_S1_S1_+0xdc>
        numerb *= -1.0;
 80a25e8:	f108 4800 	add.w	r8, r8, #2147483648	; 0x80000000
    }

    // Se os seguimentos forem paralelos, retornar falso
    if(denom < EPS){
 80a25ec:	4628      	mov	r0, r5
 80a25ee:	f002 fa0b 	bl	80a4a08 <__aeabi_f2d>
 80a25f2:	a331      	add	r3, pc, #196	; (adr r3, 80a26b8 <_ZN16FuzzyComposition7rebuildEP11pointsArrayS1_S1_S1_+0x1a8>)
 80a25f4:	e9d3 2300 	ldrd	r2, r3, [r3]
 80a25f8:	f002 fccc 	bl	80a4f94 <__aeabi_dcmplt>
 80a25fc:	b108      	cbz	r0, 80a2602 <_ZN16FuzzyComposition7rebuildEP11pointsArrayS1_S1_S1_+0xf2>
        return false;
 80a25fe:	2000      	movs	r0, #0
 80a2600:	e057      	b.n	80a26b2 <_ZN16FuzzyComposition7rebuildEP11pointsArrayS1_S1_S1_+0x1a2>
    }

    // Verificar se h interseo ao longo do seguimento
    mua = numera / denom;
 80a2602:	4629      	mov	r1, r5
 80a2604:	4650      	mov	r0, sl
 80a2606:	f002 ff5d 	bl	80a54c4 <__aeabi_fdiv>
    mub = numerb / denom;
    if(mua < 0.0 || mua > 1.0 || mub < 0.0 || mub > 1.0){
 80a260a:	2100      	movs	r1, #0
    if(denom < EPS){
        return false;
    }

    // Verificar se h interseo ao longo do seguimento
    mua = numera / denom;
 80a260c:	4681      	mov	r9, r0
    mub = numerb / denom;
    if(mua < 0.0 || mua > 1.0 || mub < 0.0 || mub > 1.0){
 80a260e:	f003 f843 	bl	80a5698 <__aeabi_fcmplt>
 80a2612:	2800      	cmp	r0, #0
 80a2614:	d1f3      	bne.n	80a25fe <_ZN16FuzzyComposition7rebuildEP11pointsArrayS1_S1_S1_+0xee>
 80a2616:	f04f 517e 	mov.w	r1, #1065353216	; 0x3f800000
 80a261a:	4648      	mov	r0, r9
 80a261c:	f003 f85a 	bl	80a56d4 <__aeabi_fcmpgt>
 80a2620:	2800      	cmp	r0, #0
 80a2622:	d1ec      	bne.n	80a25fe <_ZN16FuzzyComposition7rebuildEP11pointsArrayS1_S1_S1_+0xee>
        return false;
    }

    // Verificar se h interseo ao longo do seguimento
    mua = numera / denom;
    mub = numerb / denom;
 80a2624:	4629      	mov	r1, r5
 80a2626:	4640      	mov	r0, r8
 80a2628:	f002 ff4c 	bl	80a54c4 <__aeabi_fdiv>
    if(mua < 0.0 || mua > 1.0 || mub < 0.0 || mub > 1.0){
 80a262c:	2100      	movs	r1, #0
        return false;
    }

    // Verificar se h interseo ao longo do seguimento
    mua = numera / denom;
    mub = numerb / denom;
 80a262e:	4605      	mov	r5, r0
    if(mua < 0.0 || mua > 1.0 || mub < 0.0 || mub > 1.0){
 80a2630:	f003 f832 	bl	80a5698 <__aeabi_fcmplt>
 80a2634:	2800      	cmp	r0, #0
 80a2636:	d1e2      	bne.n	80a25fe <_ZN16FuzzyComposition7rebuildEP11pointsArrayS1_S1_S1_+0xee>
 80a2638:	f04f 517e 	mov.w	r1, #1065353216	; 0x3f800000
 80a263c:	4628      	mov	r0, r5
 80a263e:	f003 f849 	bl	80a56d4 <__aeabi_fcmpgt>
 80a2642:	2800      	cmp	r0, #0
 80a2644:	d1db      	bne.n	80a25fe <_ZN16FuzzyComposition7rebuildEP11pointsArrayS1_S1_S1_+0xee>
        return false;
    }else{
        // Calculando o ponto e a pertinencia do novo elemento
        point         = x1 + mua * (x2 - x1);
 80a2646:	4649      	mov	r1, r9
 80a2648:	9803      	ldr	r0, [sp, #12]
 80a264a:	f002 fe87 	bl	80a535c <__aeabi_fmul>
 80a264e:	9901      	ldr	r1, [sp, #4]
 80a2650:	f002 fd7c 	bl	80a514c <__addsf3>
        pertinence     = y1 + mua * (y2 - y1);
 80a2654:	4649      	mov	r1, r9
    mub = numerb / denom;
    if(mua < 0.0 || mua > 1.0 || mub < 0.0 || mub > 1.0){
        return false;
    }else{
        // Calculando o ponto e a pertinencia do novo elemento
        point         = x1 + mua * (x2 - x1);
 80a2656:	4605      	mov	r5, r0
        pertinence     = y1 + mua * (y2 - y1);
 80a2658:	9804      	ldr	r0, [sp, #16]
 80a265a:	f002 fe7f 	bl	80a535c <__aeabi_fmul>
 80a265e:	9902      	ldr	r1, [sp, #8]
 80a2660:	f002 fd74 	bl	80a514c <__addsf3>
 80a2664:	4680      	mov	r8, r0

        // Adicionando um novo ponto
        pointsArray* aux;
        // Alocando espao na memria
        if((aux = (pointsArray *) malloc(sizeof(pointsArray))) == NULL){
 80a2666:	2010      	movs	r0, #16
 80a2668:	f000 fed0 	bl	80a340c <malloc>
 80a266c:	2800      	cmp	r0, #0
 80a266e:	d0c6      	beq.n	80a25fe <_ZN16FuzzyComposition7rebuildEP11pointsArrayS1_S1_S1_+0xee>
            return false;
        }

        aux->previous = bSegmentEnd;
 80a2670:	9b10      	ldr	r3, [sp, #64]	; 0x40
        aux->point = point;
 80a2672:	6045      	str	r5, [r0, #4]
        // Alocando espao na memria
        if((aux = (pointsArray *) malloc(sizeof(pointsArray))) == NULL){
            return false;
        }

        aux->previous = bSegmentEnd;
 80a2674:	6003      	str	r3, [r0, #0]
        aux->point = point;
        aux->pertinence = pertinence;
 80a2676:	f8c0 8008 	str.w	r8, [r0, #8]
        aux->next = aSegmentEnd;
 80a267a:	60c7      	str	r7, [r0, #12]

        bSegmentEnd->next = aux;
 80a267c:	60d8      	str	r0, [r3, #12]
        aSegmentEnd->previous = aux;
 80a267e:	6038      	str	r0, [r7, #0]

        float stopPoint = bSegmentBegin->point;
 80a2680:	6877      	ldr	r7, [r6, #4]
        float stopPertinence = bSegmentBegin->pertinence;
 80a2682:	68b6      	ldr	r6, [r6, #8]

        pointsArray* temp = aSegmentBegin;
        pointsArray* excl;

        do{
            float pointToCompare = temp->point;
 80a2684:	f8d4 9004 	ldr.w	r9, [r4, #4]
            float pertinenceToCompare = temp->pertinence;

            excl = temp->previous;

            this->rmvPoint(temp);
 80a2688:	4621      	mov	r1, r4
 80a268a:	9805      	ldr	r0, [sp, #20]
        pointsArray* temp = aSegmentBegin;
        pointsArray* excl;

        do{
            float pointToCompare = temp->point;
            float pertinenceToCompare = temp->pertinence;
 80a268c:	f8d4 8008 	ldr.w	r8, [r4, #8]

            excl = temp->previous;
 80a2690:	6825      	ldr	r5, [r4, #0]

            this->rmvPoint(temp);
 80a2692:	f7ff ff33 	bl	80a24fc <_ZN16FuzzyComposition8rmvPointEP11pointsArray>

            temp = excl;

            if(stopPoint == pointToCompare && stopPertinence == pertinenceToCompare){
 80a2696:	4649      	mov	r1, r9
 80a2698:	4638      	mov	r0, r7
 80a269a:	f002 fff3 	bl	80a5684 <__aeabi_fcmpeq>
 80a269e:	b120      	cbz	r0, 80a26aa <_ZN16FuzzyComposition7rebuildEP11pointsArrayS1_S1_S1_+0x19a>
 80a26a0:	4641      	mov	r1, r8
 80a26a2:	4630      	mov	r0, r6
 80a26a4:	f002 ffee 	bl	80a5684 <__aeabi_fcmpeq>
 80a26a8:	b910      	cbnz	r0, 80a26b0 <_ZN16FuzzyComposition7rebuildEP11pointsArrayS1_S1_S1_+0x1a0>
 80a26aa:	462c      	mov	r4, r5
                break;
            }
        }while(temp != NULL);
 80a26ac:	2d00      	cmp	r5, #0
 80a26ae:	d1e9      	bne.n	80a2684 <_ZN16FuzzyComposition7rebuildEP11pointsArrayS1_S1_S1_+0x174>

        return true;
 80a26b0:	2001      	movs	r0, #1
    }
}
 80a26b2:	b007      	add	sp, #28
 80a26b4:	e8bd 8ff0 	ldmia.w	sp!, {r4, r5, r6, r7, r8, r9, sl, fp, pc}
 80a26b8:	d2f1a9fc 	.word	0xd2f1a9fc
 80a26bc:	3f50624d 	.word	0x3f50624d

080a26c0 <_ZN16FuzzyComposition5buildEv>:
        aux = aux->previous;
    }
    return false;
}

bool FuzzyComposition::build(){
 80a26c0:	b5f7      	push	{r0, r1, r2, r4, r5, r6, r7, lr}
 80a26c2:	4606      	mov	r6, r0
    pointsArray* aux;

    aux = this->points;
 80a26c4:	6845      	ldr	r5, [r0, #4]
    while(aux != NULL){
 80a26c6:	b1dd      	cbz	r5, 80a2700 <_ZN16FuzzyComposition5buildEv+0x40>
 80a26c8:	462c      	mov	r4, r5
        pointsArray* temp = aux;
        while(temp->previous != NULL){
 80a26ca:	6827      	ldr	r7, [r4, #0]
 80a26cc:	b1b7      	cbz	r7, 80a26fc <_ZN16FuzzyComposition5buildEv+0x3c>
            if(temp->point < temp->previous->point){
 80a26ce:	6879      	ldr	r1, [r7, #4]
 80a26d0:	6860      	ldr	r0, [r4, #4]
 80a26d2:	f002 ffe1 	bl	80a5698 <__aeabi_fcmplt>
 80a26d6:	b908      	cbnz	r0, 80a26dc <_ZN16FuzzyComposition5buildEv+0x1c>
 80a26d8:	463c      	mov	r4, r7
 80a26da:	e7f6      	b.n	80a26ca <_ZN16FuzzyComposition5buildEv+0xa>
 80a26dc:	4627      	mov	r7, r4
            temp = temp->previous;
        }
        pointsArray* zPoint;
        if(temp != NULL){
            zPoint = temp;
            while(temp->previous != NULL){
 80a26de:	683b      	ldr	r3, [r7, #0]
 80a26e0:	b163      	cbz	r3, 80a26fc <_ZN16FuzzyComposition5buildEv+0x3c>
                bool result = false;
                if(temp->previous->previous != NULL){
 80a26e2:	681a      	ldr	r2, [r3, #0]
 80a26e4:	b142      	cbz	r2, 80a26f8 <_ZN16FuzzyComposition5buildEv+0x38>
                    result = rebuild(zPoint, zPoint->next, temp->previous, temp->previous->previous);
 80a26e6:	9200      	str	r2, [sp, #0]
 80a26e8:	68e2      	ldr	r2, [r4, #12]
 80a26ea:	4621      	mov	r1, r4
 80a26ec:	4630      	mov	r0, r6
 80a26ee:	f7ff ff0f 	bl	80a2510 <_ZN16FuzzyComposition7rebuildEP11pointsArrayS1_S1_S1_>
                }
                if(result == true){
 80a26f2:	b108      	cbz	r0, 80a26f8 <_ZN16FuzzyComposition5buildEv+0x38>
                    aux = this->points;
 80a26f4:	6875      	ldr	r5, [r6, #4]
                    break;
 80a26f6:	e001      	b.n	80a26fc <_ZN16FuzzyComposition5buildEv+0x3c>
                }
                temp = temp->previous;
 80a26f8:	683f      	ldr	r7, [r7, #0]
            temp = temp->previous;
        }
        pointsArray* zPoint;
        if(temp != NULL){
            zPoint = temp;
            while(temp->previous != NULL){
 80a26fa:	e7f0      	b.n	80a26de <_ZN16FuzzyComposition5buildEv+0x1e>
                    break;
                }
                temp = temp->previous;
            }
        }
        aux = aux->next;
 80a26fc:	68ed      	ldr	r5, [r5, #12]

bool FuzzyComposition::build(){
    pointsArray* aux;

    aux = this->points;
    while(aux != NULL){
 80a26fe:	e7e2      	b.n	80a26c6 <_ZN16FuzzyComposition5buildEv+0x6>
            }
        }
        aux = aux->next;
    }
    return true;
}
 80a2700:	2001      	movs	r0, #1
 80a2702:	b003      	add	sp, #12
 80a2704:	bdf0      	pop	{r4, r5, r6, r7, pc}

080a2706 <_ZN10FuzzyInputC1Ei>:

// CONSTRUTORES
FuzzyInput::FuzzyInput() : FuzzyIO(){
}

FuzzyInput::FuzzyInput(int index) : FuzzyIO(index){
 80a2706:	b510      	push	{r4, lr}
 80a2708:	4604      	mov	r4, r0
 80a270a:	f000 f80f 	bl	80a272c <_ZN7FuzzyIOC1Ei>
}
 80a270e:	4620      	mov	r0, r4
 80a2710:	bd10      	pop	{r4, pc}

080a2712 <_ZN10FuzzyInput28calculateFuzzySetPertinencesEv>:
// DESTRUTOR
FuzzyInput::~FuzzyInput(){
}

// MTODOS PBLICOS
bool FuzzyInput::calculateFuzzySetPertinences(){
 80a2712:	b538      	push	{r3, r4, r5, lr}
 80a2714:	4605      	mov	r5, r0
    fuzzySetArray *aux;
    aux = this->fuzzySets;
 80a2716:	6884      	ldr	r4, [r0, #8]

    while(aux != NULL){
 80a2718:	b134      	cbz	r4, 80a2728 <_ZN10FuzzyInput28calculateFuzzySetPertinencesEv+0x16>
        if (aux->fuzzySet != NULL){
 80a271a:	6820      	ldr	r0, [r4, #0]
 80a271c:	b110      	cbz	r0, 80a2724 <_ZN10FuzzyInput28calculateFuzzySetPertinencesEv+0x12>
            aux->fuzzySet->calculatePertinence(this->crispInput);
 80a271e:	6869      	ldr	r1, [r5, #4]
 80a2720:	f000 fa7e 	bl	80a2c20 <_ZN8FuzzySet19calculatePertinenceEf>
        }
        aux = aux->next;
 80a2724:	6864      	ldr	r4, [r4, #4]
// MTODOS PBLICOS
bool FuzzyInput::calculateFuzzySetPertinences(){
    fuzzySetArray *aux;
    aux = this->fuzzySets;

    while(aux != NULL){
 80a2726:	e7f7      	b.n	80a2718 <_ZN10FuzzyInput28calculateFuzzySetPertinencesEv+0x6>
        }
        aux = aux->next;
    }
    
    return true;
 80a2728:	2001      	movs	r0, #1
 80a272a:	bd38      	pop	{r3, r4, r5, pc}

080a272c <_ZN7FuzzyIOC1Ei>:
}

FuzzyIO::FuzzyIO(int index){
    this->index = index;
    // Iniciando os ponteiros como nulo
    this->fuzzySets          = NULL;
 80a272c:	2200      	movs	r2, #0
// CONSTRUTORES
FuzzyIO::FuzzyIO(){
}

FuzzyIO::FuzzyIO(int index){
    this->index = index;
 80a272e:	6001      	str	r1, [r0, #0]
    // Iniciando os ponteiros como nulo
    this->fuzzySets          = NULL;
 80a2730:	6082      	str	r2, [r0, #8]
    this->fuzzySetsCursor    = NULL;
 80a2732:	60c2      	str	r2, [r0, #12]
}
 80a2734:	4770      	bx	lr

080a2736 <_ZN7FuzzyIO8getIndexEv>:
}

// MTODOS PBLICOS
int FuzzyIO::getIndex(){
    return this->index;
}
 80a2736:	6800      	ldr	r0, [r0, #0]
 80a2738:	4770      	bx	lr

080a273a <_ZN7FuzzyIO13setCrispInputEf>:

void FuzzyIO::setCrispInput(float crispInput){
    this->crispInput = crispInput;
 80a273a:	6041      	str	r1, [r0, #4]
 80a273c:	4770      	bx	lr

080a273e <_ZN7FuzzyIO11addFuzzySetEP8FuzzySet>:

float FuzzyIO::getCrispInput(){
    return this->crispInput;
}

bool FuzzyIO::addFuzzySet(FuzzySet* fuzzySet){
 80a273e:	b538      	push	{r3, r4, r5, lr}
 80a2740:	4604      	mov	r4, r0
    fuzzySetArray *aux;
    // Alocando espao na memria
    if((aux = (fuzzySetArray *) malloc(sizeof(fuzzySetArray))) == NULL){
 80a2742:	2008      	movs	r0, #8

float FuzzyIO::getCrispInput(){
    return this->crispInput;
}

bool FuzzyIO::addFuzzySet(FuzzySet* fuzzySet){
 80a2744:	460d      	mov	r5, r1
    fuzzySetArray *aux;
    // Alocando espao na memria
    if((aux = (fuzzySetArray *) malloc(sizeof(fuzzySetArray))) == NULL){
 80a2746:	f000 fe61 	bl	80a340c <malloc>
 80a274a:	b150      	cbz	r0, 80a2762 <_ZN7FuzzyIO11addFuzzySetEP8FuzzySet+0x24>
        return false;
    }
    aux->fuzzySet     = fuzzySet;
    aux->next         = NULL;
 80a274c:	2300      	movs	r3, #0
    fuzzySetArray *aux;
    // Alocando espao na memria
    if((aux = (fuzzySetArray *) malloc(sizeof(fuzzySetArray))) == NULL){
        return false;
    }
    aux->fuzzySet     = fuzzySet;
 80a274e:	6005      	str	r5, [r0, #0]
    aux->next         = NULL;
 80a2750:	6043      	str	r3, [r0, #4]

    if(this->fuzzySets == NULL){
 80a2752:	68a3      	ldr	r3, [r4, #8]
 80a2754:	b90b      	cbnz	r3, 80a275a <_ZN7FuzzyIO11addFuzzySetEP8FuzzySet+0x1c>
        this->fuzzySets = aux;
 80a2756:	60a0      	str	r0, [r4, #8]
 80a2758:	e001      	b.n	80a275e <_ZN7FuzzyIO11addFuzzySetEP8FuzzySet+0x20>
        this->fuzzySetsCursor = aux;
    }else{
        this->fuzzySetsCursor->next = aux;
 80a275a:	68e3      	ldr	r3, [r4, #12]
 80a275c:	6058      	str	r0, [r3, #4]
        this->fuzzySetsCursor = aux;
 80a275e:	60e0      	str	r0, [r4, #12]
    }
    return true;
 80a2760:	2001      	movs	r0, #1
}
 80a2762:	bd38      	pop	{r3, r4, r5, pc}

080a2764 <_ZN7FuzzyIO14resetFuzzySetsEv>:

void FuzzyIO::resetFuzzySets(){
 80a2764:	b510      	push	{r4, lr}
    fuzzySetArray* fuzzySetsAux;
    fuzzySetsAux = this->fuzzySets;
 80a2766:	6884      	ldr	r4, [r0, #8]
    // Calculando as pertinncias de totos os FuzzyInputs
    while(fuzzySetsAux != NULL){
 80a2768:	b124      	cbz	r4, 80a2774 <_ZN7FuzzyIO14resetFuzzySetsEv+0x10>
        fuzzySetsAux->fuzzySet->reset();
 80a276a:	6820      	ldr	r0, [r4, #0]
 80a276c:	f000 faed 	bl	80a2d4a <_ZN8FuzzySet5resetEv>
        fuzzySetsAux = fuzzySetsAux->next;
 80a2770:	6864      	ldr	r4, [r4, #4]

void FuzzyIO::resetFuzzySets(){
    fuzzySetArray* fuzzySetsAux;
    fuzzySetsAux = this->fuzzySets;
    // Calculando as pertinncias de totos os FuzzyInputs
    while(fuzzySetsAux != NULL){
 80a2772:	e7f9      	b.n	80a2768 <_ZN7FuzzyIO14resetFuzzySetsEv+0x4>
 80a2774:	bd10      	pop	{r4, pc}

080a2776 <_ZN11FuzzyOutputC1Ei>:

// CONSTRUTORES
FuzzyOutput::FuzzyOutput() : FuzzyIO(){
}

FuzzyOutput::FuzzyOutput(int index) : FuzzyIO(index){
 80a2776:	b510      	push	{r4, lr}
 80a2778:	4604      	mov	r4, r0
 80a277a:	f7ff ffd7 	bl	80a272c <_ZN7FuzzyIOC1Ei>
 80a277e:	f104 0010 	add.w	r0, r4, #16
 80a2782:	f7ff fda5 	bl	80a22d0 <_ZN16FuzzyCompositionC1Ev>
}
 80a2786:	4620      	mov	r0, r4
 80a2788:	bd10      	pop	{r4, pc}

080a278a <_ZN11FuzzyOutput14getCrispOutputEv>:

    return true;
}

float FuzzyOutput::getCrispOutput(){
    return this->fuzzyComposition.avaliate();
 80a278a:	3010      	adds	r0, #16
 80a278c:	f7ff bdd2 	b.w	80a2334 <_ZN16FuzzyComposition8avaliateEv>

080a2790 <_ZN11FuzzyOutput5orderEv>:
}

// Um simples Bubble Sort
bool FuzzyOutput::order(){
 80a2790:	b5f8      	push	{r3, r4, r5, r6, r7, lr}
    fuzzySetArray *aux1;
    fuzzySetArray *aux2;

    aux1 = this->fuzzySets;
 80a2792:	6884      	ldr	r4, [r0, #8]
float FuzzyOutput::getCrispOutput(){
    return this->fuzzyComposition.avaliate();
}

// Um simples Bubble Sort
bool FuzzyOutput::order(){
 80a2794:	4606      	mov	r6, r0
    fuzzySetArray *aux1;
    fuzzySetArray *aux2;

    aux1 = this->fuzzySets;
 80a2796:	4625      	mov	r5, r4
    aux2 = this->fuzzySets;

    while(aux1 != NULL){
 80a2798:	b1cd      	cbz	r5, 80a27ce <_ZN11FuzzyOutput5orderEv+0x3e>
        while(aux2 != NULL){
 80a279a:	b1ac      	cbz	r4, 80a27c8 <_ZN11FuzzyOutput5orderEv+0x38>
            if(aux2->next != NULL){
 80a279c:	6863      	ldr	r3, [r4, #4]
 80a279e:	b18b      	cbz	r3, 80a27c4 <_ZN11FuzzyOutput5orderEv+0x34>
                if(aux2->fuzzySet->getPointA() > aux2->next->fuzzySet->getPointA()){
 80a27a0:	6820      	ldr	r0, [r4, #0]
 80a27a2:	f000 fa35 	bl	80a2c10 <_ZN8FuzzySet9getPointAEv>
 80a27a6:	6863      	ldr	r3, [r4, #4]
 80a27a8:	4607      	mov	r7, r0
 80a27aa:	6818      	ldr	r0, [r3, #0]
 80a27ac:	f000 fa30 	bl	80a2c10 <_ZN8FuzzySet9getPointAEv>
 80a27b0:	4601      	mov	r1, r0
 80a27b2:	4638      	mov	r0, r7
 80a27b4:	f002 ff8e 	bl	80a56d4 <__aeabi_fcmpgt>
 80a27b8:	b120      	cbz	r0, 80a27c4 <_ZN11FuzzyOutput5orderEv+0x34>

// MTODOS PRIVADOS
bool FuzzyOutput::swap(fuzzySetArray* fuzzySetA, fuzzySetArray* fuzzySetB){
    FuzzySet* aux;
    
    aux = fuzzySetA->fuzzySet;
 80a27ba:	e894 000c 	ldmia.w	r4, {r2, r3}
    fuzzySetA->fuzzySet = fuzzySetB->fuzzySet;
 80a27be:	6819      	ldr	r1, [r3, #0]
 80a27c0:	6021      	str	r1, [r4, #0]
    fuzzySetB->fuzzySet = aux;
 80a27c2:	601a      	str	r2, [r3, #0]
            if(aux2->next != NULL){
                if(aux2->fuzzySet->getPointA() > aux2->next->fuzzySet->getPointA()){
                    this->swap(aux2, aux2->next);
                }
            }
            aux2 = aux2->next;
 80a27c4:	6864      	ldr	r4, [r4, #4]

    aux1 = this->fuzzySets;
    aux2 = this->fuzzySets;

    while(aux1 != NULL){
        while(aux2 != NULL){
 80a27c6:	e7e8      	b.n	80a279a <_ZN11FuzzyOutput5orderEv+0xa>
                    this->swap(aux2, aux2->next);
                }
            }
            aux2 = aux2->next;
        }
        aux2 = this->fuzzySets;
 80a27c8:	68b4      	ldr	r4, [r6, #8]
        aux1 = aux1->next;
 80a27ca:	686d      	ldr	r5, [r5, #4]
    fuzzySetArray *aux2;

    aux1 = this->fuzzySets;
    aux2 = this->fuzzySets;

    while(aux1 != NULL){
 80a27cc:	e7e4      	b.n	80a2798 <_ZN11FuzzyOutput5orderEv+0x8>
        }
        aux2 = this->fuzzySets;
        aux1 = aux1->next;
    }
    return true;
}
 80a27ce:	2001      	movs	r0, #1
 80a27d0:	bdf8      	pop	{r3, r4, r5, r6, r7, pc}
 80a27d2:	0000      	movs	r0, r0
 80a27d4:	0000      	movs	r0, r0
	...

080a27d8 <_ZN11FuzzyOutput7rebuildEffffffffPfS0_>:
    fuzzySetB->fuzzySet = aux;

    return true;
}

bool FuzzyOutput::rebuild(float x1, float y1, float x2, float y2, float x3, float y3, float x4, float y4, float* point, float* pertinence){
 80a27d8:	e92d 4ff7 	stmdb	sp!, {r0, r1, r2, r4, r5, r6, r7, r8, r9, sl, fp, lr}
    float denom, numera, numerb;
    float mua, mub;

    denom  = (y4 - y3) * (x2 - x1) - (x4 - x3) * (y2 - y1);
 80a27dc:	9810      	ldr	r0, [sp, #64]	; 0x40
    fuzzySetB->fuzzySet = aux;

    return true;
}

bool FuzzyOutput::rebuild(float x1, float y1, float x2, float y2, float x3, float y3, float x4, float y4, float* point, float* pertinence){
 80a27de:	460f      	mov	r7, r1
    float denom, numera, numerb;
    float mua, mub;

    denom  = (y4 - y3) * (x2 - x1) - (x4 - x3) * (y2 - y1);
 80a27e0:	990e      	ldr	r1, [sp, #56]	; 0x38
    fuzzySetB->fuzzySet = aux;

    return true;
}

bool FuzzyOutput::rebuild(float x1, float y1, float x2, float y2, float x3, float y3, float x4, float y4, float* point, float* pertinence){
 80a27e2:	4615      	mov	r5, r2
 80a27e4:	461c      	mov	r4, r3
    float denom, numera, numerb;
    float mua, mub;

    denom  = (y4 - y3) * (x2 - x1) - (x4 - x3) * (y2 - y1);
 80a27e6:	f002 fcaf 	bl	80a5148 <__aeabi_fsub>
 80a27ea:	4639      	mov	r1, r7
 80a27ec:	4682      	mov	sl, r0
 80a27ee:	4620      	mov	r0, r4
 80a27f0:	f002 fcaa 	bl	80a5148 <__aeabi_fsub>
 80a27f4:	990d      	ldr	r1, [sp, #52]	; 0x34
 80a27f6:	4680      	mov	r8, r0
 80a27f8:	980f      	ldr	r0, [sp, #60]	; 0x3c
 80a27fa:	f002 fca5 	bl	80a5148 <__aeabi_fsub>
 80a27fe:	4629      	mov	r1, r5
 80a2800:	4683      	mov	fp, r0
 80a2802:	980c      	ldr	r0, [sp, #48]	; 0x30
 80a2804:	f002 fca0 	bl	80a5148 <__aeabi_fsub>
 80a2808:	4641      	mov	r1, r8
 80a280a:	4606      	mov	r6, r0
 80a280c:	4650      	mov	r0, sl
 80a280e:	f002 fda5 	bl	80a535c <__aeabi_fmul>
 80a2812:	4631      	mov	r1, r6
 80a2814:	4604      	mov	r4, r0
 80a2816:	4658      	mov	r0, fp
 80a2818:	f002 fda0 	bl	80a535c <__aeabi_fmul>
 80a281c:	4601      	mov	r1, r0
 80a281e:	4620      	mov	r0, r4
 80a2820:	f002 fc92 	bl	80a5148 <__aeabi_fsub>
    numera = (x4 - x3) * (y1 - y3) - (y4 - y3) * (x1 - x3);
 80a2824:	990e      	ldr	r1, [sp, #56]	; 0x38

bool FuzzyOutput::rebuild(float x1, float y1, float x2, float y2, float x3, float y3, float x4, float y4, float* point, float* pertinence){
    float denom, numera, numerb;
    float mua, mub;

    denom  = (y4 - y3) * (x2 - x1) - (x4 - x3) * (y2 - y1);
 80a2826:	4604      	mov	r4, r0
    numera = (x4 - x3) * (y1 - y3) - (y4 - y3) * (x1 - x3);
 80a2828:	4628      	mov	r0, r5
 80a282a:	f002 fc8d 	bl	80a5148 <__aeabi_fsub>
 80a282e:	990d      	ldr	r1, [sp, #52]	; 0x34
 80a2830:	4681      	mov	r9, r0
 80a2832:	4638      	mov	r0, r7
 80a2834:	f002 fc88 	bl	80a5148 <__aeabi_fsub>
 80a2838:	4649      	mov	r1, r9
 80a283a:	9001      	str	r0, [sp, #4]
 80a283c:	4658      	mov	r0, fp
 80a283e:	f002 fd8d 	bl	80a535c <__aeabi_fmul>
 80a2842:	9901      	ldr	r1, [sp, #4]
 80a2844:	4683      	mov	fp, r0
 80a2846:	4650      	mov	r0, sl
 80a2848:	f002 fd88 	bl	80a535c <__aeabi_fmul>
 80a284c:	4601      	mov	r1, r0
 80a284e:	4658      	mov	r0, fp
 80a2850:	f002 fc7a 	bl	80a5148 <__aeabi_fsub>
    numerb = (x2 - x1) * (y1 - y3) - (y2 - y1) * (x1 - x3);
 80a2854:	4649      	mov	r1, r9
bool FuzzyOutput::rebuild(float x1, float y1, float x2, float y2, float x3, float y3, float x4, float y4, float* point, float* pertinence){
    float denom, numera, numerb;
    float mua, mub;

    denom  = (y4 - y3) * (x2 - x1) - (x4 - x3) * (y2 - y1);
    numera = (x4 - x3) * (y1 - y3) - (y4 - y3) * (x1 - x3);
 80a2856:	4682      	mov	sl, r0
    numerb = (x2 - x1) * (y1 - y3) - (y2 - y1) * (x1 - x3);
 80a2858:	4640      	mov	r0, r8
 80a285a:	f002 fd7f 	bl	80a535c <__aeabi_fmul>
 80a285e:	9901      	ldr	r1, [sp, #4]
 80a2860:	4681      	mov	r9, r0
 80a2862:	4630      	mov	r0, r6
 80a2864:	f002 fd7a 	bl	80a535c <__aeabi_fmul>
 80a2868:	4601      	mov	r1, r0
 80a286a:	4648      	mov	r0, r9
 80a286c:	f002 fc6c 	bl	80a5148 <__aeabi_fsub>

    if(denom < 0.0){
 80a2870:	2100      	movs	r1, #0
    float denom, numera, numerb;
    float mua, mub;

    denom  = (y4 - y3) * (x2 - x1) - (x4 - x3) * (y2 - y1);
    numera = (x4 - x3) * (y1 - y3) - (y4 - y3) * (x1 - x3);
    numerb = (x2 - x1) * (y1 - y3) - (y2 - y1) * (x1 - x3);
 80a2872:	4681      	mov	r9, r0

    if(denom < 0.0){
 80a2874:	4620      	mov	r0, r4
 80a2876:	f002 ff0f 	bl	80a5698 <__aeabi_fcmplt>
 80a287a:	b108      	cbz	r0, 80a2880 <_ZN11FuzzyOutput7rebuildEffffffffPfS0_+0xa8>
        denom *= -1.0;
 80a287c:	f104 4400 	add.w	r4, r4, #2147483648	; 0x80000000
    }
    if(numera < 0.0){
 80a2880:	2100      	movs	r1, #0
 80a2882:	4650      	mov	r0, sl
 80a2884:	f002 ff08 	bl	80a5698 <__aeabi_fcmplt>
 80a2888:	b108      	cbz	r0, 80a288e <_ZN11FuzzyOutput7rebuildEffffffffPfS0_+0xb6>
        numera *= -1.0;
 80a288a:	f10a 4a00 	add.w	sl, sl, #2147483648	; 0x80000000
    }
    if(numerb < 0.0){
 80a288e:	2100      	movs	r1, #0
 80a2890:	4648      	mov	r0, r9
 80a2892:	f002 ff01 	bl	80a5698 <__aeabi_fcmplt>
 80a2896:	b108      	cbz	r0, 80a289c <_ZN11FuzzyOutput7rebuildEffffffffPfS0_+0xc4>
        numerb *= -1.0;
 80a2898:	f109 4900 	add.w	r9, r9, #2147483648	; 0x80000000
    }

    // Se os seguimentos forem paralelos, retornar falso
    if(denom < EPS){
 80a289c:	4620      	mov	r0, r4
 80a289e:	f002 f8b3 	bl	80a4a08 <__aeabi_f2d>
 80a28a2:	a321      	add	r3, pc, #132	; (adr r3, 80a2928 <_ZN11FuzzyOutput7rebuildEffffffffPfS0_+0x150>)
 80a28a4:	e9d3 2300 	ldrd	r2, r3, [r3]
 80a28a8:	f002 fb74 	bl	80a4f94 <__aeabi_dcmplt>
 80a28ac:	9001      	str	r0, [sp, #4]
 80a28ae:	2800      	cmp	r0, #0
 80a28b0:	d133      	bne.n	80a291a <_ZN11FuzzyOutput7rebuildEffffffffPfS0_+0x142>
        return false;
    }

    // Verificar se h interseo ao longo do seguimento
    mua = numera / denom;
 80a28b2:	4621      	mov	r1, r4
 80a28b4:	4650      	mov	r0, sl
 80a28b6:	f002 fe05 	bl	80a54c4 <__aeabi_fdiv>
    mub = numerb / denom;
    if(mua < 0.0 || mua > 1.0 || mub < 0.0 || mub > 1.0){
 80a28ba:	2100      	movs	r1, #0
    if(denom < EPS){
        return false;
    }

    // Verificar se h interseo ao longo do seguimento
    mua = numera / denom;
 80a28bc:	4682      	mov	sl, r0
    mub = numerb / denom;
    if(mua < 0.0 || mua > 1.0 || mub < 0.0 || mub > 1.0){
 80a28be:	f002 feeb 	bl	80a5698 <__aeabi_fcmplt>
 80a28c2:	bb50      	cbnz	r0, 80a291a <_ZN11FuzzyOutput7rebuildEffffffffPfS0_+0x142>
 80a28c4:	f04f 517e 	mov.w	r1, #1065353216	; 0x3f800000
 80a28c8:	4650      	mov	r0, sl
 80a28ca:	f002 ff03 	bl	80a56d4 <__aeabi_fcmpgt>
 80a28ce:	bb20      	cbnz	r0, 80a291a <_ZN11FuzzyOutput7rebuildEffffffffPfS0_+0x142>
        return false;
    }

    // Verificar se h interseo ao longo do seguimento
    mua = numera / denom;
    mub = numerb / denom;
 80a28d0:	4621      	mov	r1, r4
 80a28d2:	9001      	str	r0, [sp, #4]
 80a28d4:	4648      	mov	r0, r9
 80a28d6:	f002 fdf5 	bl	80a54c4 <__aeabi_fdiv>
    if(mua < 0.0 || mua > 1.0 || mub < 0.0 || mub > 1.0){
 80a28da:	2100      	movs	r1, #0
        return false;
    }

    // Verificar se h interseo ao longo do seguimento
    mua = numera / denom;
    mub = numerb / denom;
 80a28dc:	4681      	mov	r9, r0
    if(mua < 0.0 || mua > 1.0 || mub < 0.0 || mub > 1.0){
 80a28de:	f002 fedb 	bl	80a5698 <__aeabi_fcmplt>
 80a28e2:	4604      	mov	r4, r0
 80a28e4:	b9c8      	cbnz	r0, 80a291a <_ZN11FuzzyOutput7rebuildEffffffffPfS0_+0x142>
 80a28e6:	f04f 517e 	mov.w	r1, #1065353216	; 0x3f800000
 80a28ea:	4648      	mov	r0, r9
 80a28ec:	f002 fef2 	bl	80a56d4 <__aeabi_fcmpgt>
 80a28f0:	b9a8      	cbnz	r0, 80a291e <_ZN11FuzzyOutput7rebuildEffffffffPfS0_+0x146>
        return false;
    }else{
        // Calculando o ponto e a pertinencia do novo elemento
        *point      = x1 + mua * (x2 - x1);
 80a28f2:	4651      	mov	r1, sl
 80a28f4:	4640      	mov	r0, r8
 80a28f6:	f002 fd31 	bl	80a535c <__aeabi_fmul>
 80a28fa:	4639      	mov	r1, r7
 80a28fc:	f002 fc26 	bl	80a514c <__addsf3>
 80a2900:	9b11      	ldr	r3, [sp, #68]	; 0x44
        *pertinence = y1 + mua * (y2 - y1);
 80a2902:	4651      	mov	r1, sl
    mub = numerb / denom;
    if(mua < 0.0 || mua > 1.0 || mub < 0.0 || mub > 1.0){
        return false;
    }else{
        // Calculando o ponto e a pertinencia do novo elemento
        *point      = x1 + mua * (x2 - x1);
 80a2904:	6018      	str	r0, [r3, #0]
        *pertinence = y1 + mua * (y2 - y1);
 80a2906:	4630      	mov	r0, r6
 80a2908:	f002 fd28 	bl	80a535c <__aeabi_fmul>
 80a290c:	4629      	mov	r1, r5
 80a290e:	f002 fc1d 	bl	80a514c <__addsf3>
 80a2912:	9b12      	ldr	r3, [sp, #72]	; 0x48
 80a2914:	6018      	str	r0, [r3, #0]

        return true;
 80a2916:	2001      	movs	r0, #1
 80a2918:	e002      	b.n	80a2920 <_ZN11FuzzyOutput7rebuildEffffffffPfS0_+0x148>
        numerb *= -1.0;
    }

    // Se os seguimentos forem paralelos, retornar falso
    if(denom < EPS){
        return false;
 80a291a:	2000      	movs	r0, #0
 80a291c:	e000      	b.n	80a2920 <_ZN11FuzzyOutput7rebuildEffffffffPfS0_+0x148>
 80a291e:	4620      	mov	r0, r4
        *point      = x1 + mua * (x2 - x1);
        *pertinence = y1 + mua * (y2 - y1);

        return true;
    }
 80a2920:	b003      	add	sp, #12
 80a2922:	e8bd 8ff0 	ldmia.w	sp!, {r4, r5, r6, r7, r8, r9, sl, fp, pc}
 80a2926:	bf00      	nop
 80a2928:	d2f1a9fc 	.word	0xd2f1a9fc
 80a292c:	3f50624d 	.word	0x3f50624d

080a2930 <_ZN11FuzzyOutput8truncateEv>:
FuzzyOutput::~FuzzyOutput(){
    this->fuzzyComposition.empty();
}

// MTODOS PBLICOS
bool FuzzyOutput::truncate(){
 80a2930:	e92d 4ff0 	stmdb	sp!, {r4, r5, r6, r7, r8, r9, sl, fp, lr}
 80a2934:	4606      	mov	r6, r0
    // esvaziando a composio
    this->fuzzyComposition.empty();
 80a2936:	f100 0510 	add.w	r5, r0, #16
FuzzyOutput::~FuzzyOutput(){
    this->fuzzyComposition.empty();
}

// MTODOS PBLICOS
bool FuzzyOutput::truncate(){
 80a293a:	b091      	sub	sp, #68	; 0x44
    // esvaziando a composio
    this->fuzzyComposition.empty();
 80a293c:	4628      	mov	r0, r5
 80a293e:	f7ff fdd3 	bl	80a24e8 <_ZN16FuzzyComposition5emptyEv>

    fuzzySetArray *aux;
    aux = this->fuzzySets;
 80a2942:	68b4      	ldr	r4, [r6, #8]
                        this->fuzzyComposition.addPoint(newPointC, newPertinenceC);
                    }
                }
            }else if(aux->fuzzySet->getPointB() != aux->fuzzySet->getPointC()){
                // se trapezio
                if(aux->fuzzySet->getPertinence() == 1.0){
 80a2944:	f04f 597e 	mov.w	r9, #1065353216	; 0x3f800000
                    }
                }else{
                    float newPointB         = aux->fuzzySet->getPointB();
                    float newPertinenceB    = aux->fuzzySet->getPertinence();

                    rebuild(aux->fuzzySet->getPointA(), 0.0, aux->fuzzySet->getPointB(), 1.0, aux->fuzzySet->getPointA(), aux->fuzzySet->getPertinence(), aux->fuzzySet->getPointD(), aux->fuzzySet->getPertinence(), &newPointB, &newPertinenceB);
 80a2948:	af0d      	add	r7, sp, #52	; 0x34
    // esvaziando a composio
    this->fuzzyComposition.empty();

    fuzzySetArray *aux;
    aux = this->fuzzySets;
    while(aux != NULL){
 80a294a:	2c00      	cmp	r4, #0
 80a294c:	f000 8150 	beq.w	80a2bf0 <_ZN11FuzzyOutput8truncateEv+0x2c0>
        if(aux->fuzzySet->getPertinence() > 0.0){
 80a2950:	6820      	ldr	r0, [r4, #0]
 80a2952:	f000 f9f8 	bl	80a2d46 <_ZN8FuzzySet13getPertinenceEv>
 80a2956:	2100      	movs	r1, #0
 80a2958:	f002 febc 	bl	80a56d4 <__aeabi_fcmpgt>
 80a295c:	2800      	cmp	r0, #0
 80a295e:	f000 80d8 	beq.w	80a2b12 <_ZN11FuzzyOutput8truncateEv+0x1e2>
            // Se no for trapezio iniciado com pertinencia 1 (sem o triangulo esquerdo)
            if(aux->fuzzySet->getPointA() != aux->fuzzySet->getPointB()){
 80a2962:	6820      	ldr	r0, [r4, #0]
 80a2964:	f000 f954 	bl	80a2c10 <_ZN8FuzzySet9getPointAEv>
 80a2968:	4680      	mov	r8, r0
 80a296a:	6820      	ldr	r0, [r4, #0]
 80a296c:	f000 f952 	bl	80a2c14 <_ZN8FuzzySet9getPointBEv>
 80a2970:	4601      	mov	r1, r0
 80a2972:	4640      	mov	r0, r8
 80a2974:	f002 fe86 	bl	80a5684 <__aeabi_fcmpeq>
 80a2978:	b980      	cbnz	r0, 80a299c <_ZN11FuzzyOutput8truncateEv+0x6c>
                if(this->fuzzyComposition.checkPoint(aux->fuzzySet->getPointA(), 0.0) == false){
 80a297a:	6820      	ldr	r0, [r4, #0]
 80a297c:	f000 f948 	bl	80a2c10 <_ZN8FuzzySet9getPointAEv>
 80a2980:	2200      	movs	r2, #0
 80a2982:	4601      	mov	r1, r0
 80a2984:	4628      	mov	r0, r5
 80a2986:	f7ff fcc0 	bl	80a230a <_ZN16FuzzyComposition10checkPointEff>
 80a298a:	b938      	cbnz	r0, 80a299c <_ZN11FuzzyOutput8truncateEv+0x6c>
                    this->fuzzyComposition.addPoint(aux->fuzzySet->getPointA(), 0.0);
 80a298c:	6820      	ldr	r0, [r4, #0]
 80a298e:	f000 f93f 	bl	80a2c10 <_ZN8FuzzySet9getPointAEv>
 80a2992:	2200      	movs	r2, #0
 80a2994:	4601      	mov	r1, r0
 80a2996:	4628      	mov	r0, r5
 80a2998:	f7ff fc9e 	bl	80a22d8 <_ZN16FuzzyComposition8addPointEff>
                }
            }

            if(aux->fuzzySet->getPointB() == aux->fuzzySet->getPointC() && aux->fuzzySet->getPointA() != aux->fuzzySet->getPointD()){
 80a299c:	6820      	ldr	r0, [r4, #0]
 80a299e:	f000 f939 	bl	80a2c14 <_ZN8FuzzySet9getPointBEv>
 80a29a2:	4680      	mov	r8, r0
 80a29a4:	6820      	ldr	r0, [r4, #0]
 80a29a6:	f000 f937 	bl	80a2c18 <_ZN8FuzzySet9getPointCEv>
 80a29aa:	4601      	mov	r1, r0
 80a29ac:	4640      	mov	r0, r8
 80a29ae:	f002 fe69 	bl	80a5684 <__aeabi_fcmpeq>
 80a29b2:	b168      	cbz	r0, 80a29d0 <_ZN11FuzzyOutput8truncateEv+0xa0>
 80a29b4:	6820      	ldr	r0, [r4, #0]
 80a29b6:	f000 f92b 	bl	80a2c10 <_ZN8FuzzySet9getPointAEv>
 80a29ba:	4680      	mov	r8, r0
 80a29bc:	6820      	ldr	r0, [r4, #0]
 80a29be:	f000 f92d 	bl	80a2c1c <_ZN8FuzzySet9getPointDEv>
 80a29c2:	4601      	mov	r1, r0
 80a29c4:	4640      	mov	r0, r8
 80a29c6:	f002 fe5d 	bl	80a5684 <__aeabi_fcmpeq>
 80a29ca:	2800      	cmp	r0, #0
 80a29cc:	f000 80a3 	beq.w	80a2b16 <_ZN11FuzzyOutput8truncateEv+0x1e6>

                    if(this->fuzzyComposition.checkPoint(newPointC, newPertinenceC) == false){
                        this->fuzzyComposition.addPoint(newPointC, newPertinenceC);
                    }
                }
            }else if(aux->fuzzySet->getPointB() != aux->fuzzySet->getPointC()){
 80a29d0:	6820      	ldr	r0, [r4, #0]
 80a29d2:	f000 f91f 	bl	80a2c14 <_ZN8FuzzySet9getPointBEv>
 80a29d6:	4680      	mov	r8, r0
 80a29d8:	6820      	ldr	r0, [r4, #0]
 80a29da:	f000 f91d 	bl	80a2c18 <_ZN8FuzzySet9getPointCEv>
 80a29de:	4601      	mov	r1, r0
 80a29e0:	4640      	mov	r0, r8
 80a29e2:	f002 fe4f 	bl	80a5684 <__aeabi_fcmpeq>
 80a29e6:	2800      	cmp	r0, #0
 80a29e8:	f040 809f 	bne.w	80a2b2a <_ZN11FuzzyOutput8truncateEv+0x1fa>
                // se trapezio
                if(aux->fuzzySet->getPertinence() == 1.0){
 80a29ec:	6820      	ldr	r0, [r4, #0]
 80a29ee:	f000 f9aa 	bl	80a2d46 <_ZN8FuzzySet13getPertinenceEv>
 80a29f2:	f04f 517e 	mov.w	r1, #1065353216	; 0x3f800000
 80a29f6:	f002 fe45 	bl	80a5684 <__aeabi_fcmpeq>
 80a29fa:	2800      	cmp	r0, #0
 80a29fc:	f040 80c4 	bne.w	80a2b88 <_ZN11FuzzyOutput8truncateEv+0x258>

                    if(this->fuzzyComposition.checkPoint(aux->fuzzySet->getPointC(), aux->fuzzySet->getPertinence()) == false){
                        this->fuzzyComposition.addPoint(aux->fuzzySet->getPointC(), aux->fuzzySet->getPertinence());
                    }
                }else{
                    float newPointB         = aux->fuzzySet->getPointB();
 80a2a00:	6820      	ldr	r0, [r4, #0]
 80a2a02:	f000 f907 	bl	80a2c14 <_ZN8FuzzySet9getPointBEv>
 80a2a06:	900c      	str	r0, [sp, #48]	; 0x30
                    float newPertinenceB    = aux->fuzzySet->getPertinence();
 80a2a08:	6820      	ldr	r0, [r4, #0]
 80a2a0a:	f000 f99c 	bl	80a2d46 <_ZN8FuzzySet13getPertinenceEv>
 80a2a0e:	900d      	str	r0, [sp, #52]	; 0x34

                    rebuild(aux->fuzzySet->getPointA(), 0.0, aux->fuzzySet->getPointB(), 1.0, aux->fuzzySet->getPointA(), aux->fuzzySet->getPertinence(), aux->fuzzySet->getPointD(), aux->fuzzySet->getPertinence(), &newPointB, &newPertinenceB);
 80a2a10:	6820      	ldr	r0, [r4, #0]
 80a2a12:	f000 f8fd 	bl	80a2c10 <_ZN8FuzzySet9getPointAEv>
 80a2a16:	4680      	mov	r8, r0
 80a2a18:	6820      	ldr	r0, [r4, #0]
 80a2a1a:	f000 f8fb 	bl	80a2c14 <_ZN8FuzzySet9getPointBEv>
 80a2a1e:	4682      	mov	sl, r0
 80a2a20:	6820      	ldr	r0, [r4, #0]
 80a2a22:	f000 f8f5 	bl	80a2c10 <_ZN8FuzzySet9getPointAEv>
 80a2a26:	4683      	mov	fp, r0
 80a2a28:	6820      	ldr	r0, [r4, #0]
 80a2a2a:	f000 f98c 	bl	80a2d46 <_ZN8FuzzySet13getPertinenceEv>
 80a2a2e:	900a      	str	r0, [sp, #40]	; 0x28
 80a2a30:	6820      	ldr	r0, [r4, #0]
 80a2a32:	f000 f8f3 	bl	80a2c1c <_ZN8FuzzySet9getPointDEv>
 80a2a36:	9009      	str	r0, [sp, #36]	; 0x24
 80a2a38:	6820      	ldr	r0, [r4, #0]
 80a2a3a:	f000 f984 	bl	80a2d46 <_ZN8FuzzySet13getPertinenceEv>
 80a2a3e:	9a09      	ldr	r2, [sp, #36]	; 0x24
 80a2a40:	9b0a      	ldr	r3, [sp, #40]	; 0x28
 80a2a42:	a90c      	add	r1, sp, #48	; 0x30
 80a2a44:	9105      	str	r1, [sp, #20]
 80a2a46:	9004      	str	r0, [sp, #16]
 80a2a48:	9203      	str	r2, [sp, #12]
 80a2a4a:	9302      	str	r3, [sp, #8]
 80a2a4c:	2200      	movs	r2, #0
 80a2a4e:	4641      	mov	r1, r8
 80a2a50:	9706      	str	r7, [sp, #24]
 80a2a52:	f8cd b004 	str.w	fp, [sp, #4]
 80a2a56:	f8cd 9000 	str.w	r9, [sp]
 80a2a5a:	4653      	mov	r3, sl
 80a2a5c:	4630      	mov	r0, r6
 80a2a5e:	f7ff febb 	bl	80a27d8 <_ZN11FuzzyOutput7rebuildEffffffffPfS0_>

                    if(this->fuzzyComposition.checkPoint(newPointB, newPertinenceB) == false){
 80a2a62:	9a0d      	ldr	r2, [sp, #52]	; 0x34
 80a2a64:	990c      	ldr	r1, [sp, #48]	; 0x30
 80a2a66:	4628      	mov	r0, r5
 80a2a68:	f7ff fc4f 	bl	80a230a <_ZN16FuzzyComposition10checkPointEff>
 80a2a6c:	b920      	cbnz	r0, 80a2a78 <_ZN11FuzzyOutput8truncateEv+0x148>
                        this->fuzzyComposition.addPoint(newPointB, newPertinenceB);
 80a2a6e:	9a0d      	ldr	r2, [sp, #52]	; 0x34
 80a2a70:	990c      	ldr	r1, [sp, #48]	; 0x30
 80a2a72:	4628      	mov	r0, r5
 80a2a74:	f7ff fc30 	bl	80a22d8 <_ZN16FuzzyComposition8addPointEff>
                    }

                    float newPointC         = aux->fuzzySet->getPointB();
 80a2a78:	6820      	ldr	r0, [r4, #0]
 80a2a7a:	f000 f8cb 	bl	80a2c14 <_ZN8FuzzySet9getPointBEv>
 80a2a7e:	900e      	str	r0, [sp, #56]	; 0x38
                    float newPertinenceC    = aux->fuzzySet->getPertinence();
 80a2a80:	6820      	ldr	r0, [r4, #0]
 80a2a82:	f000 f960 	bl	80a2d46 <_ZN8FuzzySet13getPertinenceEv>
 80a2a86:	f10d 0840 	add.w	r8, sp, #64	; 0x40
 80a2a8a:	f848 0d04 	str.w	r0, [r8, #-4]!

                    rebuild(aux->fuzzySet->getPointC(), 1.0, aux->fuzzySet->getPointD(), 0.0, aux->fuzzySet->getPointA(), aux->fuzzySet->getPertinence(), aux->fuzzySet->getPointD(), aux->fuzzySet->getPertinence(), &newPointC, &newPertinenceC);
 80a2a8e:	6820      	ldr	r0, [r4, #0]
 80a2a90:	f000 f8c2 	bl	80a2c18 <_ZN8FuzzySet9getPointCEv>
 80a2a94:	4682      	mov	sl, r0
 80a2a96:	6820      	ldr	r0, [r4, #0]
 80a2a98:	f000 f8c0 	bl	80a2c1c <_ZN8FuzzySet9getPointDEv>
 80a2a9c:	4683      	mov	fp, r0
 80a2a9e:	6820      	ldr	r0, [r4, #0]
 80a2aa0:	f000 f8b6 	bl	80a2c10 <_ZN8FuzzySet9getPointAEv>
 80a2aa4:	9009      	str	r0, [sp, #36]	; 0x24
 80a2aa6:	6820      	ldr	r0, [r4, #0]
 80a2aa8:	f000 f94d 	bl	80a2d46 <_ZN8FuzzySet13getPertinenceEv>
 80a2aac:	900b      	str	r0, [sp, #44]	; 0x2c
 80a2aae:	6820      	ldr	r0, [r4, #0]
 80a2ab0:	f000 f8b4 	bl	80a2c1c <_ZN8FuzzySet9getPointDEv>
 80a2ab4:	900a      	str	r0, [sp, #40]	; 0x28
 80a2ab6:	6820      	ldr	r0, [r4, #0]
 80a2ab8:	f000 f945 	bl	80a2d46 <_ZN8FuzzySet13getPertinenceEv>
 80a2abc:	ab0e      	add	r3, sp, #56	; 0x38
 80a2abe:	9305      	str	r3, [sp, #20]
 80a2ac0:	9b09      	ldr	r3, [sp, #36]	; 0x24
 80a2ac2:	990a      	ldr	r1, [sp, #40]	; 0x28
 80a2ac4:	9a0b      	ldr	r2, [sp, #44]	; 0x2c
 80a2ac6:	9301      	str	r3, [sp, #4]
 80a2ac8:	2300      	movs	r3, #0
 80a2aca:	9004      	str	r0, [sp, #16]
 80a2acc:	9103      	str	r1, [sp, #12]
 80a2ace:	9202      	str	r2, [sp, #8]
 80a2ad0:	9300      	str	r3, [sp, #0]
 80a2ad2:	f04f 527e 	mov.w	r2, #1065353216	; 0x3f800000
 80a2ad6:	4651      	mov	r1, sl
 80a2ad8:	f8cd 8018 	str.w	r8, [sp, #24]
 80a2adc:	465b      	mov	r3, fp
 80a2ade:	4630      	mov	r0, r6
 80a2ae0:	f7ff fe7a 	bl	80a27d8 <_ZN11FuzzyOutput7rebuildEffffffffPfS0_>

                    if(this->fuzzyComposition.checkPoint(newPointC, newPertinenceC) == false){
 80a2ae4:	9a0f      	ldr	r2, [sp, #60]	; 0x3c
 80a2ae6:	990e      	ldr	r1, [sp, #56]	; 0x38
 80a2ae8:	4628      	mov	r0, r5
 80a2aea:	f7ff fc0e 	bl	80a230a <_ZN16FuzzyComposition10checkPointEff>
 80a2aee:	b920      	cbnz	r0, 80a2afa <_ZN11FuzzyOutput8truncateEv+0x1ca>
                        this->fuzzyComposition.addPoint(newPointC, newPertinenceC);
 80a2af0:	9a0f      	ldr	r2, [sp, #60]	; 0x3c
 80a2af2:	990e      	ldr	r1, [sp, #56]	; 0x38
                    }
                }
            }else{
                //senao singleton
                if(this->fuzzyComposition.checkPoint(aux->fuzzySet->getPointB(), aux->fuzzySet->getPertinence()) == false){
                    this->fuzzyComposition.addPoint(aux->fuzzySet->getPointB(), aux->fuzzySet->getPertinence());
 80a2af4:	4628      	mov	r0, r5
 80a2af6:	f7ff fbef 	bl	80a22d8 <_ZN16FuzzyComposition8addPointEff>
                }
            }
            
            //Se no for trapezio iniciado com pertinencia 1 (sem o triangulo direito)
            if(aux->fuzzySet->getPointC() != aux->fuzzySet->getPointD()){
 80a2afa:	6820      	ldr	r0, [r4, #0]
 80a2afc:	f000 f88c 	bl	80a2c18 <_ZN8FuzzySet9getPointCEv>
 80a2b00:	4680      	mov	r8, r0
 80a2b02:	6820      	ldr	r0, [r4, #0]
 80a2b04:	f000 f88a 	bl	80a2c1c <_ZN8FuzzySet9getPointDEv>
 80a2b08:	4601      	mov	r1, r0
 80a2b0a:	4640      	mov	r0, r8
 80a2b0c:	f002 fdba 	bl	80a5684 <__aeabi_fcmpeq>
 80a2b10:	b318      	cbz	r0, 80a2b5a <_ZN11FuzzyOutput8truncateEv+0x22a>
                if(this->fuzzyComposition.checkPoint(aux->fuzzySet->getPointD(), 0.0) == false || aux->fuzzySet->getPointD() == aux->fuzzySet->getPointA()){
                    this->fuzzyComposition.addPoint(aux->fuzzySet->getPointD(), 0.0);
                }
            }
        }
        aux = aux->next;
 80a2b12:	6864      	ldr	r4, [r4, #4]
    // esvaziando a composio
    this->fuzzyComposition.empty();

    fuzzySetArray *aux;
    aux = this->fuzzySets;
    while(aux != NULL){
 80a2b14:	e719      	b.n	80a294a <_ZN11FuzzyOutput8truncateEv+0x1a>
                }
            }

            if(aux->fuzzySet->getPointB() == aux->fuzzySet->getPointC() && aux->fuzzySet->getPointA() != aux->fuzzySet->getPointD()){
                // se trinagulo
                if(aux->fuzzySet->getPertinence() == 1.0){
 80a2b16:	6820      	ldr	r0, [r4, #0]
 80a2b18:	f000 f915 	bl	80a2d46 <_ZN8FuzzySet13getPertinenceEv>
 80a2b1c:	f04f 517e 	mov.w	r1, #1065353216	; 0x3f800000
 80a2b20:	f002 fdb0 	bl	80a5684 <__aeabi_fcmpeq>
 80a2b24:	2800      	cmp	r0, #0
 80a2b26:	f43f af6b 	beq.w	80a2a00 <_ZN11FuzzyOutput8truncateEv+0xd0>
                        this->fuzzyComposition.addPoint(newPointC, newPertinenceC);
                    }
                }
            }else{
                //senao singleton
                if(this->fuzzyComposition.checkPoint(aux->fuzzySet->getPointB(), aux->fuzzySet->getPertinence()) == false){
 80a2b2a:	6820      	ldr	r0, [r4, #0]
 80a2b2c:	f000 f872 	bl	80a2c14 <_ZN8FuzzySet9getPointBEv>
 80a2b30:	4680      	mov	r8, r0
 80a2b32:	6820      	ldr	r0, [r4, #0]
 80a2b34:	f000 f907 	bl	80a2d46 <_ZN8FuzzySet13getPertinenceEv>
 80a2b38:	4641      	mov	r1, r8
 80a2b3a:	4602      	mov	r2, r0
 80a2b3c:	4628      	mov	r0, r5
 80a2b3e:	f7ff fbe4 	bl	80a230a <_ZN16FuzzyComposition10checkPointEff>
 80a2b42:	2800      	cmp	r0, #0
 80a2b44:	d1d9      	bne.n	80a2afa <_ZN11FuzzyOutput8truncateEv+0x1ca>
                    this->fuzzyComposition.addPoint(aux->fuzzySet->getPointB(), aux->fuzzySet->getPertinence());
 80a2b46:	6820      	ldr	r0, [r4, #0]
 80a2b48:	f000 f864 	bl	80a2c14 <_ZN8FuzzySet9getPointBEv>
 80a2b4c:	4680      	mov	r8, r0
 80a2b4e:	6820      	ldr	r0, [r4, #0]
 80a2b50:	f000 f8f9 	bl	80a2d46 <_ZN8FuzzySet13getPertinenceEv>
 80a2b54:	4641      	mov	r1, r8
 80a2b56:	4602      	mov	r2, r0
 80a2b58:	e7cc      	b.n	80a2af4 <_ZN11FuzzyOutput8truncateEv+0x1c4>
                }
            }
            
            //Se no for trapezio iniciado com pertinencia 1 (sem o triangulo direito)
            if(aux->fuzzySet->getPointC() != aux->fuzzySet->getPointD()){
                if(this->fuzzyComposition.checkPoint(aux->fuzzySet->getPointD(), 0.0) == false || aux->fuzzySet->getPointD() == aux->fuzzySet->getPointA()){
 80a2b5a:	6820      	ldr	r0, [r4, #0]
 80a2b5c:	f000 f85e 	bl	80a2c1c <_ZN8FuzzySet9getPointDEv>
 80a2b60:	2200      	movs	r2, #0
 80a2b62:	4601      	mov	r1, r0
 80a2b64:	4628      	mov	r0, r5
 80a2b66:	f7ff fbd0 	bl	80a230a <_ZN16FuzzyComposition10checkPointEff>
 80a2b6a:	2800      	cmp	r0, #0
 80a2b6c:	d037      	beq.n	80a2bde <_ZN11FuzzyOutput8truncateEv+0x2ae>
 80a2b6e:	6820      	ldr	r0, [r4, #0]
 80a2b70:	f000 f854 	bl	80a2c1c <_ZN8FuzzySet9getPointDEv>
 80a2b74:	4680      	mov	r8, r0
 80a2b76:	6820      	ldr	r0, [r4, #0]
 80a2b78:	f000 f84a 	bl	80a2c10 <_ZN8FuzzySet9getPointAEv>
 80a2b7c:	4601      	mov	r1, r0
 80a2b7e:	4640      	mov	r0, r8
 80a2b80:	f002 fd80 	bl	80a5684 <__aeabi_fcmpeq>
 80a2b84:	bb58      	cbnz	r0, 80a2bde <_ZN11FuzzyOutput8truncateEv+0x2ae>
 80a2b86:	e7c4      	b.n	80a2b12 <_ZN11FuzzyOutput8truncateEv+0x1e2>
                    }
                }
            }else if(aux->fuzzySet->getPointB() != aux->fuzzySet->getPointC()){
                // se trapezio
                if(aux->fuzzySet->getPertinence() == 1.0){
                    if(this->fuzzyComposition.checkPoint(aux->fuzzySet->getPointB(), aux->fuzzySet->getPertinence()) == false){
 80a2b88:	6820      	ldr	r0, [r4, #0]
 80a2b8a:	f000 f843 	bl	80a2c14 <_ZN8FuzzySet9getPointBEv>
 80a2b8e:	4680      	mov	r8, r0
 80a2b90:	6820      	ldr	r0, [r4, #0]
 80a2b92:	f000 f8d8 	bl	80a2d46 <_ZN8FuzzySet13getPertinenceEv>
 80a2b96:	4641      	mov	r1, r8
 80a2b98:	4602      	mov	r2, r0
 80a2b9a:	4628      	mov	r0, r5
 80a2b9c:	f7ff fbb5 	bl	80a230a <_ZN16FuzzyComposition10checkPointEff>
 80a2ba0:	b958      	cbnz	r0, 80a2bba <_ZN11FuzzyOutput8truncateEv+0x28a>
                        this->fuzzyComposition.addPoint(aux->fuzzySet->getPointB(), aux->fuzzySet->getPertinence());
 80a2ba2:	6820      	ldr	r0, [r4, #0]
 80a2ba4:	f000 f836 	bl	80a2c14 <_ZN8FuzzySet9getPointBEv>
 80a2ba8:	4680      	mov	r8, r0
 80a2baa:	6820      	ldr	r0, [r4, #0]
 80a2bac:	f000 f8cb 	bl	80a2d46 <_ZN8FuzzySet13getPertinenceEv>
 80a2bb0:	4641      	mov	r1, r8
 80a2bb2:	4602      	mov	r2, r0
 80a2bb4:	4628      	mov	r0, r5
 80a2bb6:	f7ff fb8f 	bl	80a22d8 <_ZN16FuzzyComposition8addPointEff>
                    }

                    if(this->fuzzyComposition.checkPoint(aux->fuzzySet->getPointC(), aux->fuzzySet->getPertinence()) == false){
 80a2bba:	6820      	ldr	r0, [r4, #0]
 80a2bbc:	f000 f82c 	bl	80a2c18 <_ZN8FuzzySet9getPointCEv>
 80a2bc0:	4680      	mov	r8, r0
 80a2bc2:	6820      	ldr	r0, [r4, #0]
 80a2bc4:	f000 f8bf 	bl	80a2d46 <_ZN8FuzzySet13getPertinenceEv>
 80a2bc8:	4641      	mov	r1, r8
 80a2bca:	4602      	mov	r2, r0
 80a2bcc:	4628      	mov	r0, r5
 80a2bce:	f7ff fb9c 	bl	80a230a <_ZN16FuzzyComposition10checkPointEff>
 80a2bd2:	2800      	cmp	r0, #0
 80a2bd4:	d191      	bne.n	80a2afa <_ZN11FuzzyOutput8truncateEv+0x1ca>
                        this->fuzzyComposition.addPoint(aux->fuzzySet->getPointC(), aux->fuzzySet->getPertinence());
 80a2bd6:	6820      	ldr	r0, [r4, #0]
 80a2bd8:	f000 f81e 	bl	80a2c18 <_ZN8FuzzySet9getPointCEv>
 80a2bdc:	e7b6      	b.n	80a2b4c <_ZN11FuzzyOutput8truncateEv+0x21c>
            }
            
            //Se no for trapezio iniciado com pertinencia 1 (sem o triangulo direito)
            if(aux->fuzzySet->getPointC() != aux->fuzzySet->getPointD()){
                if(this->fuzzyComposition.checkPoint(aux->fuzzySet->getPointD(), 0.0) == false || aux->fuzzySet->getPointD() == aux->fuzzySet->getPointA()){
                    this->fuzzyComposition.addPoint(aux->fuzzySet->getPointD(), 0.0);
 80a2bde:	6820      	ldr	r0, [r4, #0]
 80a2be0:	f000 f81c 	bl	80a2c1c <_ZN8FuzzySet9getPointDEv>
 80a2be4:	2200      	movs	r2, #0
 80a2be6:	4601      	mov	r1, r0
 80a2be8:	4628      	mov	r0, r5
 80a2bea:	f7ff fb75 	bl	80a22d8 <_ZN16FuzzyComposition8addPointEff>
 80a2bee:	e790      	b.n	80a2b12 <_ZN11FuzzyOutput8truncateEv+0x1e2>
            }
        }
        aux = aux->next;
    }

    this->fuzzyComposition.build();
 80a2bf0:	4628      	mov	r0, r5
 80a2bf2:	f7ff fd65 	bl	80a26c0 <_ZN16FuzzyComposition5buildEv>

    return true;
}
 80a2bf6:	2001      	movs	r0, #1
 80a2bf8:	b011      	add	sp, #68	; 0x44
 80a2bfa:	e8bd 8ff0 	ldmia.w	sp!, {r4, r5, r6, r7, r8, r9, sl, fp, pc}

080a2bfe <_ZN8FuzzySetC1Effff>:
#include "FuzzySet.h"

FuzzySet::FuzzySet(){
}

FuzzySet::FuzzySet(float a, float b, float c, float d){
 80a2bfe:	b510      	push	{r4, lr}
    this->a = a;
    this->b = b;
    this->c = c;
 80a2c00:	6083      	str	r3, [r0, #8]
    this->d = d;
 80a2c02:	9b02      	ldr	r3, [sp, #8]

FuzzySet::FuzzySet(){
}

FuzzySet::FuzzySet(float a, float b, float c, float d){
    this->a = a;
 80a2c04:	6001      	str	r1, [r0, #0]
    this->b = b;
    this->c = c;
    this->d = d;
 80a2c06:	60c3      	str	r3, [r0, #12]
    this->pertinence = 0.0;
 80a2c08:	2300      	movs	r3, #0
FuzzySet::FuzzySet(){
}

FuzzySet::FuzzySet(float a, float b, float c, float d){
    this->a = a;
    this->b = b;
 80a2c0a:	6042      	str	r2, [r0, #4]
    this->c = c;
    this->d = d;
    this->pertinence = 0.0;
 80a2c0c:	6103      	str	r3, [r0, #16]
}
 80a2c0e:	bd10      	pop	{r4, pc}

080a2c10 <_ZN8FuzzySet9getPointAEv>:

float FuzzySet::getPointA(){
    return this->a;
}
 80a2c10:	6800      	ldr	r0, [r0, #0]
 80a2c12:	4770      	bx	lr

080a2c14 <_ZN8FuzzySet9getPointBEv>:

float FuzzySet::getPointB(){
    return this->b;
}
 80a2c14:	6840      	ldr	r0, [r0, #4]
 80a2c16:	4770      	bx	lr

080a2c18 <_ZN8FuzzySet9getPointCEv>:

float FuzzySet::getPointC(){
    return this->c;
}
 80a2c18:	6880      	ldr	r0, [r0, #8]
 80a2c1a:	4770      	bx	lr

080a2c1c <_ZN8FuzzySet9getPointDEv>:

float FuzzySet::getPointD(){
    return this->d;
}
 80a2c1c:	68c0      	ldr	r0, [r0, #12]
 80a2c1e:	4770      	bx	lr

080a2c20 <_ZN8FuzzySet19calculatePertinenceEf>:

bool FuzzySet::calculatePertinence(float crispValue){
 80a2c20:	e92d 43f8 	stmdb	sp!, {r3, r4, r5, r6, r7, r8, r9, lr}
    float slope;

    if (crispValue < this->a){
 80a2c24:	6807      	ldr	r7, [r0, #0]

float FuzzySet::getPointD(){
    return this->d;
}

bool FuzzySet::calculatePertinence(float crispValue){
 80a2c26:	4604      	mov	r4, r0
    float slope;

    if (crispValue < this->a){
 80a2c28:	4638      	mov	r0, r7

float FuzzySet::getPointD(){
    return this->d;
}

bool FuzzySet::calculatePertinence(float crispValue){
 80a2c2a:	460d      	mov	r5, r1
    float slope;

    if (crispValue < this->a){
 80a2c2c:	f002 fd52 	bl	80a56d4 <__aeabi_fcmpgt>
 80a2c30:	6866      	ldr	r6, [r4, #4]
 80a2c32:	b198      	cbz	r0, 80a2c5c <_ZN8FuzzySet19calculatePertinenceEf+0x3c>
        if (this->a == this->b && this->b != this->c && this->c != this->d){
 80a2c34:	4631      	mov	r1, r6
 80a2c36:	4638      	mov	r0, r7
 80a2c38:	f002 fd24 	bl	80a5684 <__aeabi_fcmpeq>
 80a2c3c:	2800      	cmp	r0, #0
 80a2c3e:	d02e      	beq.n	80a2c9e <_ZN8FuzzySet19calculatePertinenceEf+0x7e>
 80a2c40:	68a5      	ldr	r5, [r4, #8]
 80a2c42:	4630      	mov	r0, r6
 80a2c44:	4629      	mov	r1, r5
 80a2c46:	f002 fd1d 	bl	80a5684 <__aeabi_fcmpeq>
 80a2c4a:	bb40      	cbnz	r0, 80a2c9e <_ZN8FuzzySet19calculatePertinenceEf+0x7e>
 80a2c4c:	4628      	mov	r0, r5
 80a2c4e:	68e1      	ldr	r1, [r4, #12]
 80a2c50:	f002 fd18 	bl	80a5684 <__aeabi_fcmpeq>
 80a2c54:	bb18      	cbnz	r0, 80a2c9e <_ZN8FuzzySet19calculatePertinenceEf+0x7e>
            this->pertinence = 1.0;
 80a2c56:	f04f 537e 	mov.w	r3, #1065353216	; 0x3f800000
 80a2c5a:	e021      	b.n	80a2ca0 <_ZN8FuzzySet19calculatePertinenceEf+0x80>
        }else{
            this->pertinence = 0.0;
        }
    }else if (crispValue >= this->a && crispValue < this->b){
 80a2c5c:	4629      	mov	r1, r5
 80a2c5e:	4638      	mov	r0, r7
 80a2c60:	f002 fd24 	bl	80a56ac <__aeabi_fcmple>
 80a2c64:	b9f0      	cbnz	r0, 80a2ca4 <_ZN8FuzzySet19calculatePertinenceEf+0x84>
        slope = 1.0 / (this->b - this->a);
        this->pertinence = slope * (crispValue - this->b) + 1.0;
    }else if (crispValue >= this->b && crispValue <= this->c){
 80a2c66:	4631      	mov	r1, r6
 80a2c68:	4628      	mov	r0, r5
 80a2c6a:	f002 fd29 	bl	80a56c0 <__aeabi_fcmpge>
 80a2c6e:	2800      	cmp	r0, #0
 80a2c70:	d12f      	bne.n	80a2cd2 <_ZN8FuzzySet19calculatePertinenceEf+0xb2>
        this->pertinence = 1.0;
    }else if (crispValue > this->c && crispValue <= this->d){
 80a2c72:	f8d4 8008 	ldr.w	r8, [r4, #8]
 80a2c76:	4628      	mov	r0, r5
 80a2c78:	4641      	mov	r1, r8
 80a2c7a:	f002 fd2b 	bl	80a56d4 <__aeabi_fcmpgt>
 80a2c7e:	f8d4 900c 	ldr.w	r9, [r4, #12]
 80a2c82:	2800      	cmp	r0, #0
 80a2c84:	d12c      	bne.n	80a2ce0 <_ZN8FuzzySet19calculatePertinenceEf+0xc0>
        slope = 1.0 / (this->c - this->d);
        this->pertinence = slope * (crispValue - this->c) + 1.0;
    }else if (crispValue > this->d){
 80a2c86:	4649      	mov	r1, r9
 80a2c88:	4628      	mov	r0, r5
 80a2c8a:	f002 fd23 	bl	80a56d4 <__aeabi_fcmpgt>
 80a2c8e:	2800      	cmp	r0, #0
 80a2c90:	d04d      	beq.n	80a2d2e <_ZN8FuzzySet19calculatePertinenceEf+0x10e>
        if (this->c == this->d && this->c != this->b && this->b != this->a){
 80a2c92:	4649      	mov	r1, r9
 80a2c94:	4640      	mov	r0, r8
 80a2c96:	f002 fcf5 	bl	80a5684 <__aeabi_fcmpeq>
 80a2c9a:	2800      	cmp	r0, #0
 80a2c9c:	d13e      	bne.n	80a2d1c <_ZN8FuzzySet19calculatePertinenceEf+0xfc>

    if (crispValue < this->a){
        if (this->a == this->b && this->b != this->c && this->c != this->d){
            this->pertinence = 1.0;
        }else{
            this->pertinence = 0.0;
 80a2c9e:	2300      	movs	r3, #0
 80a2ca0:	6123      	str	r3, [r4, #16]
 80a2ca2:	e044      	b.n	80a2d2e <_ZN8FuzzySet19calculatePertinenceEf+0x10e>
        }
    }else if (crispValue >= this->a && crispValue < this->b){
 80a2ca4:	4631      	mov	r1, r6
 80a2ca6:	4628      	mov	r0, r5
 80a2ca8:	f002 fcf6 	bl	80a5698 <__aeabi_fcmplt>
 80a2cac:	2800      	cmp	r0, #0
 80a2cae:	d0da      	beq.n	80a2c66 <_ZN8FuzzySet19calculatePertinenceEf+0x46>
        slope = 1.0 / (this->b - this->a);
        this->pertinence = slope * (crispValue - this->b) + 1.0;
 80a2cb0:	4639      	mov	r1, r7
 80a2cb2:	4630      	mov	r0, r6
 80a2cb4:	f002 fa48 	bl	80a5148 <__aeabi_fsub>
 80a2cb8:	4601      	mov	r1, r0
 80a2cba:	f04f 507e 	mov.w	r0, #1065353216	; 0x3f800000
 80a2cbe:	f002 fc01 	bl	80a54c4 <__aeabi_fdiv>
 80a2cc2:	4631      	mov	r1, r6
 80a2cc4:	4607      	mov	r7, r0
 80a2cc6:	4628      	mov	r0, r5
 80a2cc8:	f002 fa3e 	bl	80a5148 <__aeabi_fsub>
 80a2ccc:	4601      	mov	r1, r0
 80a2cce:	4638      	mov	r0, r7
 80a2cd0:	e01c      	b.n	80a2d0c <_ZN8FuzzySet19calculatePertinenceEf+0xec>
    }else if (crispValue >= this->b && crispValue <= this->c){
 80a2cd2:	68a1      	ldr	r1, [r4, #8]
 80a2cd4:	4628      	mov	r0, r5
 80a2cd6:	f002 fce9 	bl	80a56ac <__aeabi_fcmple>
 80a2cda:	2800      	cmp	r0, #0
 80a2cdc:	d0c9      	beq.n	80a2c72 <_ZN8FuzzySet19calculatePertinenceEf+0x52>
 80a2cde:	e7ba      	b.n	80a2c56 <_ZN8FuzzySet19calculatePertinenceEf+0x36>
        this->pertinence = 1.0;
    }else if (crispValue > this->c && crispValue <= this->d){
 80a2ce0:	4649      	mov	r1, r9
 80a2ce2:	4628      	mov	r0, r5
 80a2ce4:	f002 fce2 	bl	80a56ac <__aeabi_fcmple>
 80a2ce8:	2800      	cmp	r0, #0
 80a2cea:	d0cc      	beq.n	80a2c86 <_ZN8FuzzySet19calculatePertinenceEf+0x66>
        slope = 1.0 / (this->c - this->d);
        this->pertinence = slope * (crispValue - this->c) + 1.0;
 80a2cec:	4649      	mov	r1, r9
 80a2cee:	4640      	mov	r0, r8
 80a2cf0:	f002 fa2a 	bl	80a5148 <__aeabi_fsub>
 80a2cf4:	4601      	mov	r1, r0
 80a2cf6:	f04f 507e 	mov.w	r0, #1065353216	; 0x3f800000
 80a2cfa:	f002 fbe3 	bl	80a54c4 <__aeabi_fdiv>
 80a2cfe:	4641      	mov	r1, r8
 80a2d00:	4606      	mov	r6, r0
 80a2d02:	4628      	mov	r0, r5
 80a2d04:	f002 fa20 	bl	80a5148 <__aeabi_fsub>
 80a2d08:	4601      	mov	r1, r0
 80a2d0a:	4630      	mov	r0, r6
 80a2d0c:	f002 fb26 	bl	80a535c <__aeabi_fmul>
 80a2d10:	f04f 517e 	mov.w	r1, #1065353216	; 0x3f800000
 80a2d14:	f002 fa1a 	bl	80a514c <__addsf3>
 80a2d18:	6120      	str	r0, [r4, #16]
 80a2d1a:	e008      	b.n	80a2d2e <_ZN8FuzzySet19calculatePertinenceEf+0x10e>
    }else if (crispValue > this->d){
        if (this->c == this->d && this->c != this->b && this->b != this->a){
 80a2d1c:	4641      	mov	r1, r8
 80a2d1e:	4630      	mov	r0, r6
 80a2d20:	f002 fcb0 	bl	80a5684 <__aeabi_fcmpeq>
 80a2d24:	2800      	cmp	r0, #0
 80a2d26:	d1ba      	bne.n	80a2c9e <_ZN8FuzzySet19calculatePertinenceEf+0x7e>
 80a2d28:	4631      	mov	r1, r6
 80a2d2a:	4638      	mov	r0, r7
 80a2d2c:	e790      	b.n	80a2c50 <_ZN8FuzzySet19calculatePertinenceEf+0x30>
        }else{
            this->pertinence = 0.0;
        }
    }
    return true;
}
 80a2d2e:	2001      	movs	r0, #1
 80a2d30:	e8bd 83f8 	ldmia.w	sp!, {r3, r4, r5, r6, r7, r8, r9, pc}

080a2d34 <_ZN8FuzzySet13setPertinenceEf>:

void FuzzySet::setPertinence(float pertinence){
 80a2d34:	b538      	push	{r3, r4, r5, lr}
 80a2d36:	4604      	mov	r4, r0
    if(this->pertinence < pertinence){
 80a2d38:	6900      	ldr	r0, [r0, #16]
        }
    }
    return true;
}

void FuzzySet::setPertinence(float pertinence){
 80a2d3a:	460d      	mov	r5, r1
    if(this->pertinence < pertinence){
 80a2d3c:	f002 fcac 	bl	80a5698 <__aeabi_fcmplt>
 80a2d40:	b100      	cbz	r0, 80a2d44 <_ZN8FuzzySet13setPertinenceEf+0x10>
        this->pertinence = pertinence;
 80a2d42:	6125      	str	r5, [r4, #16]
 80a2d44:	bd38      	pop	{r3, r4, r5, pc}

080a2d46 <_ZN8FuzzySet13getPertinenceEv>:
    }
}

float FuzzySet::getPertinence(){
    return this->pertinence;
}
 80a2d46:	6900      	ldr	r0, [r0, #16]
 80a2d48:	4770      	bx	lr

080a2d4a <_ZN8FuzzySet5resetEv>:

void FuzzySet::reset(){
    this->pertinence = 0.0;
 80a2d4a:	2300      	movs	r3, #0
 80a2d4c:	6103      	str	r3, [r0, #16]
 80a2d4e:	4770      	bx	lr

080a2d50 <_ZN19FuzzyRuleConsequentC1Ev>:
 */
#include "FuzzyRuleConsequent.h"

// CONSTRUTORES
FuzzyRuleConsequent::FuzzyRuleConsequent(){
    this->fuzzySetOutputs = NULL;
 80a2d50:	2200      	movs	r2, #0
 80a2d52:	6042      	str	r2, [r0, #4]
    this->fuzzySetOutputsCursor = NULL;
 80a2d54:	6002      	str	r2, [r0, #0]
}
 80a2d56:	4770      	bx	lr

080a2d58 <_ZN19FuzzyRuleConsequent9addOutputEP8FuzzySet>:
FuzzyRuleConsequent::~FuzzyRuleConsequent(){
    this->cleanFuzzySets(this->fuzzySetOutputs);
}

// MTODOS PBLICOS
bool FuzzyRuleConsequent::addOutput(FuzzySet* fuzzySet){
 80a2d58:	b538      	push	{r3, r4, r5, lr}
 80a2d5a:	4604      	mov	r4, r0
    fuzzySetOutputArray *aux;
    // Alocando espao na memria
    if((aux = (fuzzySetOutputArray *) malloc(sizeof(fuzzySetOutputArray))) == NULL){
 80a2d5c:	2008      	movs	r0, #8
FuzzyRuleConsequent::~FuzzyRuleConsequent(){
    this->cleanFuzzySets(this->fuzzySetOutputs);
}

// MTODOS PBLICOS
bool FuzzyRuleConsequent::addOutput(FuzzySet* fuzzySet){
 80a2d5e:	460d      	mov	r5, r1
    fuzzySetOutputArray *aux;
    // Alocando espao na memria
    if((aux = (fuzzySetOutputArray *) malloc(sizeof(fuzzySetOutputArray))) == NULL){
 80a2d60:	f000 fb54 	bl	80a340c <malloc>
 80a2d64:	b150      	cbz	r0, 80a2d7c <_ZN19FuzzyRuleConsequent9addOutputEP8FuzzySet+0x24>
        return false;
    }
    aux->fuzzySet     = fuzzySet;
    aux->next         = NULL;
 80a2d66:	2300      	movs	r3, #0
    fuzzySetOutputArray *aux;
    // Alocando espao na memria
    if((aux = (fuzzySetOutputArray *) malloc(sizeof(fuzzySetOutputArray))) == NULL){
        return false;
    }
    aux->fuzzySet     = fuzzySet;
 80a2d68:	6005      	str	r5, [r0, #0]
    aux->next         = NULL;
 80a2d6a:	6043      	str	r3, [r0, #4]

    if(this->fuzzySetOutputs == NULL){
 80a2d6c:	6863      	ldr	r3, [r4, #4]
 80a2d6e:	b90b      	cbnz	r3, 80a2d74 <_ZN19FuzzyRuleConsequent9addOutputEP8FuzzySet+0x1c>
        this->fuzzySetOutputs = aux;
 80a2d70:	6060      	str	r0, [r4, #4]
 80a2d72:	e001      	b.n	80a2d78 <_ZN19FuzzyRuleConsequent9addOutputEP8FuzzySet+0x20>
        this->fuzzySetOutputsCursor    = aux;
    }else{
        this->fuzzySetOutputsCursor->next = aux;
 80a2d74:	6823      	ldr	r3, [r4, #0]
 80a2d76:	6058      	str	r0, [r3, #4]
        this->fuzzySetOutputsCursor = aux;
 80a2d78:	6020      	str	r0, [r4, #0]
    }
    return true;
 80a2d7a:	2001      	movs	r0, #1
}
 80a2d7c:	bd38      	pop	{r3, r4, r5, pc}

080a2d7e <_ZN19FuzzyRuleConsequent8evaluateEf>:

bool FuzzyRuleConsequent::evaluate(float power){
 80a2d7e:	b538      	push	{r3, r4, r5, lr}
 80a2d80:	460d      	mov	r5, r1
    fuzzySetOutputArray *aux;
    aux = this->fuzzySetOutputs;
 80a2d82:	6844      	ldr	r4, [r0, #4]
    while(aux != NULL){
 80a2d84:	b12c      	cbz	r4, 80a2d92 <_ZN19FuzzyRuleConsequent8evaluateEf+0x14>
        aux->fuzzySet->setPertinence(power);
 80a2d86:	6820      	ldr	r0, [r4, #0]
 80a2d88:	4629      	mov	r1, r5
 80a2d8a:	f7ff ffd3 	bl	80a2d34 <_ZN8FuzzySet13setPertinenceEf>
        aux = aux->next;
 80a2d8e:	6864      	ldr	r4, [r4, #4]
}

bool FuzzyRuleConsequent::evaluate(float power){
    fuzzySetOutputArray *aux;
    aux = this->fuzzySetOutputs;
    while(aux != NULL){
 80a2d90:	e7f8      	b.n	80a2d84 <_ZN19FuzzyRuleConsequent8evaluateEf+0x6>
        aux->fuzzySet->setPertinence(power);
        aux = aux->next;
    }
    return true;
}
 80a2d92:	2001      	movs	r0, #1
 80a2d94:	bd38      	pop	{r3, r4, r5, pc}

080a2d96 <_ZN5FuzzyC1Ev>:

// CONSTRUTORES
Fuzzy::Fuzzy(){
    // Iniciando os ponteiros como nulo
    // FuzzyInput
    this->fuzzyInputs       = NULL;
 80a2d96:	2200      	movs	r2, #0
 80a2d98:	6042      	str	r2, [r0, #4]
    this->fuzzyInputsCursor = NULL;
 80a2d9a:	6002      	str	r2, [r0, #0]
    // FuzzyOutput
    this->fuzzyOutputs          = NULL;
 80a2d9c:	60c2      	str	r2, [r0, #12]
    this->fuzzyOutputsCursor    = NULL;
 80a2d9e:	6082      	str	r2, [r0, #8]
    // FuzzyRule
    this->fuzzyRules        = NULL;
 80a2da0:	6142      	str	r2, [r0, #20]
    this->fuzzyRulesCursor  = NULL;
 80a2da2:	6102      	str	r2, [r0, #16]
}
 80a2da4:	4770      	bx	lr

080a2da6 <_ZN5Fuzzy13addFuzzyInputEP10FuzzyInput>:
    this->cleanFuzzyOutputs(this->fuzzyOutputs);
    this->cleanFuzzyRules(this->fuzzyRules);
}

// MTODOS PBLICOS
bool Fuzzy::addFuzzyInput(FuzzyInput* fuzzyInput){
 80a2da6:	b538      	push	{r3, r4, r5, lr}
 80a2da8:	4604      	mov	r4, r0
    fuzzyInputArray* aux;
    
    // Alocando espao na memria
    if((aux = (fuzzyInputArray *) malloc(sizeof(fuzzyInputArray))) == NULL){
 80a2daa:	2008      	movs	r0, #8
    this->cleanFuzzyOutputs(this->fuzzyOutputs);
    this->cleanFuzzyRules(this->fuzzyRules);
}

// MTODOS PBLICOS
bool Fuzzy::addFuzzyInput(FuzzyInput* fuzzyInput){
 80a2dac:	460d      	mov	r5, r1
    fuzzyInputArray* aux;
    
    // Alocando espao na memria
    if((aux = (fuzzyInputArray *) malloc(sizeof(fuzzyInputArray))) == NULL){
 80a2dae:	f000 fb2d 	bl	80a340c <malloc>
 80a2db2:	b150      	cbz	r0, 80a2dca <_ZN5Fuzzy13addFuzzyInputEP10FuzzyInput+0x24>
        return false;
    }

    aux->fuzzyInput = fuzzyInput;
    aux->next = NULL;
 80a2db4:	2300      	movs	r3, #0
    // Alocando espao na memria
    if((aux = (fuzzyInputArray *) malloc(sizeof(fuzzyInputArray))) == NULL){
        return false;
    }

    aux->fuzzyInput = fuzzyInput;
 80a2db6:	6005      	str	r5, [r0, #0]
    aux->next = NULL;
 80a2db8:	6043      	str	r3, [r0, #4]

    if(this->fuzzyInputs == NULL){
 80a2dba:	6863      	ldr	r3, [r4, #4]
 80a2dbc:	b90b      	cbnz	r3, 80a2dc2 <_ZN5Fuzzy13addFuzzyInputEP10FuzzyInput+0x1c>
        this->fuzzyInputs = aux;
 80a2dbe:	6060      	str	r0, [r4, #4]
 80a2dc0:	e001      	b.n	80a2dc6 <_ZN5Fuzzy13addFuzzyInputEP10FuzzyInput+0x20>
        this->fuzzyInputsCursor  = aux;
    }else{
        this->fuzzyInputsCursor->next = aux;
 80a2dc2:	6823      	ldr	r3, [r4, #0]
 80a2dc4:	6058      	str	r0, [r3, #4]
        this->fuzzyInputsCursor = aux;
 80a2dc6:	6020      	str	r0, [r4, #0]
    }

    return true;
 80a2dc8:	2001      	movs	r0, #1
}
 80a2dca:	bd38      	pop	{r3, r4, r5, pc}

080a2dcc <_ZN5Fuzzy14addFuzzyOutputEP11FuzzyOutput>:

bool Fuzzy::addFuzzyOutput(FuzzyOutput* fuzzyOutput){
 80a2dcc:	b570      	push	{r4, r5, r6, lr}
 80a2dce:	4605      	mov	r5, r0
    fuzzyOutputArray *aux;
    // Alocando espao na memria
    if((aux = (fuzzyOutputArray *) malloc(sizeof(fuzzyOutputArray))) == NULL){
 80a2dd0:	2008      	movs	r0, #8
    }

    return true;
}

bool Fuzzy::addFuzzyOutput(FuzzyOutput* fuzzyOutput){
 80a2dd2:	460e      	mov	r6, r1
    fuzzyOutputArray *aux;
    // Alocando espao na memria
    if((aux = (fuzzyOutputArray *) malloc(sizeof(fuzzyOutputArray))) == NULL){
 80a2dd4:	f000 fb1a 	bl	80a340c <malloc>
 80a2dd8:	4604      	mov	r4, r0
 80a2dda:	b170      	cbz	r0, 80a2dfa <_ZN5Fuzzy14addFuzzyOutputEP11FuzzyOutput+0x2e>
        return false;
    }
    aux->fuzzyOutput = fuzzyOutput;
    aux->next = NULL;
 80a2ddc:	2300      	movs	r3, #0
 80a2dde:	6043      	str	r3, [r0, #4]
    fuzzyOutputArray *aux;
    // Alocando espao na memria
    if((aux = (fuzzyOutputArray *) malloc(sizeof(fuzzyOutputArray))) == NULL){
        return false;
    }
    aux->fuzzyOutput = fuzzyOutput;
 80a2de0:	6006      	str	r6, [r0, #0]
    aux->next = NULL;

    // Ordenando o fuzzyOutput
    fuzzyOutput->order();
 80a2de2:	4630      	mov	r0, r6
 80a2de4:	f7ff fcd4 	bl	80a2790 <_ZN11FuzzyOutput5orderEv>

    if(this->fuzzyOutputs == NULL){
 80a2de8:	68eb      	ldr	r3, [r5, #12]
 80a2dea:	b90b      	cbnz	r3, 80a2df0 <_ZN5Fuzzy14addFuzzyOutputEP11FuzzyOutput+0x24>
        this->fuzzyOutputs = aux;
 80a2dec:	60ec      	str	r4, [r5, #12]
 80a2dee:	e001      	b.n	80a2df4 <_ZN5Fuzzy14addFuzzyOutputEP11FuzzyOutput+0x28>
        this->fuzzyOutputsCursor  = aux;
    }else{
        this->fuzzyOutputsCursor->next = aux;
 80a2df0:	68ab      	ldr	r3, [r5, #8]
 80a2df2:	605c      	str	r4, [r3, #4]
        this->fuzzyOutputsCursor = aux;
 80a2df4:	60ac      	str	r4, [r5, #8]
    }
    return true;
 80a2df6:	2001      	movs	r0, #1
 80a2df8:	bd70      	pop	{r4, r5, r6, pc}
}
 80a2dfa:	bd70      	pop	{r4, r5, r6, pc}

080a2dfc <_ZN5Fuzzy12addFuzzyRuleEP9FuzzyRule>:

bool Fuzzy::addFuzzyRule(FuzzyRule* fuzzyRule){
 80a2dfc:	b538      	push	{r3, r4, r5, lr}
 80a2dfe:	4604      	mov	r4, r0
    fuzzyRuleArray* aux;
    // Alocando espao na memria
    if((aux = (fuzzyRuleArray *) malloc(sizeof(fuzzyRuleArray))) == NULL){
 80a2e00:	2008      	movs	r0, #8
        this->fuzzyOutputsCursor = aux;
    }
    return true;
}

bool Fuzzy::addFuzzyRule(FuzzyRule* fuzzyRule){
 80a2e02:	460d      	mov	r5, r1
    fuzzyRuleArray* aux;
    // Alocando espao na memria
    if((aux = (fuzzyRuleArray *) malloc(sizeof(fuzzyRuleArray))) == NULL){
 80a2e04:	f000 fb02 	bl	80a340c <malloc>
 80a2e08:	b150      	cbz	r0, 80a2e20 <_ZN5Fuzzy12addFuzzyRuleEP9FuzzyRule+0x24>
        return false;
    }
    aux->fuzzyRule = fuzzyRule;
    aux->next = NULL;
 80a2e0a:	2300      	movs	r3, #0
    fuzzyRuleArray* aux;
    // Alocando espao na memria
    if((aux = (fuzzyRuleArray *) malloc(sizeof(fuzzyRuleArray))) == NULL){
        return false;
    }
    aux->fuzzyRule = fuzzyRule;
 80a2e0c:	6005      	str	r5, [r0, #0]
    aux->next = NULL;
 80a2e0e:	6043      	str	r3, [r0, #4]

    if(this->fuzzyRules == NULL){
 80a2e10:	6963      	ldr	r3, [r4, #20]
 80a2e12:	b90b      	cbnz	r3, 80a2e18 <_ZN5Fuzzy12addFuzzyRuleEP9FuzzyRule+0x1c>
        this->fuzzyRules = aux;
 80a2e14:	6160      	str	r0, [r4, #20]
 80a2e16:	e001      	b.n	80a2e1c <_ZN5Fuzzy12addFuzzyRuleEP9FuzzyRule+0x20>
        this->fuzzyRulesCursor  = aux;
    }else{
        this->fuzzyRulesCursor->next = aux;
 80a2e18:	6923      	ldr	r3, [r4, #16]
 80a2e1a:	6058      	str	r0, [r3, #4]
        this->fuzzyRulesCursor = aux;
 80a2e1c:	6120      	str	r0, [r4, #16]
    }
    return true;
 80a2e1e:	2001      	movs	r0, #1
}
 80a2e20:	bd38      	pop	{r3, r4, r5, pc}

080a2e22 <_ZN5Fuzzy8setInputEif>:

bool Fuzzy::setInput(int fuzzyInputIndex, float crispValue){
 80a2e22:	b570      	push	{r4, r5, r6, lr}
 80a2e24:	460d      	mov	r5, r1
 80a2e26:	4616      	mov	r6, r2
    fuzzyInputArray *aux;
    aux = this->fuzzyInputs;
 80a2e28:	6844      	ldr	r4, [r0, #4]

    while(aux != NULL){
 80a2e2a:	b164      	cbz	r4, 80a2e46 <_ZN5Fuzzy8setInputEif+0x24>
        if(aux->fuzzyInput->getIndex() == fuzzyInputIndex){
 80a2e2c:	6820      	ldr	r0, [r4, #0]
 80a2e2e:	f7ff fc82 	bl	80a2736 <_ZN7FuzzyIO8getIndexEv>
 80a2e32:	42a8      	cmp	r0, r5
 80a2e34:	d105      	bne.n	80a2e42 <_ZN5Fuzzy8setInputEif+0x20>
            aux->fuzzyInput->setCrispInput(crispValue);
 80a2e36:	6820      	ldr	r0, [r4, #0]
 80a2e38:	4631      	mov	r1, r6
 80a2e3a:	f7ff fc7e 	bl	80a273a <_ZN7FuzzyIO13setCrispInputEf>
            return true;
 80a2e3e:	2001      	movs	r0, #1
 80a2e40:	bd70      	pop	{r4, r5, r6, pc}
        }
        aux = aux->next;
 80a2e42:	6864      	ldr	r4, [r4, #4]

bool Fuzzy::setInput(int fuzzyInputIndex, float crispValue){
    fuzzyInputArray *aux;
    aux = this->fuzzyInputs;

    while(aux != NULL){
 80a2e44:	e7f1      	b.n	80a2e2a <_ZN5Fuzzy8setInputEif+0x8>
            aux->fuzzyInput->setCrispInput(crispValue);
            return true;
        }
        aux = aux->next;
    }
    return false;
 80a2e46:	4620      	mov	r0, r4
}
 80a2e48:	bd70      	pop	{r4, r5, r6, pc}

080a2e4a <_ZN5Fuzzy7fuzzifyEv>:

bool Fuzzy::fuzzify(){
 80a2e4a:	b538      	push	{r3, r4, r5, lr}
 80a2e4c:	4604      	mov	r4, r0
    fuzzyInputArray* fuzzyInputAux;

    fuzzyOutputArray *fuzzyOutputAux;

    fuzzyInputAux = this->fuzzyInputs;
 80a2e4e:	6845      	ldr	r5, [r0, #4]
    while(fuzzyInputAux != NULL){
 80a2e50:	b125      	cbz	r5, 80a2e5c <_ZN5Fuzzy7fuzzifyEv+0x12>
        fuzzyInputAux->fuzzyInput->resetFuzzySets();
 80a2e52:	6828      	ldr	r0, [r5, #0]
 80a2e54:	f7ff fc86 	bl	80a2764 <_ZN7FuzzyIO14resetFuzzySetsEv>
        fuzzyInputAux = fuzzyInputAux->next;
 80a2e58:	686d      	ldr	r5, [r5, #4]
    fuzzyInputArray* fuzzyInputAux;

    fuzzyOutputArray *fuzzyOutputAux;

    fuzzyInputAux = this->fuzzyInputs;
    while(fuzzyInputAux != NULL){
 80a2e5a:	e7f9      	b.n	80a2e50 <_ZN5Fuzzy7fuzzifyEv+0x6>
        fuzzyInputAux->fuzzyInput->resetFuzzySets();
        fuzzyInputAux = fuzzyInputAux->next;
    }

    fuzzyOutputAux = this->fuzzyOutputs;
 80a2e5c:	68e5      	ldr	r5, [r4, #12]
    while(fuzzyOutputAux != NULL){
 80a2e5e:	b125      	cbz	r5, 80a2e6a <_ZN5Fuzzy7fuzzifyEv+0x20>
        fuzzyOutputAux->fuzzyOutput->resetFuzzySets();
 80a2e60:	6828      	ldr	r0, [r5, #0]
 80a2e62:	f7ff fc7f 	bl	80a2764 <_ZN7FuzzyIO14resetFuzzySetsEv>
        fuzzyOutputAux = fuzzyOutputAux->next;
 80a2e66:	686d      	ldr	r5, [r5, #4]
        fuzzyInputAux->fuzzyInput->resetFuzzySets();
        fuzzyInputAux = fuzzyInputAux->next;
    }

    fuzzyOutputAux = this->fuzzyOutputs;
    while(fuzzyOutputAux != NULL){
 80a2e68:	e7f9      	b.n	80a2e5e <_ZN5Fuzzy7fuzzifyEv+0x14>
        fuzzyOutputAux->fuzzyOutput->resetFuzzySets();
        fuzzyOutputAux = fuzzyOutputAux->next;
    }

    // Calculando a pertinncia de todos os FuzzyInputs
    fuzzyInputAux = this->fuzzyInputs;
 80a2e6a:	6865      	ldr	r5, [r4, #4]
    while(fuzzyInputAux != NULL){
 80a2e6c:	b125      	cbz	r5, 80a2e78 <_ZN5Fuzzy7fuzzifyEv+0x2e>
        fuzzyInputAux->fuzzyInput->calculateFuzzySetPertinences();
 80a2e6e:	6828      	ldr	r0, [r5, #0]
 80a2e70:	f7ff fc4f 	bl	80a2712 <_ZN10FuzzyInput28calculateFuzzySetPertinencesEv>
        fuzzyInputAux = fuzzyInputAux->next;
 80a2e74:	686d      	ldr	r5, [r5, #4]
        fuzzyOutputAux = fuzzyOutputAux->next;
    }

    // Calculando a pertinncia de todos os FuzzyInputs
    fuzzyInputAux = this->fuzzyInputs;
    while(fuzzyInputAux != NULL){
 80a2e76:	e7f9      	b.n	80a2e6c <_ZN5Fuzzy7fuzzifyEv+0x22>
        fuzzyInputAux = fuzzyInputAux->next;
    }

    // Avaliando quais regras foram disparadas
    fuzzyRuleArray* fuzzyRuleAux;
    fuzzyRuleAux = this->fuzzyRules;
 80a2e78:	6965      	ldr	r5, [r4, #20]
    // Calculando as pertinncias de totos os FuzzyInputs
    while(fuzzyRuleAux != NULL){
 80a2e7a:	b125      	cbz	r5, 80a2e86 <_ZN5Fuzzy7fuzzifyEv+0x3c>
        fuzzyRuleAux->fuzzyRule->evaluateExpression();
 80a2e7c:	6828      	ldr	r0, [r5, #0]
 80a2e7e:	f7ff fa12 	bl	80a22a6 <_ZN9FuzzyRule18evaluateExpressionEv>
        fuzzyRuleAux = fuzzyRuleAux->next;
 80a2e82:	686d      	ldr	r5, [r5, #4]

    // Avaliando quais regras foram disparadas
    fuzzyRuleArray* fuzzyRuleAux;
    fuzzyRuleAux = this->fuzzyRules;
    // Calculando as pertinncias de totos os FuzzyInputs
    while(fuzzyRuleAux != NULL){
 80a2e84:	e7f9      	b.n	80a2e7a <_ZN5Fuzzy7fuzzifyEv+0x30>
        fuzzyRuleAux->fuzzyRule->evaluateExpression();
        fuzzyRuleAux = fuzzyRuleAux->next;
    }

    // Truncado os conjuntos de sada
    fuzzyOutputAux = this->fuzzyOutputs;
 80a2e86:	68e4      	ldr	r4, [r4, #12]
    while(fuzzyOutputAux != NULL){
 80a2e88:	b124      	cbz	r4, 80a2e94 <_ZN5Fuzzy7fuzzifyEv+0x4a>
        fuzzyOutputAux->fuzzyOutput->truncate();
 80a2e8a:	6820      	ldr	r0, [r4, #0]
 80a2e8c:	f7ff fd50 	bl	80a2930 <_ZN11FuzzyOutput8truncateEv>
        fuzzyOutputAux = fuzzyOutputAux->next;
 80a2e90:	6864      	ldr	r4, [r4, #4]
        fuzzyRuleAux = fuzzyRuleAux->next;
    }

    // Truncado os conjuntos de sada
    fuzzyOutputAux = this->fuzzyOutputs;
    while(fuzzyOutputAux != NULL){
 80a2e92:	e7f9      	b.n	80a2e88 <_ZN5Fuzzy7fuzzifyEv+0x3e>
        fuzzyOutputAux->fuzzyOutput->truncate();
        fuzzyOutputAux = fuzzyOutputAux->next;
    }

    return true;
}
 80a2e94:	2001      	movs	r0, #1
 80a2e96:	bd38      	pop	{r3, r4, r5, pc}

080a2e98 <_ZN5Fuzzy9defuzzifyEi>:
        aux = aux->next;
    }
    return false;
}

float Fuzzy::defuzzify(int fuzzyOutputIndex){
 80a2e98:	b538      	push	{r3, r4, r5, lr}
 80a2e9a:	460d      	mov	r5, r1
    fuzzyOutputArray *aux;
    aux = this->fuzzyOutputs;
 80a2e9c:	68c4      	ldr	r4, [r0, #12]
    while(aux != NULL){
 80a2e9e:	b15c      	cbz	r4, 80a2eb8 <_ZN5Fuzzy9defuzzifyEi+0x20>
        if(aux->fuzzyOutput->getIndex() == fuzzyOutputIndex){
 80a2ea0:	6820      	ldr	r0, [r4, #0]
 80a2ea2:	f7ff fc48 	bl	80a2736 <_ZN7FuzzyIO8getIndexEv>
 80a2ea6:	42a8      	cmp	r0, r5
 80a2ea8:	d104      	bne.n	80a2eb4 <_ZN5Fuzzy9defuzzifyEi+0x1c>
            return aux->fuzzyOutput->getCrispOutput();
 80a2eaa:	6820      	ldr	r0, [r4, #0]
        }
        aux = aux->next;
    }
    return 0;
}
 80a2eac:	e8bd 4038 	ldmia.w	sp!, {r3, r4, r5, lr}
float Fuzzy::defuzzify(int fuzzyOutputIndex){
    fuzzyOutputArray *aux;
    aux = this->fuzzyOutputs;
    while(aux != NULL){
        if(aux->fuzzyOutput->getIndex() == fuzzyOutputIndex){
            return aux->fuzzyOutput->getCrispOutput();
 80a2eb0:	f7ff bc6b 	b.w	80a278a <_ZN11FuzzyOutput14getCrispOutputEv>
        }
        aux = aux->next;
 80a2eb4:	6864      	ldr	r4, [r4, #4]
}

float Fuzzy::defuzzify(int fuzzyOutputIndex){
    fuzzyOutputArray *aux;
    aux = this->fuzzyOutputs;
    while(aux != NULL){
 80a2eb6:	e7f2      	b.n	80a2e9e <_ZN5Fuzzy9defuzzifyEi+0x6>
            return aux->fuzzyOutput->getCrispOutput();
        }
        aux = aux->next;
    }
    return 0;
}
 80a2eb8:	2000      	movs	r0, #0
 80a2eba:	bd38      	pop	{r3, r4, r5, pc}

080a2ebc <_ZN19FuzzyRuleAntecedentC1Ev>:
 */
#include "FuzzyRuleAntecedent.h"

// CONSTRUTORES
FuzzyRuleAntecedent::FuzzyRuleAntecedent(){
    this->op = 0;
 80a2ebc:	2200      	movs	r2, #0
 80a2ebe:	6002      	str	r2, [r0, #0]
    this->mode = 0;
 80a2ec0:	6042      	str	r2, [r0, #4]
    this->fuzzySet1 = NULL;
 80a2ec2:	6082      	str	r2, [r0, #8]
    this->fuzzySet2 = NULL;
 80a2ec4:	60c2      	str	r2, [r0, #12]
    this->fuzzyRuleAntecedent1 = NULL;
 80a2ec6:	6102      	str	r2, [r0, #16]
    this->fuzzyRuleAntecedent2 = NULL;
 80a2ec8:	6142      	str	r2, [r0, #20]
}
 80a2eca:	4770      	bx	lr

080a2ecc <_ZN19FuzzyRuleAntecedent11joinWithANDEP8FuzzySetS1_>:
        return true;
    }
    return false;
}

bool FuzzyRuleAntecedent::joinWithAND(FuzzySet* fuzzySet1, FuzzySet* fuzzySet2){
 80a2ecc:	b510      	push	{r4, lr}
 80a2ece:	4603      	mov	r3, r0
    if(fuzzySet1 != NULL && fuzzySet2 != NULL){
 80a2ed0:	b139      	cbz	r1, 80a2ee2 <_ZN19FuzzyRuleAntecedent11joinWithANDEP8FuzzySetS1_+0x16>
 80a2ed2:	b142      	cbz	r2, 80a2ee6 <_ZN19FuzzyRuleAntecedent11joinWithANDEP8FuzzySetS1_+0x1a>
        this->op = OP_AND;
        this->mode = MODE_FS_FS;
 80a2ed4:	2001      	movs	r0, #1
 80a2ed6:	2402      	movs	r4, #2
 80a2ed8:	e883 0011 	stmia.w	r3, {r0, r4}
        this->fuzzySet1 = fuzzySet1;
 80a2edc:	6099      	str	r1, [r3, #8]
        this->fuzzySet2 = fuzzySet2;
 80a2ede:	60da      	str	r2, [r3, #12]
        return true;
 80a2ee0:	bd10      	pop	{r4, pc}
    }
    return false;
 80a2ee2:	4608      	mov	r0, r1
 80a2ee4:	bd10      	pop	{r4, pc}
 80a2ee6:	4610      	mov	r0, r2
}
 80a2ee8:	bd10      	pop	{r4, pc}

080a2eea <_ZN19FuzzyRuleAntecedent11joinWithANDEPS_S0_>:
        return true;
    }
    return false;
}

bool FuzzyRuleAntecedent::joinWithAND(FuzzyRuleAntecedent* fuzzyRuleAntecedent1, FuzzyRuleAntecedent* fuzzyRuleAntecedent2){
 80a2eea:	b510      	push	{r4, lr}
 80a2eec:	4603      	mov	r3, r0
    if(fuzzyRuleAntecedent1 != NULL && fuzzyRuleAntecedent2 != NULL){
 80a2eee:	b139      	cbz	r1, 80a2f00 <_ZN19FuzzyRuleAntecedent11joinWithANDEPS_S0_+0x16>
 80a2ef0:	b142      	cbz	r2, 80a2f04 <_ZN19FuzzyRuleAntecedent11joinWithANDEPS_S0_+0x1a>
        this->op = OP_AND;
        this->mode = MODE_FRA_FRA;
 80a2ef2:	2001      	movs	r0, #1
 80a2ef4:	2404      	movs	r4, #4
 80a2ef6:	e883 0011 	stmia.w	r3, {r0, r4}
        this->fuzzyRuleAntecedent1 = fuzzyRuleAntecedent1;
 80a2efa:	6119      	str	r1, [r3, #16]
        this->fuzzyRuleAntecedent2 = fuzzyRuleAntecedent2;
 80a2efc:	615a      	str	r2, [r3, #20]
        return true;
 80a2efe:	bd10      	pop	{r4, pc}
    }
    return false;
 80a2f00:	4608      	mov	r0, r1
 80a2f02:	bd10      	pop	{r4, pc}
 80a2f04:	4610      	mov	r0, r2
}
 80a2f06:	bd10      	pop	{r4, pc}

080a2f08 <_ZN19FuzzyRuleAntecedent8evaluateEv>:
        return true;
    }
    return false;
}

float FuzzyRuleAntecedent::evaluate(){
 80a2f08:	b538      	push	{r3, r4, r5, lr}
 80a2f0a:	4604      	mov	r4, r0
    switch(this->mode){
 80a2f0c:	6863      	ldr	r3, [r4, #4]
 80a2f0e:	3b01      	subs	r3, #1
 80a2f10:	2b03      	cmp	r3, #3
 80a2f12:	f200 80ce 	bhi.w	80a30b2 <_ZN19FuzzyRuleAntecedent8evaluateEv+0x1aa>
 80a2f16:	e8df f003 	tbb	[pc, r3]
 80a2f1a:	0276      	.short	0x0276
 80a2f1c:	7b37      	.short	0x7b37
        case MODE_FS:
            return this->fuzzySet1->getPertinence();
            break;
        case MODE_FS_FS:
            switch(this->op){
 80a2f1e:	6823      	ldr	r3, [r4, #0]
 80a2f20:	2b01      	cmp	r3, #1
 80a2f22:	d002      	beq.n	80a2f2a <_ZN19FuzzyRuleAntecedent8evaluateEv+0x22>
 80a2f24:	2b02      	cmp	r3, #2
 80a2f26:	d01e      	beq.n	80a2f66 <_ZN19FuzzyRuleAntecedent8evaluateEv+0x5e>
 80a2f28:	e0c3      	b.n	80a30b2 <_ZN19FuzzyRuleAntecedent8evaluateEv+0x1aa>
                case OP_AND:
                    if(this->fuzzySet1->getPertinence() > 0.0 && this->fuzzySet2->getPertinence() > 0.0){
 80a2f2a:	68a0      	ldr	r0, [r4, #8]
 80a2f2c:	f7ff ff0b 	bl	80a2d46 <_ZN8FuzzySet13getPertinenceEv>
 80a2f30:	2100      	movs	r1, #0
 80a2f32:	f002 fbcf 	bl	80a56d4 <__aeabi_fcmpgt>
 80a2f36:	2800      	cmp	r0, #0
 80a2f38:	f000 80bb 	beq.w	80a30b2 <_ZN19FuzzyRuleAntecedent8evaluateEv+0x1aa>
 80a2f3c:	68e0      	ldr	r0, [r4, #12]
 80a2f3e:	f7ff ff02 	bl	80a2d46 <_ZN8FuzzySet13getPertinenceEv>
 80a2f42:	2100      	movs	r1, #0
 80a2f44:	f002 fbc6 	bl	80a56d4 <__aeabi_fcmpgt>
 80a2f48:	2800      	cmp	r0, #0
 80a2f4a:	f000 80b2 	beq.w	80a30b2 <_ZN19FuzzyRuleAntecedent8evaluateEv+0x1aa>
                        if(this->fuzzySet1->getPertinence() < this->fuzzySet2->getPertinence()){
 80a2f4e:	68a0      	ldr	r0, [r4, #8]
 80a2f50:	f7ff fef9 	bl	80a2d46 <_ZN8FuzzySet13getPertinenceEv>
 80a2f54:	4605      	mov	r5, r0
 80a2f56:	68e0      	ldr	r0, [r4, #12]
 80a2f58:	f7ff fef5 	bl	80a2d46 <_ZN8FuzzySet13getPertinenceEv>
 80a2f5c:	4601      	mov	r1, r0
 80a2f5e:	4628      	mov	r0, r5
 80a2f60:	f002 fb9a 	bl	80a5698 <__aeabi_fcmplt>
 80a2f64:	e090      	b.n	80a3088 <_ZN19FuzzyRuleAntecedent8evaluateEv+0x180>
                    }else{
                        return 0.0;
                    }
                    break;
                case OP_OR:
                    if(this->fuzzySet1->getPertinence() > 0.0 || this->fuzzySet2->getPertinence() > 0.0){
 80a2f66:	68a0      	ldr	r0, [r4, #8]
 80a2f68:	f7ff feed 	bl	80a2d46 <_ZN8FuzzySet13getPertinenceEv>
 80a2f6c:	2100      	movs	r1, #0
 80a2f6e:	f002 fbb1 	bl	80a56d4 <__aeabi_fcmpgt>
 80a2f72:	2800      	cmp	r0, #0
 80a2f74:	d17d      	bne.n	80a3072 <_ZN19FuzzyRuleAntecedent8evaluateEv+0x16a>
 80a2f76:	68e0      	ldr	r0, [r4, #12]
 80a2f78:	f7ff fee5 	bl	80a2d46 <_ZN8FuzzySet13getPertinenceEv>
 80a2f7c:	2100      	movs	r1, #0
 80a2f7e:	f002 fba9 	bl	80a56d4 <__aeabi_fcmpgt>
 80a2f82:	2800      	cmp	r0, #0
 80a2f84:	d175      	bne.n	80a3072 <_ZN19FuzzyRuleAntecedent8evaluateEv+0x16a>
 80a2f86:	e094      	b.n	80a30b2 <_ZN19FuzzyRuleAntecedent8evaluateEv+0x1aa>
                default:
                    return 0.0;
            }
            break;
        case MODE_FS_FRA:
            switch(this->op){
 80a2f88:	6823      	ldr	r3, [r4, #0]
 80a2f8a:	2b01      	cmp	r3, #1
 80a2f8c:	d002      	beq.n	80a2f94 <_ZN19FuzzyRuleAntecedent8evaluateEv+0x8c>
 80a2f8e:	2b02      	cmp	r3, #2
 80a2f90:	d01d      	beq.n	80a2fce <_ZN19FuzzyRuleAntecedent8evaluateEv+0xc6>
 80a2f92:	e08e      	b.n	80a30b2 <_ZN19FuzzyRuleAntecedent8evaluateEv+0x1aa>
                case OP_AND:
                    if(this->fuzzySet1->getPertinence() > 0.0 && fuzzyRuleAntecedent1->evaluate() > 0.0){
 80a2f94:	68a0      	ldr	r0, [r4, #8]
 80a2f96:	f7ff fed6 	bl	80a2d46 <_ZN8FuzzySet13getPertinenceEv>
 80a2f9a:	2100      	movs	r1, #0
 80a2f9c:	f002 fb9a 	bl	80a56d4 <__aeabi_fcmpgt>
 80a2fa0:	2800      	cmp	r0, #0
 80a2fa2:	f000 8086 	beq.w	80a30b2 <_ZN19FuzzyRuleAntecedent8evaluateEv+0x1aa>
 80a2fa6:	6920      	ldr	r0, [r4, #16]
 80a2fa8:	f7ff ffae 	bl	80a2f08 <_ZN19FuzzyRuleAntecedent8evaluateEv>
 80a2fac:	2100      	movs	r1, #0
 80a2fae:	f002 fb91 	bl	80a56d4 <__aeabi_fcmpgt>
 80a2fb2:	2800      	cmp	r0, #0
 80a2fb4:	d07d      	beq.n	80a30b2 <_ZN19FuzzyRuleAntecedent8evaluateEv+0x1aa>
                        if(this->fuzzySet1->getPertinence() < fuzzyRuleAntecedent1->evaluate()){
 80a2fb6:	68a0      	ldr	r0, [r4, #8]
 80a2fb8:	f7ff fec5 	bl	80a2d46 <_ZN8FuzzySet13getPertinenceEv>
 80a2fbc:	4605      	mov	r5, r0
 80a2fbe:	6920      	ldr	r0, [r4, #16]
 80a2fc0:	f7ff ffa2 	bl	80a2f08 <_ZN19FuzzyRuleAntecedent8evaluateEv>
 80a2fc4:	4601      	mov	r1, r0
 80a2fc6:	4628      	mov	r0, r5
 80a2fc8:	f002 fb66 	bl	80a5698 <__aeabi_fcmplt>
 80a2fcc:	e019      	b.n	80a3002 <_ZN19FuzzyRuleAntecedent8evaluateEv+0xfa>
                    }else{
                        return 0.0;
                    }
                    break;
                case OP_OR:
                    if(this->fuzzySet1->getPertinence() > 0.0 || fuzzyRuleAntecedent1->evaluate() > 0.0){
 80a2fce:	68a0      	ldr	r0, [r4, #8]
 80a2fd0:	f7ff feb9 	bl	80a2d46 <_ZN8FuzzySet13getPertinenceEv>
 80a2fd4:	2100      	movs	r1, #0
 80a2fd6:	f002 fb7d 	bl	80a56d4 <__aeabi_fcmpgt>
 80a2fda:	b938      	cbnz	r0, 80a2fec <_ZN19FuzzyRuleAntecedent8evaluateEv+0xe4>
 80a2fdc:	6920      	ldr	r0, [r4, #16]
 80a2fde:	f7ff ff93 	bl	80a2f08 <_ZN19FuzzyRuleAntecedent8evaluateEv>
 80a2fe2:	2100      	movs	r1, #0
 80a2fe4:	f002 fb76 	bl	80a56d4 <__aeabi_fcmpgt>
 80a2fe8:	2800      	cmp	r0, #0
 80a2fea:	d062      	beq.n	80a30b2 <_ZN19FuzzyRuleAntecedent8evaluateEv+0x1aa>
                        if(this->fuzzySet1->getPertinence() > fuzzyRuleAntecedent1->evaluate()){
 80a2fec:	68a0      	ldr	r0, [r4, #8]
 80a2fee:	f7ff feaa 	bl	80a2d46 <_ZN8FuzzySet13getPertinenceEv>
 80a2ff2:	4605      	mov	r5, r0
 80a2ff4:	6920      	ldr	r0, [r4, #16]
 80a2ff6:	f7ff ff87 	bl	80a2f08 <_ZN19FuzzyRuleAntecedent8evaluateEv>
 80a2ffa:	4601      	mov	r1, r0
 80a2ffc:	4628      	mov	r0, r5
 80a2ffe:	f002 fb69 	bl	80a56d4 <__aeabi_fcmpgt>
 80a3002:	2800      	cmp	r0, #0
 80a3004:	d044      	beq.n	80a3090 <_ZN19FuzzyRuleAntecedent8evaluateEv+0x188>
                            return this->fuzzySet1->getPertinence();
 80a3006:	68a0      	ldr	r0, [r4, #8]
            break;
        default:
            return 0.0;
    }
    return 0.0;
 80a3008:	e8bd 4038 	ldmia.w	sp!, {r3, r4, r5, lr}
                    }
                    break;
                case OP_OR:
                    if(this->fuzzySet1->getPertinence() > 0.0 || fuzzyRuleAntecedent1->evaluate() > 0.0){
                        if(this->fuzzySet1->getPertinence() > fuzzyRuleAntecedent1->evaluate()){
                            return this->fuzzySet1->getPertinence();
 80a300c:	f7ff be9b 	b.w	80a2d46 <_ZN8FuzzySet13getPertinenceEv>
                default:
                    return 0.0;
            }
            break;
        case MODE_FRA_FRA:
            switch(this->op){
 80a3010:	6823      	ldr	r3, [r4, #0]
 80a3012:	2b01      	cmp	r3, #1
 80a3014:	d002      	beq.n	80a301c <_ZN19FuzzyRuleAntecedent8evaluateEv+0x114>
 80a3016:	2b02      	cmp	r3, #2
 80a3018:	d01c      	beq.n	80a3054 <_ZN19FuzzyRuleAntecedent8evaluateEv+0x14c>
 80a301a:	e04a      	b.n	80a30b2 <_ZN19FuzzyRuleAntecedent8evaluateEv+0x1aa>
                case OP_AND:
                    if(fuzzyRuleAntecedent1->evaluate() > 0.0 && fuzzyRuleAntecedent2->evaluate() > 0.0){
 80a301c:	6920      	ldr	r0, [r4, #16]
 80a301e:	f7ff ff73 	bl	80a2f08 <_ZN19FuzzyRuleAntecedent8evaluateEv>
 80a3022:	2100      	movs	r1, #0
 80a3024:	f002 fb56 	bl	80a56d4 <__aeabi_fcmpgt>
 80a3028:	2800      	cmp	r0, #0
 80a302a:	d042      	beq.n	80a30b2 <_ZN19FuzzyRuleAntecedent8evaluateEv+0x1aa>
 80a302c:	6960      	ldr	r0, [r4, #20]
 80a302e:	f7ff ff6b 	bl	80a2f08 <_ZN19FuzzyRuleAntecedent8evaluateEv>
 80a3032:	2100      	movs	r1, #0
 80a3034:	f002 fb4e 	bl	80a56d4 <__aeabi_fcmpgt>
 80a3038:	2800      	cmp	r0, #0
 80a303a:	d03a      	beq.n	80a30b2 <_ZN19FuzzyRuleAntecedent8evaluateEv+0x1aa>
                        if(fuzzyRuleAntecedent1->evaluate() < fuzzyRuleAntecedent2->evaluate()){
 80a303c:	6920      	ldr	r0, [r4, #16]
 80a303e:	f7ff ff63 	bl	80a2f08 <_ZN19FuzzyRuleAntecedent8evaluateEv>
 80a3042:	4605      	mov	r5, r0
 80a3044:	6960      	ldr	r0, [r4, #20]
 80a3046:	f7ff ff5f 	bl	80a2f08 <_ZN19FuzzyRuleAntecedent8evaluateEv>
 80a304a:	4601      	mov	r1, r0
 80a304c:	4628      	mov	r0, r5
 80a304e:	f002 fb23 	bl	80a5698 <__aeabi_fcmplt>
 80a3052:	e02a      	b.n	80a30aa <_ZN19FuzzyRuleAntecedent8evaluateEv+0x1a2>
                    }else{
                        return 0.0;
                    }
                    break;
                case OP_OR:
                    if(fuzzyRuleAntecedent1->evaluate() > 0.0 || fuzzyRuleAntecedent2->evaluate() > 0.0){
 80a3054:	6920      	ldr	r0, [r4, #16]
 80a3056:	f7ff ff57 	bl	80a2f08 <_ZN19FuzzyRuleAntecedent8evaluateEv>
 80a305a:	2100      	movs	r1, #0
 80a305c:	f002 fb3a 	bl	80a56d4 <__aeabi_fcmpgt>
 80a3060:	b9c0      	cbnz	r0, 80a3094 <_ZN19FuzzyRuleAntecedent8evaluateEv+0x18c>
 80a3062:	6960      	ldr	r0, [r4, #20]
 80a3064:	f7ff ff50 	bl	80a2f08 <_ZN19FuzzyRuleAntecedent8evaluateEv>
 80a3068:	2100      	movs	r1, #0
 80a306a:	f002 fb33 	bl	80a56d4 <__aeabi_fcmpgt>
 80a306e:	b988      	cbnz	r0, 80a3094 <_ZN19FuzzyRuleAntecedent8evaluateEv+0x18c>
 80a3070:	e01f      	b.n	80a30b2 <_ZN19FuzzyRuleAntecedent8evaluateEv+0x1aa>
                        return 0.0;
                    }
                    break;
                case OP_OR:
                    if(this->fuzzySet1->getPertinence() > 0.0 || this->fuzzySet2->getPertinence() > 0.0){
                        if(this->fuzzySet1->getPertinence() > this->fuzzySet2->getPertinence()){
 80a3072:	68a0      	ldr	r0, [r4, #8]
 80a3074:	f7ff fe67 	bl	80a2d46 <_ZN8FuzzySet13getPertinenceEv>
 80a3078:	4605      	mov	r5, r0
 80a307a:	68e0      	ldr	r0, [r4, #12]
 80a307c:	f7ff fe63 	bl	80a2d46 <_ZN8FuzzySet13getPertinenceEv>
 80a3080:	4601      	mov	r1, r0
 80a3082:	4628      	mov	r0, r5
 80a3084:	f002 fb26 	bl	80a56d4 <__aeabi_fcmpgt>
 80a3088:	2800      	cmp	r0, #0
 80a308a:	d1bc      	bne.n	80a3006 <_ZN19FuzzyRuleAntecedent8evaluateEv+0xfe>
                            return this->fuzzySet1->getPertinence();
                        }else{
                            return this->fuzzySet2->getPertinence();
 80a308c:	68e0      	ldr	r0, [r4, #12]
 80a308e:	e7bb      	b.n	80a3008 <_ZN19FuzzyRuleAntecedent8evaluateEv+0x100>
                    }
                    break;
                case OP_OR:
                    if(fuzzyRuleAntecedent1->evaluate() > 0.0 || fuzzyRuleAntecedent2->evaluate() > 0.0){
                        if(fuzzyRuleAntecedent1->evaluate() > fuzzyRuleAntecedent2->evaluate()){
                            return fuzzyRuleAntecedent1->evaluate();
 80a3090:	6924      	ldr	r4, [r4, #16]
 80a3092:	e73b      	b.n	80a2f0c <_ZN19FuzzyRuleAntecedent8evaluateEv+0x4>
                        return 0.0;
                    }
                    break;
                case OP_OR:
                    if(fuzzyRuleAntecedent1->evaluate() > 0.0 || fuzzyRuleAntecedent2->evaluate() > 0.0){
                        if(fuzzyRuleAntecedent1->evaluate() > fuzzyRuleAntecedent2->evaluate()){
 80a3094:	6920      	ldr	r0, [r4, #16]
 80a3096:	f7ff ff37 	bl	80a2f08 <_ZN19FuzzyRuleAntecedent8evaluateEv>
 80a309a:	4605      	mov	r5, r0
 80a309c:	6960      	ldr	r0, [r4, #20]
 80a309e:	f7ff ff33 	bl	80a2f08 <_ZN19FuzzyRuleAntecedent8evaluateEv>
 80a30a2:	4601      	mov	r1, r0
 80a30a4:	4628      	mov	r0, r5
 80a30a6:	f002 fb15 	bl	80a56d4 <__aeabi_fcmpgt>
 80a30aa:	2800      	cmp	r0, #0
 80a30ac:	d1f0      	bne.n	80a3090 <_ZN19FuzzyRuleAntecedent8evaluateEv+0x188>
                            return fuzzyRuleAntecedent1->evaluate();
                        }else{
                            return fuzzyRuleAntecedent2->evaluate();
 80a30ae:	6964      	ldr	r4, [r4, #20]
 80a30b0:	e72c      	b.n	80a2f0c <_ZN19FuzzyRuleAntecedent8evaluateEv+0x4>
            break;
        default:
            return 0.0;
    }
    return 0.0;
 80a30b2:	2000      	movs	r0, #0
 80a30b4:	bd38      	pop	{r3, r4, r5, pc}
	...

080a30b8 <HAL_Pin_Map>:
// New HAL functions must be added to the end of this list.
// GNINRAW

DYNALIB_BEGIN(hal_gpio)

DYNALIB_FN(0, hal_gpio, HAL_Pin_Map, STM32_Pin_Info*(void))
 80a30b8:	b508      	push	{r3, lr}
 80a30ba:	4b02      	ldr	r3, [pc, #8]	; (80a30c4 <HAL_Pin_Map+0xc>)
 80a30bc:	681b      	ldr	r3, [r3, #0]
 80a30be:	681b      	ldr	r3, [r3, #0]
 80a30c0:	9301      	str	r3, [sp, #4]
 80a30c2:	bd08      	pop	{r3, pc}
 80a30c4:	080601b0 	.word	0x080601b0

080a30c8 <HAL_Validate_Pin_Function>:
DYNALIB_FN(1, hal_gpio, HAL_Validate_Pin_Function, PinFunction(pin_t, PinFunction))
 80a30c8:	b508      	push	{r3, lr}
 80a30ca:	4b02      	ldr	r3, [pc, #8]	; (80a30d4 <HAL_Validate_Pin_Function+0xc>)
 80a30cc:	681b      	ldr	r3, [r3, #0]
 80a30ce:	685b      	ldr	r3, [r3, #4]
 80a30d0:	9301      	str	r3, [sp, #4]
 80a30d2:	bd08      	pop	{r3, pc}
 80a30d4:	080601b0 	.word	0x080601b0

080a30d8 <HAL_Pin_Mode>:
DYNALIB_FN(2, hal_gpio, HAL_Pin_Mode, void(pin_t, PinMode))
 80a30d8:	b508      	push	{r3, lr}
 80a30da:	4b02      	ldr	r3, [pc, #8]	; (80a30e4 <HAL_Pin_Mode+0xc>)
 80a30dc:	681b      	ldr	r3, [r3, #0]
 80a30de:	689b      	ldr	r3, [r3, #8]
 80a30e0:	9301      	str	r3, [sp, #4]
 80a30e2:	bd08      	pop	{r3, pc}
 80a30e4:	080601b0 	.word	0x080601b0

080a30e8 <HAL_Get_Pin_Mode>:
DYNALIB_FN(3, hal_gpio, HAL_Get_Pin_Mode, PinMode(pin_t))
 80a30e8:	b508      	push	{r3, lr}
 80a30ea:	4b02      	ldr	r3, [pc, #8]	; (80a30f4 <HAL_Get_Pin_Mode+0xc>)
 80a30ec:	681b      	ldr	r3, [r3, #0]
 80a30ee:	68db      	ldr	r3, [r3, #12]
 80a30f0:	9301      	str	r3, [sp, #4]
 80a30f2:	bd08      	pop	{r3, pc}
 80a30f4:	080601b0 	.word	0x080601b0

080a30f8 <HAL_GPIO_Write>:
DYNALIB_FN(4, hal_gpio, HAL_GPIO_Write, void(pin_t, uint8_t))
 80a30f8:	b508      	push	{r3, lr}
 80a30fa:	4b02      	ldr	r3, [pc, #8]	; (80a3104 <HAL_GPIO_Write+0xc>)
 80a30fc:	681b      	ldr	r3, [r3, #0]
 80a30fe:	691b      	ldr	r3, [r3, #16]
 80a3100:	9301      	str	r3, [sp, #4]
 80a3102:	bd08      	pop	{r3, pc}
 80a3104:	080601b0 	.word	0x080601b0

080a3108 <HAL_GPIO_Read>:
DYNALIB_FN(5, hal_gpio, HAL_GPIO_Read, int32_t(pin_t))
 80a3108:	b508      	push	{r3, lr}
 80a310a:	4b02      	ldr	r3, [pc, #8]	; (80a3114 <HAL_GPIO_Read+0xc>)
 80a310c:	681b      	ldr	r3, [r3, #0]
 80a310e:	695b      	ldr	r3, [r3, #20]
 80a3110:	9301      	str	r3, [sp, #4]
 80a3112:	bd08      	pop	{r3, pc}
 80a3114:	080601b0 	.word	0x080601b0

080a3118 <HAL_Interrupts_Attach>:
DYNALIB_FN(6, hal_gpio, HAL_Interrupts_Attach, void(uint16_t, HAL_InterruptHandler, void*, InterruptMode, HAL_InterruptExtraConfiguration*))
 80a3118:	b508      	push	{r3, lr}
 80a311a:	4b02      	ldr	r3, [pc, #8]	; (80a3124 <HAL_Interrupts_Attach+0xc>)
 80a311c:	681b      	ldr	r3, [r3, #0]
 80a311e:	699b      	ldr	r3, [r3, #24]
 80a3120:	9301      	str	r3, [sp, #4]
 80a3122:	bd08      	pop	{r3, pc}
 80a3124:	080601b0 	.word	0x080601b0

080a3128 <HAL_Interrupts_Detach>:
DYNALIB_FN(7, hal_gpio, HAL_Interrupts_Detach, void(uint16_t))
 80a3128:	b508      	push	{r3, lr}
 80a312a:	4b02      	ldr	r3, [pc, #8]	; (80a3134 <HAL_Interrupts_Detach+0xc>)
 80a312c:	681b      	ldr	r3, [r3, #0]
 80a312e:	69db      	ldr	r3, [r3, #28]
 80a3130:	9301      	str	r3, [sp, #4]
 80a3132:	bd08      	pop	{r3, pc}
 80a3134:	080601b0 	.word	0x080601b0

080a3138 <HAL_SPI_Init>:
DYNALIB_FN(2, hal_spi, HAL_SPI_Set_Bit_Order, void(HAL_SPI_Interface, uint8_t))
DYNALIB_FN(3, hal_spi, HAL_SPI_Set_Data_Mode, void(HAL_SPI_Interface, uint8_t))
DYNALIB_FN(4, hal_spi, HAL_SPI_Set_Clock_Divider, void(HAL_SPI_Interface, uint8_t))
DYNALIB_FN(5, hal_spi, HAL_SPI_Send_Receive_Data, uint16_t(HAL_SPI_Interface, uint16_t))
DYNALIB_FN(6, hal_spi, HAL_SPI_Is_Enabled_Old, bool(void))
DYNALIB_FN(7, hal_spi, HAL_SPI_Init, void(HAL_SPI_Interface))
 80a3138:	b508      	push	{r3, lr}
 80a313a:	4b02      	ldr	r3, [pc, #8]	; (80a3144 <HAL_SPI_Init+0xc>)
 80a313c:	681b      	ldr	r3, [r3, #0]
 80a313e:	69db      	ldr	r3, [r3, #28]
 80a3140:	9301      	str	r3, [sp, #4]
 80a3142:	bd08      	pop	{r3, pc}
 80a3144:	080601b4 	.word	0x080601b4

080a3148 <HAL_SPI_Is_Enabled>:
DYNALIB_FN(8, hal_spi, HAL_SPI_Is_Enabled, bool(HAL_SPI_Interface))
 80a3148:	b508      	push	{r3, lr}
 80a314a:	4b02      	ldr	r3, [pc, #8]	; (80a3154 <HAL_SPI_Is_Enabled+0xc>)
 80a314c:	681b      	ldr	r3, [r3, #0]
 80a314e:	6a1b      	ldr	r3, [r3, #32]
 80a3150:	9301      	str	r3, [sp, #4]
 80a3152:	bd08      	pop	{r3, pc}
 80a3154:	080601b4 	.word	0x080601b4

080a3158 <HAL_RNG_GetRandomNumber>:

DYNALIB_BEGIN(hal)

#if PLATFORM_ID > 3
DYNALIB_FN(0, hal, HAL_RNG_Configuration, void(void))
DYNALIB_FN(1, hal, HAL_RNG_GetRandomNumber, uint32_t(void))
 80a3158:	b508      	push	{r3, lr}
 80a315a:	4b02      	ldr	r3, [pc, #8]	; (80a3164 <HAL_RNG_GetRandomNumber+0xc>)
 80a315c:	681b      	ldr	r3, [r3, #0]
 80a315e:	685b      	ldr	r3, [r3, #4]
 80a3160:	9301      	str	r3, [sp, #4]
 80a3162:	bd08      	pop	{r3, pc}
 80a3164:	0806019c 	.word	0x0806019c

080a3168 <HAL_Timer_Get_Milli_Seconds>:
#endif

DYNALIB_FN(BASE_IDX + 0, hal, HAL_Delay_Milliseconds, void(uint32_t))
DYNALIB_FN(BASE_IDX + 1, hal, HAL_Delay_Microseconds, void(uint32_t))
DYNALIB_FN(BASE_IDX + 2, hal, HAL_Timer_Get_Micro_Seconds, system_tick_t(void))
DYNALIB_FN(BASE_IDX + 3, hal, HAL_Timer_Get_Milli_Seconds, system_tick_t(void))
 80a3168:	b508      	push	{r3, lr}
 80a316a:	4b02      	ldr	r3, [pc, #8]	; (80a3174 <HAL_Timer_Get_Milli_Seconds+0xc>)
 80a316c:	681b      	ldr	r3, [r3, #0]
 80a316e:	695b      	ldr	r3, [r3, #20]
 80a3170:	9301      	str	r3, [sp, #4]
 80a3172:	bd08      	pop	{r3, pc}
 80a3174:	0806019c 	.word	0x0806019c

080a3178 <os_mutex_create>:
DYNALIB_FN(8, hal_concurrent, os_timer_create, int(os_timer_t*, unsigned, void(*)(os_timer_t), void*, bool, void*))
DYNALIB_FN(9, hal_concurrent, os_timer_destroy, int(os_timer_t, void*))
DYNALIB_FN(10, hal_concurrent, os_timer_get_id, int(os_timer_t, void**))
DYNALIB_FN(11, hal_concurrent, os_timer_change, int(os_timer_t, os_timer_change_t, bool, unsigned, unsigned, void*))

DYNALIB_FN(12, hal_concurrent, os_mutex_create, int(os_mutex_t*))
 80a3178:	b508      	push	{r3, lr}
 80a317a:	4b02      	ldr	r3, [pc, #8]	; (80a3184 <os_mutex_create+0xc>)
 80a317c:	681b      	ldr	r3, [r3, #0]
 80a317e:	6b1b      	ldr	r3, [r3, #48]	; 0x30
 80a3180:	9301      	str	r3, [sp, #4]
 80a3182:	bd08      	pop	{r3, pc}
 80a3184:	080601d0 	.word	0x080601d0

080a3188 <HAL_USART_Init>:
#define BASE_IDX 6 // Base index for all subsequent functions
#else
#define BASE_IDX 0
#endif

DYNALIB_FN(BASE_IDX + 0, hal_usart, HAL_USART_Init, void(HAL_USART_Serial, Ring_Buffer*, Ring_Buffer*))
 80a3188:	b508      	push	{r3, lr}
 80a318a:	4b02      	ldr	r3, [pc, #8]	; (80a3194 <HAL_USART_Init+0xc>)
 80a318c:	681b      	ldr	r3, [r3, #0]
 80a318e:	699b      	ldr	r3, [r3, #24]
 80a3190:	9301      	str	r3, [sp, #4]
 80a3192:	bd08      	pop	{r3, pc}
 80a3194:	080601c4 	.word	0x080601c4

080a3198 <HAL_USART_Write_Data>:
DYNALIB_FN(BASE_IDX + 1, hal_usart, HAL_USART_Begin, void(HAL_USART_Serial, uint32_t))
DYNALIB_FN(BASE_IDX + 2, hal_usart, HAL_USART_End, void(HAL_USART_Serial))
DYNALIB_FN(BASE_IDX + 3, hal_usart, HAL_USART_Write_Data, uint32_t(HAL_USART_Serial, uint8_t))
 80a3198:	b508      	push	{r3, lr}
 80a319a:	4b02      	ldr	r3, [pc, #8]	; (80a31a4 <HAL_USART_Write_Data+0xc>)
 80a319c:	681b      	ldr	r3, [r3, #0]
 80a319e:	6a5b      	ldr	r3, [r3, #36]	; 0x24
 80a31a0:	9301      	str	r3, [sp, #4]
 80a31a2:	bd08      	pop	{r3, pc}
 80a31a4:	080601c4 	.word	0x080601c4

080a31a8 <HAL_USART_Available_Data>:
DYNALIB_FN(BASE_IDX + 4, hal_usart, HAL_USART_Available_Data, int32_t(HAL_USART_Serial))
 80a31a8:	b508      	push	{r3, lr}
 80a31aa:	4b02      	ldr	r3, [pc, #8]	; (80a31b4 <HAL_USART_Available_Data+0xc>)
 80a31ac:	681b      	ldr	r3, [r3, #0]
 80a31ae:	6a9b      	ldr	r3, [r3, #40]	; 0x28
 80a31b0:	9301      	str	r3, [sp, #4]
 80a31b2:	bd08      	pop	{r3, pc}
 80a31b4:	080601c4 	.word	0x080601c4

080a31b8 <HAL_USART_Read_Data>:
DYNALIB_FN(BASE_IDX + 5, hal_usart, HAL_USART_Read_Data, int32_t(HAL_USART_Serial))
 80a31b8:	b508      	push	{r3, lr}
 80a31ba:	4b02      	ldr	r3, [pc, #8]	; (80a31c4 <HAL_USART_Read_Data+0xc>)
 80a31bc:	681b      	ldr	r3, [r3, #0]
 80a31be:	6adb      	ldr	r3, [r3, #44]	; 0x2c
 80a31c0:	9301      	str	r3, [sp, #4]
 80a31c2:	bd08      	pop	{r3, pc}
 80a31c4:	080601c4 	.word	0x080601c4

080a31c8 <HAL_USART_Peek_Data>:
DYNALIB_FN(BASE_IDX + 6, hal_usart, HAL_USART_Peek_Data, int32_t(HAL_USART_Serial))
 80a31c8:	b508      	push	{r3, lr}
 80a31ca:	4b02      	ldr	r3, [pc, #8]	; (80a31d4 <HAL_USART_Peek_Data+0xc>)
 80a31cc:	681b      	ldr	r3, [r3, #0]
 80a31ce:	6b1b      	ldr	r3, [r3, #48]	; 0x30
 80a31d0:	9301      	str	r3, [sp, #4]
 80a31d2:	bd08      	pop	{r3, pc}
 80a31d4:	080601c4 	.word	0x080601c4

080a31d8 <HAL_USART_Flush_Data>:
DYNALIB_FN(BASE_IDX + 7, hal_usart, HAL_USART_Flush_Data, void(HAL_USART_Serial))
 80a31d8:	b508      	push	{r3, lr}
 80a31da:	4b02      	ldr	r3, [pc, #8]	; (80a31e4 <HAL_USART_Flush_Data+0xc>)
 80a31dc:	681b      	ldr	r3, [r3, #0]
 80a31de:	6b5b      	ldr	r3, [r3, #52]	; 0x34
 80a31e0:	9301      	str	r3, [sp, #4]
 80a31e2:	bd08      	pop	{r3, pc}
 80a31e4:	080601c4 	.word	0x080601c4

080a31e8 <HAL_USART_Is_Enabled>:
DYNALIB_FN(BASE_IDX + 8, hal_usart, HAL_USART_Is_Enabled, bool(HAL_USART_Serial))
 80a31e8:	b508      	push	{r3, lr}
 80a31ea:	4b02      	ldr	r3, [pc, #8]	; (80a31f4 <HAL_USART_Is_Enabled+0xc>)
 80a31ec:	681b      	ldr	r3, [r3, #0]
 80a31ee:	6b9b      	ldr	r3, [r3, #56]	; 0x38
 80a31f0:	9301      	str	r3, [sp, #4]
 80a31f2:	bd08      	pop	{r3, pc}
 80a31f4:	080601c4 	.word	0x080601c4

080a31f8 <HAL_USART_Available_Data_For_Write>:
DYNALIB_FN(BASE_IDX + 9, hal_usart, HAL_USART_Half_Duplex, void(HAL_USART_Serial, bool))
DYNALIB_FN(BASE_IDX + 10, hal_usart, HAL_USART_Available_Data_For_Write, int32_t(HAL_USART_Serial))
 80a31f8:	b508      	push	{r3, lr}
 80a31fa:	4b02      	ldr	r3, [pc, #8]	; (80a3204 <HAL_USART_Available_Data_For_Write+0xc>)
 80a31fc:	681b      	ldr	r3, [r3, #0]
 80a31fe:	6c1b      	ldr	r3, [r3, #64]	; 0x40
 80a3200:	9301      	str	r3, [sp, #4]
 80a3202:	bd08      	pop	{r3, pc}
 80a3204:	080601c4 	.word	0x080601c4

080a3208 <HAL_I2C_Set_Speed>:
#define BASE_IDX 16 // Base index for all subsequent functions
#else
#define BASE_IDX 0
#endif

DYNALIB_FN(BASE_IDX + 0, hal_i2c, HAL_I2C_Set_Speed, void(HAL_I2C_Interface, uint32_t, void*))
 80a3208:	b508      	push	{r3, lr}
 80a320a:	4b02      	ldr	r3, [pc, #8]	; (80a3214 <HAL_I2C_Set_Speed+0xc>)
 80a320c:	681b      	ldr	r3, [r3, #0]
 80a320e:	6c1b      	ldr	r3, [r3, #64]	; 0x40
 80a3210:	9301      	str	r3, [sp, #4]
 80a3212:	bd08      	pop	{r3, pc}
 80a3214:	080601ac 	.word	0x080601ac

080a3218 <HAL_I2C_Begin>:
DYNALIB_FN(BASE_IDX + 1, hal_i2c, HAL_I2C_Enable_DMA_Mode, void(HAL_I2C_Interface, bool, void*))
DYNALIB_FN(BASE_IDX + 2, hal_i2c, HAL_I2C_Stretch_Clock, void(HAL_I2C_Interface, bool, void*))
DYNALIB_FN(BASE_IDX + 3, hal_i2c, HAL_I2C_Begin, void(HAL_I2C_Interface, I2C_Mode, uint8_t, void*))
 80a3218:	b508      	push	{r3, lr}
 80a321a:	4b02      	ldr	r3, [pc, #8]	; (80a3224 <HAL_I2C_Begin+0xc>)
 80a321c:	681b      	ldr	r3, [r3, #0]
 80a321e:	6cdb      	ldr	r3, [r3, #76]	; 0x4c
 80a3220:	9301      	str	r3, [sp, #4]
 80a3222:	bd08      	pop	{r3, pc}
 80a3224:	080601ac 	.word	0x080601ac

080a3228 <HAL_I2C_Request_Data>:
DYNALIB_FN(BASE_IDX + 4, hal_i2c, HAL_I2C_End, void(HAL_I2C_Interface, void*))
DYNALIB_FN(BASE_IDX + 5, hal_i2c, HAL_I2C_Request_Data, uint32_t(HAL_I2C_Interface, uint8_t, uint8_t, uint8_t, void*))
 80a3228:	b508      	push	{r3, lr}
 80a322a:	4b02      	ldr	r3, [pc, #8]	; (80a3234 <HAL_I2C_Request_Data+0xc>)
 80a322c:	681b      	ldr	r3, [r3, #0]
 80a322e:	6d5b      	ldr	r3, [r3, #84]	; 0x54
 80a3230:	9301      	str	r3, [sp, #4]
 80a3232:	bd08      	pop	{r3, pc}
 80a3234:	080601ac 	.word	0x080601ac

080a3238 <HAL_I2C_Begin_Transmission>:
DYNALIB_FN(BASE_IDX + 6, hal_i2c, HAL_I2C_Begin_Transmission, void(HAL_I2C_Interface, uint8_t, void*))
 80a3238:	b508      	push	{r3, lr}
 80a323a:	4b02      	ldr	r3, [pc, #8]	; (80a3244 <HAL_I2C_Begin_Transmission+0xc>)
 80a323c:	681b      	ldr	r3, [r3, #0]
 80a323e:	6d9b      	ldr	r3, [r3, #88]	; 0x58
 80a3240:	9301      	str	r3, [sp, #4]
 80a3242:	bd08      	pop	{r3, pc}
 80a3244:	080601ac 	.word	0x080601ac

080a3248 <HAL_I2C_End_Transmission>:
DYNALIB_FN(BASE_IDX + 7, hal_i2c, HAL_I2C_End_Transmission, uint8_t(HAL_I2C_Interface, uint8_t, void*))
 80a3248:	b508      	push	{r3, lr}
 80a324a:	4b02      	ldr	r3, [pc, #8]	; (80a3254 <HAL_I2C_End_Transmission+0xc>)
 80a324c:	681b      	ldr	r3, [r3, #0]
 80a324e:	6ddb      	ldr	r3, [r3, #92]	; 0x5c
 80a3250:	9301      	str	r3, [sp, #4]
 80a3252:	bd08      	pop	{r3, pc}
 80a3254:	080601ac 	.word	0x080601ac

080a3258 <HAL_I2C_Write_Data>:
DYNALIB_FN(BASE_IDX + 8, hal_i2c, HAL_I2C_Write_Data, uint32_t(HAL_I2C_Interface, uint8_t, void*))
 80a3258:	b508      	push	{r3, lr}
 80a325a:	4b02      	ldr	r3, [pc, #8]	; (80a3264 <HAL_I2C_Write_Data+0xc>)
 80a325c:	681b      	ldr	r3, [r3, #0]
 80a325e:	6e1b      	ldr	r3, [r3, #96]	; 0x60
 80a3260:	9301      	str	r3, [sp, #4]
 80a3262:	bd08      	pop	{r3, pc}
 80a3264:	080601ac 	.word	0x080601ac

080a3268 <HAL_I2C_Available_Data>:
DYNALIB_FN(BASE_IDX + 9, hal_i2c, HAL_I2C_Available_Data, int32_t(HAL_I2C_Interface, void*))
 80a3268:	b508      	push	{r3, lr}
 80a326a:	4b02      	ldr	r3, [pc, #8]	; (80a3274 <HAL_I2C_Available_Data+0xc>)
 80a326c:	681b      	ldr	r3, [r3, #0]
 80a326e:	6e5b      	ldr	r3, [r3, #100]	; 0x64
 80a3270:	9301      	str	r3, [sp, #4]
 80a3272:	bd08      	pop	{r3, pc}
 80a3274:	080601ac 	.word	0x080601ac

080a3278 <HAL_I2C_Read_Data>:
DYNALIB_FN(BASE_IDX + 10, hal_i2c, HAL_I2C_Read_Data, int32_t(HAL_I2C_Interface, void*))
 80a3278:	b508      	push	{r3, lr}
 80a327a:	4b02      	ldr	r3, [pc, #8]	; (80a3284 <HAL_I2C_Read_Data+0xc>)
 80a327c:	681b      	ldr	r3, [r3, #0]
 80a327e:	6e9b      	ldr	r3, [r3, #104]	; 0x68
 80a3280:	9301      	str	r3, [sp, #4]
 80a3282:	bd08      	pop	{r3, pc}
 80a3284:	080601ac 	.word	0x080601ac

080a3288 <HAL_I2C_Peek_Data>:
DYNALIB_FN(BASE_IDX + 11, hal_i2c, HAL_I2C_Peek_Data, int32_t(HAL_I2C_Interface, void*))
 80a3288:	b508      	push	{r3, lr}
 80a328a:	4b02      	ldr	r3, [pc, #8]	; (80a3294 <HAL_I2C_Peek_Data+0xc>)
 80a328c:	681b      	ldr	r3, [r3, #0]
 80a328e:	6edb      	ldr	r3, [r3, #108]	; 0x6c
 80a3290:	9301      	str	r3, [sp, #4]
 80a3292:	bd08      	pop	{r3, pc}
 80a3294:	080601ac 	.word	0x080601ac

080a3298 <HAL_I2C_Flush_Data>:
DYNALIB_FN(BASE_IDX + 12, hal_i2c, HAL_I2C_Flush_Data, void(HAL_I2C_Interface, void*))
 80a3298:	b508      	push	{r3, lr}
 80a329a:	4b02      	ldr	r3, [pc, #8]	; (80a32a4 <HAL_I2C_Flush_Data+0xc>)
 80a329c:	681b      	ldr	r3, [r3, #0]
 80a329e:	6f1b      	ldr	r3, [r3, #112]	; 0x70
 80a32a0:	9301      	str	r3, [sp, #4]
 80a32a2:	bd08      	pop	{r3, pc}
 80a32a4:	080601ac 	.word	0x080601ac

080a32a8 <HAL_I2C_Is_Enabled>:
DYNALIB_FN(BASE_IDX + 13, hal_i2c, HAL_I2C_Is_Enabled, bool(HAL_I2C_Interface, void*))
 80a32a8:	b508      	push	{r3, lr}
 80a32aa:	4b02      	ldr	r3, [pc, #8]	; (80a32b4 <HAL_I2C_Is_Enabled+0xc>)
 80a32ac:	681b      	ldr	r3, [r3, #0]
 80a32ae:	6f5b      	ldr	r3, [r3, #116]	; 0x74
 80a32b0:	9301      	str	r3, [sp, #4]
 80a32b2:	bd08      	pop	{r3, pc}
 80a32b4:	080601ac 	.word	0x080601ac

080a32b8 <HAL_I2C_Init>:
DYNALIB_FN(BASE_IDX + 14, hal_i2c, HAL_I2C_Set_Callback_On_Receive, void(HAL_I2C_Interface, void(*)(int), void*))
DYNALIB_FN(BASE_IDX + 15, hal_i2c, HAL_I2C_Set_Callback_On_Request, void(HAL_I2C_Interface, void(*)(void), void*))
DYNALIB_FN(BASE_IDX + 16, hal_i2c, HAL_I2C_Init, void(HAL_I2C_Interface, void*))
 80a32b8:	b508      	push	{r3, lr}
 80a32ba:	4b03      	ldr	r3, [pc, #12]	; (80a32c8 <HAL_I2C_Init+0x10>)
 80a32bc:	681b      	ldr	r3, [r3, #0]
 80a32be:	f8d3 3080 	ldr.w	r3, [r3, #128]	; 0x80
 80a32c2:	9301      	str	r3, [sp, #4]
 80a32c4:	bd08      	pop	{r3, pc}
 80a32c6:	0000      	.short	0x0000
 80a32c8:	080601ac 	.word	0x080601ac

080a32cc <HAL_Servo_Attach>:
DYNALIB_FN(0, hal_peripherals, HAL_Tone_Start, void(uint8_t, uint32_t, uint32_t))
DYNALIB_FN(1, hal_peripherals, HAL_Tone_Stop, void(uint8_t))
DYNALIB_FN(2, hal_peripherals, HAL_Tone_Get_Frequency, uint32_t(uint8_t))
DYNALIB_FN(3, hal_peripherals, HAL_Tone_Is_Stopped, bool(uint8_t))

DYNALIB_FN(4, hal_peripherals, HAL_Servo_Attach, void(uint16_t))
 80a32cc:	b508      	push	{r3, lr}
 80a32ce:	4b02      	ldr	r3, [pc, #8]	; (80a32d8 <HAL_Servo_Attach+0xc>)
 80a32d0:	681b      	ldr	r3, [r3, #0]
 80a32d2:	691b      	ldr	r3, [r3, #16]
 80a32d4:	9301      	str	r3, [sp, #4]
 80a32d6:	bd08      	pop	{r3, pc}
 80a32d8:	080601a8 	.word	0x080601a8

080a32dc <HAL_Servo_Detach>:
DYNALIB_FN(5, hal_peripherals, HAL_Servo_Detach, void(uint16_t))
 80a32dc:	b508      	push	{r3, lr}
 80a32de:	4b02      	ldr	r3, [pc, #8]	; (80a32e8 <HAL_Servo_Detach+0xc>)
 80a32e0:	681b      	ldr	r3, [r3, #0]
 80a32e2:	695b      	ldr	r3, [r3, #20]
 80a32e4:	9301      	str	r3, [sp, #4]
 80a32e6:	bd08      	pop	{r3, pc}
 80a32e8:	080601a8 	.word	0x080601a8

080a32ec <HAL_Servo_Write_Pulse_Width>:
DYNALIB_FN(6, hal_peripherals, HAL_Servo_Write_Pulse_Width, void(uint16_t, uint16_t))
 80a32ec:	b508      	push	{r3, lr}
 80a32ee:	4b02      	ldr	r3, [pc, #8]	; (80a32f8 <HAL_Servo_Write_Pulse_Width+0xc>)
 80a32f0:	681b      	ldr	r3, [r3, #0]
 80a32f2:	699b      	ldr	r3, [r3, #24]
 80a32f4:	9301      	str	r3, [sp, #4]
 80a32f6:	bd08      	pop	{r3, pc}
 80a32f8:	080601a8 	.word	0x080601a8

080a32fc <HAL_USB_USART_Init>:
#endif

DYNALIB_BEGIN(hal_usb)

#ifdef USB_CDC_ENABLE
DYNALIB_FN(0, hal_usb, HAL_USB_USART_Init, void(HAL_USB_USART_Serial, const HAL_USB_USART_Config*))
 80a32fc:	b508      	push	{r3, lr}
 80a32fe:	4b02      	ldr	r3, [pc, #8]	; (80a3308 <HAL_USB_USART_Init+0xc>)
 80a3300:	681b      	ldr	r3, [r3, #0]
 80a3302:	681b      	ldr	r3, [r3, #0]
 80a3304:	9301      	str	r3, [sp, #4]
 80a3306:	bd08      	pop	{r3, pc}
 80a3308:	080601d8 	.word	0x080601d8

080a330c <HAL_USB_USART_Begin>:
DYNALIB_FN(1, hal_usb, HAL_USB_USART_Begin, void(HAL_USB_USART_Serial, uint32_t, void *))
 80a330c:	b508      	push	{r3, lr}
 80a330e:	4b02      	ldr	r3, [pc, #8]	; (80a3318 <HAL_USB_USART_Begin+0xc>)
 80a3310:	681b      	ldr	r3, [r3, #0]
 80a3312:	685b      	ldr	r3, [r3, #4]
 80a3314:	9301      	str	r3, [sp, #4]
 80a3316:	bd08      	pop	{r3, pc}
 80a3318:	080601d8 	.word	0x080601d8

080a331c <HAL_USB_USART_Available_Data>:
DYNALIB_FN(2, hal_usb, HAL_USB_USART_End, void(HAL_USB_USART_Serial))
DYNALIB_FN(3, hal_usb, HAL_USB_USART_Baud_Rate, unsigned int(HAL_USB_USART_Serial))
DYNALIB_FN(4, hal_usb, HAL_USB_USART_Available_Data, int32_t(HAL_USB_USART_Serial))
 80a331c:	b508      	push	{r3, lr}
 80a331e:	4b02      	ldr	r3, [pc, #8]	; (80a3328 <HAL_USB_USART_Available_Data+0xc>)
 80a3320:	681b      	ldr	r3, [r3, #0]
 80a3322:	691b      	ldr	r3, [r3, #16]
 80a3324:	9301      	str	r3, [sp, #4]
 80a3326:	bd08      	pop	{r3, pc}
 80a3328:	080601d8 	.word	0x080601d8

080a332c <HAL_USB_USART_Available_Data_For_Write>:
DYNALIB_FN(5, hal_usb, HAL_USB_USART_Available_Data_For_Write, int32_t(HAL_USB_USART_Serial))
 80a332c:	b508      	push	{r3, lr}
 80a332e:	4b02      	ldr	r3, [pc, #8]	; (80a3338 <HAL_USB_USART_Available_Data_For_Write+0xc>)
 80a3330:	681b      	ldr	r3, [r3, #0]
 80a3332:	695b      	ldr	r3, [r3, #20]
 80a3334:	9301      	str	r3, [sp, #4]
 80a3336:	bd08      	pop	{r3, pc}
 80a3338:	080601d8 	.word	0x080601d8

080a333c <HAL_USB_USART_Receive_Data>:
DYNALIB_FN(6, hal_usb, HAL_USB_USART_Receive_Data, int32_t(HAL_USB_USART_Serial, uint8_t))
 80a333c:	b508      	push	{r3, lr}
 80a333e:	4b02      	ldr	r3, [pc, #8]	; (80a3348 <HAL_USB_USART_Receive_Data+0xc>)
 80a3340:	681b      	ldr	r3, [r3, #0]
 80a3342:	699b      	ldr	r3, [r3, #24]
 80a3344:	9301      	str	r3, [sp, #4]
 80a3346:	bd08      	pop	{r3, pc}
 80a3348:	080601d8 	.word	0x080601d8

080a334c <HAL_USB_USART_Send_Data>:
DYNALIB_FN(7, hal_usb, HAL_USB_USART_Send_Data, int32_t(HAL_USB_USART_Serial, uint8_t))
 80a334c:	b508      	push	{r3, lr}
 80a334e:	4b02      	ldr	r3, [pc, #8]	; (80a3358 <HAL_USB_USART_Send_Data+0xc>)
 80a3350:	681b      	ldr	r3, [r3, #0]
 80a3352:	69db      	ldr	r3, [r3, #28]
 80a3354:	9301      	str	r3, [sp, #4]
 80a3356:	bd08      	pop	{r3, pc}
 80a3358:	080601d8 	.word	0x080601d8

080a335c <HAL_USB_USART_Flush_Data>:
DYNALIB_FN(8, hal_usb, HAL_USB_USART_Flush_Data, void(HAL_USB_USART_Serial))
 80a335c:	b508      	push	{r3, lr}
 80a335e:	4b02      	ldr	r3, [pc, #8]	; (80a3368 <HAL_USB_USART_Flush_Data+0xc>)
 80a3360:	681b      	ldr	r3, [r3, #0]
 80a3362:	6a1b      	ldr	r3, [r3, #32]
 80a3364:	9301      	str	r3, [sp, #4]
 80a3366:	bd08      	pop	{r3, pc}
 80a3368:	080601d8 	.word	0x080601d8

080a336c <set_system_mode>:
#endif

DYNALIB_BEGIN(system)

DYNALIB_FN(0, system, system_mode, System_Mode_TypeDef(void))
DYNALIB_FN(1, system, set_system_mode, void(System_Mode_TypeDef))
 80a336c:	b508      	push	{r3, lr}
 80a336e:	4b02      	ldr	r3, [pc, #8]	; (80a3378 <set_system_mode+0xc>)
 80a3370:	681b      	ldr	r3, [r3, #0]
 80a3372:	685b      	ldr	r3, [r3, #4]
 80a3374:	9301      	str	r3, [sp, #4]
 80a3376:	bd08      	pop	{r3, pc}
 80a3378:	080601a4 	.word	0x080601a4

080a337c <system_delay_ms>:

DYNALIB_FN(2, system, set_ymodem_serial_flash_update_handler, void(ymodem_serial_flash_update_handler))
DYNALIB_FN(3, system, system_firmwareUpdate, bool(Stream*, void*))
DYNALIB_FN(4, system, system_fileTransfer, bool(system_file_transfer_t*, void*))

DYNALIB_FN(5, system, system_delay_ms, void(unsigned long, bool))
 80a337c:	b508      	push	{r3, lr}
 80a337e:	4b02      	ldr	r3, [pc, #8]	; (80a3388 <system_delay_ms+0xc>)
 80a3380:	681b      	ldr	r3, [r3, #0]
 80a3382:	695b      	ldr	r3, [r3, #20]
 80a3384:	9301      	str	r3, [sp, #4]
 80a3386:	bd08      	pop	{r3, pc}
 80a3388:	080601a4 	.word	0x080601a4

080a338c <system_thread_set_state>:
DYNALIB_FN(6, system, system_sleep, void(Spark_Sleep_TypeDef, long, uint32_t, void*))
DYNALIB_FN(7, system, system_sleep_pin, void(uint16_t, uint16_t, long, uint32_t, void*))
DYNALIB_FN(8, system, system_subscribe_event, int(system_event_t, system_event_handler_t*, void*))
DYNALIB_FN(9, system, system_unsubscribe_event, void(system_event_t, system_event_handler_t*, void*))
DYNALIB_FN(10, system, system_button_pushed_duration, uint16_t(uint8_t, void*))
DYNALIB_FN(11, system, system_thread_set_state, void(spark::feature::State, void*))
 80a338c:	b508      	push	{r3, lr}
 80a338e:	4b02      	ldr	r3, [pc, #8]	; (80a3398 <system_thread_set_state+0xc>)
 80a3390:	681b      	ldr	r3, [r3, #0]
 80a3392:	6adb      	ldr	r3, [r3, #44]	; 0x2c
 80a3394:	9301      	str	r3, [sp, #4]
 80a3396:	bd08      	pop	{r3, pc}
 80a3398:	080601a4 	.word	0x080601a4

080a339c <application_thread_current>:
DYNALIB_FN(15, system, system_get_flag, int(system_flag_t, uint8_t*, void*))
DYNALIB_FN(16, system, Spark_Prepare_For_Firmware_Update, int(FileTransfer::Descriptor&, uint32_t, void*))
DYNALIB_FN(17, system, Spark_Save_Firmware_Chunk, int(FileTransfer::Descriptor&, const uint8_t*, void*))
DYNALIB_FN(18, system, Spark_Finish_Firmware_Update, int(FileTransfer::Descriptor&, uint32_t, void*))

DYNALIB_FN(19, system, application_thread_current, uint8_t(void*))
 80a339c:	b508      	push	{r3, lr}
 80a339e:	4b02      	ldr	r3, [pc, #8]	; (80a33a8 <application_thread_current+0xc>)
 80a33a0:	681b      	ldr	r3, [r3, #0]
 80a33a2:	6cdb      	ldr	r3, [r3, #76]	; 0x4c
 80a33a4:	9301      	str	r3, [sp, #4]
 80a33a6:	bd08      	pop	{r3, pc}
 80a33a8:	080601a4 	.word	0x080601a4

080a33ac <application_thread_invoke>:
DYNALIB_FN(20, system, system_thread_current, uint8_t(void*))
DYNALIB_FN(21, system, application_thread_invoke, uint8_t(void(*)(void*), void*, void*))
 80a33ac:	b508      	push	{r3, lr}
 80a33ae:	4b02      	ldr	r3, [pc, #8]	; (80a33b8 <application_thread_invoke+0xc>)
 80a33b0:	681b      	ldr	r3, [r3, #0]
 80a33b2:	6d5b      	ldr	r3, [r3, #84]	; 0x54
 80a33b4:	9301      	str	r3, [sp, #4]
 80a33b6:	bd08      	pop	{r3, pc}
 80a33b8:	080601a4 	.word	0x080601a4

080a33bc <system_set_usb_request_app_handler>:
DYNALIB_FN(22, system, system_thread_get_state, spark::feature::State(void*))
DYNALIB_FN(23, system, system_notify_time_changed, void(uint32_t, void*, void*))
DYNALIB_FN(24, system, main_thread_current, uint8_t(void*))

#ifdef USB_VENDOR_REQUEST_ENABLE
DYNALIB_FN(25, system, system_set_usb_request_app_handler, void(usb_request_app_handler_type, void*))
 80a33bc:	b508      	push	{r3, lr}
 80a33be:	4b02      	ldr	r3, [pc, #8]	; (80a33c8 <system_set_usb_request_app_handler+0xc>)
 80a33c0:	681b      	ldr	r3, [r3, #0]
 80a33c2:	6e5b      	ldr	r3, [r3, #100]	; 0x64
 80a33c4:	9301      	str	r3, [sp, #4]
 80a33c6:	bd08      	pop	{r3, pc}
 80a33c8:	080601a4 	.word	0x080601a4

080a33cc <system_set_usb_request_result>:
DYNALIB_FN(26, system, system_set_usb_request_result, void(USBRequest*, int, void*))
 80a33cc:	b508      	push	{r3, lr}
 80a33ce:	4b02      	ldr	r3, [pc, #8]	; (80a33d8 <system_set_usb_request_result+0xc>)
 80a33d0:	681b      	ldr	r3, [r3, #0]
 80a33d2:	6e9b      	ldr	r3, [r3, #104]	; 0x68
 80a33d4:	9301      	str	r3, [sp, #4]
 80a33d6:	bd08      	pop	{r3, pc}
 80a33d8:	080601a4 	.word	0x080601a4

080a33dc <network_ready>:

DYNALIB_FN(0, system_net, network_config, const void*(network_handle_t, uint32_t, void*))
DYNALIB_FN(1, system_net, network_connect, void(network_handle_t, uint32_t, uint32_t, void*))
DYNALIB_FN(2, system_net, network_connecting, bool(network_handle_t, uint32_t, void*))
DYNALIB_FN(3, system_net, network_disconnect, void(network_handle_t, uint32_t, void*))
DYNALIB_FN(4, system_net, network_ready, bool(network_handle_t, uint32_t, void*))
 80a33dc:	b508      	push	{r3, lr}
 80a33de:	4b02      	ldr	r3, [pc, #8]	; (80a33e8 <network_ready+0xc>)
 80a33e0:	681b      	ldr	r3, [r3, #0]
 80a33e2:	691b      	ldr	r3, [r3, #16]
 80a33e4:	9301      	str	r3, [sp, #4]
 80a33e6:	bd08      	pop	{r3, pc}
 80a33e8:	080601c8 	.word	0x080601c8

080a33ec <spark_process>:

DYNALIB_BEGIN(system_cloud)

DYNALIB_FN(0, system_cloud, spark_variable, bool(const char*, const void*, Spark_Data_TypeDef, spark_variable_t*))
DYNALIB_FN(1, system_cloud, spark_function, bool(const char*, p_user_function_int_str_t, void*))
DYNALIB_FN(2, system_cloud, spark_process, void(void))
 80a33ec:	b508      	push	{r3, lr}
 80a33ee:	4b02      	ldr	r3, [pc, #8]	; (80a33f8 <spark_process+0xc>)
 80a33f0:	681b      	ldr	r3, [r3, #0]
 80a33f2:	689b      	ldr	r3, [r3, #8]
 80a33f4:	9301      	str	r3, [sp, #4]
 80a33f6:	bd08      	pop	{r3, pc}
 80a33f8:	080601cc 	.word	0x080601cc

080a33fc <spark_send_event>:
DYNALIB_FN(3, system_cloud, spark_cloud_flag_connect, void(void))
DYNALIB_FN(4, system_cloud, spark_cloud_flag_disconnect, void(void))
DYNALIB_FN(5, system_cloud, spark_cloud_flag_connected, bool(void))
DYNALIB_FN(6, system_cloud, system_cloud_protocol_instance, ProtocolFacade*(void))
DYNALIB_FN(7, system_cloud, spark_deviceID, String(void))
DYNALIB_FN(8, system_cloud, spark_send_event, bool(const char*, const char*, int, uint32_t, void*))
 80a33fc:	b508      	push	{r3, lr}
 80a33fe:	4b02      	ldr	r3, [pc, #8]	; (80a3408 <spark_send_event+0xc>)
 80a3400:	681b      	ldr	r3, [r3, #0]
 80a3402:	6a1b      	ldr	r3, [r3, #32]
 80a3404:	9301      	str	r3, [sp, #4]
 80a3406:	bd08      	pop	{r3, pc}
 80a3408:	080601cc 	.word	0x080601cc

080a340c <malloc>:

#include "dynalib.h"

DYNALIB_BEGIN(rt)

DYNALIB_FN(0, rt, malloc, void*(size_t))
 80a340c:	b508      	push	{r3, lr}
 80a340e:	4b02      	ldr	r3, [pc, #8]	; (80a3418 <malloc+0xc>)
 80a3410:	681b      	ldr	r3, [r3, #0]
 80a3412:	681b      	ldr	r3, [r3, #0]
 80a3414:	9301      	str	r3, [sp, #4]
 80a3416:	bd08      	pop	{r3, pc}
 80a3418:	080601a0 	.word	0x080601a0

080a341c <free>:
DYNALIB_FN(1, rt, free, void(void*))
 80a341c:	b508      	push	{r3, lr}
 80a341e:	4b02      	ldr	r3, [pc, #8]	; (80a3428 <free+0xc>)
 80a3420:	681b      	ldr	r3, [r3, #0]
 80a3422:	685b      	ldr	r3, [r3, #4]
 80a3424:	9301      	str	r3, [sp, #4]
 80a3426:	bd08      	pop	{r3, pc}
 80a3428:	080601a0 	.word	0x080601a0

080a342c <vsnprintf>:
DYNALIB_FN(4, rt, siprintf, int(char*, const char*, ...))
DYNALIB_FN(5, rt, sscanf, int(const char*, const char*, ...))
DYNALIB_FN(6, rt, siscanf, int(const char*, const char*, ...))
DYNALIB_FN(7, rt, snprintf, int(char*, size_t, const char*, ...))
DYNALIB_FN(8, rt, sniprintf, int(char*, size_t, const char*, ...))
DYNALIB_FN(9, rt, vsnprintf, int(char*, size_t, const char*, va_list))
 80a342c:	b508      	push	{r3, lr}
 80a342e:	4b02      	ldr	r3, [pc, #8]	; (80a3438 <vsnprintf+0xc>)
 80a3430:	681b      	ldr	r3, [r3, #0]
 80a3432:	6a5b      	ldr	r3, [r3, #36]	; 0x24
 80a3434:	9301      	str	r3, [sp, #4]
 80a3436:	bd08      	pop	{r3, pc}
 80a3438:	080601a0 	.word	0x080601a0

080a343c <abort>:
DYNALIB_FN(10, rt, vsniprintf, int(char*, size_t, const char*, va_list))
DYNALIB_FN(11, rt, abort, void(void))
 80a343c:	b508      	push	{r3, lr}
 80a343e:	4b02      	ldr	r3, [pc, #8]	; (80a3448 <abort+0xc>)
 80a3440:	681b      	ldr	r3, [r3, #0]
 80a3442:	6adb      	ldr	r3, [r3, #44]	; 0x2c
 80a3444:	9301      	str	r3, [sp, #4]
 80a3446:	bd08      	pop	{r3, pc}
 80a3448:	080601a0 	.word	0x080601a0

080a344c <_ZN8SPIClassD1Ev>:
  Mutex mutex_;
#endif

public:
  SPIClass(HAL_SPI_Interface spi);
  virtual ~SPIClass() {};
 80a344c:	4770      	bx	lr

080a344e <_ZN8SPIClassD0Ev>:
 80a344e:	b510      	push	{r4, lr}
 80a3450:	4604      	mov	r4, r0
 80a3452:	f7fc fe24 	bl	80a009e <_ZdlPv>
 80a3456:	4620      	mov	r0, r4
 80a3458:	bd10      	pop	{r4, pc}
	...

080a345c <_ZN8SPIClassC1E17HAL_SPI_Interface>:
  if (!info->enabled || info->default_settings)
    return particle::__SPISettings();
  return particle::__SPISettings(info->clock, info->bit_order, info->data_mode);
}

SPIClass::SPIClass(HAL_SPI_Interface spi)
 80a345c:	b570      	push	{r4, r5, r6, lr}
 80a345e:	4604      	mov	r4, r0
 80a3460:	460e      	mov	r6, r1
 80a3462:	4b07      	ldr	r3, [pc, #28]	; (80a3480 <_ZN8SPIClassC1E17HAL_SPI_Interface+0x24>)
	Mutex(os_mutex_t handle) : handle_(handle) {}

	/**
	 * Creates a new mutex.
	 */
	Mutex() : handle_(nullptr)
 80a3464:	2500      	movs	r5, #0
 80a3466:	6003      	str	r3, [r0, #0]
 80a3468:	f840 5f0c 	str.w	r5, [r0, #12]!
	{
		os_mutex_create(&handle_);
 80a346c:	f7ff fe84 	bl	80a3178 <os_mutex_create>
{
  _spi = spi;
  HAL_SPI_Init(_spi);
 80a3470:	4630      	mov	r0, r6
  return particle::__SPISettings(info->clock, info->bit_order, info->data_mode);
}

SPIClass::SPIClass(HAL_SPI_Interface spi)
{
  _spi = spi;
 80a3472:	7126      	strb	r6, [r4, #4]
  HAL_SPI_Init(_spi);
 80a3474:	f7ff fe60 	bl	80a3138 <HAL_SPI_Init>
  dividerReference = SPI_CLK_SYSTEM;     // 0 indicates the system clock
 80a3478:	60a5      	str	r5, [r4, #8]
}
 80a347a:	4620      	mov	r0, r4
 80a347c:	bd70      	pop	{r4, r5, r6, pc}
 80a347e:	bf00      	nop
 80a3480:	080a5884 	.word	0x080a5884

080a3484 <_ZN8SPIClass9isEnabledEv>:
  //To Do
}

bool SPIClass::isEnabled()
{
  return HAL_SPI_Is_Enabled(_spi);
 80a3484:	7900      	ldrb	r0, [r0, #4]
 80a3486:	f7ff be5f 	b.w	80a3148 <HAL_SPI_Is_Enabled>

080a348a <_ZN5Servo17writeMicrosecondsEt>:
  // write(179).
  return a == this->minAngle || a == this->maxAngle ? a : a + 1;
}

void Servo::writeMicroseconds(uint16_t pulseWidth)
{
 80a348a:	f9b0 2000 	ldrsh.w	r2, [r0]

  if (!this->attached())
 80a348e:	1c53      	adds	r3, r2, #1
 80a3490:	d00b      	beq.n	80a34aa <_ZN5Servo17writeMicrosecondsEt+0x20>
  {
    return;
  }

  pulseWidth = constrain(pulseWidth, this->minPW, this->maxPW);
 80a3492:	8843      	ldrh	r3, [r0, #2]
 80a3494:	8880      	ldrh	r0, [r0, #4]
typename std::common_type<T, U>::type
min (T a, U b) { return static_cast<typename std::common_type<T, U>::type>((a)<(b)?(a):(b)); }

template <typename T, typename U, typename V>
static inline
T constrain (T amt, U low, V high) { return ((amt)<(low)?(low):((amt)>(high)?(high):(amt))); }
 80a3496:	428b      	cmp	r3, r1
 80a3498:	d803      	bhi.n	80a34a2 <_ZN5Servo17writeMicrosecondsEt+0x18>
 80a349a:	4288      	cmp	r0, r1
 80a349c:	4603      	mov	r3, r0
 80a349e:	bf28      	it	cs
 80a34a0:	460b      	movcs	r3, r1

  HAL_Servo_Write_Pulse_Width(this->pin, pulseWidth);
 80a34a2:	4619      	mov	r1, r3
 80a34a4:	b290      	uxth	r0, r2
 80a34a6:	f7ff bf21 	b.w	80a32ec <HAL_Servo_Write_Pulse_Width>
 80a34aa:	4770      	bx	lr

080a34ac <_ZN5Servo11resetFieldsEv>:
  return HAL_Servo_Read_Pulse_Width(this->pin);
}

void Servo::resetFields(void)
{
  this->pin = NOT_ATTACHED;
 80a34ac:	f64f 73ff 	movw	r3, #65535	; 0xffff
  this->minAngle = SERVO_DEFAULT_MIN_ANGLE;
  this->maxAngle = SERVO_DEFAULT_MAX_ANGLE;
 80a34b0:	22b4      	movs	r2, #180	; 0xb4
 80a34b2:	8102      	strh	r2, [r0, #8]
  this->minPW = SERVO_DEFAULT_MIN_PW;
 80a34b4:	f44f 7208 	mov.w	r2, #544	; 0x220
  return HAL_Servo_Read_Pulse_Width(this->pin);
}

void Servo::resetFields(void)
{
  this->pin = NOT_ATTACHED;
 80a34b8:	8003      	strh	r3, [r0, #0]
  this->minAngle = SERVO_DEFAULT_MIN_ANGLE;
  this->maxAngle = SERVO_DEFAULT_MAX_ANGLE;
  this->minPW = SERVO_DEFAULT_MIN_PW;
 80a34ba:	8042      	strh	r2, [r0, #2]
}

void Servo::resetFields(void)
{
  this->pin = NOT_ATTACHED;
  this->minAngle = SERVO_DEFAULT_MIN_ANGLE;
 80a34bc:	2300      	movs	r3, #0
  this->maxAngle = SERVO_DEFAULT_MAX_ANGLE;
  this->minPW = SERVO_DEFAULT_MIN_PW;
  this->maxPW = SERVO_DEFAULT_MAX_PW;
 80a34be:	f44f 6216 	mov.w	r2, #2400	; 0x960
}

void Servo::resetFields(void)
{
  this->pin = NOT_ATTACHED;
  this->minAngle = SERVO_DEFAULT_MIN_ANGLE;
 80a34c2:	80c3      	strh	r3, [r0, #6]
  this->maxAngle = SERVO_DEFAULT_MAX_ANGLE;
  this->minPW = SERVO_DEFAULT_MIN_PW;
  this->maxPW = SERVO_DEFAULT_MAX_PW;
 80a34c4:	8082      	strh	r2, [r0, #4]
  this->trim = 0;
 80a34c6:	60c3      	str	r3, [r0, #12]
 80a34c8:	4770      	bx	lr

080a34ca <_ZN5ServoC1Ev>:
#define ANGLE_TO_US(a)    ((uint16_t)(map((a), this->minAngle, this->maxAngle, \
                                        this->minPW, this->maxPW)))
#define US_TO_ANGLE(us)   ((int16_t)(map((us), this->minPW, this->maxPW,  \
                                       this->minAngle, this->maxAngle)))

Servo::Servo()
 80a34ca:	b508      	push	{r3, lr}
{
  this->resetFields();
 80a34cc:	f7ff ffee 	bl	80a34ac <_ZN5Servo11resetFieldsEv>
}
 80a34d0:	bd08      	pop	{r3, pc}

080a34d2 <_ZN5Servo6detachEv>:

  return true;
}

bool Servo::detach()
{
 80a34d2:	b510      	push	{r4, lr}
 80a34d4:	4604      	mov	r4, r0
 80a34d6:	f9b0 0000 	ldrsh.w	r0, [r0]
  if (!this->attached())
 80a34da:	1c43      	adds	r3, r0, #1
 80a34dc:	d007      	beq.n	80a34ee <_ZN5Servo6detachEv+0x1c>
  {
    return false;
  }

  HAL_Servo_Detach(this->pin);
 80a34de:	b280      	uxth	r0, r0
 80a34e0:	f7ff fefc 	bl	80a32dc <HAL_Servo_Detach>

  this->resetFields();
 80a34e4:	4620      	mov	r0, r4
 80a34e6:	f7ff ffe1 	bl	80a34ac <_ZN5Servo11resetFieldsEv>

  return true;
 80a34ea:	2001      	movs	r0, #1
 80a34ec:	bd10      	pop	{r4, pc}

bool Servo::detach()
{
  if (!this->attached())
  {
    return false;
 80a34ee:	2000      	movs	r0, #0
  HAL_Servo_Detach(this->pin);

  this->resetFields();

  return true;
}
 80a34f0:	bd10      	pop	{r4, pc}

080a34f2 <_ZN5Servo6attachEtttss>:
bool Servo::attach(uint16_t pin,
    uint16_t minPW,
    uint16_t maxPW,
    int16_t minAngle,
    int16_t maxAngle)
{
 80a34f2:	e92d 41f0 	stmdb	sp!, {r4, r5, r6, r7, r8, lr}
 80a34f6:	460d      	mov	r5, r1
 80a34f8:	4604      	mov	r4, r0

  if (HAL_Validate_Pin_Function(pin, PF_TIMER)!=PF_TIMER)
 80a34fa:	2102      	movs	r1, #2
 80a34fc:	4628      	mov	r0, r5
bool Servo::attach(uint16_t pin,
    uint16_t minPW,
    uint16_t maxPW,
    int16_t minAngle,
    int16_t maxAngle)
{
 80a34fe:	4690      	mov	r8, r2
 80a3500:	461f      	mov	r7, r3

  if (HAL_Validate_Pin_Function(pin, PF_TIMER)!=PF_TIMER)
 80a3502:	f7ff fde1 	bl	80a30c8 <HAL_Validate_Pin_Function>
 80a3506:	2802      	cmp	r0, #2
 80a3508:	d001      	beq.n	80a350e <_ZN5Servo6attachEtttss+0x1c>
  {
    return false;
 80a350a:	2600      	movs	r6, #0
 80a350c:	e019      	b.n	80a3542 <_ZN5Servo6attachEtttss+0x50>
  }

  // Safety check
  if (!pinAvailable(pin))
 80a350e:	4628      	mov	r0, r5
 80a3510:	f000 ff0a 	bl	80a4328 <pinAvailable>
 80a3514:	4606      	mov	r6, r0
 80a3516:	2800      	cmp	r0, #0
 80a3518:	d0f7      	beq.n	80a350a <_ZN5Servo6attachEtttss+0x18>
  {
    return false;
  }

  if (this->attached())
 80a351a:	f9b4 3000 	ldrsh.w	r3, [r4]
 80a351e:	3301      	adds	r3, #1
 80a3520:	d002      	beq.n	80a3528 <_ZN5Servo6attachEtttss+0x36>
  {
    this->detach();
 80a3522:	4620      	mov	r0, r4
 80a3524:	f7ff ffd5 	bl	80a34d2 <_ZN5Servo6detachEv>
  }

  this->pin = pin;
  this->minPW = minPW;
  this->maxPW = maxPW;
  this->minAngle = minAngle;
 80a3528:	f9bd 3018 	ldrsh.w	r3, [sp, #24]
  if (this->attached())
  {
    this->detach();
  }

  this->pin = pin;
 80a352c:	8025      	strh	r5, [r4, #0]
  this->minPW = minPW;
  this->maxPW = maxPW;
  this->minAngle = minAngle;
 80a352e:	80e3      	strh	r3, [r4, #6]
  this->maxAngle = maxAngle;
 80a3530:	f9bd 301c 	ldrsh.w	r3, [sp, #28]
  {
    this->detach();
  }

  this->pin = pin;
  this->minPW = minPW;
 80a3534:	f8a4 8002 	strh.w	r8, [r4, #2]
  this->maxPW = maxPW;
 80a3538:	80a7      	strh	r7, [r4, #4]
  this->minAngle = minAngle;
  this->maxAngle = maxAngle;
 80a353a:	8123      	strh	r3, [r4, #8]

  HAL_Servo_Attach(this->pin);
 80a353c:	4628      	mov	r0, r5
 80a353e:	f7ff fec5 	bl	80a32cc <HAL_Servo_Attach>

  return true;
}
 80a3542:	4630      	mov	r0, r6
 80a3544:	e8bd 81f0 	ldmia.w	sp!, {r4, r5, r6, r7, r8, pc}

080a3548 <_GLOBAL__sub_I_System>:

class SystemClass {
public:

    SystemClass(System_Mode_TypeDef mode = DEFAULT) {
        set_system_mode(mode);
 80a3548:	2000      	movs	r0, #0
 80a354a:	f7ff bf0f 	b.w	80a336c <set_system_mode>

080a354e <_ZN5Print5writeEPKhj>:

// Public Methods //////////////////////////////////////////////////////////////

/* default implementation: may be overridden */
size_t Print::write(const uint8_t *buffer, size_t size)
{
 80a354e:	b5f8      	push	{r3, r4, r5, r6, r7, lr}
 80a3550:	4606      	mov	r6, r0
 80a3552:	460d      	mov	r5, r1
 80a3554:	188f      	adds	r7, r1, r2
  size_t n = 0;
 80a3556:	2400      	movs	r4, #0
  while (size--) {
 80a3558:	42bd      	cmp	r5, r7
 80a355a:	d00c      	beq.n	80a3576 <_ZN5Print5writeEPKhj+0x28>
     int chunk = write(*buffer++);
 80a355c:	6833      	ldr	r3, [r6, #0]
 80a355e:	f815 1b01 	ldrb.w	r1, [r5], #1
 80a3562:	689b      	ldr	r3, [r3, #8]
 80a3564:	4630      	mov	r0, r6
 80a3566:	4798      	blx	r3
     if (chunk>=0)
 80a3568:	2800      	cmp	r0, #0
 80a356a:	db01      	blt.n	80a3570 <_ZN5Print5writeEPKhj+0x22>
         n += chunk;
 80a356c:	4404      	add	r4, r0

/* default implementation: may be overridden */
size_t Print::write(const uint8_t *buffer, size_t size)
{
  size_t n = 0;
  while (size--) {
 80a356e:	e7f3      	b.n	80a3558 <_ZN5Print5writeEPKhj+0xa>
     int chunk = write(*buffer++);
 80a3570:	2c00      	cmp	r4, #0
 80a3572:	bf08      	it	eq
 80a3574:	4604      	moveq	r4, r0
             n = chunk;
         break;
     }
  }
  return n;
}
 80a3576:	4620      	mov	r0, r4
 80a3578:	bdf8      	pop	{r3, r4, r5, r6, r7, pc}

080a357a <_ZN5Print5writeEPKc>:

    int getWriteError() { return write_error; }
    void clearWriteError() { setWriteError(0); }

    virtual size_t write(uint8_t) = 0;
    size_t write(const char *str) {
 80a357a:	b570      	push	{r4, r5, r6, lr}
 80a357c:	4605      	mov	r5, r0
      if (str == NULL) return 0;
 80a357e:	460c      	mov	r4, r1
      return write((const uint8_t *)str, strlen(str));
    }
 80a3580:	4608      	mov	r0, r1
    int getWriteError() { return write_error; }
    void clearWriteError() { setWriteError(0); }

    virtual size_t write(uint8_t) = 0;
    size_t write(const char *str) {
      if (str == NULL) return 0;
 80a3582:	b149      	cbz	r1, 80a3598 <_ZN5Print5writeEPKc+0x1e>
      return write((const uint8_t *)str, strlen(str));
 80a3584:	f002 f8f1 	bl	80a576a <strlen>
 80a3588:	682b      	ldr	r3, [r5, #0]
 80a358a:	4602      	mov	r2, r0
 80a358c:	4621      	mov	r1, r4
 80a358e:	4628      	mov	r0, r5
    }
 80a3590:	e8bd 4070 	ldmia.w	sp!, {r4, r5, r6, lr}
    void clearWriteError() { setWriteError(0); }

    virtual size_t write(uint8_t) = 0;
    size_t write(const char *str) {
      if (str == NULL) return 0;
      return write((const uint8_t *)str, strlen(str));
 80a3594:	68db      	ldr	r3, [r3, #12]
 80a3596:	4718      	bx	r3
    }
 80a3598:	bd70      	pop	{r4, r5, r6, pc}

080a359a <_ZN5Print5printEPKc>:
 80a359a:	b508      	push	{r3, lr}
 80a359c:	f7ff ffed 	bl	80a357a <_ZN5Print5writeEPKc>
 80a35a0:	bd08      	pop	{r3, pc}

080a35a2 <_ZN5Print5printEc>:
  return write(str);
}

size_t Print::print(char c)
{
  return write(c);
 80a35a2:	6803      	ldr	r3, [r0, #0]
 80a35a4:	689b      	ldr	r3, [r3, #8]
 80a35a6:	4718      	bx	r3

080a35a8 <_ZN5Print7printlnEv>:
{
  return print(reinterpret_cast<const char*>(str));
}

size_t Print::println(void)
{
 80a35a8:	b538      	push	{r3, r4, r5, lr}
  size_t n = print('\r');
 80a35aa:	210d      	movs	r1, #13
{
  return print(reinterpret_cast<const char*>(str));
}

size_t Print::println(void)
{
 80a35ac:	4605      	mov	r5, r0
  size_t n = print('\r');
 80a35ae:	f7ff fff8 	bl	80a35a2 <_ZN5Print5printEc>
  n += print('\n');
 80a35b2:	210a      	movs	r1, #10
  return print(reinterpret_cast<const char*>(str));
}

size_t Print::println(void)
{
  size_t n = print('\r');
 80a35b4:	4604      	mov	r4, r0
  n += print('\n');
 80a35b6:	4628      	mov	r0, r5
 80a35b8:	f7ff fff3 	bl	80a35a2 <_ZN5Print5printEc>
  return n;
}
 80a35bc:	4420      	add	r0, r4
 80a35be:	bd38      	pop	{r3, r4, r5, pc}

080a35c0 <_ZN5Print7printlnEPKc>:

size_t Print::println(const char c[])
{
 80a35c0:	b538      	push	{r3, r4, r5, lr}
 80a35c2:	4605      	mov	r5, r0
  return n;
}

size_t Print::print(const char str[])
{
  return write(str);
 80a35c4:	f7ff ffd9 	bl	80a357a <_ZN5Print5writeEPKc>
 80a35c8:	4604      	mov	r4, r0
}

size_t Print::println(const char c[])
{
  size_t n = print(c);
  n += println();
 80a35ca:	4628      	mov	r0, r5
 80a35cc:	f7ff ffec 	bl	80a35a8 <_ZN5Print7printlnEv>
  return n;
}
 80a35d0:	4420      	add	r0, r4
 80a35d2:	bd38      	pop	{r3, r4, r5, pc}

080a35d4 <_ZN5Print11printNumberEmh>:
  char *str = &buf[sizeof(buf) - 1];

  *str = '\0';

  // prevent crash if called with base == 1
  if (base < 2) base = 10;
 80a35d4:	2a01      	cmp	r2, #1
 80a35d6:	bf98      	it	ls
 80a35d8:	220a      	movls	r2, #10
  return println(reinterpret_cast<const char*>(str));
}

// Private Methods /////////////////////////////////////////////////////////////

size_t Print::printNumber(unsigned long n, uint8_t base) {
 80a35da:	b530      	push	{r4, r5, lr}
 80a35dc:	460b      	mov	r3, r1
 80a35de:	b08b      	sub	sp, #44	; 0x2c
  char buf[8 * sizeof(long) + 1]; // Assumes 8-bit chars plus zero byte.
  char *str = &buf[sizeof(buf) - 1];

  *str = '\0';
 80a35e0:	2100      	movs	r1, #0
 80a35e2:	f88d 1024 	strb.w	r1, [sp, #36]	; 0x24
 80a35e6:	f10d 0423 	add.w	r4, sp, #35	; 0x23
  // prevent crash if called with base == 1
  if (base < 2) base = 10;

  do {
    unsigned long m = n;
    n /= base;
 80a35ea:	fbb3 f5f2 	udiv	r5, r3, r2
    char c = m - base * n;
 80a35ee:	fb05 3312 	mls	r3, r5, r2, r3
 80a35f2:	b2db      	uxtb	r3, r3
    *--str = c < 10 ? c + '0' : c + 'A' - 10;
 80a35f4:	2b09      	cmp	r3, #9
 80a35f6:	bf94      	ite	ls
 80a35f8:	3330      	addls	r3, #48	; 0x30
 80a35fa:	3337      	addhi	r3, #55	; 0x37
 80a35fc:	b2db      	uxtb	r3, r3
 80a35fe:	4621      	mov	r1, r4
 80a3600:	f804 3901 	strb.w	r3, [r4], #-1
 80a3604:	462b      	mov	r3, r5
  *str = '\0';

  // prevent crash if called with base == 1
  if (base < 2) base = 10;

  do {
 80a3606:	2d00      	cmp	r5, #0
 80a3608:	d1ef      	bne.n	80a35ea <_ZN5Print11printNumberEmh+0x16>
    n /= base;
    char c = m - base * n;
    *--str = c < 10 ? c + '0' : c + 'A' - 10;
  } while(n);

  return write(str);
 80a360a:	f7ff ffb6 	bl	80a357a <_ZN5Print5writeEPKc>
}
 80a360e:	b00b      	add	sp, #44	; 0x2c
 80a3610:	bd30      	pop	{r4, r5, pc}

080a3612 <_ZN5Print5printEmi>:
    return printNumber(n, base);
  }
}

size_t Print::print(unsigned long n, int base)
{
 80a3612:	b410      	push	{r4}
  if (base == 0) return write(n);
 80a3614:	b922      	cbnz	r2, 80a3620 <_ZN5Print5printEmi+0xe>
 80a3616:	6803      	ldr	r3, [r0, #0]
 80a3618:	b2c9      	uxtb	r1, r1
 80a361a:	689b      	ldr	r3, [r3, #8]
  else return printNumber(n, base);
}
 80a361c:	bc10      	pop	{r4}
  }
}

size_t Print::print(unsigned long n, int base)
{
  if (base == 0) return write(n);
 80a361e:	4718      	bx	r3
  else return printNumber(n, base);
 80a3620:	b2d2      	uxtb	r2, r2
}
 80a3622:	bc10      	pop	{r4}
}

size_t Print::print(unsigned long n, int base)
{
  if (base == 0) return write(n);
  else return printNumber(n, base);
 80a3624:	f7ff bfd6 	b.w	80a35d4 <_ZN5Print11printNumberEmh>

080a3628 <_ZN5Print5printEhi>:
  return write(c);
}

size_t Print::print(unsigned char b, int base)
{
  return print((unsigned long) b, base);
 80a3628:	f7ff bff3 	b.w	80a3612 <_ZN5Print5printEmi>

080a362c <_ZN5Print7printlnEmi>:
  n += println();
  return n;
}

size_t Print::println(unsigned long num, int base)
{
 80a362c:	b538      	push	{r3, r4, r5, lr}
 80a362e:	4605      	mov	r5, r0
  size_t n = print(num, base);
 80a3630:	f7ff ffef 	bl	80a3612 <_ZN5Print5printEmi>
 80a3634:	4604      	mov	r4, r0
  n += println();
 80a3636:	4628      	mov	r0, r5
 80a3638:	f7ff ffb6 	bl	80a35a8 <_ZN5Print7printlnEv>
  return n;
}
 80a363c:	4420      	add	r0, r4
 80a363e:	bd38      	pop	{r3, r4, r5, pc}

080a3640 <_ZN5Print5printEli>:
{
  return print((unsigned long) n, base);
}

size_t Print::print(long n, int base)
{
 80a3640:	e92d 41f0 	stmdb	sp!, {r4, r5, r6, r7, r8, lr}
 80a3644:	4607      	mov	r7, r0
 80a3646:	460e      	mov	r6, r1
  if (base == 0) {
 80a3648:	4615      	mov	r5, r2
 80a364a:	b92a      	cbnz	r2, 80a3658 <_ZN5Print5printEli+0x18>
    }
    return printNumber(n, 10);
  } else {
    return printNumber(n, base);
  }
}
 80a364c:	e8bd 41f0 	ldmia.w	sp!, {r4, r5, r6, r7, r8, lr}
}

size_t Print::print(long n, int base)
{
  if (base == 0) {
    return write(n);
 80a3650:	6803      	ldr	r3, [r0, #0]
 80a3652:	b2c9      	uxtb	r1, r1
 80a3654:	689b      	ldr	r3, [r3, #8]
 80a3656:	4718      	bx	r3
  } else if (base == 10) {
 80a3658:	2a0a      	cmp	r2, #10
 80a365a:	d102      	bne.n	80a3662 <_ZN5Print5printEli+0x22>
    if (n < 0) {
 80a365c:	2900      	cmp	r1, #0
 80a365e:	da01      	bge.n	80a3664 <_ZN5Print5printEli+0x24>
 80a3660:	e004      	b.n	80a366c <_ZN5Print5printEli+0x2c>
      n = -n;
      return printNumber(n, 10) + t;
    }
    return printNumber(n, 10);
  } else {
    return printNumber(n, base);
 80a3662:	b2d2      	uxtb	r2, r2
  }
}
 80a3664:	e8bd 41f0 	ldmia.w	sp!, {r4, r5, r6, r7, r8, lr}
      n = -n;
      return printNumber(n, 10) + t;
    }
    return printNumber(n, 10);
  } else {
    return printNumber(n, base);
 80a3668:	f7ff bfb4 	b.w	80a35d4 <_ZN5Print11printNumberEmh>
{
  if (base == 0) {
    return write(n);
  } else if (base == 10) {
    if (n < 0) {
      int t = print('-');
 80a366c:	212d      	movs	r1, #45	; 0x2d
 80a366e:	f7ff ff98 	bl	80a35a2 <_ZN5Print5printEc>
      n = -n;
      return printNumber(n, 10) + t;
 80a3672:	462a      	mov	r2, r5
{
  if (base == 0) {
    return write(n);
  } else if (base == 10) {
    if (n < 0) {
      int t = print('-');
 80a3674:	4604      	mov	r4, r0
      n = -n;
      return printNumber(n, 10) + t;
 80a3676:	4271      	negs	r1, r6
 80a3678:	4638      	mov	r0, r7
 80a367a:	f7ff ffab 	bl	80a35d4 <_ZN5Print11printNumberEmh>
 80a367e:	4420      	add	r0, r4
    }
    return printNumber(n, 10);
  } else {
    return printNumber(n, base);
  }
}
 80a3680:	e8bd 81f0 	ldmia.w	sp!, {r4, r5, r6, r7, r8, pc}

080a3684 <_ZN5Print5printEii>:
  return print((unsigned long) b, base);
}

size_t Print::print(int n, int base)
{
  return print((long) n, base);
 80a3684:	f7ff bfdc 	b.w	80a3640 <_ZN5Print5printEli>

080a3688 <_ZN5Print7printlnEii>:
  n += println();
  return n;
}

size_t Print::println(int num, int base)
{
 80a3688:	b538      	push	{r3, r4, r5, lr}
 80a368a:	4605      	mov	r5, r0
  return print((unsigned long) b, base);
}

size_t Print::print(int n, int base)
{
  return print((long) n, base);
 80a368c:	f7ff ffd8 	bl	80a3640 <_ZN5Print5printEli>
 80a3690:	4604      	mov	r4, r0
}

size_t Print::println(int num, int base)
{
  size_t n = print(num, base);
  n += println();
 80a3692:	4628      	mov	r0, r5
 80a3694:	f7ff ff88 	bl	80a35a8 <_ZN5Print7printlnEv>
  return n;
}
 80a3698:	4420      	add	r0, r4
 80a369a:	bd38      	pop	{r3, r4, r5, pc}

080a369c <_ZN5Print10printFloatEdh>:

  return write(str);
}

size_t Print::printFloat(double number, uint8_t digits)
{
 80a369c:	e92d 43f8 	stmdb	sp!, {r3, r4, r5, r6, r7, r8, r9, lr}
  size_t n = 0;

  if (isnan(number)) return print("nan");
 80a36a0:	4619      	mov	r1, r3

  return write(str);
}

size_t Print::printFloat(double number, uint8_t digits)
{
 80a36a2:	4680      	mov	r8, r0
  size_t n = 0;

  if (isnan(number)) return print("nan");
 80a36a4:	4610      	mov	r0, r2

  return write(str);
}

size_t Print::printFloat(double number, uint8_t digits)
{
 80a36a6:	4617      	mov	r7, r2
 80a36a8:	461e      	mov	r6, r3
 80a36aa:	f89d 5020 	ldrb.w	r5, [sp, #32]
  size_t n = 0;

  if (isnan(number)) return print("nan");
 80a36ae:	f001 fc99 	bl	80a4fe4 <__aeabi_dcmpun>
 80a36b2:	b108      	cbz	r0, 80a36b8 <_ZN5Print10printFloatEdh+0x1c>
  return n;
}

size_t Print::print(const char str[])
{
  return write(str);
 80a36b4:	4947      	ldr	r1, [pc, #284]	; (80a37d4 <_ZN5Print10printFloatEdh+0x138>)
 80a36b6:	e012      	b.n	80a36de <_ZN5Print10printFloatEdh+0x42>
size_t Print::printFloat(double number, uint8_t digits)
{
  size_t n = 0;

  if (isnan(number)) return print("nan");
  if (isinf(number)) return print("inf");
 80a36b8:	f026 4400 	bic.w	r4, r6, #2147483648	; 0x80000000
 80a36bc:	f04f 32ff 	mov.w	r2, #4294967295
 80a36c0:	4b45      	ldr	r3, [pc, #276]	; (80a37d8 <_ZN5Print10printFloatEdh+0x13c>)
 80a36c2:	4638      	mov	r0, r7
 80a36c4:	4621      	mov	r1, r4
 80a36c6:	f001 fc8d 	bl	80a4fe4 <__aeabi_dcmpun>
 80a36ca:	b968      	cbnz	r0, 80a36e8 <_ZN5Print10printFloatEdh+0x4c>
 80a36cc:	f04f 32ff 	mov.w	r2, #4294967295
 80a36d0:	4b41      	ldr	r3, [pc, #260]	; (80a37d8 <_ZN5Print10printFloatEdh+0x13c>)
 80a36d2:	4638      	mov	r0, r7
 80a36d4:	4621      	mov	r1, r4
 80a36d6:	f001 fc67 	bl	80a4fa8 <__aeabi_dcmple>
 80a36da:	b928      	cbnz	r0, 80a36e8 <_ZN5Print10printFloatEdh+0x4c>
  return n;
}

size_t Print::print(const char str[])
{
  return write(str);
 80a36dc:	493f      	ldr	r1, [pc, #252]	; (80a37dc <_ZN5Print10printFloatEdh+0x140>)
 80a36de:	4640      	mov	r0, r8
 80a36e0:	f7ff ff4b 	bl	80a357a <_ZN5Print5writeEPKc>
size_t Print::printFloat(double number, uint8_t digits)
{
  size_t n = 0;

  if (isnan(number)) return print("nan");
  if (isinf(number)) return print("inf");
 80a36e4:	e8bd 83f8 	ldmia.w	sp!, {r3, r4, r5, r6, r7, r8, r9, pc}
  if (number > 4294967040.0) return print ("ovf");  // constant determined empirically
 80a36e8:	f04f 4260 	mov.w	r2, #3758096384	; 0xe0000000
 80a36ec:	4b3c      	ldr	r3, [pc, #240]	; (80a37e0 <_ZN5Print10printFloatEdh+0x144>)
 80a36ee:	4638      	mov	r0, r7
 80a36f0:	4631      	mov	r1, r6
 80a36f2:	f001 fc6d 	bl	80a4fd0 <__aeabi_dcmpgt>
 80a36f6:	b108      	cbz	r0, 80a36fc <_ZN5Print10printFloatEdh+0x60>
  return n;
}

size_t Print::print(const char str[])
{
  return write(str);
 80a36f8:	493a      	ldr	r1, [pc, #232]	; (80a37e4 <_ZN5Print10printFloatEdh+0x148>)
 80a36fa:	e7f0      	b.n	80a36de <_ZN5Print10printFloatEdh+0x42>
  size_t n = 0;

  if (isnan(number)) return print("nan");
  if (isinf(number)) return print("inf");
  if (number > 4294967040.0) return print ("ovf");  // constant determined empirically
  if (number <-4294967040.0) return print ("ovf");  // constant determined empirically
 80a36fc:	f04f 4260 	mov.w	r2, #3758096384	; 0xe0000000
 80a3700:	4b39      	ldr	r3, [pc, #228]	; (80a37e8 <_ZN5Print10printFloatEdh+0x14c>)
 80a3702:	4638      	mov	r0, r7
 80a3704:	4631      	mov	r1, r6
 80a3706:	f001 fc45 	bl	80a4f94 <__aeabi_dcmplt>
 80a370a:	2800      	cmp	r0, #0
 80a370c:	d1f4      	bne.n	80a36f8 <_ZN5Print10printFloatEdh+0x5c>

  // Handle negative numbers
  if (number < 0.0)
 80a370e:	2200      	movs	r2, #0
 80a3710:	2300      	movs	r3, #0
 80a3712:	4638      	mov	r0, r7
 80a3714:	4631      	mov	r1, r6
 80a3716:	f001 fc3d 	bl	80a4f94 <__aeabi_dcmplt>
 80a371a:	b138      	cbz	r0, 80a372c <_ZN5Print10printFloatEdh+0x90>
  {
     n += print('-');
 80a371c:	212d      	movs	r1, #45	; 0x2d
 80a371e:	4640      	mov	r0, r8
 80a3720:	f7ff ff3f 	bl	80a35a2 <_ZN5Print5printEc>
     number = -number;
 80a3724:	f106 4600 	add.w	r6, r6, #2147483648	; 0x80000000
  if (number <-4294967040.0) return print ("ovf");  // constant determined empirically

  // Handle negative numbers
  if (number < 0.0)
  {
     n += print('-');
 80a3728:	4604      	mov	r4, r0
 80a372a:	e000      	b.n	80a372e <_ZN5Print10printFloatEdh+0x92>
  return write(str);
}

size_t Print::printFloat(double number, uint8_t digits)
{
  size_t n = 0;
 80a372c:	4604      	mov	r4, r0
     n += print('-');
     number = -number;
  }

  // Round correctly so that print(1.999, 2) prints as "2.00"
  double rounding = 0.5;
 80a372e:	492f      	ldr	r1, [pc, #188]	; (80a37ec <_ZN5Print10printFloatEdh+0x150>)
  return write(str);
}

size_t Print::printFloat(double number, uint8_t digits)
{
  size_t n = 0;
 80a3730:	f04f 0900 	mov.w	r9, #0
     n += print('-');
     number = -number;
  }

  // Round correctly so that print(1.999, 2) prints as "2.00"
  double rounding = 0.5;
 80a3734:	2000      	movs	r0, #0
  for (uint8_t i=0; i<digits; ++i)
 80a3736:	fa5f f389 	uxtb.w	r3, r9
 80a373a:	429d      	cmp	r5, r3
 80a373c:	d906      	bls.n	80a374c <_ZN5Print10printFloatEdh+0xb0>
    rounding /= 10.0;
 80a373e:	2200      	movs	r2, #0
 80a3740:	4b2b      	ldr	r3, [pc, #172]	; (80a37f0 <_ZN5Print10printFloatEdh+0x154>)
 80a3742:	f001 fadf 	bl	80a4d04 <__aeabi_ddiv>
 80a3746:	f109 0901 	add.w	r9, r9, #1
 80a374a:	e7f4      	b.n	80a3736 <_ZN5Print10printFloatEdh+0x9a>

  number += rounding;
 80a374c:	463a      	mov	r2, r7
 80a374e:	4633      	mov	r3, r6
 80a3750:	f000 fffc 	bl	80a474c <__adddf3>
 80a3754:	460f      	mov	r7, r1
 80a3756:	4606      	mov	r6, r0

  // Extract the integer part of the number and print it
  unsigned long int_part = (unsigned long)number;
 80a3758:	f001 fc82 	bl	80a5060 <__aeabi_d2uiz>
}

size_t Print::print(unsigned long n, int base)
{
  if (base == 0) return write(n);
  else return printNumber(n, base);
 80a375c:	220a      	movs	r2, #10
 80a375e:	4601      	mov	r1, r0
    rounding /= 10.0;

  number += rounding;

  // Extract the integer part of the number and print it
  unsigned long int_part = (unsigned long)number;
 80a3760:	4681      	mov	r9, r0
}

size_t Print::print(unsigned long n, int base)
{
  if (base == 0) return write(n);
  else return printNumber(n, base);
 80a3762:	4640      	mov	r0, r8
 80a3764:	f7ff ff36 	bl	80a35d4 <_ZN5Print11printNumberEmh>
  number += rounding;

  // Extract the integer part of the number and print it
  unsigned long int_part = (unsigned long)number;
  double remainder = number - (double)int_part;
  n += print(int_part);
 80a3768:	4404      	add	r4, r0

  // Print the decimal point, but only if there are digits beyond
  if (digits > 0) {
 80a376a:	b37d      	cbz	r5, 80a37cc <_ZN5Print10printFloatEdh+0x130>

  number += rounding;

  // Extract the integer part of the number and print it
  unsigned long int_part = (unsigned long)number;
  double remainder = number - (double)int_part;
 80a376c:	4648      	mov	r0, r9
 80a376e:	f001 f929 	bl	80a49c4 <__aeabi_ui2d>
 80a3772:	4602      	mov	r2, r0
 80a3774:	460b      	mov	r3, r1
 80a3776:	4630      	mov	r0, r6
 80a3778:	4639      	mov	r1, r7
 80a377a:	f000 ffe5 	bl	80a4748 <__aeabi_dsub>
 80a377e:	4606      	mov	r6, r0
 80a3780:	460f      	mov	r7, r1
  return n;
}

size_t Print::print(const char str[])
{
  return write(str);
 80a3782:	4640      	mov	r0, r8
 80a3784:	491b      	ldr	r1, [pc, #108]	; (80a37f4 <_ZN5Print10printFloatEdh+0x158>)
 80a3786:	f7ff fef8 	bl	80a357a <_ZN5Print5writeEPKc>
  double remainder = number - (double)int_part;
  n += print(int_part);

  // Print the decimal point, but only if there are digits beyond
  if (digits > 0) {
    n += print(".");
 80a378a:	4404      	add	r4, r0
  }

  // Extract digits from the remainder one at a time
  while (digits-- > 0)
  {
    remainder *= 10.0;
 80a378c:	4b18      	ldr	r3, [pc, #96]	; (80a37f0 <_ZN5Print10printFloatEdh+0x154>)
 80a378e:	2200      	movs	r2, #0
 80a3790:	4630      	mov	r0, r6
 80a3792:	4639      	mov	r1, r7
 80a3794:	f001 f98c 	bl	80a4ab0 <__aeabi_dmul>
 80a3798:	460f      	mov	r7, r1
 80a379a:	4606      	mov	r6, r0
    int toPrint = int(remainder);
 80a379c:	f001 fc38 	bl	80a5010 <__aeabi_d2iz>
  return print((unsigned long) b, base);
}

size_t Print::print(int n, int base)
{
  return print((long) n, base);
 80a37a0:	220a      	movs	r2, #10
 80a37a2:	4601      	mov	r1, r0

  // Extract digits from the remainder one at a time
  while (digits-- > 0)
  {
    remainder *= 10.0;
    int toPrint = int(remainder);
 80a37a4:	4681      	mov	r9, r0
  return print((unsigned long) b, base);
}

size_t Print::print(int n, int base)
{
  return print((long) n, base);
 80a37a6:	4640      	mov	r0, r8
 80a37a8:	f7ff ff4a 	bl	80a3640 <_ZN5Print5printEli>
  // Extract digits from the remainder one at a time
  while (digits-- > 0)
  {
    remainder *= 10.0;
    int toPrint = int(remainder);
    n += print(toPrint);
 80a37ac:	4404      	add	r4, r0
    remainder -= toPrint;
 80a37ae:	4648      	mov	r0, r9
 80a37b0:	f001 f918 	bl	80a49e4 <__aeabi_i2d>
 80a37b4:	4602      	mov	r2, r0
 80a37b6:	460b      	mov	r3, r1
 80a37b8:	4630      	mov	r0, r6
 80a37ba:	4639      	mov	r1, r7
 80a37bc:	f000 ffc4 	bl	80a4748 <__aeabi_dsub>
 80a37c0:	3d01      	subs	r5, #1
  if (digits > 0) {
    n += print(".");
  }

  // Extract digits from the remainder one at a time
  while (digits-- > 0)
 80a37c2:	f015 05ff 	ands.w	r5, r5, #255	; 0xff
  {
    remainder *= 10.0;
    int toPrint = int(remainder);
    n += print(toPrint);
    remainder -= toPrint;
 80a37c6:	4606      	mov	r6, r0
 80a37c8:	460f      	mov	r7, r1
  if (digits > 0) {
    n += print(".");
  }

  // Extract digits from the remainder one at a time
  while (digits-- > 0)
 80a37ca:	d1df      	bne.n	80a378c <_ZN5Print10printFloatEdh+0xf0>
  number += rounding;

  // Extract the integer part of the number and print it
  unsigned long int_part = (unsigned long)number;
  double remainder = number - (double)int_part;
  n += print(int_part);
 80a37cc:	4620      	mov	r0, r4
 80a37ce:	e8bd 83f8 	ldmia.w	sp!, {r3, r4, r5, r6, r7, r8, r9, pc}
 80a37d2:	bf00      	nop
 80a37d4:	080a588c 	.word	0x080a588c
 80a37d8:	7fefffff 	.word	0x7fefffff
 80a37dc:	080a5894 	.word	0x080a5894
 80a37e0:	41efffff 	.word	0x41efffff
 80a37e4:	080a5890 	.word	0x080a5890
 80a37e8:	c1efffff 	.word	0xc1efffff
 80a37ec:	3fe00000 	.word	0x3fe00000
 80a37f0:	40240000 	.word	0x40240000
 80a37f4:	080a57c9 	.word	0x080a57c9

080a37f8 <_ZN5Print5printEdi>:
  else return printNumber(n, base);
}

size_t Print::print(double n, int digits)
{
  return printFloat(n, digits);
 80a37f8:	f89d 1000 	ldrb.w	r1, [sp]
 80a37fc:	9100      	str	r1, [sp, #0]
 80a37fe:	f7ff bf4d 	b.w	80a369c <_ZN5Print10printFloatEdh>

080a3802 <_ZN5Print11printf_implEbPKcz>:

  return n;
}

size_t Print::printf_impl(bool newline, const char* format, ...)
{
 80a3802:	b40c      	push	{r2, r3}
 80a3804:	e92d 43f0 	stmdb	sp!, {r4, r5, r6, r7, r8, r9, lr}
 80a3808:	b087      	sub	sp, #28
 80a380a:	af00      	add	r7, sp, #0
 80a380c:	f107 0438 	add.w	r4, r7, #56	; 0x38
 80a3810:	f854 9b04 	ldr.w	r9, [r4], #4
 80a3814:	4605      	mov	r5, r0
 80a3816:	460e      	mov	r6, r1
    const int bufsize = 20;
    char test[bufsize];
    va_list marker;
    va_start(marker, format);
    size_t n = vsnprintf(test, bufsize, format, marker);
 80a3818:	4623      	mov	r3, r4
 80a381a:	464a      	mov	r2, r9
 80a381c:	2114      	movs	r1, #20
 80a381e:	1d38      	adds	r0, r7, #4
size_t Print::printf_impl(bool newline, const char* format, ...)
{
    const int bufsize = 20;
    char test[bufsize];
    va_list marker;
    va_start(marker, format);
 80a3820:	603c      	str	r4, [r7, #0]
    size_t n = vsnprintf(test, bufsize, format, marker);
 80a3822:	f7ff fe03 	bl	80a342c <vsnprintf>
    va_end(marker);

    if (n<bufsize)
 80a3826:	2813      	cmp	r0, #19
 80a3828:	d805      	bhi.n	80a3836 <_ZN5Print11printf_implEbPKcz+0x34>
  return n;
}

size_t Print::print(const char str[])
{
  return write(str);
 80a382a:	1d39      	adds	r1, r7, #4
 80a382c:	4628      	mov	r0, r5
 80a382e:	f7ff fea4 	bl	80a357a <_ZN5Print5writeEPKc>
 80a3832:	4604      	mov	r4, r0
 80a3834:	e013      	b.n	80a385e <_ZN5Print11printf_implEbPKcz+0x5c>
    {
        n = print(test);
    }
    else
    {
        char bigger[n+1];
 80a3836:	f100 0308 	add.w	r3, r0, #8
 80a383a:	f023 0307 	bic.w	r3, r3, #7
        va_start(marker, format);
        n = vsnprintf(bigger, n+1, format, marker);
        va_end(marker);
        n = print(bigger);
 80a383e:	46e8      	mov	r8, sp
    {
        n = print(test);
    }
    else
    {
        char bigger[n+1];
 80a3840:	ebad 0d03 	sub.w	sp, sp, r3
        va_start(marker, format);
        n = vsnprintf(bigger, n+1, format, marker);
 80a3844:	1c41      	adds	r1, r0, #1
 80a3846:	4623      	mov	r3, r4
 80a3848:	464a      	mov	r2, r9
 80a384a:	4668      	mov	r0, sp
        n = print(test);
    }
    else
    {
        char bigger[n+1];
        va_start(marker, format);
 80a384c:	603c      	str	r4, [r7, #0]
        n = vsnprintf(bigger, n+1, format, marker);
 80a384e:	f7ff fded 	bl	80a342c <vsnprintf>
  return n;
}

size_t Print::print(const char str[])
{
  return write(str);
 80a3852:	4669      	mov	r1, sp
 80a3854:	4628      	mov	r0, r5
 80a3856:	f7ff fe90 	bl	80a357a <_ZN5Print5writeEPKc>
 80a385a:	4604      	mov	r4, r0
 80a385c:	46c5      	mov	sp, r8
        va_start(marker, format);
        n = vsnprintf(bigger, n+1, format, marker);
        va_end(marker);
        n = print(bigger);
    }
    if (newline)
 80a385e:	b11e      	cbz	r6, 80a3868 <_ZN5Print11printf_implEbPKcz+0x66>
        n += println();
 80a3860:	4628      	mov	r0, r5
 80a3862:	f7ff fea1 	bl	80a35a8 <_ZN5Print7printlnEv>
 80a3866:	4404      	add	r4, r0
    return n;
}
 80a3868:	4620      	mov	r0, r4
 80a386a:	371c      	adds	r7, #28
 80a386c:	46bd      	mov	sp, r7
 80a386e:	e8bd 43f0 	ldmia.w	sp!, {r4, r5, r6, r7, r8, r9, lr}
 80a3872:	b002      	add	sp, #8
 80a3874:	4770      	bx	lr

080a3876 <_ZNSt14__shared_countILN9__gnu_cxx12_Lock_policyE0EED1Ev>:
      explicit __shared_count(const __weak_count<_Lp>& __r);

      // Does not throw if __r._M_get_use_count() == 0, caller must check.
      explicit __shared_count(const __weak_count<_Lp>& __r, std::nothrow_t);

      ~__shared_count() noexcept
 80a3876:	b538      	push	{r3, r4, r5, lr}
      {
	if (_M_pi != nullptr)
 80a3878:	6804      	ldr	r4, [r0, #0]
      explicit __shared_count(const __weak_count<_Lp>& __r);

      // Does not throw if __r._M_get_use_count() == 0, caller must check.
      explicit __shared_count(const __weak_count<_Lp>& __r, std::nothrow_t);

      ~__shared_count() noexcept
 80a387a:	4605      	mov	r5, r0
      {
	if (_M_pi != nullptr)
 80a387c:	b17c      	cbz	r4, 80a389e <_ZNSt14__shared_countILN9__gnu_cxx12_Lock_policyE0EED1Ev+0x28>

  template<>
    inline void
    _Sp_counted_base<_S_single>::_M_release() noexcept
    {
      if (--_M_use_count == 0)
 80a387e:	6863      	ldr	r3, [r4, #4]
 80a3880:	3b01      	subs	r3, #1
 80a3882:	6063      	str	r3, [r4, #4]
 80a3884:	b95b      	cbnz	r3, 80a389e <_ZNSt14__shared_countILN9__gnu_cxx12_Lock_policyE0EED1Ev+0x28>
        {
          _M_dispose();
 80a3886:	6823      	ldr	r3, [r4, #0]
 80a3888:	4620      	mov	r0, r4
 80a388a:	689b      	ldr	r3, [r3, #8]
 80a388c:	4798      	blx	r3
          if (--_M_weak_count == 0)
 80a388e:	68a3      	ldr	r3, [r4, #8]
 80a3890:	3b01      	subs	r3, #1
 80a3892:	60a3      	str	r3, [r4, #8]
 80a3894:	b91b      	cbnz	r3, 80a389e <_ZNSt14__shared_countILN9__gnu_cxx12_Lock_policyE0EED1Ev+0x28>
            _M_destroy();
 80a3896:	6823      	ldr	r3, [r4, #0]
 80a3898:	4620      	mov	r0, r4
 80a389a:	68db      	ldr	r3, [r3, #12]
 80a389c:	4798      	blx	r3

      ~__shared_count() noexcept
      {
	if (_M_pi != nullptr)
	  _M_pi->_M_release();
      }
 80a389e:	4628      	mov	r0, r5
 80a38a0:	bd38      	pop	{r3, r4, r5, pc}

080a38a2 <_ZNSt14__shared_countILN9__gnu_cxx12_Lock_policyE0EEC1ERKS2_>:

      __shared_count(const __shared_count& __r) noexcept
      : _M_pi(__r._M_pi)
 80a38a2:	680b      	ldr	r3, [r1, #0]
 80a38a4:	6003      	str	r3, [r0, #0]
      {
	if (_M_pi != 0)
 80a38a6:	b113      	cbz	r3, 80a38ae <_ZNSt14__shared_countILN9__gnu_cxx12_Lock_policyE0EEC1ERKS2_+0xc>
    }

  template<>
    inline void
    _Sp_counted_base<_S_single>::_M_add_ref_copy()
    { ++_M_use_count; }
 80a38a8:	685a      	ldr	r2, [r3, #4]
 80a38aa:	3201      	adds	r2, #1
 80a38ac:	605a      	str	r2, [r3, #4]
      __shared_count(const __shared_count& __r) noexcept
      : _M_pi(__r._M_pi)
      {
	if (_M_pi != 0)
	  _M_pi->_M_add_ref_copy();
      }
 80a38ae:	4770      	bx	lr

080a38b0 <_GLOBAL__sub_I__ZN5spark3LogE>:
    // This handler doesn't support direct logging
}

// spark::Logger
inline spark::Logger::Logger(const char *name) :
        name_(name) {
 80a38b0:	4a01      	ldr	r2, [pc, #4]	; (80a38b8 <_GLOBAL__sub_I__ZN5spark3LogE+0x8>)
 80a38b2:	4b02      	ldr	r3, [pc, #8]	; (80a38bc <_GLOBAL__sub_I__ZN5spark3LogE+0xc>)
 80a38b4:	601a      	str	r2, [r3, #0]
 80a38b6:	4770      	bx	lr
 80a38b8:	080a594e 	.word	0x080a594e
 80a38bc:	2000041c 	.word	0x2000041c

080a38c0 <_GLOBAL__sub_I_TIME_FORMAT_DEFAULT>:
            calendar_time_cache = Convert_UnixTime_To_CalendarTime(unix_time);
            unix_time_cache = unix_time;
    }
}

const char* TimeClass::format_spec = TIME_FORMAT_DEFAULT;
 80a38c0:	4b02      	ldr	r3, [pc, #8]	; (80a38cc <_GLOBAL__sub_I_TIME_FORMAT_DEFAULT+0xc>)
 80a38c2:	681a      	ldr	r2, [r3, #0]
 80a38c4:	4b02      	ldr	r3, [pc, #8]	; (80a38d0 <_GLOBAL__sub_I_TIME_FORMAT_DEFAULT+0x10>)
 80a38c6:	601a      	str	r2, [r3, #0]
 80a38c8:	4770      	bx	lr
 80a38ca:	bf00      	nop
 80a38cc:	20000360 	.word	0x20000360
 80a38d0:	20000420 	.word	0x20000420

080a38d4 <delay>:
  return (value - fromStart) * (toEnd - toStart) / (fromEnd - fromStart) + toStart;
}

void delay(unsigned long ms)
{
    system_delay_ms(ms, false);
 80a38d4:	2100      	movs	r1, #0
 80a38d6:	f7ff bd51 	b.w	80a337c <system_delay_ms>
	...

080a38dc <serialEventRun>:

/**
 * Provides background processing of serial data.
 */
void serialEventRun()
{
 80a38dc:	b508      	push	{r3, lr}
    if (serialEvent && Serial.available()>0)
 80a38de:	4b14      	ldr	r3, [pc, #80]	; (80a3930 <serialEventRun+0x54>)
 80a38e0:	b133      	cbz	r3, 80a38f0 <serialEventRun+0x14>
 80a38e2:	f000 fb9d 	bl	80a4020 <_Z16_fetch_usbserialv>
 80a38e6:	6803      	ldr	r3, [r0, #0]
 80a38e8:	691b      	ldr	r3, [r3, #16]
 80a38ea:	4798      	blx	r3
 80a38ec:	2800      	cmp	r0, #0
 80a38ee:	dc16      	bgt.n	80a391e <serialEventRun+0x42>
        serialEvent();

    if (serialEvent1 && Serial1.available()>0)
 80a38f0:	4b10      	ldr	r3, [pc, #64]	; (80a3934 <serialEventRun+0x58>)
 80a38f2:	b133      	cbz	r3, 80a3902 <serialEventRun+0x26>
 80a38f4:	f000 fc62 	bl	80a41bc <_Z22__fetch_global_Serial1v>
 80a38f8:	6803      	ldr	r3, [r0, #0]
 80a38fa:	691b      	ldr	r3, [r3, #16]
 80a38fc:	4798      	blx	r3
 80a38fe:	2800      	cmp	r0, #0
 80a3900:	dc10      	bgt.n	80a3924 <serialEventRun+0x48>
        serialEvent1();

#if Wiring_Serial2
    if (serialEventRun2) serialEventRun2();
 80a3902:	4b0d      	ldr	r3, [pc, #52]	; (80a3938 <serialEventRun+0x5c>)
 80a3904:	b10b      	cbz	r3, 80a390a <serialEventRun+0x2e>
 80a3906:	f3af 8000 	nop.w
#if Wiring_Serial5
    if (serialEventRun5) serialEventRun5();
#endif

#if Wiring_USBSerial1
    if (usbSerialEvent1 && USBSerial1.available()>0)
 80a390a:	4b0c      	ldr	r3, [pc, #48]	; (80a393c <serialEventRun+0x60>)
 80a390c:	b17b      	cbz	r3, 80a392e <serialEventRun+0x52>
 80a390e:	f000 fbc3 	bl	80a4098 <_Z17_fetch_usbserial1v>
 80a3912:	6803      	ldr	r3, [r0, #0]
 80a3914:	691b      	ldr	r3, [r3, #16]
 80a3916:	4798      	blx	r3
 80a3918:	2800      	cmp	r0, #0
 80a391a:	dc06      	bgt.n	80a392a <serialEventRun+0x4e>
 80a391c:	bd08      	pop	{r3, pc}
 * Provides background processing of serial data.
 */
void serialEventRun()
{
    if (serialEvent && Serial.available()>0)
        serialEvent();
 80a391e:	f3af 8000 	nop.w
 80a3922:	e7e5      	b.n	80a38f0 <serialEventRun+0x14>

    if (serialEvent1 && Serial1.available()>0)
        serialEvent1();
 80a3924:	f3af 8000 	nop.w
 80a3928:	e7eb      	b.n	80a3902 <serialEventRun+0x26>
    if (serialEventRun5) serialEventRun5();
#endif

#if Wiring_USBSerial1
    if (usbSerialEvent1 && USBSerial1.available()>0)
        usbSerialEvent1();
 80a392a:	f3af 8000 	nop.w
 80a392e:	bd08      	pop	{r3, pc}
	...

080a3940 <_post_loop>:
#if Wiring_Serial5
void serialEvent5() __attribute__((weak));
#endif

void _post_loop()
{
 80a3940:	b508      	push	{r3, lr}
	serialEventRun();
 80a3942:	f7ff ffcb 	bl	80a38dc <serialEventRun>
		return !timeout_fn;
	}

	static inline system_tick_t current_time()
	{
		return HAL_Timer_Get_Milli_Seconds();
 80a3946:	f7ff fc0f 	bl	80a3168 <HAL_Timer_Get_Milli_Seconds>
	/**
	 * Lifesign that the application is still working normally.
	 */
	static void checkin()
	{
		last_checkin = current_time();
 80a394a:	4b01      	ldr	r3, [pc, #4]	; (80a3950 <_post_loop+0x10>)
 80a394c:	6018      	str	r0, [r3, #0]
 80a394e:	bd08      	pop	{r3, pc}
 80a3950:	200008ac 	.word	0x200008ac

080a3954 <_Z33system_initialize_user_backup_ramv>:
 * the dynamically linked application module.
 */
void system_initialize_user_backup_ram()
{
    size_t len = &link_global_retained_end-&link_global_retained_start;
    memcpy(&link_global_retained_start, &link_global_retained_initial_values, len);
 80a3954:	4802      	ldr	r0, [pc, #8]	; (80a3960 <_Z33system_initialize_user_backup_ramv+0xc>)
 80a3956:	4a03      	ldr	r2, [pc, #12]	; (80a3964 <_Z33system_initialize_user_backup_ramv+0x10>)
 80a3958:	4903      	ldr	r1, [pc, #12]	; (80a3968 <_Z33system_initialize_user_backup_ramv+0x14>)
 80a395a:	1a12      	subs	r2, r2, r0
 80a395c:	f001 bef2 	b.w	80a5744 <memcpy>
 80a3960:	40024000 	.word	0x40024000
 80a3964:	40024004 	.word	0x40024004
 80a3968:	080a5ac0 	.word	0x080a5ac0

080a396c <_Z26usb_request_custom_handlerPcjjPj>:
#ifdef USB_VENDOR_REQUEST_ENABLE

// Synchronous handler for customizable requests (USBRequestType::USB_REQUEST_CUSTOM)
bool __attribute((weak)) usb_request_custom_handler(char* buf, size_t buf_size, size_t req_size, size_t* rep_size) {
    return false;
}
 80a396c:	2000      	movs	r0, #0
 80a396e:	4770      	bx	lr

080a3970 <_Z23usb_request_app_handlerP10USBRequestPv>:

bool usb_request_app_handler(USBRequest* req, void* reserved) {
 80a3970:	b537      	push	{r0, r1, r2, r4, r5, lr}
    switch (req->type) {
 80a3972:	6843      	ldr	r3, [r0, #4]
// Synchronous handler for customizable requests (USBRequestType::USB_REQUEST_CUSTOM)
bool __attribute((weak)) usb_request_custom_handler(char* buf, size_t buf_size, size_t req_size, size_t* rep_size) {
    return false;
}

bool usb_request_app_handler(USBRequest* req, void* reserved) {
 80a3974:	4604      	mov	r4, r0
    switch (req->type) {
 80a3976:	2b0a      	cmp	r3, #10
 80a3978:	d00e      	beq.n	80a3998 <_Z23usb_request_app_handlerP10USBRequestPv+0x28>
 80a397a:	2b50      	cmp	r3, #80	; 0x50
 80a397c:	d11c      	bne.n	80a39b8 <_Z23usb_request_app_handlerP10USBRequestPv+0x48>
#if Wiring_LogConfig
    case USB_REQUEST_LOG_CONFIG: {
        if (!log_process_config_request_callback || !log_process_config_request_callback(req->data, USB_REQUEST_BUFFER_SIZE,
 80a397e:	4b10      	ldr	r3, [pc, #64]	; (80a39c0 <_Z23usb_request_app_handlerP10USBRequestPv+0x50>)
 80a3980:	681d      	ldr	r5, [r3, #0]
 80a3982:	b1cd      	cbz	r5, 80a39b8 <_Z23usb_request_app_handlerP10USBRequestPv+0x48>
 80a3984:	7d03      	ldrb	r3, [r0, #20]
 80a3986:	f44f 7100 	mov.w	r1, #512	; 0x200
 80a398a:	9300      	str	r3, [sp, #0]
 80a398c:	68c2      	ldr	r2, [r0, #12]
 80a398e:	f100 0310 	add.w	r3, r0, #16
 80a3992:	6880      	ldr	r0, [r0, #8]
 80a3994:	47a8      	blx	r5
 80a3996:	e007      	b.n	80a39a8 <_Z23usb_request_app_handlerP10USBRequestPv+0x38>
        system_set_usb_request_result(req, USB_REQUEST_RESULT_OK, nullptr);
        return true;
    }
#endif
    case USB_REQUEST_CUSTOM: {
        if (!usb_request_custom_handler(req->data, USB_REQUEST_BUFFER_SIZE, req->request_size, &req->reply_size)) {
 80a3998:	f100 0310 	add.w	r3, r0, #16
 80a399c:	68c2      	ldr	r2, [r0, #12]
 80a399e:	f44f 7100 	mov.w	r1, #512	; 0x200
 80a39a2:	6880      	ldr	r0, [r0, #8]
 80a39a4:	f7ff ffe2 	bl	80a396c <_Z26usb_request_custom_handlerPcjjPj>
 80a39a8:	b130      	cbz	r0, 80a39b8 <_Z23usb_request_app_handlerP10USBRequestPv+0x48>
            return false;
        }
        system_set_usb_request_result(req, USB_REQUEST_RESULT_OK, nullptr);
 80a39aa:	2200      	movs	r2, #0
 80a39ac:	4620      	mov	r0, r4
 80a39ae:	4611      	mov	r1, r2
 80a39b0:	f7ff fd0c 	bl	80a33cc <system_set_usb_request_result>
        return true;
 80a39b4:	2001      	movs	r0, #1
 80a39b6:	e000      	b.n	80a39ba <_Z23usb_request_app_handlerP10USBRequestPv+0x4a>
    switch (req->type) {
#if Wiring_LogConfig
    case USB_REQUEST_LOG_CONFIG: {
        if (!log_process_config_request_callback || !log_process_config_request_callback(req->data, USB_REQUEST_BUFFER_SIZE,
                req->request_size, &req->reply_size, (DataFormat)req->format)) {
            return false;
 80a39b8:	2000      	movs	r0, #0
        return true;
    }
    default:
        return false; // Unsupported request type
    }
}
 80a39ba:	b003      	add	sp, #12
 80a39bc:	bd30      	pop	{r4, r5, pc}
 80a39be:	bf00      	nop
 80a39c0:	20000424 	.word	0x20000424

080a39c4 <module_user_init_hook>:

#endif // USB_VENDOR_REQUEST_ENABLE

void module_user_init_hook()
{
 80a39c4:	b538      	push	{r3, r4, r5, lr}
#if PLATFORM_BACKUP_RAM
    backup_ram_was_valid_ =  __backup_sram_signature==signature;
 80a39c6:	4c0c      	ldr	r4, [pc, #48]	; (80a39f8 <module_user_init_hook+0x34>)
 80a39c8:	4d0c      	ldr	r5, [pc, #48]	; (80a39fc <module_user_init_hook+0x38>)
 80a39ca:	6823      	ldr	r3, [r4, #0]
 80a39cc:	42ab      	cmp	r3, r5
 80a39ce:	4b0c      	ldr	r3, [pc, #48]	; (80a3a00 <module_user_init_hook+0x3c>)
 80a39d0:	bf0c      	ite	eq
 80a39d2:	2201      	moveq	r2, #1
 80a39d4:	2200      	movne	r2, #0
 80a39d6:	701a      	strb	r2, [r3, #0]
    if (!backup_ram_was_valid_) {
 80a39d8:	d002      	beq.n	80a39e0 <module_user_init_hook+0x1c>
        system_initialize_user_backup_ram();
 80a39da:	f7ff ffbb 	bl	80a3954 <_Z33system_initialize_user_backup_ramv>
        __backup_sram_signature = signature;
 80a39de:	6025      	str	r5, [r4, #0]
    /* for dynamically linked user part, set the random seed if the user
     * app defines random_seed_from_cloud.
     */
// todo - add a RNG define for that capability
#if defined(STM32F2XX)
    if (random_seed_from_cloud) {
 80a39e0:	4b08      	ldr	r3, [pc, #32]	; (80a3a04 <module_user_init_hook+0x40>)
 80a39e2:	b11b      	cbz	r3, 80a39ec <module_user_init_hook+0x28>
    		uint32_t seed = HAL_RNG_GetRandomNumber();
 80a39e4:	f7ff fbb8 	bl	80a3158 <HAL_RNG_GetRandomNumber>
    		random_seed_from_cloud(seed);
 80a39e8:	f3af 8000 	nop.w
#endif

#ifdef USB_VENDOR_REQUEST_ENABLE
    system_set_usb_request_app_handler(usb_request_app_handler, nullptr);
#endif
}
 80a39ec:	e8bd 4038 	ldmia.w	sp!, {r3, r4, r5, lr}
    		random_seed_from_cloud(seed);
    }
#endif

#ifdef USB_VENDOR_REQUEST_ENABLE
    system_set_usb_request_app_handler(usb_request_app_handler, nullptr);
 80a39f0:	2100      	movs	r1, #0
 80a39f2:	4805      	ldr	r0, [pc, #20]	; (80a3a08 <module_user_init_hook+0x44>)
 80a39f4:	f7ff bce2 	b.w	80a33bc <system_set_usb_request_app_handler>
 80a39f8:	40024000 	.word	0x40024000
 80a39fc:	9a271c1e 	.word	0x9a271c1e
 80a3a00:	20000428 	.word	0x20000428
 80a3a04:	00000000 	.word	0x00000000
 80a3a08:	080a3971 	.word	0x080a3971

080a3a0c <_ZNSt15_Sp_counted_ptrIPN5spark6detail10FutureImplIvNS1_13FutureContextEEELN9__gnu_cxx12_Lock_policyE0EED1Ev>:
    class __shared_count;


  // Counted ptr with no deleter or allocator support
  template<typename _Ptr, _Lock_policy _Lp>
    class _Sp_counted_ptr final : public _Sp_counted_base<_Lp>
 80a3a0c:	4770      	bx	lr

080a3a0e <_ZNSt15_Sp_counted_ptrIPN5spark6detail10FutureImplIvNS1_13FutureContextEEELN9__gnu_cxx12_Lock_policyE0EE10_M_disposeEv>:
      _Sp_counted_ptr(_Ptr __p) noexcept
      : _M_ptr(__p) { }

      virtual void
      _M_dispose() noexcept
      { delete _M_ptr; }
 80a3a0e:	68c0      	ldr	r0, [r0, #12]
 80a3a10:	b110      	cbz	r0, 80a3a18 <_ZNSt15_Sp_counted_ptrIPN5spark6detail10FutureImplIvNS1_13FutureContextEEELN9__gnu_cxx12_Lock_policyE0EE10_M_disposeEv+0xa>
 80a3a12:	6803      	ldr	r3, [r0, #0]
 80a3a14:	685b      	ldr	r3, [r3, #4]
 80a3a16:	4718      	bx	r3
 80a3a18:	4770      	bx	lr

080a3a1a <_ZNSt15_Sp_counted_ptrIPN5spark6detail10FutureImplIvNS1_13FutureContextEEELN9__gnu_cxx12_Lock_policyE0EE14_M_get_deleterERKSt9type_info>:
      _M_destroy() noexcept
      { delete this; }

      virtual void*
      _M_get_deleter(const std::type_info&) noexcept
      { return nullptr; }
 80a3a1a:	2000      	movs	r0, #0
 80a3a1c:	4770      	bx	lr

080a3a1e <_ZNSt15_Sp_counted_ptrIPN5spark6detail10FutureImplIvNS1_13FutureContextEEELN9__gnu_cxx12_Lock_policyE0EED0Ev>:
    class __shared_count;


  // Counted ptr with no deleter or allocator support
  template<typename _Ptr, _Lock_policy _Lp>
    class _Sp_counted_ptr final : public _Sp_counted_base<_Lp>
 80a3a1e:	b510      	push	{r4, lr}
 80a3a20:	4604      	mov	r4, r0
 80a3a22:	f7fc fb3c 	bl	80a009e <_ZdlPv>
 80a3a26:	4620      	mov	r0, r4
 80a3a28:	bd10      	pop	{r4, pc}

080a3a2a <_ZNSt15_Sp_counted_ptrIPN5spark6detail10FutureImplIvNS1_13FutureContextEEELN9__gnu_cxx12_Lock_policyE0EE10_M_destroyEv>:
      virtual void
      _M_dispose() noexcept
      { delete _M_ptr; }

      virtual void
      _M_destroy() noexcept
 80a3a2a:	b508      	push	{r3, lr}
      { delete this; }
 80a3a2c:	b108      	cbz	r0, 80a3a32 <_ZNSt15_Sp_counted_ptrIPN5spark6detail10FutureImplIvNS1_13FutureContextEEELN9__gnu_cxx12_Lock_policyE0EE10_M_destroyEv+0x8>
 80a3a2e:	f7ff fff6 	bl	80a3a1e <_ZNSt15_Sp_counted_ptrIPN5spark6detail10FutureImplIvNS1_13FutureContextEEELN9__gnu_cxx12_Lock_policyE0EED0Ev>
 80a3a32:	bd08      	pop	{r3, pc}

080a3a34 <_ZNSt14_Function_baseD1Ev>:
	}
      };

    _Function_base() : _M_manager(nullptr) { }

    ~_Function_base()
 80a3a34:	b510      	push	{r4, lr}
    {
      if (_M_manager)
 80a3a36:	6883      	ldr	r3, [r0, #8]
	}
      };

    _Function_base() : _M_manager(nullptr) { }

    ~_Function_base()
 80a3a38:	4604      	mov	r4, r0
    {
      if (_M_manager)
 80a3a3a:	b113      	cbz	r3, 80a3a42 <_ZNSt14_Function_baseD1Ev+0xe>
	_M_manager(_M_functor, _M_functor, __destroy_functor);
 80a3a3c:	2203      	movs	r2, #3
 80a3a3e:	4601      	mov	r1, r0
 80a3a40:	4798      	blx	r3
    }
 80a3a42:	4620      	mov	r0, r4
 80a3a44:	bd10      	pop	{r4, pc}
	...

080a3a48 <_ZN5spark6detail14FutureImplBaseIvNS0_13FutureContextEED1Ev>:
            done_(state != State::RUNNING),
            onSuccess_(nullptr),
            onError_(nullptr) {
    }

    virtual ~FutureImplBase() {
 80a3a48:	b538      	push	{r3, r4, r5, lr}
        // Do we need to use restricted memory ordering in destructor, assuming that FutureImplBase instances are
        // always managed by std::shared_ptr?
        delete onSuccess_.load(std::memory_order_relaxed);
        delete onError_.load(std::memory_order_relaxed);
    }
 80a3a4a:	4b0a      	ldr	r3, [pc, #40]	; (80a3a74 <_ZN5spark6detail14FutureImplBaseIvNS0_13FutureContextEED1Ev+0x2c>)
            done_(state != State::RUNNING),
            onSuccess_(nullptr),
            onError_(nullptr) {
    }

    virtual ~FutureImplBase() {
 80a3a4c:	4604      	mov	r4, r0
        // Do we need to use restricted memory ordering in destructor, assuming that FutureImplBase instances are
        // always managed by std::shared_ptr?
        delete onSuccess_.load(std::memory_order_relaxed);
        delete onError_.load(std::memory_order_relaxed);
    }
 80a3a4e:	6003      	str	r3, [r0, #0]
      {
        memory_order __b = __m & __memory_order_mask;
	__glibcxx_assert(__b != memory_order_release);
	__glibcxx_assert(__b != memory_order_acq_rel);

	return __atomic_load_n(&_M_p, __m);
 80a3a50:	68c5      	ldr	r5, [r0, #12]
    }

    virtual ~FutureImplBase() {
        // Do we need to use restricted memory ordering in destructor, assuming that FutureImplBase instances are
        // always managed by std::shared_ptr?
        delete onSuccess_.load(std::memory_order_relaxed);
 80a3a52:	b12d      	cbz	r5, 80a3a60 <_ZN5spark6detail14FutureImplBaseIvNS0_13FutureContextEED1Ev+0x18>
   *  @ingroup functors
   *
   *  Polymorphic function wrapper.
   */
  template<typename _Res, typename... _ArgTypes>
    class function<_Res(_ArgTypes...)>
 80a3a54:	4628      	mov	r0, r5
 80a3a56:	f7ff ffed 	bl	80a3a34 <_ZNSt14_Function_baseD1Ev>
 80a3a5a:	4628      	mov	r0, r5
 80a3a5c:	f7fc fb1f 	bl	80a009e <_ZdlPv>
 80a3a60:	6925      	ldr	r5, [r4, #16]
        delete onError_.load(std::memory_order_relaxed);
 80a3a62:	b12d      	cbz	r5, 80a3a70 <_ZN5spark6detail14FutureImplBaseIvNS0_13FutureContextEED1Ev+0x28>
 80a3a64:	4628      	mov	r0, r5
 80a3a66:	f7ff ffe5 	bl	80a3a34 <_ZNSt14_Function_baseD1Ev>
 80a3a6a:	4628      	mov	r0, r5
 80a3a6c:	f7fc fb17 	bl	80a009e <_ZdlPv>
    }
 80a3a70:	4620      	mov	r0, r4
 80a3a72:	bd38      	pop	{r3, r4, r5, pc}
 80a3a74:	080a59a8 	.word	0x080a59a8

080a3a78 <_ZN5spark6detail14FutureImplBaseIvNS0_13FutureContextEED0Ev>:
            done_(state != State::RUNNING),
            onSuccess_(nullptr),
            onError_(nullptr) {
    }

    virtual ~FutureImplBase() {
 80a3a78:	b510      	push	{r4, lr}
 80a3a7a:	4604      	mov	r4, r0
        // Do we need to use restricted memory ordering in destructor, assuming that FutureImplBase instances are
        // always managed by std::shared_ptr?
        delete onSuccess_.load(std::memory_order_relaxed);
        delete onError_.load(std::memory_order_relaxed);
    }
 80a3a7c:	f7ff ffe4 	bl	80a3a48 <_ZN5spark6detail14FutureImplBaseIvNS0_13FutureContextEED1Ev>
 80a3a80:	4620      	mov	r0, r4
 80a3a82:	f7fc fb0c 	bl	80a009e <_ZdlPv>
 80a3a86:	4620      	mov	r0, r4
 80a3a88:	bd10      	pop	{r4, pc}
	...

080a3a8c <_ZN5spark6detail10FutureImplIvNS0_13FutureContextEED1Ev>:
    };
};

// Internal future implementation. Specialization for void result type
template<typename ContextT>
class FutureImpl<void, ContextT>: public FutureImplBase<void, ContextT> {
 80a3a8c:	b510      	push	{r4, lr}
 80a3a8e:	4604      	mov	r4, r0
 80a3a90:	4b02      	ldr	r3, [pc, #8]	; (80a3a9c <_ZN5spark6detail10FutureImplIvNS0_13FutureContextEED1Ev+0x10>)
 80a3a92:	6003      	str	r3, [r0, #0]
 80a3a94:	f7ff ffd8 	bl	80a3a48 <_ZN5spark6detail14FutureImplBaseIvNS0_13FutureContextEED1Ev>
 80a3a98:	4620      	mov	r0, r4
 80a3a9a:	bd10      	pop	{r4, pc}
 80a3a9c:	080a59b8 	.word	0x080a59b8

080a3aa0 <_ZN5spark6detail10FutureImplIvNS0_13FutureContextEED0Ev>:
 80a3aa0:	b510      	push	{r4, lr}
 80a3aa2:	4604      	mov	r4, r0
 80a3aa4:	f7ff fff2 	bl	80a3a8c <_ZN5spark6detail10FutureImplIvNS0_13FutureContextEED1Ev>
 80a3aa8:	4620      	mov	r0, r4
 80a3aaa:	f7fc faf8 	bl	80a009e <_ZdlPv>
 80a3aae:	4620      	mov	r0, r4
 80a3ab0:	bd10      	pop	{r4, pc}

080a3ab2 <_ZNSt8functionIFvvEEC1ERKS1_>:
      _Invoker_type _M_invoker;
  };

  // Out-of-line member definitions.
  template<typename _Res, typename... _ArgTypes>
    function<_Res(_ArgTypes...)>::
 80a3ab2:	b538      	push	{r3, r4, r5, lr}
	{
	  _Base::_M_init_functor(__functor, std::__addressof(__f.get()));
	}
      };

    _Function_base() : _M_manager(nullptr) { }
 80a3ab4:	2300      	movs	r3, #0
 80a3ab6:	6083      	str	r3, [r0, #8]
 80a3ab8:	688b      	ldr	r3, [r1, #8]
      _Invoker_type _M_invoker;
  };

  // Out-of-line member definitions.
  template<typename _Res, typename... _ArgTypes>
    function<_Res(_ArgTypes...)>::
 80a3aba:	4604      	mov	r4, r0
 80a3abc:	460d      	mov	r5, r1
    function(const function& __x)
    : _Function_base()
    {
      if (static_cast<bool>(__x))
 80a3abe:	b12b      	cbz	r3, 80a3acc <_ZNSt8functionIFvvEEC1ERKS1_+0x1a>
	{
	  __x._M_manager(_M_functor, __x._M_functor, __clone_functor);
 80a3ac0:	2202      	movs	r2, #2
 80a3ac2:	4798      	blx	r3
	  _M_invoker = __x._M_invoker;
 80a3ac4:	68eb      	ldr	r3, [r5, #12]
 80a3ac6:	60e3      	str	r3, [r4, #12]
	  _M_manager = __x._M_manager;
 80a3ac8:	68ab      	ldr	r3, [r5, #8]
 80a3aca:	60a3      	str	r3, [r4, #8]
	}
    }
 80a3acc:	4620      	mov	r0, r4
 80a3ace:	bd38      	pop	{r3, r4, r5, pc}

080a3ad0 <_ZNSt14_Function_base13_Base_managerISt5_BindIFSt8functionIFvvEEvEEE10_M_managerERSt9_Any_dataRKS8_St18_Manager_operation>:
      public:
	static bool
	_M_manager(_Any_data& __dest, const _Any_data& __source,
		   _Manager_operation __op)
	{
	  switch (__op)
 80a3ad0:	2a02      	cmp	r2, #2
	  delete __victim._M_access<_Functor*>();
	}

      public:
	static bool
	_M_manager(_Any_data& __dest, const _Any_data& __source,
 80a3ad2:	b570      	push	{r4, r5, r6, lr}
 80a3ad4:	4604      	mov	r4, r0
		   _Manager_operation __op)
	{
	  switch (__op)
 80a3ad6:	d006      	beq.n	80a3ae6 <_ZNSt14_Function_base13_Base_managerISt5_BindIFSt8functionIFvvEEvEEE10_M_managerERSt9_Any_dataRKS8_St18_Manager_operation+0x16>
 80a3ad8:	2a03      	cmp	r2, #3
 80a3ada:	d00f      	beq.n	80a3afc <_ZNSt14_Function_base13_Base_managerISt5_BindIFSt8functionIFvvEEvEEE10_M_managerERSt9_Any_dataRKS8_St18_Manager_operation+0x2c>
 80a3adc:	2a01      	cmp	r2, #1
 80a3ade:	d115      	bne.n	80a3b0c <_ZNSt14_Function_base13_Base_managerISt5_BindIFSt8functionIFvvEEvEEE10_M_managerERSt9_Any_dataRKS8_St18_Manager_operation+0x3c>
	static _Functor*
	_M_get_pointer(const _Any_data& __source)
	{
	  const _Functor* __ptr =
	    __stored_locally? std::__addressof(__source._M_access<_Functor>())
	    /* have stored a pointer */ : __source._M_access<_Functor*>();
 80a3ae0:	680b      	ldr	r3, [r1, #0]
	    case __get_type_info:
	      __dest._M_access<const type_info*>() = &typeid(_Functor);
	      break;
#endif
	    case __get_functor_ptr:
	      __dest._M_access<_Functor*>() = _M_get_pointer(__source);
 80a3ae2:	6003      	str	r3, [r0, #0]
	      break;
 80a3ae4:	e012      	b.n	80a3b0c <_ZNSt14_Function_base13_Base_managerISt5_BindIFSt8functionIFvvEEvEEE10_M_managerERSt9_Any_dataRKS8_St18_Manager_operation+0x3c>
	// Clone a function object that is not location-invariant or
	// that cannot fit into an _Any_data structure.
	static void
	_M_clone(_Any_data& __dest, const _Any_data& __source, false_type)
	{
	  __dest._M_access<_Functor*>() =
 80a3ae6:	2014      	movs	r0, #20
 80a3ae8:	680e      	ldr	r6, [r1, #0]
 80a3aea:	f7fc fad6 	bl	80a009a <_Znwj>
 80a3aee:	4605      	mov	r5, r0
 80a3af0:	b110      	cbz	r0, 80a3af8 <_ZNSt14_Function_base13_Base_managerISt5_BindIFSt8functionIFvvEEvEEE10_M_managerERSt9_Any_dataRKS8_St18_Manager_operation+0x28>
      template<typename... _Args>
	explicit _Bind(_Functor&& __f, _Args&&... __args)
	: _M_f(std::move(__f)), _M_bound_args(std::forward<_Args>(__args)...)
	{ }

      _Bind(const _Bind&) = default;
 80a3af2:	4631      	mov	r1, r6
 80a3af4:	f7ff ffdd 	bl	80a3ab2 <_ZNSt8functionIFvvEEC1ERKS1_>
	// Clone a function object that is not location-invariant or
	// that cannot fit into an _Any_data structure.
	static void
	_M_clone(_Any_data& __dest, const _Any_data& __source, false_type)
	{
	  __dest._M_access<_Functor*>() =
 80a3af8:	6025      	str	r5, [r4, #0]
 80a3afa:	e007      	b.n	80a3b0c <_ZNSt14_Function_base13_Base_managerISt5_BindIFSt8functionIFvvEEvEEE10_M_managerERSt9_Any_dataRKS8_St18_Manager_operation+0x3c>

	// Destroying an object located on the heap.
	static void
	_M_destroy(_Any_data& __victim, false_type)
	{
	  delete __victim._M_access<_Functor*>();
 80a3afc:	6804      	ldr	r4, [r0, #0]
 80a3afe:	b12c      	cbz	r4, 80a3b0c <_ZNSt14_Function_base13_Base_managerISt5_BindIFSt8functionIFvvEEvEEE10_M_managerERSt9_Any_dataRKS8_St18_Manager_operation+0x3c>
   *  @ingroup functors
   *
   *  Polymorphic function wrapper.
   */
  template<typename _Res, typename... _ArgTypes>
    class function<_Res(_ArgTypes...)>
 80a3b00:	4620      	mov	r0, r4
 80a3b02:	f7ff ff97 	bl	80a3a34 <_ZNSt14_Function_baseD1Ev>

	// Destroying an object located on the heap.
	static void
	_M_destroy(_Any_data& __victim, false_type)
	{
	  delete __victim._M_access<_Functor*>();
 80a3b06:	4620      	mov	r0, r4
 80a3b08:	f7fc fac9 	bl	80a009e <_ZdlPv>
	    case __destroy_functor:
	      _M_destroy(__dest, _Local_storage());
	      break;
	    }
	  return false;
	}
 80a3b0c:	2000      	movs	r0, #0
 80a3b0e:	bd70      	pop	{r4, r5, r6, pc}

080a3b10 <_ZNKSt8functionIFvvEEclEv>:
  template<typename _Res, typename... _ArgTypes>
    _Res
    function<_Res(_ArgTypes...)>::
    operator()(_ArgTypes... __args) const
    {
      if (_M_empty())
 80a3b10:	6882      	ldr	r2, [r0, #8]
	  }
      }

  template<typename _Res, typename... _ArgTypes>
    _Res
    function<_Res(_ArgTypes...)>::
 80a3b12:	b510      	push	{r4, lr}
    operator()(_ArgTypes... __args) const
    {
      if (_M_empty())
 80a3b14:	b90a      	cbnz	r2, 80a3b1a <_ZNKSt8functionIFvvEEclEv+0xa>
	__throw_bad_function_call();
 80a3b16:	f000 fcc8 	bl	80a44aa <_ZSt25__throw_bad_function_callv>
      return _M_invoker(_M_functor, std::forward<_ArgTypes>(__args)...);
 80a3b1a:	68c3      	ldr	r3, [r0, #12]
    }
 80a3b1c:	e8bd 4010 	ldmia.w	sp!, {r4, lr}
    function<_Res(_ArgTypes...)>::
    operator()(_ArgTypes... __args) const
    {
      if (_M_empty())
	__throw_bad_function_call();
      return _M_invoker(_M_functor, std::forward<_ArgTypes>(__args)...);
 80a3b20:	4718      	bx	r3

080a3b22 <_ZNSt17_Function_handlerIFvvESt5_BindIFSt8functionIS0_EvEEE9_M_invokeERKSt9_Any_data>:
    {
      typedef _Function_base::_Base_manager<_Functor> _Base;

     public:
      static void
      _M_invoke(const _Any_data& __functor, _ArgTypes&&... __args)
 80a3b22:	b508      	push	{r3, lr}
      template<typename _Result, typename... _Args, std::size_t... _Indexes>
	_Result
	__call(tuple<_Args...>&& __args, _Index_tuple<_Indexes...>)
	{
	  return _M_f(_Mu<_Bound_args>()
		      (std::get<_Indexes>(_M_bound_args), __args)...);
 80a3b24:	6800      	ldr	r0, [r0, #0]
 80a3b26:	f7ff fff3 	bl	80a3b10 <_ZNKSt8functionIFvvEEclEv>
 80a3b2a:	bd08      	pop	{r3, pc}

080a3b2c <_ZN5spark6FutureIvNS_6detail13FutureContextEEC1ESt10shared_ptrINS1_10FutureImplIvS2_EEE>:
template<typename ContextT>
class Future<void, ContextT>: public FutureBase<void, ContextT> {
public:
    using typename FutureBase<void, ContextT>::State;

    using FutureBase<void, ContextT>::FutureBase;
 80a3b2c:	b537      	push	{r0, r1, r2, r4, r5, lr}
 80a3b2e:	4605      	mov	r5, r0
      }

      void
      _M_swap(__shared_count& __r) noexcept
      {
	_Sp_counted_base<_Lp>* __tmp = __r._M_pi;
 80a3b30:	6848      	ldr	r0, [r1, #4]
	__r._M_pi = _M_pi;
	_M_pi = __tmp;
 80a3b32:	ac02      	add	r4, sp, #8
 80a3b34:	f844 0d04 	str.w	r0, [r4, #-4]!
      template<typename _Tp1>
	__shared_ptr(const __shared_ptr<_Tp1, _Lp>& __r, _Tp* __p) noexcept
	: _M_ptr(__p), _M_refcount(__r._M_refcount) // never throws
	{ }

      __shared_ptr(const __shared_ptr&) noexcept = default;
 80a3b38:	4628      	mov	r0, r5
	__shared_ptr(const __shared_ptr<_Tp1, _Lp>& __r) noexcept
	: _M_ptr(__r._M_ptr), _M_refcount(__r._M_refcount)
	{ }

      __shared_ptr(__shared_ptr&& __r) noexcept
      : _M_ptr(__r._M_ptr), _M_refcount()
 80a3b3a:	680b      	ldr	r3, [r1, #0]

      void
      _M_swap(__shared_count& __r) noexcept
      {
	_Sp_counted_base<_Lp>* __tmp = __r._M_pi;
	__r._M_pi = _M_pi;
 80a3b3c:	2200      	movs	r2, #0
 80a3b3e:	604a      	str	r2, [r1, #4]

      __shared_ptr(__shared_ptr&& __r) noexcept
      : _M_ptr(__r._M_ptr), _M_refcount()
      {
	_M_refcount._M_swap(__r._M_refcount);
	__r._M_ptr = 0;
 80a3b40:	600a      	str	r2, [r1, #0]
      template<typename _Tp1>
	__shared_ptr(const __shared_ptr<_Tp1, _Lp>& __r, _Tp* __p) noexcept
	: _M_ptr(__p), _M_refcount(__r._M_refcount) // never throws
	{ }

      __shared_ptr(const __shared_ptr&) noexcept = default;
 80a3b42:	f840 3b04 	str.w	r3, [r0], #4
 80a3b46:	4621      	mov	r1, r4
	__shared_ptr(const __shared_ptr<_Tp1, _Lp>& __r) noexcept
	: _M_ptr(__r._M_ptr), _M_refcount(__r._M_refcount)
	{ }

      __shared_ptr(__shared_ptr&& __r) noexcept
      : _M_ptr(__r._M_ptr), _M_refcount()
 80a3b48:	9300      	str	r3, [sp, #0]
      template<typename _Tp1>
	__shared_ptr(const __shared_ptr<_Tp1, _Lp>& __r, _Tp* __p) noexcept
	: _M_ptr(__p), _M_refcount(__r._M_refcount) // never throws
	{ }

      __shared_ptr(const __shared_ptr&) noexcept = default;
 80a3b4a:	f7ff feaa 	bl	80a38a2 <_ZNSt14__shared_countILN9__gnu_cxx12_Lock_policyE0EEC1ERKS2_>
      __shared_ptr& operator=(const __shared_ptr&) noexcept = default;
      ~__shared_ptr() = default;
 80a3b4e:	4620      	mov	r0, r4
 80a3b50:	f7ff fe91 	bl	80a3876 <_ZNSt14__shared_countILN9__gnu_cxx12_Lock_policyE0EED1Ev>
 80a3b54:	4628      	mov	r0, r5
 80a3b56:	b003      	add	sp, #12
 80a3b58:	bd30      	pop	{r4, r5, pc}

080a3b5a <_ZN5spark11PromiseBaseIvNS_6detail13FutureContextEE11fromDataPtrEPv>:
        // TODO: Use custom reference counting object to avoid unnecessary memory allocation
        return new detail::FutureImplPtr<ResultT, ContextT>(p_);
    }

    // Unwraps promise from an object pointer created via dataPtr() method
    static Promise<ResultT, ContextT> fromDataPtr(void* data) {
 80a3b5a:	b5f7      	push	{r0, r1, r2, r4, r5, r6, r7, lr}
      template<typename _Tp1>
	__shared_ptr(const __shared_ptr<_Tp1, _Lp>& __r, _Tp* __p) noexcept
	: _M_ptr(__p), _M_refcount(__r._M_refcount) // never throws
	{ }

      __shared_ptr(const __shared_ptr&) noexcept = default;
 80a3b5c:	460c      	mov	r4, r1
 80a3b5e:	4606      	mov	r6, r0
 80a3b60:	460f      	mov	r7, r1
 80a3b62:	f854 3b04 	ldr.w	r3, [r4], #4
 80a3b66:	ad02      	add	r5, sp, #8
 80a3b68:	f845 3d08 	str.w	r3, [r5, #-8]!
 80a3b6c:	4621      	mov	r1, r4
 80a3b6e:	a801      	add	r0, sp, #4
 80a3b70:	f7ff fe97 	bl	80a38a2 <_ZNSt14__shared_countILN9__gnu_cxx12_Lock_policyE0EEC1ERKS2_>
        auto d = static_cast<detail::FutureImplPtr<ResultT, ContextT>*>(data);
        const Promise<ResultT, ContextT> p(*d);
 80a3b74:	4629      	mov	r1, r5
 80a3b76:	4630      	mov	r0, r6
 80a3b78:	f7ff ffd8 	bl	80a3b2c <_ZN5spark6FutureIvNS_6detail13FutureContextEEC1ESt10shared_ptrINS1_10FutureImplIvS2_EEE>
      __shared_ptr& operator=(const __shared_ptr&) noexcept = default;
      ~__shared_ptr() = default;
 80a3b7c:	a801      	add	r0, sp, #4
 80a3b7e:	f7ff fe7a 	bl	80a3876 <_ZNSt14__shared_countILN9__gnu_cxx12_Lock_policyE0EED1Ev>
 80a3b82:	4620      	mov	r0, r4
 80a3b84:	f7ff fe77 	bl	80a3876 <_ZNSt14__shared_countILN9__gnu_cxx12_Lock_policyE0EED1Ev>
        delete d;
 80a3b88:	4638      	mov	r0, r7
 80a3b8a:	f7fc fa88 	bl	80a009e <_ZdlPv>
        return p;
    }
 80a3b8e:	4630      	mov	r0, r6
 80a3b90:	b003      	add	sp, #12
 80a3b92:	bdf0      	pop	{r4, r5, r6, r7, pc}

080a3b94 <_ZSt4swapISt9_Any_dataEvRT_S2_>:
   *  @param  __b  Another thing of arbitrary type.
   *  @return   Nothing.
  */
  template<typename _Tp>
    inline void
    swap(_Tp& __a, _Tp& __b)
 80a3b94:	b513      	push	{r0, r1, r4, lr}
 80a3b96:	460b      	mov	r3, r1
 80a3b98:	4604      	mov	r4, r0
#endif
    {
      // concept requirements
      __glibcxx_function_requires(_SGIAssignableConcept<_Tp>)

      _Tp __tmp = _GLIBCXX_MOVE(__a);
 80a3b9a:	c803      	ldmia	r0, {r0, r1}
 80a3b9c:	e88d 0003 	stmia.w	sp, {r0, r1}
      __a = _GLIBCXX_MOVE(__b);
 80a3ba0:	e893 0003 	ldmia.w	r3, {r0, r1}
 80a3ba4:	e884 0003 	stmia.w	r4, {r0, r1}
      __b = _GLIBCXX_MOVE(__tmp);
 80a3ba8:	e89d 0003 	ldmia.w	sp, {r0, r1}
 80a3bac:	e883 0003 	stmia.w	r3, {r0, r1}
    }
 80a3bb0:	b002      	add	sp, #8
 80a3bb2:	bd10      	pop	{r4, pc}

080a3bb4 <_ZN5spark6detail14FutureImplBaseIvNS0_13FutureContextEE14invokeCallbackIFvvEIEEEvRSt6atomicIPSt8functionIT_EEDpOT0_>:
        delete callbackPtr; // Delete old callback
    }

    // Takes a callback from its atomic wrapper and invokes it
    template<typename FunctionT, typename... ArgsT>
    static void invokeCallback(std::atomic<std::function<FunctionT>*>& wrapper, ArgsT&&... args) {
 80a3bb4:	b5f0      	push	{r4, r5, r6, r7, lr}

      _GLIBCXX_ALWAYS_INLINE __pointer_type
      exchange(__pointer_type __p,
	       memory_order __m = memory_order_seq_cst) noexcept
      {
	return __atomic_exchange_n(&_M_p, __p, __m);
 80a3bb6:	f3bf 8f5f 	dmb	sy
 80a3bba:	b087      	sub	sp, #28
 80a3bbc:	2300      	movs	r3, #0
 80a3bbe:	e850 6f00 	ldrex	r6, [r0]
 80a3bc2:	e840 3200 	strex	r2, r3, [r0]
 80a3bc6:	2a00      	cmp	r2, #0
 80a3bc8:	d1f9      	bne.n	80a3bbe <_ZN5spark6detail14FutureImplBaseIvNS0_13FutureContextEE14invokeCallbackIFvvEIEEEvRSt6atomicIPSt8functionIT_EEDpOT0_+0xa>
 80a3bca:	f3bf 8f5f 	dmb	sy
        std::function<FunctionT>* callbackPtr = wrapper.exchange(nullptr, std::memory_order_acq_rel);
        if (callbackPtr) {
 80a3bce:	2e00      	cmp	r6, #0
 80a3bd0:	d037      	beq.n	80a3c42 <_ZN5spark6detail14FutureImplBaseIvNS0_13FutureContextEE14invokeCallbackIFvvEIEEEvRSt6atomicIPSt8functionIT_EEDpOT0_+0x8e>
        return (application_thread_invoke(callback, data, nullptr) == 0);
    }

    // Returns true if current thread is the application thread
    static bool isApplicationThreadCurrent() {
        return (application_thread_current(nullptr) != 0);
 80a3bd2:	4618      	mov	r0, r3
 80a3bd4:	f7ff fbe2 	bl	80a339c <application_thread_current>
    }

    // Invokes std::function in the application context
    template<typename FunctionT, typename... ArgsT>
    static void invokeCallback(const std::function<FunctionT>& callback, ArgsT&&... args) {
        if (ContextT::isApplicationThreadCurrent()) {
 80a3bd8:	4607      	mov	r7, r0
 80a3bda:	b118      	cbz	r0, 80a3be4 <_ZN5spark6detail14FutureImplBaseIvNS0_13FutureContextEE14invokeCallbackIFvvEIEEEvRSt6atomicIPSt8functionIT_EEDpOT0_+0x30>
            callback(std::forward<ArgsT>(args)...); // Synchronous call
 80a3bdc:	4630      	mov	r0, r6
 80a3bde:	f7ff ff97 	bl	80a3b10 <_ZNKSt8functionIFvvEEclEv>
 80a3be2:	e028      	b.n	80a3c36 <_ZN5spark6detail14FutureImplBaseIvNS0_13FutureContextEE14invokeCallbackIFvvEIEEEvRSt6atomicIPSt8functionIT_EEDpOT0_+0x82>
	}

     public:
      template<typename... _Args>
	explicit _Bind(const _Functor& __f, _Args&&... __args)
	: _M_f(__f), _M_bound_args(std::forward<_Args>(__args)...)
 80a3be4:	4631      	mov	r1, r6
 80a3be6:	a801      	add	r0, sp, #4
 80a3be8:	f7ff ff63 	bl	80a3ab2 <_ZNSt8functionIFvvEEC1ERKS1_>
        } else {
            // Bind all arguments and wrap resulting function into a pointer
            auto callbackPtr = new std::function<void()>(std::bind(callback, std::forward<ArgsT>(args)...));
 80a3bec:	2010      	movs	r0, #16
 80a3bee:	f7fc fa54 	bl	80a009a <_Znwj>
 80a3bf2:	4605      	mov	r5, r0
 80a3bf4:	b1b8      	cbz	r0, 80a3c26 <_ZN5spark6detail14FutureImplBaseIvNS0_13FutureContextEE14invokeCallbackIFvvEIEEEvRSt6atomicIPSt8functionIT_EEDpOT0_+0x72>
	{
	  _Base::_M_init_functor(__functor, std::__addressof(__f.get()));
	}
      };

    _Function_base() : _M_manager(nullptr) { }
 80a3bf6:	6087      	str	r7, [r0, #8]
	_M_init_functor(_Any_data& __functor, _Functor&& __f, true_type)
	{ new (__functor._M_access()) _Functor(std::move(__f)); }

	static void
	_M_init_functor(_Any_data& __functor, _Functor&& __f, false_type)
	{ __functor._M_access<_Functor*>() = new _Functor(std::move(__f)); }
 80a3bf8:	2014      	movs	r0, #20
 80a3bfa:	f7fc fa4e 	bl	80a009a <_Znwj>
 80a3bfe:	4604      	mov	r4, r0
 80a3c00:	b160      	cbz	r0, 80a3c1c <_ZN5spark6detail14FutureImplBaseIvNS0_13FutureContextEE14invokeCallbackIFvvEIEEEvRSt6atomicIPSt8functionIT_EEDpOT0_+0x68>
	{
	  _Base::_M_init_functor(__functor, std::__addressof(__f.get()));
	}
      };

    _Function_base() : _M_manager(nullptr) { }
 80a3c02:	6087      	str	r7, [r0, #8]
       *  Swap the targets of @c this function object and @a __f. This
       *  function will not throw an %exception.
       */
      void swap(function& __x)
      {
	std::swap(_M_functor, __x._M_functor);
 80a3c04:	4601      	mov	r1, r0
 80a3c06:	a801      	add	r0, sp, #4
 80a3c08:	f7ff ffc4 	bl	80a3b94 <_ZSt4swapISt9_Any_dataEvRT_S2_>
#endif
    {
      // concept requirements
      __glibcxx_function_requires(_SGIAssignableConcept<_Tp>)

      _Tp __tmp = _GLIBCXX_MOVE(__a);
 80a3c0c:	9b03      	ldr	r3, [sp, #12]
      __a = _GLIBCXX_MOVE(__b);
 80a3c0e:	68a2      	ldr	r2, [r4, #8]
      __b = _GLIBCXX_MOVE(__tmp);
 80a3c10:	60a3      	str	r3, [r4, #8]
    {
      // concept requirements
      __glibcxx_function_requires(_SGIAssignableConcept<_Tp>)

      _Tp __tmp = _GLIBCXX_MOVE(__a);
      __a = _GLIBCXX_MOVE(__b);
 80a3c12:	9203      	str	r2, [sp, #12]
#endif
    {
      // concept requirements
      __glibcxx_function_requires(_SGIAssignableConcept<_Tp>)

      _Tp __tmp = _GLIBCXX_MOVE(__a);
 80a3c14:	9b04      	ldr	r3, [sp, #16]
      __a = _GLIBCXX_MOVE(__b);
 80a3c16:	68e2      	ldr	r2, [r4, #12]
      __b = _GLIBCXX_MOVE(__tmp);
 80a3c18:	60e3      	str	r3, [r4, #12]
    {
      // concept requirements
      __glibcxx_function_requires(_SGIAssignableConcept<_Tp>)

      _Tp __tmp = _GLIBCXX_MOVE(__a);
      __a = _GLIBCXX_MOVE(__b);
 80a3c1a:	9204      	str	r2, [sp, #16]
	typedef _Function_handler<_Signature_type, _Functor> _My_handler;

	if (_My_handler::_M_not_empty_function(__f))
	  {
	    _My_handler::_M_init_functor(_M_functor, std::move(__f));
	    _M_invoker = &_My_handler::_M_invoke;
 80a3c1c:	4b0a      	ldr	r3, [pc, #40]	; (80a3c48 <_ZN5spark6detail14FutureImplBaseIvNS0_13FutureContextEE14invokeCallbackIFvvEIEEEvRSt6atomicIPSt8functionIT_EEDpOT0_+0x94>)
	_M_init_functor(_Any_data& __functor, _Functor&& __f, true_type)
	{ new (__functor._M_access()) _Functor(std::move(__f)); }

	static void
	_M_init_functor(_Any_data& __functor, _Functor&& __f, false_type)
	{ __functor._M_access<_Functor*>() = new _Functor(std::move(__f)); }
 80a3c1e:	602c      	str	r4, [r5, #0]
	typedef _Function_handler<_Signature_type, _Functor> _My_handler;

	if (_My_handler::_M_not_empty_function(__f))
	  {
	    _My_handler::_M_init_functor(_M_functor, std::move(__f));
	    _M_invoker = &_My_handler::_M_invoke;
 80a3c20:	60eb      	str	r3, [r5, #12]
	    _M_manager = &_My_handler::_M_manager;
 80a3c22:	4b0a      	ldr	r3, [pc, #40]	; (80a3c4c <_ZN5spark6detail14FutureImplBaseIvNS0_13FutureContextEE14invokeCallbackIFvvEIEEEvRSt6atomicIPSt8functionIT_EEDpOT0_+0x98>)
 80a3c24:	60ab      	str	r3, [r5, #8]
   *  @ingroup functors
   *
   *  Polymorphic function wrapper.
   */
  template<typename _Res, typename... _ArgTypes>
    class function<_Res(_ArgTypes...)>
 80a3c26:	a801      	add	r0, sp, #4
 80a3c28:	f7ff ff04 	bl	80a3a34 <_ZNSt14_Function_baseD1Ev>
        spark_process();
    }

    // Asynchronously invokes a callback in the application context
    static bool invokeApplicationCallback(void (*callback)(void* data), void* data) {
        return (application_thread_invoke(callback, data, nullptr) == 0);
 80a3c2c:	2200      	movs	r2, #0
 80a3c2e:	4629      	mov	r1, r5
 80a3c30:	4807      	ldr	r0, [pc, #28]	; (80a3c50 <_ZN5spark6detail14FutureImplBaseIvNS0_13FutureContextEE14invokeCallbackIFvvEIEEEvRSt6atomicIPSt8functionIT_EEDpOT0_+0x9c>)
 80a3c32:	f7ff fbbb 	bl	80a33ac <application_thread_invoke>
 80a3c36:	4630      	mov	r0, r6
 80a3c38:	f7ff fefc 	bl	80a3a34 <_ZNSt14_Function_baseD1Ev>
    template<typename FunctionT, typename... ArgsT>
    static void invokeCallback(std::atomic<std::function<FunctionT>*>& wrapper, ArgsT&&... args) {
        std::function<FunctionT>* callbackPtr = wrapper.exchange(nullptr, std::memory_order_acq_rel);
        if (callbackPtr) {
            invokeCallback(*callbackPtr, std::forward<ArgsT>(args)...);
            delete callbackPtr;
 80a3c3c:	4630      	mov	r0, r6
 80a3c3e:	f7fc fa2e 	bl	80a009e <_ZdlPv>
        }
    }
 80a3c42:	b007      	add	sp, #28
 80a3c44:	bdf0      	pop	{r4, r5, r6, r7, pc}
 80a3c46:	bf00      	nop
 80a3c48:	080a3b23 	.word	0x080a3b23
 80a3c4c:	080a3ad1 	.word	0x080a3ad1
 80a3c50:	080a4209 	.word	0x080a4209

080a3c54 <_ZNKSt8functionIFvRKN5spark5ErrorEEEclES3_>:
  template<typename _Res, typename... _ArgTypes>
    _Res
    function<_Res(_ArgTypes...)>::
    operator()(_ArgTypes... __args) const
    {
      if (_M_empty())
 80a3c54:	6882      	ldr	r2, [r0, #8]
	  }
      }

  template<typename _Res, typename... _ArgTypes>
    _Res
    function<_Res(_ArgTypes...)>::
 80a3c56:	b510      	push	{r4, lr}
    operator()(_ArgTypes... __args) const
    {
      if (_M_empty())
 80a3c58:	b90a      	cbnz	r2, 80a3c5e <_ZNKSt8functionIFvRKN5spark5ErrorEEEclES3_+0xa>
	__throw_bad_function_call();
 80a3c5a:	f000 fc26 	bl	80a44aa <_ZSt25__throw_bad_function_callv>
      return _M_invoker(_M_functor, std::forward<_ArgTypes>(__args)...);
 80a3c5e:	68c3      	ldr	r3, [r0, #12]
    }
 80a3c60:	e8bd 4010 	ldmia.w	sp!, {r4, lr}
    function<_Res(_ArgTypes...)>::
    operator()(_ArgTypes... __args) const
    {
      if (_M_empty())
	__throw_bad_function_call();
      return _M_invoker(_M_functor, std::forward<_ArgTypes>(__args)...);
 80a3c64:	4718      	bx	r3

080a3c66 <_ZNSt17_Function_handlerIFvvESt5_BindIFSt8functionIFvRKN5spark5ErrorEEES4_EEE9_M_invokeERKSt9_Any_data>:
    {
      typedef _Function_base::_Base_manager<_Functor> _Base;

     public:
      static void
      _M_invoke(const _Any_data& __functor, _ArgTypes&&... __args)
 80a3c66:	b508      	push	{r3, lr}
	static _Functor*
	_M_get_pointer(const _Any_data& __source)
	{
	  const _Functor* __ptr =
	    __stored_locally? std::__addressof(__source._M_access<_Functor>())
	    /* have stored a pointer */ : __source._M_access<_Functor*>();
 80a3c68:	6800      	ldr	r0, [r0, #0]
      template<typename _Result, typename... _Args, std::size_t... _Indexes>
	_Result
	__call(tuple<_Args...>&& __args, _Index_tuple<_Indexes...>)
	{
	  return _M_f(_Mu<_Bound_args>()
		      (std::get<_Indexes>(_M_bound_args), __args)...);
 80a3c6a:	f100 0110 	add.w	r1, r0, #16
 80a3c6e:	f7ff fff1 	bl	80a3c54 <_ZNKSt8functionIFvRKN5spark5ErrorEEEclES3_>
 80a3c72:	bd08      	pop	{r3, pc}

080a3c74 <_ZNSt8functionIFvRKN5spark5ErrorEEEC1ERKS5_>:
      _Invoker_type _M_invoker;
  };

  // Out-of-line member definitions.
  template<typename _Res, typename... _ArgTypes>
    function<_Res(_ArgTypes...)>::
 80a3c74:	b538      	push	{r3, r4, r5, lr}
	{
	  _Base::_M_init_functor(__functor, std::__addressof(__f.get()));
	}
      };

    _Function_base() : _M_manager(nullptr) { }
 80a3c76:	2300      	movs	r3, #0
 80a3c78:	6083      	str	r3, [r0, #8]
 80a3c7a:	688b      	ldr	r3, [r1, #8]
      _Invoker_type _M_invoker;
  };

  // Out-of-line member definitions.
  template<typename _Res, typename... _ArgTypes>
    function<_Res(_ArgTypes...)>::
 80a3c7c:	4604      	mov	r4, r0
 80a3c7e:	460d      	mov	r5, r1
    function(const function& __x)
    : _Function_base()
    {
      if (static_cast<bool>(__x))
 80a3c80:	b12b      	cbz	r3, 80a3c8e <_ZNSt8functionIFvRKN5spark5ErrorEEEC1ERKS5_+0x1a>
	{
	  __x._M_manager(_M_functor, __x._M_functor, __clone_functor);
 80a3c82:	2202      	movs	r2, #2
 80a3c84:	4798      	blx	r3
	  _M_invoker = __x._M_invoker;
 80a3c86:	68eb      	ldr	r3, [r5, #12]
 80a3c88:	60e3      	str	r3, [r4, #12]
	  _M_manager = __x._M_manager;
 80a3c8a:	68ab      	ldr	r3, [r5, #8]
 80a3c8c:	60a3      	str	r3, [r4, #8]
	}
    }
 80a3c8e:	4620      	mov	r0, r4
 80a3c90:	bd38      	pop	{r3, r4, r5, pc}

080a3c92 <_ZNSt14_Function_base13_Base_managerISt5_BindIFSt8functionIFvRKN5spark5ErrorEEES4_EEE10_M_managerERSt9_Any_dataRKSC_St18_Manager_operation>:
      public:
	static bool
	_M_manager(_Any_data& __dest, const _Any_data& __source,
		   _Manager_operation __op)
	{
	  switch (__op)
 80a3c92:	2a02      	cmp	r2, #2
	  delete __victim._M_access<_Functor*>();
	}

      public:
	static bool
	_M_manager(_Any_data& __dest, const _Any_data& __source,
 80a3c94:	b570      	push	{r4, r5, r6, lr}
 80a3c96:	4604      	mov	r4, r0
		   _Manager_operation __op)
	{
	  switch (__op)
 80a3c98:	d006      	beq.n	80a3ca8 <_ZNSt14_Function_base13_Base_managerISt5_BindIFSt8functionIFvRKN5spark5ErrorEEES4_EEE10_M_managerERSt9_Any_dataRKSC_St18_Manager_operation+0x16>
 80a3c9a:	2a03      	cmp	r2, #3
 80a3c9c:	d011      	beq.n	80a3cc2 <_ZNSt14_Function_base13_Base_managerISt5_BindIFSt8functionIFvRKN5spark5ErrorEEES4_EEE10_M_managerERSt9_Any_dataRKSC_St18_Manager_operation+0x30>
 80a3c9e:	2a01      	cmp	r2, #1
 80a3ca0:	d117      	bne.n	80a3cd2 <_ZNSt14_Function_base13_Base_managerISt5_BindIFSt8functionIFvRKN5spark5ErrorEEES4_EEE10_M_managerERSt9_Any_dataRKSC_St18_Manager_operation+0x40>
	static _Functor*
	_M_get_pointer(const _Any_data& __source)
	{
	  const _Functor* __ptr =
	    __stored_locally? std::__addressof(__source._M_access<_Functor>())
	    /* have stored a pointer */ : __source._M_access<_Functor*>();
 80a3ca2:	680b      	ldr	r3, [r1, #0]
	    case __get_type_info:
	      __dest._M_access<const type_info*>() = &typeid(_Functor);
	      break;
#endif
	    case __get_functor_ptr:
	      __dest._M_access<_Functor*>() = _M_get_pointer(__source);
 80a3ca4:	6003      	str	r3, [r0, #0]
	      break;
 80a3ca6:	e014      	b.n	80a3cd2 <_ZNSt14_Function_base13_Base_managerISt5_BindIFSt8functionIFvRKN5spark5ErrorEEES4_EEE10_M_managerERSt9_Any_dataRKSC_St18_Manager_operation+0x40>
	// Clone a function object that is not location-invariant or
	// that cannot fit into an _Any_data structure.
	static void
	_M_clone(_Any_data& __dest, const _Any_data& __source, false_type)
	{
	  __dest._M_access<_Functor*>() =
 80a3ca8:	2014      	movs	r0, #20
 80a3caa:	680e      	ldr	r6, [r1, #0]
 80a3cac:	f7fc f9f5 	bl	80a009a <_Znwj>
 80a3cb0:	4605      	mov	r5, r0
 80a3cb2:	b120      	cbz	r0, 80a3cbe <_ZNSt14_Function_base13_Base_managerISt5_BindIFSt8functionIFvRKN5spark5ErrorEEES4_EEE10_M_managerERSt9_Any_dataRKSC_St18_Manager_operation+0x2c>
      template<typename... _Args>
	explicit _Bind(_Functor&& __f, _Args&&... __args)
	: _M_f(std::move(__f)), _M_bound_args(std::forward<_Args>(__args)...)
	{ }

      _Bind(const _Bind&) = default;
 80a3cb4:	4631      	mov	r1, r6
 80a3cb6:	f7ff ffdd 	bl	80a3c74 <_ZNSt8functionIFvRKN5spark5ErrorEEEC1ERKS5_>
 80a3cba:	8a33      	ldrh	r3, [r6, #16]
 80a3cbc:	822b      	strh	r3, [r5, #16]
	// Clone a function object that is not location-invariant or
	// that cannot fit into an _Any_data structure.
	static void
	_M_clone(_Any_data& __dest, const _Any_data& __source, false_type)
	{
	  __dest._M_access<_Functor*>() =
 80a3cbe:	6025      	str	r5, [r4, #0]
 80a3cc0:	e007      	b.n	80a3cd2 <_ZNSt14_Function_base13_Base_managerISt5_BindIFSt8functionIFvRKN5spark5ErrorEEES4_EEE10_M_managerERSt9_Any_dataRKSC_St18_Manager_operation+0x40>

	// Destroying an object located on the heap.
	static void
	_M_destroy(_Any_data& __victim, false_type)
	{
	  delete __victim._M_access<_Functor*>();
 80a3cc2:	6804      	ldr	r4, [r0, #0]
 80a3cc4:	b12c      	cbz	r4, 80a3cd2 <_ZNSt14_Function_base13_Base_managerISt5_BindIFSt8functionIFvRKN5spark5ErrorEEES4_EEE10_M_managerERSt9_Any_dataRKSC_St18_Manager_operation+0x40>
   *  @ingroup functors
   *
   *  Polymorphic function wrapper.
   */
  template<typename _Res, typename... _ArgTypes>
    class function<_Res(_ArgTypes...)>
 80a3cc6:	4620      	mov	r0, r4
 80a3cc8:	f7ff feb4 	bl	80a3a34 <_ZNSt14_Function_baseD1Ev>

	// Destroying an object located on the heap.
	static void
	_M_destroy(_Any_data& __victim, false_type)
	{
	  delete __victim._M_access<_Functor*>();
 80a3ccc:	4620      	mov	r0, r4
 80a3cce:	f7fc f9e6 	bl	80a009e <_ZdlPv>
	    case __destroy_functor:
	      _M_destroy(__dest, _Local_storage());
	      break;
	    }
	  return false;
	}
 80a3cd2:	2000      	movs	r0, #0
 80a3cd4:	bd70      	pop	{r4, r5, r6, pc}
	...

080a3cd8 <_ZN5spark6detail14FutureImplBaseIvNS0_13FutureContextEE14invokeCallbackIFvRKNS_5ErrorEEIRS5_EEEvRSt6atomicIPSt8functionIT_EEDpOT0_>:
        delete callbackPtr; // Delete old callback
    }

    // Takes a callback from its atomic wrapper and invokes it
    template<typename FunctionT, typename... ArgsT>
    static void invokeCallback(std::atomic<std::function<FunctionT>*>& wrapper, ArgsT&&... args) {
 80a3cd8:	b5f0      	push	{r4, r5, r6, r7, lr}
 80a3cda:	460c      	mov	r4, r1
 80a3cdc:	f3bf 8f5f 	dmb	sy
 80a3ce0:	b087      	sub	sp, #28
 80a3ce2:	2300      	movs	r3, #0
 80a3ce4:	e850 6f00 	ldrex	r6, [r0]
 80a3ce8:	e840 3200 	strex	r2, r3, [r0]
 80a3cec:	2a00      	cmp	r2, #0
 80a3cee:	d1f9      	bne.n	80a3ce4 <_ZN5spark6detail14FutureImplBaseIvNS0_13FutureContextEE14invokeCallbackIFvRKNS_5ErrorEEIRS5_EEEvRSt6atomicIPSt8functionIT_EEDpOT0_+0xc>
 80a3cf0:	f3bf 8f5f 	dmb	sy
        std::function<FunctionT>* callbackPtr = wrapper.exchange(nullptr, std::memory_order_acq_rel);
        if (callbackPtr) {
 80a3cf4:	2e00      	cmp	r6, #0
 80a3cf6:	d03e      	beq.n	80a3d76 <_ZN5spark6detail14FutureImplBaseIvNS0_13FutureContextEE14invokeCallbackIFvRKNS_5ErrorEEIRS5_EEEvRSt6atomicIPSt8functionIT_EEDpOT0_+0x9e>
        return (application_thread_invoke(callback, data, nullptr) == 0);
    }

    // Returns true if current thread is the application thread
    static bool isApplicationThreadCurrent() {
        return (application_thread_current(nullptr) != 0);
 80a3cf8:	4618      	mov	r0, r3
 80a3cfa:	f7ff fb4f 	bl	80a339c <application_thread_current>
    }

    // Invokes std::function in the application context
    template<typename FunctionT, typename... ArgsT>
    static void invokeCallback(const std::function<FunctionT>& callback, ArgsT&&... args) {
        if (ContextT::isApplicationThreadCurrent()) {
 80a3cfe:	4607      	mov	r7, r0
 80a3d00:	b120      	cbz	r0, 80a3d0c <_ZN5spark6detail14FutureImplBaseIvNS0_13FutureContextEE14invokeCallbackIFvRKNS_5ErrorEEIRS5_EEEvRSt6atomicIPSt8functionIT_EEDpOT0_+0x34>
            callback(std::forward<ArgsT>(args)...); // Synchronous call
 80a3d02:	4621      	mov	r1, r4
 80a3d04:	4630      	mov	r0, r6
 80a3d06:	f7ff ffa5 	bl	80a3c54 <_ZNKSt8functionIFvRKN5spark5ErrorEEEclES3_>
 80a3d0a:	e02e      	b.n	80a3d6a <_ZN5spark6detail14FutureImplBaseIvNS0_13FutureContextEE14invokeCallbackIFvRKNS_5ErrorEEIRS5_EEEvRSt6atomicIPSt8functionIT_EEDpOT0_+0x92>
	}

     public:
      template<typename... _Args>
	explicit _Bind(const _Functor& __f, _Args&&... __args)
	: _M_f(__f), _M_bound_args(std::forward<_Args>(__args)...)
 80a3d0c:	4631      	mov	r1, r6
 80a3d0e:	a801      	add	r0, sp, #4
 80a3d10:	f7ff ffb0 	bl	80a3c74 <_ZNSt8functionIFvRKN5spark5ErrorEEEC1ERKS5_>
      constexpr _Head_base(const _Head_base&) = default;
      constexpr _Head_base(_Head_base&&) = default;

      template<typename _UHead>
        constexpr _Head_base(_UHead&& __h)
	: _M_head_impl(std::forward<_UHead>(__h)) { }
 80a3d14:	8823      	ldrh	r3, [r4, #0]
        } else {
            // Bind all arguments and wrap resulting function into a pointer
            auto callbackPtr = new std::function<void()>(std::bind(callback, std::forward<ArgsT>(args)...));
 80a3d16:	2010      	movs	r0, #16
 80a3d18:	f8ad 3014 	strh.w	r3, [sp, #20]
 80a3d1c:	f7fc f9bd 	bl	80a009a <_Znwj>
 80a3d20:	4605      	mov	r5, r0
 80a3d22:	b1d0      	cbz	r0, 80a3d5a <_ZN5spark6detail14FutureImplBaseIvNS0_13FutureContextEE14invokeCallbackIFvRKNS_5ErrorEEIRS5_EEEvRSt6atomicIPSt8functionIT_EEDpOT0_+0x82>
	{
	  _Base::_M_init_functor(__functor, std::__addressof(__f.get()));
	}
      };

    _Function_base() : _M_manager(nullptr) { }
 80a3d24:	6087      	str	r7, [r0, #8]
	_M_init_functor(_Any_data& __functor, _Functor&& __f, true_type)
	{ new (__functor._M_access()) _Functor(std::move(__f)); }

	static void
	_M_init_functor(_Any_data& __functor, _Functor&& __f, false_type)
	{ __functor._M_access<_Functor*>() = new _Functor(std::move(__f)); }
 80a3d26:	2014      	movs	r0, #20
 80a3d28:	f7fc f9b7 	bl	80a009a <_Znwj>
 80a3d2c:	4604      	mov	r4, r0
 80a3d2e:	b178      	cbz	r0, 80a3d50 <_ZN5spark6detail14FutureImplBaseIvNS0_13FutureContextEE14invokeCallbackIFvRKNS_5ErrorEEIRS5_EEEvRSt6atomicIPSt8functionIT_EEDpOT0_+0x78>
	{
	  _Base::_M_init_functor(__functor, std::__addressof(__f.get()));
	}
      };

    _Function_base() : _M_manager(nullptr) { }
 80a3d30:	6087      	str	r7, [r0, #8]
       *  Swap the targets of @c this function object and @a __f. This
       *  function will not throw an %exception.
       */
      void swap(function& __x)
      {
	std::swap(_M_functor, __x._M_functor);
 80a3d32:	4601      	mov	r1, r0
 80a3d34:	a801      	add	r0, sp, #4
 80a3d36:	f7ff ff2d 	bl	80a3b94 <_ZSt4swapISt9_Any_dataEvRT_S2_>
#endif
    {
      // concept requirements
      __glibcxx_function_requires(_SGIAssignableConcept<_Tp>)

      _Tp __tmp = _GLIBCXX_MOVE(__a);
 80a3d3a:	9b03      	ldr	r3, [sp, #12]
      __a = _GLIBCXX_MOVE(__b);
 80a3d3c:	68a2      	ldr	r2, [r4, #8]
      __b = _GLIBCXX_MOVE(__tmp);
 80a3d3e:	60a3      	str	r3, [r4, #8]
#endif
    {
      // concept requirements
      __glibcxx_function_requires(_SGIAssignableConcept<_Tp>)

      _Tp __tmp = _GLIBCXX_MOVE(__a);
 80a3d40:	9b04      	ldr	r3, [sp, #16]
      __a = _GLIBCXX_MOVE(__b);
 80a3d42:	9203      	str	r2, [sp, #12]
 80a3d44:	68e2      	ldr	r2, [r4, #12]
      __b = _GLIBCXX_MOVE(__tmp);
 80a3d46:	60e3      	str	r3, [r4, #12]
 80a3d48:	f8bd 3014 	ldrh.w	r3, [sp, #20]
    {
      // concept requirements
      __glibcxx_function_requires(_SGIAssignableConcept<_Tp>)

      _Tp __tmp = _GLIBCXX_MOVE(__a);
      __a = _GLIBCXX_MOVE(__b);
 80a3d4c:	9204      	str	r2, [sp, #16]
 80a3d4e:	8223      	strh	r3, [r4, #16]
	typedef _Function_handler<_Signature_type, _Functor> _My_handler;

	if (_My_handler::_M_not_empty_function(__f))
	  {
	    _My_handler::_M_init_functor(_M_functor, std::move(__f));
	    _M_invoker = &_My_handler::_M_invoke;
 80a3d50:	4b0a      	ldr	r3, [pc, #40]	; (80a3d7c <_ZN5spark6detail14FutureImplBaseIvNS0_13FutureContextEE14invokeCallbackIFvRKNS_5ErrorEEIRS5_EEEvRSt6atomicIPSt8functionIT_EEDpOT0_+0xa4>)
	_M_init_functor(_Any_data& __functor, _Functor&& __f, true_type)
	{ new (__functor._M_access()) _Functor(std::move(__f)); }

	static void
	_M_init_functor(_Any_data& __functor, _Functor&& __f, false_type)
	{ __functor._M_access<_Functor*>() = new _Functor(std::move(__f)); }
 80a3d52:	602c      	str	r4, [r5, #0]
	typedef _Function_handler<_Signature_type, _Functor> _My_handler;

	if (_My_handler::_M_not_empty_function(__f))
	  {
	    _My_handler::_M_init_functor(_M_functor, std::move(__f));
	    _M_invoker = &_My_handler::_M_invoke;
 80a3d54:	60eb      	str	r3, [r5, #12]
	    _M_manager = &_My_handler::_M_manager;
 80a3d56:	4b0a      	ldr	r3, [pc, #40]	; (80a3d80 <_ZN5spark6detail14FutureImplBaseIvNS0_13FutureContextEE14invokeCallbackIFvRKNS_5ErrorEEIRS5_EEEvRSt6atomicIPSt8functionIT_EEDpOT0_+0xa8>)
 80a3d58:	60ab      	str	r3, [r5, #8]
   *  @ingroup functors
   *
   *  Polymorphic function wrapper.
   */
  template<typename _Res, typename... _ArgTypes>
    class function<_Res(_ArgTypes...)>
 80a3d5a:	a801      	add	r0, sp, #4
 80a3d5c:	f7ff fe6a 	bl	80a3a34 <_ZNSt14_Function_baseD1Ev>
        spark_process();
    }

    // Asynchronously invokes a callback in the application context
    static bool invokeApplicationCallback(void (*callback)(void* data), void* data) {
        return (application_thread_invoke(callback, data, nullptr) == 0);
 80a3d60:	2200      	movs	r2, #0
 80a3d62:	4629      	mov	r1, r5
 80a3d64:	4807      	ldr	r0, [pc, #28]	; (80a3d84 <_ZN5spark6detail14FutureImplBaseIvNS0_13FutureContextEE14invokeCallbackIFvRKNS_5ErrorEEIRS5_EEEvRSt6atomicIPSt8functionIT_EEDpOT0_+0xac>)
 80a3d66:	f7ff fb21 	bl	80a33ac <application_thread_invoke>
 80a3d6a:	4630      	mov	r0, r6
 80a3d6c:	f7ff fe62 	bl	80a3a34 <_ZNSt14_Function_baseD1Ev>
    template<typename FunctionT, typename... ArgsT>
    static void invokeCallback(std::atomic<std::function<FunctionT>*>& wrapper, ArgsT&&... args) {
        std::function<FunctionT>* callbackPtr = wrapper.exchange(nullptr, std::memory_order_acq_rel);
        if (callbackPtr) {
            invokeCallback(*callbackPtr, std::forward<ArgsT>(args)...);
            delete callbackPtr;
 80a3d70:	4630      	mov	r0, r6
 80a3d72:	f7fc f994 	bl	80a009e <_ZdlPv>
        }
    }
 80a3d76:	b007      	add	sp, #28
 80a3d78:	bdf0      	pop	{r4, r5, r6, r7, pc}
 80a3d7a:	bf00      	nop
 80a3d7c:	080a3c67 	.word	0x080a3c67
 80a3d80:	080a3c93 	.word	0x080a3c93
 80a3d84:	080a4209 	.word	0x080a4209

080a3d88 <_ZN5spark6detail10FutureImplIvNS0_13FutureContextEE8setErrorENS_5ErrorE>:
            this->releaseDone();
            this->invokeCallback(this->onSuccess_);
        }
    }

    void setError(Error error) {
 80a3d88:	b513      	push	{r0, r1, r4, lr}
    std::atomic<bool> done_; // Flag signaling that future is in a final state
    std::atomic<typename FutureCallbackTypes<ResultT>::OnSuccess*> onSuccess_; // User callback for succeeded operation
    std::atomic<typename FutureCallbackTypes<ResultT>::OnError*> onError_; // User callback for failed operation

    bool exchangeState(State state) {
        State s = State::RUNNING; // Expected state
 80a3d8a:	2300      	movs	r3, #0
 80a3d8c:	9301      	str	r3, [sp, #4]

      bool
      compare_exchange_strong(_Tp& __e, _Tp __i, memory_order __s, 
			      memory_order __f) noexcept
      {
	return __atomic_compare_exchange(&_M_i, &__e, &__i, false, __s, __f);
 80a3d8e:	2202      	movs	r2, #2
 80a3d90:	1d03      	adds	r3, r0, #4
 80a3d92:	e853 4f00 	ldrex	r4, [r3]
 80a3d96:	2c00      	cmp	r4, #0
 80a3d98:	d104      	bne.n	80a3da4 <_ZN5spark6detail10FutureImplIvNS0_13FutureContextEE8setErrorENS_5ErrorE+0x1c>
 80a3d9a:	e843 2e00 	strex	lr, r2, [r3]
 80a3d9e:	f1be 0f00 	cmp.w	lr, #0
 80a3da2:	d1f6      	bne.n	80a3d92 <_ZN5spark6detail10FutureImplIvNS0_13FutureContextEE8setErrorENS_5ErrorE+0xa>
 80a3da4:	d109      	bne.n	80a3dba <_ZN5spark6detail10FutureImplIvNS0_13FutureContextEE8setErrorENS_5ErrorE+0x32>
        }
    }

    void setError(Error error) {
        if (this->exchangeState(State::FAILED)) {
            error_ = std::move(error);
 80a3da6:	8281      	strh	r1, [r0, #20]
        memory_order __b = __m & __memory_order_mask;
	__glibcxx_assert(__b != memory_order_acquire);
	__glibcxx_assert(__b != memory_order_acq_rel);
	__glibcxx_assert(__b != memory_order_consume);

	__atomic_store_n(&_M_i, __i, __m);
 80a3da8:	2301      	movs	r3, #1
 80a3daa:	f3bf 8f5f 	dmb	sy
            this->releaseDone();
            this->invokeCallback(this->onError_, error_);
 80a3dae:	f100 0114 	add.w	r1, r0, #20
 80a3db2:	7203      	strb	r3, [r0, #8]
 80a3db4:	3010      	adds	r0, #16
 80a3db6:	f7ff ff8f 	bl	80a3cd8 <_ZN5spark6detail14FutureImplBaseIvNS0_13FutureContextEE14invokeCallbackIFvRKNS_5ErrorEEIRS5_EEEvRSt6atomicIPSt8functionIT_EEDpOT0_>
        }
    }
 80a3dba:	b002      	add	sp, #8
 80a3dbc:	bd10      	pop	{r4, pc}
	...

080a3dc0 <_ZN10CloudClass7publishEPKcS1_im>:
    desc.data = (void*)data;
    desc.funcKey = funcKey;
    return spark_function(NULL, (user_function_int_str_t*)&desc, NULL);
}

bool CloudClass::publish(const char *eventName, const char *eventData, int ttl, uint32_t flags) {
 80a3dc0:	e92d 47f0 	stmdb	sp!, {r4, r5, r6, r7, r8, r9, sl, lr}
 80a3dc4:	b08c      	sub	sp, #48	; 0x30
#ifndef SPARK_NO_CLOUD
    spark_send_event_data d = { sizeof(spark_send_event_data) };
 80a3dc6:	ae09      	add	r6, sp, #36	; 0x24
 80a3dc8:	2500      	movs	r5, #0
    desc.data = (void*)data;
    desc.funcKey = funcKey;
    return spark_function(NULL, (user_function_int_str_t*)&desc, NULL);
}

bool CloudClass::publish(const char *eventName, const char *eventData, int ttl, uint32_t flags) {
 80a3dca:	4607      	mov	r7, r0
 80a3dcc:	469a      	mov	sl, r3
public:
    // Future state
    typedef typename detail::FutureImpl<ResultT, ContextT>::State State;

    PromiseBase() :
            p_(new detail::FutureImpl<ResultT, ContextT>(State::RUNNING)) {
 80a3dce:	2018      	movs	r0, #24
#ifndef SPARK_NO_CLOUD
    spark_send_event_data d = { sizeof(spark_send_event_data) };
 80a3dd0:	230c      	movs	r3, #12
    desc.data = (void*)data;
    desc.funcKey = funcKey;
    return spark_function(NULL, (user_function_int_str_t*)&desc, NULL);
}

bool CloudClass::publish(const char *eventName, const char *eventData, int ttl, uint32_t flags) {
 80a3dd2:	4688      	mov	r8, r1
 80a3dd4:	4691      	mov	r9, r2
#ifndef SPARK_NO_CLOUD
    spark_send_event_data d = { sizeof(spark_send_event_data) };
 80a3dd6:	6075      	str	r5, [r6, #4]
 80a3dd8:	60b5      	str	r5, [r6, #8]
 80a3dda:	9309      	str	r3, [sp, #36]	; 0x24
 80a3ddc:	f7fc f95d 	bl	80a009a <_Znwj>
 80a3de0:	4604      	mov	r4, r0
 80a3de2:	b130      	cbz	r0, 80a3df2 <_ZN10CloudClass7publishEPKcS1_im+0x32>
    using typename FutureImplBase<void, ContextT>::State;
    using typename FutureImplBase<void, ContextT>::OnSuccessCallback;
    using typename FutureImplBase<void, ContextT>::OnErrorCallback;

    explicit FutureImpl(State state) :
            FutureImplBase<void, ContextT>(state) {
 80a3de4:	4b2f      	ldr	r3, [pc, #188]	; (80a3ea4 <_ZN10CloudClass7publishEPKcS1_im+0xe4>)
      ~atomic() noexcept = default;
      atomic(const atomic&) = delete;
      atomic& operator=(const atomic&) = delete;
      atomic& operator=(const atomic&) volatile = delete;

      constexpr atomic(_Tp __i) noexcept : _M_i(__i) { }
 80a3de6:	6045      	str	r5, [r0, #4]
      __atomic_base(const __atomic_base&) = delete;
      __atomic_base& operator=(const __atomic_base&) = delete;
      __atomic_base& operator=(const __atomic_base&) volatile = delete;

      // Requires __int_type convertible to _M_i.
      constexpr __atomic_base(__int_type __i) noexcept : _M_i (__i) { }
 80a3de8:	7205      	strb	r5, [r0, #8]
      __atomic_base(const __atomic_base&) = delete;
      __atomic_base& operator=(const __atomic_base&) = delete;
      __atomic_base& operator=(const __atomic_base&) volatile = delete;

      // Requires __pointer_type convertible to _M_p.
      constexpr __atomic_base(__pointer_type __p) noexcept : _M_p (__p) { }
 80a3dea:	60c5      	str	r5, [r0, #12]
 80a3dec:	6105      	str	r5, [r0, #16]
 80a3dee:	6003      	str	r3, [r0, #0]

} // namespace spark

// spark::Error
inline spark::Error::Error() :
        type_(NONE) {
 80a3df0:	8285      	strh	r5, [r0, #20]
      constexpr __shared_count() noexcept : _M_pi(0)
      { }

      template<typename _Ptr>
        explicit
	__shared_count(_Ptr __p) : _M_pi(0)
 80a3df2:	2300      	movs	r3, #0
	{
	  __try
	    {
	      _M_pi = new _Sp_counted_ptr<_Ptr, _Lp>(__p);
 80a3df4:	2010      	movs	r0, #16
      : _M_ptr(0), _M_refcount()
      { }

      template<typename _Tp1>
	explicit __shared_ptr(_Tp1* __p)
        : _M_ptr(__p), _M_refcount(__p)
 80a3df6:	9403      	str	r4, [sp, #12]
      constexpr __shared_count() noexcept : _M_pi(0)
      { }

      template<typename _Ptr>
        explicit
	__shared_count(_Ptr __p) : _M_pi(0)
 80a3df8:	9304      	str	r3, [sp, #16]
	{
	  __try
	    {
	      _M_pi = new _Sp_counted_ptr<_Ptr, _Lp>(__p);
 80a3dfa:	f7fc f94e 	bl	80a009a <_Znwj>
 80a3dfe:	b128      	cbz	r0, 80a3e0c <_ZN10CloudClass7publishEPKcS1_im+0x4c>
    class _Sp_counted_base
    : public _Mutex_base<_Lp>
    {
    public:  
      _Sp_counted_base() noexcept
      : _M_use_count(1), _M_weak_count(1) { }
 80a3e00:	2301      	movs	r3, #1
 80a3e02:	6043      	str	r3, [r0, #4]
 80a3e04:	6083      	str	r3, [r0, #8]
    class _Sp_counted_ptr final : public _Sp_counted_base<_Lp>
    {
    public:
      explicit
      _Sp_counted_ptr(_Ptr __p) noexcept
      : _M_ptr(__p) { }
 80a3e06:	4b28      	ldr	r3, [pc, #160]	; (80a3ea8 <_ZN10CloudClass7publishEPKcS1_im+0xe8>)
 80a3e08:	60c4      	str	r4, [r0, #12]
 80a3e0a:	6003      	str	r3, [r0, #0]

    // Completion handler
    spark::Promise<void> p;
    d.handler_callback = p.systemCallback;
 80a3e0c:	4b27      	ldr	r3, [pc, #156]	; (80a3eac <_ZN10CloudClass7publishEPKcS1_im+0xec>)
        explicit
	__shared_count(_Ptr __p) : _M_pi(0)
	{
	  __try
	    {
	      _M_pi = new _Sp_counted_ptr<_Ptr, _Lp>(__p);
 80a3e0e:	9004      	str	r0, [sp, #16]
    }

    // Wraps this promise into an object pointer that can be passed to a C function
    void* dataPtr() const {
        // TODO: Use custom reference counting object to avoid unnecessary memory allocation
        return new detail::FutureImplPtr<ResultT, ContextT>(p_);
 80a3e10:	2008      	movs	r0, #8
 80a3e12:	930a      	str	r3, [sp, #40]	; 0x28
 80a3e14:	f7fc f941 	bl	80a009a <_Znwj>
 80a3e18:	4604      	mov	r4, r0
 80a3e1a:	b128      	cbz	r0, 80a3e28 <_ZN10CloudClass7publishEPKcS1_im+0x68>
      template<typename _Tp1>
	__shared_ptr(const __shared_ptr<_Tp1, _Lp>& __r, _Tp* __p) noexcept
	: _M_ptr(__p), _M_refcount(__r._M_refcount) // never throws
	{ }

      __shared_ptr(const __shared_ptr&) noexcept = default;
 80a3e1c:	9b03      	ldr	r3, [sp, #12]
 80a3e1e:	a904      	add	r1, sp, #16
 80a3e20:	f840 3b04 	str.w	r3, [r0], #4
 80a3e24:	f7ff fd3d 	bl	80a38a2 <_ZNSt14__shared_countILN9__gnu_cxx12_Lock_policyE0EEC1ERKS2_>
    d.handler_data = p.dataPtr();

    if (!spark_send_event(eventName, eventData, ttl, flags, &d) && !p.isDone()) {
 80a3e28:	9600      	str	r6, [sp, #0]
 80a3e2a:	4653      	mov	r3, sl
 80a3e2c:	464a      	mov	r2, r9
 80a3e2e:	4641      	mov	r1, r8
 80a3e30:	4638      	mov	r0, r7
    spark_send_event_data d = { sizeof(spark_send_event_data) };

    // Completion handler
    spark::Promise<void> p;
    d.handler_callback = p.systemCallback;
    d.handler_data = p.dataPtr();
 80a3e32:	940b      	str	r4, [sp, #44]	; 0x2c

    if (!spark_send_event(eventName, eventData, ttl, flags, &d) && !p.isDone()) {
 80a3e34:	f7ff fae2 	bl	80a33fc <spark_send_event>
 80a3e38:	b910      	cbnz	r0, 80a3e40 <_ZN10CloudClass7publishEPKcS1_im+0x80>
      {
       memory_order __b = __m & __memory_order_mask;
	__glibcxx_assert(__b != memory_order_release);
	__glibcxx_assert(__b != memory_order_acq_rel);

	return __atomic_load_n(&_M_i, __m);
 80a3e3a:	9803      	ldr	r0, [sp, #12]
 80a3e3c:	7a03      	ldrb	r3, [r0, #8]
 80a3e3e:	b1b3      	cbz	r3, 80a3e6e <_ZN10CloudClass7publishEPKcS1_im+0xae>
 80a3e40:	9b03      	ldr	r3, [sp, #12]
 80a3e42:	a904      	add	r1, sp, #16
 80a3e44:	a808      	add	r0, sp, #32
 80a3e46:	9307      	str	r3, [sp, #28]
 80a3e48:	f7ff fd2b 	bl	80a38a2 <_ZNSt14__shared_countILN9__gnu_cxx12_Lock_policyE0EEC1ERKS2_>
    bool isDone() const {
        return p_->isDone();
    }

    Future<ResultT, ContextT> future() const {
        return Future<ResultT, ContextT>(p_);
 80a3e4c:	a907      	add	r1, sp, #28
 80a3e4e:	a805      	add	r0, sp, #20
 80a3e50:	f7ff fe6c 	bl	80a3b2c <_ZN5spark6FutureIvNS_6detail13FutureContextEEC1ESt10shared_ptrINS1_10FutureImplIvS2_EEE>
      __shared_ptr& operator=(const __shared_ptr&) noexcept = default;
      ~__shared_ptr() = default;
 80a3e54:	a808      	add	r0, sp, #32
 80a3e56:	f7ff fd0e 	bl	80a3876 <_ZNSt14__shared_countILN9__gnu_cxx12_Lock_policyE0EED1Ev>
        return (application_thread_invoke(callback, data, nullptr) == 0);
    }

    // Returns true if current thread is the application thread
    static bool isApplicationThreadCurrent() {
        return (application_thread_current(nullptr) != 0);
 80a3e5a:	2000      	movs	r0, #0
 80a3e5c:	9c05      	ldr	r4, [sp, #20]
 80a3e5e:	f7ff fa9d 	bl	80a339c <application_thread_current>
        delete onError_.load(std::memory_order_relaxed);
    }

    bool wait(int timeout = 0) {
        // TODO: Waiting for a future in non-default application thread is not supported
        if (ContextT::isApplicationThreadCurrent()) {
 80a3e62:	b180      	cbz	r0, 80a3e86 <_ZN10CloudClass7publishEPKcS1_im+0xc6>
 80a3e64:	7a23      	ldrb	r3, [r4, #8]
            const system_tick_t t = (timeout > 0) ? millis() : 0;
            for (;;) {
                if (isDone()) { // We can use relaxed ordering here, as long as the future's result is not checked
 80a3e66:	b973      	cbnz	r3, 80a3e86 <_ZN10CloudClass7publishEPKcS1_im+0xc6>

// Event loop and threading abstraction. Used for unit testing
struct FutureContext {
    // Runs the application's event loop
    static void processApplicationEvents() {
        spark_process();
 80a3e68:	f7ff fac0 	bl	80a33ec <spark_process>
 80a3e6c:	e7fa      	b.n	80a3e64 <_ZN10CloudClass7publishEPKcS1_im+0xa4>
    explicit PromiseBase(detail::FutureImplPtr<ResultT, ContextT> ptr) :
            p_(ptr) {
    }

    void setError(Error error) {
        p_->setError(std::move(error));
 80a3e6e:	f04f 0164 	mov.w	r1, #100	; 0x64
 80a3e72:	f7ff ff89 	bl	80a3d88 <_ZN5spark6detail10FutureImplIvNS0_13FutureContextEE8setErrorENS_5ErrorE>
        // Set generic error code in case completion callback wasn't invoked for some reason
        p.setError(spark::Error::UNKNOWN);
        p.fromDataPtr(d.handler_data); // Free wrapper object
 80a3e76:	a807      	add	r0, sp, #28
 80a3e78:	990b      	ldr	r1, [sp, #44]	; 0x2c
 80a3e7a:	f7ff fe6e 	bl	80a3b5a <_ZN5spark11PromiseBaseIvNS_6detail13FutureContextEE11fromDataPtrEPv>
 80a3e7e:	a808      	add	r0, sp, #32
 80a3e80:	f7ff fcf9 	bl	80a3876 <_ZNSt14__shared_countILN9__gnu_cxx12_Lock_policyE0EED1Ev>
 80a3e84:	e7dc      	b.n	80a3e40 <_ZN10CloudClass7publishEPKcS1_im+0x80>

      _Tp
      load(memory_order __m = memory_order_seq_cst) const noexcept
      { 
        _Tp tmp;
	__atomic_load(&_M_i, &tmp, __m);
 80a3e86:	9b05      	ldr	r3, [sp, #20]
 80a3e88:	a806      	add	r0, sp, #24
 80a3e8a:	685c      	ldr	r4, [r3, #4]
 80a3e8c:	f7ff fcf3 	bl	80a3876 <_ZNSt14__shared_countILN9__gnu_cxx12_Lock_policyE0EED1Ev>
 80a3e90:	a804      	add	r0, sp, #16
 80a3e92:	f7ff fcf0 	bl	80a3876 <_ZNSt14__shared_countILN9__gnu_cxx12_Lock_policyE0EED1Ev>
    }

    // TODO: Return future object instead of synchronous waiting
    spark::Future<void> f = p.future();
    return f.wait().isSucceeded();
 80a3e96:	1e63      	subs	r3, r4, #1
 80a3e98:	4258      	negs	r0, r3
 80a3e9a:	4158      	adcs	r0, r3
#else
    return false; // spark::Future<void>::makeFailed(spark::Error::NOT_SUPPORTED);
#endif
}
 80a3e9c:	b00c      	add	sp, #48	; 0x30
 80a3e9e:	e8bd 87f0 	ldmia.w	sp!, {r4, r5, r6, r7, r8, r9, sl, pc}
 80a3ea2:	bf00      	nop
 80a3ea4:	080a59b8 	.word	0x080a59b8
 80a3ea8:	080a59c8 	.word	0x080a59c8
 80a3eac:	080a3eb1 	.word	0x080a3eb1

080a3eb0 <_ZN5spark7PromiseIvNS_6detail13FutureContextEE14systemCallbackEiPvS4_S4_>:

    void setResult() {
        this->p_->setResult();
    }

    static void systemCallback(int error, void* result, void* data, void* reserved) {
 80a3eb0:	b51f      	push	{r0, r1, r2, r3, r4, lr}
 80a3eb2:	4604      	mov	r4, r0
        auto p = Promise<void, ContextT>::fromDataPtr(data);
 80a3eb4:	4611      	mov	r1, r2
 80a3eb6:	a802      	add	r0, sp, #8
 80a3eb8:	f7ff fe4f 	bl	80a3b5a <_ZN5spark11PromiseBaseIvNS_6detail13FutureContextEE11fromDataPtrEPv>
        if (error != spark::Error::NONE) {
 80a3ebc:	b124      	cbz	r4, 80a3ec8 <_ZN5spark7PromiseIvNS_6detail13FutureContextEE14systemCallbackEiPvS4_S4_+0x18>
    explicit PromiseBase(detail::FutureImplPtr<ResultT, ContextT> ptr) :
            p_(ptr) {
    }

    void setError(Error error) {
        p_->setError(std::move(error));
 80a3ebe:	4621      	mov	r1, r4
 80a3ec0:	9802      	ldr	r0, [sp, #8]
 80a3ec2:	f7ff ff61 	bl	80a3d88 <_ZN5spark6detail10FutureImplIvNS0_13FutureContextEE8setErrorENS_5ErrorE>
 80a3ec6:	e015      	b.n	80a3ef4 <_ZN5spark7PromiseIvNS_6detail13FutureContextEE14systemCallbackEiPvS4_S4_+0x44>
 80a3ec8:	9802      	ldr	r0, [sp, #8]
    std::atomic<bool> done_; // Flag signaling that future is in a final state
    std::atomic<typename FutureCallbackTypes<ResultT>::OnSuccess*> onSuccess_; // User callback for succeeded operation
    std::atomic<typename FutureCallbackTypes<ResultT>::OnError*> onError_; // User callback for failed operation

    bool exchangeState(State state) {
        State s = State::RUNNING; // Expected state
 80a3eca:	9401      	str	r4, [sp, #4]

      bool
      compare_exchange_strong(_Tp& __e, _Tp __i, memory_order __s, 
			      memory_order __f) noexcept
      {
	return __atomic_compare_exchange(&_M_i, &__e, &__i, false, __s, __f);
 80a3ecc:	1d02      	adds	r2, r0, #4
 80a3ece:	2301      	movs	r3, #1
 80a3ed0:	e852 1f00 	ldrex	r1, [r2]
 80a3ed4:	2900      	cmp	r1, #0
 80a3ed6:	d103      	bne.n	80a3ee0 <_ZN5spark7PromiseIvNS_6detail13FutureContextEE14systemCallbackEiPvS4_S4_+0x30>
 80a3ed8:	e842 3400 	strex	r4, r3, [r2]
 80a3edc:	2c00      	cmp	r4, #0
 80a3ede:	d1f7      	bne.n	80a3ed0 <_ZN5spark7PromiseIvNS_6detail13FutureContextEE14systemCallbackEiPvS4_S4_+0x20>
 80a3ee0:	d001      	beq.n	80a3ee6 <_ZN5spark7PromiseIvNS_6detail13FutureContextEE14systemCallbackEiPvS4_S4_+0x36>
 80a3ee2:	9101      	str	r1, [sp, #4]
 80a3ee4:	e006      	b.n	80a3ef4 <_ZN5spark7PromiseIvNS_6detail13FutureContextEE14systemCallbackEiPvS4_S4_+0x44>
        memory_order __b = __m & __memory_order_mask;
	__glibcxx_assert(__b != memory_order_acquire);
	__glibcxx_assert(__b != memory_order_acq_rel);
	__glibcxx_assert(__b != memory_order_consume);

	__atomic_store_n(&_M_i, __i, __m);
 80a3ee6:	f3bf 8f5f 	dmb	sy
    }

    void setResult() {
        if (this->exchangeState(State::SUCCEEDED)) {
            this->releaseDone();
            this->invokeCallback(this->onSuccess_);
 80a3eea:	300c      	adds	r0, #12
 80a3eec:	f800 3c04 	strb.w	r3, [r0, #-4]
 80a3ef0:	f7ff fe60 	bl	80a3bb4 <_ZN5spark6detail14FutureImplBaseIvNS0_13FutureContextEE14invokeCallbackIFvvEIEEEvRSt6atomicIPSt8functionIT_EEDpOT0_>
 80a3ef4:	a803      	add	r0, sp, #12
 80a3ef6:	f7ff fcbe 	bl	80a3876 <_ZNSt14__shared_countILN9__gnu_cxx12_Lock_policyE0EED1Ev>
        if (error != spark::Error::NONE) {
            p.setError((spark::Error::Type)error);
        } else {
            p.setResult();
        }
    }
 80a3efa:	b004      	add	sp, #16
 80a3efc:	bd10      	pop	{r4, pc}

080a3efe <_ZN9IPAddressD1Ev>:
    IPAddress(uint8_t first_octet, uint8_t second_octet, uint8_t third_octet, uint8_t fourth_octet);
    IPAddress(uint32_t address);
    IPAddress(const uint8_t* address);
    IPAddress(const HAL_IPAddress& address);

    virtual ~IPAddress() {}
 80a3efe:	4770      	bx	lr

080a3f00 <_ZN9IPAddressD0Ev>:
 80a3f00:	b510      	push	{r4, lr}
 80a3f02:	4604      	mov	r4, r0
 80a3f04:	f7fc f8cb 	bl	80a009e <_ZdlPv>
 80a3f08:	4620      	mov	r0, r4
 80a3f0a:	bd10      	pop	{r4, pc}

080a3f0c <_ZNK9IPAddress7printToER5Print>:
#endif
	return address.ipv4==that.address.ipv4;
}

size_t IPAddress::printTo(Print& p) const
{
 80a3f0c:	b5f8      	push	{r3, r4, r5, r6, r7, lr}
 80a3f0e:	460f      	mov	r7, r1
 80a3f10:	f100 0608 	add.w	r6, r0, #8
 80a3f14:	1d05      	adds	r5, r0, #4
 80a3f16:	2400      	movs	r4, #0
    size_t n = 0;
    for (int i = 0; i < 4; i++)
    {
        if (n)
            n += p.print('.');
        n += p.print((*this)[i], DEC);
 80a3f18:	f816 1d01 	ldrb.w	r1, [r6, #-1]!
 80a3f1c:	220a      	movs	r2, #10
 80a3f1e:	4638      	mov	r0, r7
 80a3f20:	f7ff fb82 	bl	80a3628 <_ZN5Print5printEhi>
}

size_t IPAddress::printTo(Print& p) const
{
    size_t n = 0;
    for (int i = 0; i < 4; i++)
 80a3f24:	42ae      	cmp	r6, r5
    {
        if (n)
            n += p.print('.');
        n += p.print((*this)[i], DEC);
 80a3f26:	4404      	add	r4, r0
}

size_t IPAddress::printTo(Print& p) const
{
    size_t n = 0;
    for (int i = 0; i < 4; i++)
 80a3f28:	d007      	beq.n	80a3f3a <_ZNK9IPAddress7printToER5Print+0x2e>
    {
        if (n)
 80a3f2a:	2c00      	cmp	r4, #0
 80a3f2c:	d0f4      	beq.n	80a3f18 <_ZNK9IPAddress7printToER5Print+0xc>
            n += p.print('.');
 80a3f2e:	212e      	movs	r1, #46	; 0x2e
 80a3f30:	4638      	mov	r0, r7
 80a3f32:	f7ff fb36 	bl	80a35a2 <_ZN5Print5printEc>
 80a3f36:	4404      	add	r4, r0
 80a3f38:	e7ee      	b.n	80a3f18 <_ZNK9IPAddress7printToER5Print+0xc>
        n += p.print((*this)[i], DEC);
    }
    return n;
}
 80a3f3a:	4620      	mov	r0, r4
 80a3f3c:	bdf8      	pop	{r3, r4, r5, r6, r7, pc}

080a3f3e <_ZN9IPAddress8set_ipv4Ehhhh>:
    return address.ipv4!=0;
#endif
}

void IPAddress::set_ipv4(uint8_t b0, uint8_t b1, uint8_t b2, uint8_t b3)
{
 80a3f3e:	b510      	push	{r4, lr}
    address.ipv4 = b0<<24 | b1 << 16 | b2 << 8 | b3;
 80a3f40:	f89d 4008 	ldrb.w	r4, [sp, #8]
 80a3f44:	ea44 2303 	orr.w	r3, r4, r3, lsl #8
 80a3f48:	ea43 4202 	orr.w	r2, r3, r2, lsl #16
 80a3f4c:	ea42 6101 	orr.w	r1, r2, r1, lsl #24
        return &address;
    }

    inline void setVersion(uint8_t version) {
#if HAL_IPv6
        address.v = version;
 80a3f50:	2304      	movs	r3, #4
 80a3f52:	6041      	str	r1, [r0, #4]
 80a3f54:	7503      	strb	r3, [r0, #20]
 80a3f56:	bd10      	pop	{r4, pc}

080a3f58 <_ZN9IPAddressC1Ehhhh>:
{
    memcpy(&this->address, &address, sizeof(address));
}


IPAddress::IPAddress(uint8_t first_octet, uint8_t second_octet, uint8_t third_octet, uint8_t fourth_octet)
 80a3f58:	b537      	push	{r0, r1, r2, r4, r5, lr}
 80a3f5a:	4d04      	ldr	r5, [pc, #16]	; (80a3f6c <_ZN9IPAddressC1Ehhhh+0x14>)
 80a3f5c:	6005      	str	r5, [r0, #0]
{
    set_ipv4(first_octet, second_octet, third_octet, fourth_octet);
 80a3f5e:	f89d 5018 	ldrb.w	r5, [sp, #24]
 80a3f62:	9500      	str	r5, [sp, #0]
 80a3f64:	f7ff ffeb 	bl	80a3f3e <_ZN9IPAddress8set_ipv4Ehhhh>
}
 80a3f68:	b003      	add	sp, #12
 80a3f6a:	bd30      	pop	{r4, r5, pc}
 80a3f6c:	080a59e4 	.word	0x080a59e4

080a3f70 <_ZN9USBSerial14blockOnOverrunEb>:
  HAL_USB_USART_Flush_Data(_serial);
}

void USBSerial::blockOnOverrun(bool block)
{
  _blocking = block;
 80a3f70:	7441      	strb	r1, [r0, #17]
 80a3f72:	4770      	bx	lr

080a3f74 <_ZN9USBSerialD1Ev>:
#include "spark_wiring_platform.h"
#include "usb_hal.h"
#include "system_task.h"
#include "spark_wiring_startup.h"

class USBSerial : public Stream
 80a3f74:	4770      	bx	lr

080a3f76 <_ZN9USBSerial4readEv>:


// Read data from buffer
int USBSerial::read()
{
	return HAL_USB_USART_Receive_Data(_serial, false);
 80a3f76:	2100      	movs	r1, #0
 80a3f78:	7c00      	ldrb	r0, [r0, #16]
 80a3f7a:	f7ff b9df 	b.w	80a333c <HAL_USB_USART_Receive_Data>

080a3f7e <_ZN9USBSerial4peekEv>:
  _blocking = block;
}

int USBSerial::peek()
{
	return HAL_USB_USART_Receive_Data(_serial, true);
 80a3f7e:	2101      	movs	r1, #1
 80a3f80:	7c00      	ldrb	r0, [r0, #16]
 80a3f82:	f7ff b9db 	b.w	80a333c <HAL_USB_USART_Receive_Data>

080a3f86 <_ZN9USBSerial17availableForWriteEv>:
	return HAL_USB_USART_Receive_Data(_serial, false);
}

int USBSerial::availableForWrite()
{
  return HAL_USB_USART_Available_Data_For_Write(_serial);
 80a3f86:	7c00      	ldrb	r0, [r0, #16]
 80a3f88:	f7ff b9d0 	b.w	80a332c <HAL_USB_USART_Available_Data_For_Write>

080a3f8c <_ZN9USBSerial9availableEv>:
}

int USBSerial::available()
{
	return HAL_USB_USART_Available_Data(_serial);
 80a3f8c:	7c00      	ldrb	r0, [r0, #16]
 80a3f8e:	f7ff b9c5 	b.w	80a331c <HAL_USB_USART_Available_Data>

080a3f92 <_ZN9USBSerial5writeEh>:
}

size_t USBSerial::write(uint8_t byte)
{
 80a3f92:	b538      	push	{r3, r4, r5, lr}
 80a3f94:	4604      	mov	r4, r0
  if (HAL_USB_USART_Available_Data_For_Write(_serial) > 0 || _blocking) {
 80a3f96:	7c00      	ldrb	r0, [r0, #16]
{
	return HAL_USB_USART_Available_Data(_serial);
}

size_t USBSerial::write(uint8_t byte)
{
 80a3f98:	460d      	mov	r5, r1
  if (HAL_USB_USART_Available_Data_For_Write(_serial) > 0 || _blocking) {
 80a3f9a:	f7ff f9c7 	bl	80a332c <HAL_USB_USART_Available_Data_For_Write>
 80a3f9e:	2800      	cmp	r0, #0
 80a3fa0:	dc01      	bgt.n	80a3fa6 <_ZN9USBSerial5writeEh+0x14>
 80a3fa2:	7c60      	ldrb	r0, [r4, #17]
 80a3fa4:	b120      	cbz	r0, 80a3fb0 <_ZN9USBSerial5writeEh+0x1e>
    HAL_USB_USART_Send_Data(_serial, byte);
 80a3fa6:	4629      	mov	r1, r5
 80a3fa8:	7c20      	ldrb	r0, [r4, #16]
 80a3faa:	f7ff f9cf 	bl	80a334c <HAL_USB_USART_Send_Data>
    return 1;
 80a3fae:	2001      	movs	r0, #1
  }
  return 0;
}
 80a3fb0:	bd38      	pop	{r3, r4, r5, pc}

080a3fb2 <_ZN9USBSerial5flushEv>:

void USBSerial::flush()
{
  HAL_USB_USART_Flush_Data(_serial);
 80a3fb2:	7c00      	ldrb	r0, [r0, #16]
 80a3fb4:	f7ff b9d2 	b.w	80a335c <HAL_USB_USART_Flush_Data>

080a3fb8 <_ZN9USBSerialD0Ev>:
 80a3fb8:	b510      	push	{r4, lr}
 80a3fba:	4604      	mov	r4, r0
 80a3fbc:	f7fc f86f 	bl	80a009e <_ZdlPv>
 80a3fc0:	4620      	mov	r0, r4
 80a3fc2:	bd10      	pop	{r4, pc}

080a3fc4 <_ZN9USBSerialC1E20HAL_USB_USART_SerialRK20HAL_USB_USART_Config>:

  HAL_USB_USART_Config conf = acquireSerialBuffer();
  HAL_USB_USART_Init(_serial, &conf);
}

USBSerial::USBSerial(HAL_USB_USART_Serial serial, const HAL_USB_USART_Config& conf)
 80a3fc4:	b510      	push	{r4, lr}
 80a3fc6:	4604      	mov	r4, r0
  protected:
    void setWriteError(int err = 1) { write_error = err; }
    size_t printf_impl(bool newline, const char* format, ...);

  public:
    Print() : write_error(0) {}
 80a3fc8:	2300      	movs	r3, #0
 80a3fca:	6063      	str	r3, [r4, #4]
    virtual int available() = 0;
    virtual int read() = 0;
    virtual int peek() = 0;
    virtual void flush() = 0;

    Stream() {_timeout=1000;}
 80a3fcc:	f44f 737a 	mov.w	r3, #1000	; 0x3e8
 80a3fd0:	60a3      	str	r3, [r4, #8]
 80a3fd2:	4b05      	ldr	r3, [pc, #20]	; (80a3fe8 <_ZN9USBSerialC1E20HAL_USB_USART_SerialRK20HAL_USB_USART_Config+0x24>)
 80a3fd4:	4608      	mov	r0, r1
 80a3fd6:	6023      	str	r3, [r4, #0]
{
  _serial = serial;
  _blocking = true;
 80a3fd8:	2301      	movs	r3, #1
  HAL_USB_USART_Init(_serial, &conf);
}

USBSerial::USBSerial(HAL_USB_USART_Serial serial, const HAL_USB_USART_Config& conf)
{
  _serial = serial;
 80a3fda:	7421      	strb	r1, [r4, #16]
  _blocking = true;
 80a3fdc:	7463      	strb	r3, [r4, #17]

  HAL_USB_USART_Init(_serial, &conf);
 80a3fde:	4611      	mov	r1, r2
 80a3fe0:	f7ff f98c 	bl	80a32fc <HAL_USB_USART_Init>
}
 80a3fe4:	4620      	mov	r0, r4
 80a3fe6:	bd10      	pop	{r4, pc}
 80a3fe8:	080a59f8 	.word	0x080a59f8

080a3fec <_ZN9USBSerial5beginEl>:
// Public methods
//

void USBSerial::begin(long speed)
{
    HAL_USB_USART_Begin(_serial, speed, NULL);
 80a3fec:	2200      	movs	r2, #0
 80a3fee:	7c00      	ldrb	r0, [r0, #16]
 80a3ff0:	f7ff b98c 	b.w	80a330c <HAL_USB_USART_Begin>

080a3ff4 <_Z19acquireSerialBufferv>:

// Preinstantiate Objects //////////////////////////////////////////////////////
#ifdef SPARK_USB_SERIAL

HAL_USB_USART_Config __attribute__((weak)) acquireSerialBuffer()
{
 80a3ff4:	b510      	push	{r4, lr}
 80a3ff6:	4604      	mov	r4, r0
  HAL_USB_USART_Config conf = {0};
 80a3ff8:	2214      	movs	r2, #20
 80a3ffa:	2100      	movs	r1, #0
 80a3ffc:	f001 fbad 	bl	80a575a <memset>

#ifdef USB_SERIAL_USERSPACE_BUFFERS
  static uint8_t serial_rx_buffer[USB_RX_BUFFER_SIZE];
  static uint8_t serial_tx_buffer[USB_TX_BUFFER_SIZE];

  conf.rx_buffer = serial_rx_buffer;
 80a4000:	4b05      	ldr	r3, [pc, #20]	; (80a4018 <_Z19acquireSerialBufferv+0x24>)
  conf.rx_buffer_size = USB_RX_BUFFER_SIZE;
  conf.tx_buffer_size = USB_TX_BUFFER_SIZE;
#endif

  return conf;
}
 80a4002:	4620      	mov	r0, r4

#ifdef USB_SERIAL_USERSPACE_BUFFERS
  static uint8_t serial_rx_buffer[USB_RX_BUFFER_SIZE];
  static uint8_t serial_tx_buffer[USB_TX_BUFFER_SIZE];

  conf.rx_buffer = serial_rx_buffer;
 80a4004:	6063      	str	r3, [r4, #4]
  conf.tx_buffer = serial_tx_buffer;
 80a4006:	4b05      	ldr	r3, [pc, #20]	; (80a401c <_Z19acquireSerialBufferv+0x28>)
 80a4008:	60e3      	str	r3, [r4, #12]
  conf.rx_buffer_size = USB_RX_BUFFER_SIZE;
 80a400a:	f240 1301 	movw	r3, #257	; 0x101
 80a400e:	8123      	strh	r3, [r4, #8]
  conf.tx_buffer_size = USB_TX_BUFFER_SIZE;
 80a4010:	2381      	movs	r3, #129	; 0x81
 80a4012:	8223      	strh	r3, [r4, #16]
#endif

  return conf;
}
 80a4014:	bd10      	pop	{r4, pc}
 80a4016:	bf00      	nop
 80a4018:	200004b1 	.word	0x200004b1
 80a401c:	20000430 	.word	0x20000430

080a4020 <_Z16_fetch_usbserialv>:

USBSerial& _fetch_usbserial()
{
 80a4020:	b530      	push	{r4, r5, lr}
  HAL_USB_USART_Config conf = acquireSerialBuffer();
	static USBSerial _usbserial(HAL_USB_USART_SERIAL, conf);
 80a4022:	4d0e      	ldr	r5, [pc, #56]	; (80a405c <_Z16_fetch_usbserialv+0x3c>)

  return conf;
}

USBSerial& _fetch_usbserial()
{
 80a4024:	b087      	sub	sp, #28
  HAL_USB_USART_Config conf = acquireSerialBuffer();
 80a4026:	a801      	add	r0, sp, #4
 80a4028:	f7ff ffe4 	bl	80a3ff4 <_Z19acquireSerialBufferv>
	static USBSerial _usbserial(HAL_USB_USART_SERIAL, conf);
 80a402c:	6829      	ldr	r1, [r5, #0]
 80a402e:	f011 0401 	ands.w	r4, r1, #1
 80a4032:	d110      	bne.n	80a4056 <_Z16_fetch_usbserialv+0x36>
 80a4034:	4628      	mov	r0, r5
 80a4036:	f7fc f834 	bl	80a00a2 <__cxa_guard_acquire>
 80a403a:	b160      	cbz	r0, 80a4056 <_Z16_fetch_usbserialv+0x36>
 80a403c:	aa01      	add	r2, sp, #4
 80a403e:	4621      	mov	r1, r4
 80a4040:	4807      	ldr	r0, [pc, #28]	; (80a4060 <_Z16_fetch_usbserialv+0x40>)
 80a4042:	f7ff ffbf 	bl	80a3fc4 <_ZN9USBSerialC1E20HAL_USB_USART_SerialRK20HAL_USB_USART_Config>
 80a4046:	4628      	mov	r0, r5
 80a4048:	f7fc f830 	bl	80a00ac <__cxa_guard_release>
 80a404c:	4a05      	ldr	r2, [pc, #20]	; (80a4064 <_Z16_fetch_usbserialv+0x44>)
 80a404e:	4906      	ldr	r1, [pc, #24]	; (80a4068 <_Z16_fetch_usbserialv+0x48>)
 80a4050:	4803      	ldr	r0, [pc, #12]	; (80a4060 <_Z16_fetch_usbserialv+0x40>)
 80a4052:	f000 fa25 	bl	80a44a0 <__aeabi_atexit>
	return _usbserial;
}
 80a4056:	4802      	ldr	r0, [pc, #8]	; (80a4060 <_Z16_fetch_usbserialv+0x40>)
 80a4058:	b007      	add	sp, #28
 80a405a:	bd30      	pop	{r4, r5, pc}
 80a405c:	2000042c 	.word	0x2000042c
 80a4060:	200005b4 	.word	0x200005b4
 80a4064:	20000364 	.word	0x20000364
 80a4068:	080a3f75 	.word	0x080a3f75

080a406c <_Z23acquireUSBSerial1Bufferv>:

#if Wiring_USBSerial1

HAL_USB_USART_Config __attribute__((weak)) acquireUSBSerial1Buffer()
{
 80a406c:	b510      	push	{r4, lr}
 80a406e:	4604      	mov	r4, r0
  HAL_USB_USART_Config conf = {0};
 80a4070:	2214      	movs	r2, #20
 80a4072:	2100      	movs	r1, #0
 80a4074:	f001 fb71 	bl	80a575a <memset>

#ifdef USB_SERIAL_USERSPACE_BUFFERS
  static uint8_t usbserial1_rx_buffer[USB_RX_BUFFER_SIZE];
  static uint8_t usbserial1_tx_buffer[USB_TX_BUFFER_SIZE];

  conf.rx_buffer = usbserial1_rx_buffer;
 80a4078:	4b05      	ldr	r3, [pc, #20]	; (80a4090 <_Z23acquireUSBSerial1Bufferv+0x24>)
  conf.rx_buffer_size = USB_RX_BUFFER_SIZE;
  conf.tx_buffer_size = USB_TX_BUFFER_SIZE;
#endif

  return conf;
}
 80a407a:	4620      	mov	r0, r4

#ifdef USB_SERIAL_USERSPACE_BUFFERS
  static uint8_t usbserial1_rx_buffer[USB_RX_BUFFER_SIZE];
  static uint8_t usbserial1_tx_buffer[USB_TX_BUFFER_SIZE];

  conf.rx_buffer = usbserial1_rx_buffer;
 80a407c:	6063      	str	r3, [r4, #4]
  conf.tx_buffer = usbserial1_tx_buffer;
 80a407e:	4b05      	ldr	r3, [pc, #20]	; (80a4094 <_Z23acquireUSBSerial1Bufferv+0x28>)
 80a4080:	60e3      	str	r3, [r4, #12]
  conf.rx_buffer_size = USB_RX_BUFFER_SIZE;
 80a4082:	f240 1301 	movw	r3, #257	; 0x101
 80a4086:	8123      	strh	r3, [r4, #8]
  conf.tx_buffer_size = USB_TX_BUFFER_SIZE;
 80a4088:	2381      	movs	r3, #129	; 0x81
 80a408a:	8223      	strh	r3, [r4, #16]
#endif

  return conf;
}
 80a408c:	bd10      	pop	{r4, pc}
 80a408e:	bf00      	nop
 80a4090:	20000664 	.word	0x20000664
 80a4094:	200005cc 	.word	0x200005cc

080a4098 <_Z17_fetch_usbserial1v>:

USBSerial& _fetch_usbserial1()
{
 80a4098:	b510      	push	{r4, lr}
  HAL_USB_USART_Config conf = acquireUSBSerial1Buffer();
  static USBSerial _usbserial1(HAL_USB_USART_SERIAL1, conf);
 80a409a:	4c0e      	ldr	r4, [pc, #56]	; (80a40d4 <_Z17_fetch_usbserial1v+0x3c>)

  return conf;
}

USBSerial& _fetch_usbserial1()
{
 80a409c:	b086      	sub	sp, #24
  HAL_USB_USART_Config conf = acquireUSBSerial1Buffer();
 80a409e:	a801      	add	r0, sp, #4
 80a40a0:	f7ff ffe4 	bl	80a406c <_Z23acquireUSBSerial1Bufferv>
  static USBSerial _usbserial1(HAL_USB_USART_SERIAL1, conf);
 80a40a4:	6823      	ldr	r3, [r4, #0]
 80a40a6:	07db      	lsls	r3, r3, #31
 80a40a8:	d410      	bmi.n	80a40cc <_Z17_fetch_usbserial1v+0x34>
 80a40aa:	4620      	mov	r0, r4
 80a40ac:	f7fb fff9 	bl	80a00a2 <__cxa_guard_acquire>
 80a40b0:	b160      	cbz	r0, 80a40cc <_Z17_fetch_usbserial1v+0x34>
 80a40b2:	aa01      	add	r2, sp, #4
 80a40b4:	2101      	movs	r1, #1
 80a40b6:	4808      	ldr	r0, [pc, #32]	; (80a40d8 <_Z17_fetch_usbserial1v+0x40>)
 80a40b8:	f7ff ff84 	bl	80a3fc4 <_ZN9USBSerialC1E20HAL_USB_USART_SerialRK20HAL_USB_USART_Config>
 80a40bc:	4620      	mov	r0, r4
 80a40be:	f7fb fff5 	bl	80a00ac <__cxa_guard_release>
 80a40c2:	4a06      	ldr	r2, [pc, #24]	; (80a40dc <_Z17_fetch_usbserial1v+0x44>)
 80a40c4:	4906      	ldr	r1, [pc, #24]	; (80a40e0 <_Z17_fetch_usbserial1v+0x48>)
 80a40c6:	4804      	ldr	r0, [pc, #16]	; (80a40d8 <_Z17_fetch_usbserial1v+0x40>)
 80a40c8:	f000 f9ea 	bl	80a44a0 <__aeabi_atexit>
  return _usbserial1;
}
 80a40cc:	4802      	ldr	r0, [pc, #8]	; (80a40d8 <_Z17_fetch_usbserial1v+0x40>)
 80a40ce:	b006      	add	sp, #24
 80a40d0:	bd10      	pop	{r4, pc}
 80a40d2:	bf00      	nop
 80a40d4:	200005c8 	.word	0x200005c8
 80a40d8:	20000650 	.word	0x20000650
 80a40dc:	20000364 	.word	0x20000364
 80a40e0:	080a3f75 	.word	0x080a3f75

080a40e4 <_Z26call_raw_interrupt_handlerPv>:
}

void call_raw_interrupt_handler(void* data)
{
    raw_interrupt_handler_t handler = raw_interrupt_handler_t(data);
    handler();
 80a40e4:	4700      	bx	r0
	...

080a40e8 <_Z15attachInterrupttPFvvE13InterruptModeah>:
    }
    return handler!=NULL;
}

bool attachInterrupt(uint16_t pin, raw_interrupt_handler_t handler, InterruptMode mode, int8_t priority, uint8_t subpriority)
{
 80a40e8:	b5f0      	push	{r4, r5, r6, r7, lr}
 80a40ea:	461c      	mov	r4, r3
 80a40ec:	b085      	sub	sp, #20
 80a40ee:	4605      	mov	r5, r0
 80a40f0:	460e      	mov	r6, r1
 80a40f2:	4617      	mov	r7, r2
#if Wiring_Cellular == 1
  /* safety check that prevents users from attaching an interrupt to D7
   * which is shared with BATT_INT_PC13 for power management */
  if (pin == D7) return false;
#endif
    HAL_Interrupts_Detach(pin);
 80a40f4:	f7ff f818 	bl	80a3128 <HAL_Interrupts_Detach>
    HAL_InterruptExtraConfiguration extra = {0};
 80a40f8:	2000      	movs	r0, #0
 *******************************************************************************/

HAL_InterruptExtraConfiguration* configure_interrupt(HAL_InterruptExtraConfiguration& extra, int8_t priority, uint8_t subpriority)
{
  extra.version = HAL_INTERRUPT_EXTRA_CONFIGURATION_VERSION_1;
  if (priority >= 0) {
 80a40fa:	4284      	cmp	r4, r0
 * Return         : true if function handler was allocated, false otherwise.
 *******************************************************************************/

HAL_InterruptExtraConfiguration* configure_interrupt(HAL_InterruptExtraConfiguration& extra, int8_t priority, uint8_t subpriority)
{
  extra.version = HAL_INTERRUPT_EXTRA_CONFIGURATION_VERSION_1;
 80a40fc:	f04f 0304 	mov.w	r3, #4
  /* safety check that prevents users from attaching an interrupt to D7
   * which is shared with BATT_INT_PC13 for power management */
  if (pin == D7) return false;
#endif
    HAL_Interrupts_Detach(pin);
    HAL_InterruptExtraConfiguration extra = {0};
 80a4100:	9003      	str	r0, [sp, #12]
 * Return         : true if function handler was allocated, false otherwise.
 *******************************************************************************/

HAL_InterruptExtraConfiguration* configure_interrupt(HAL_InterruptExtraConfiguration& extra, int8_t priority, uint8_t subpriority)
{
  extra.version = HAL_INTERRUPT_EXTRA_CONFIGURATION_VERSION_1;
 80a4102:	f88d 300c 	strb.w	r3, [sp, #12]
  if (priority >= 0) {
    extra.IRQChannelPreemptionPriority = (uint8_t)priority;
    extra.IRQChannelSubPriority = subpriority;
    return &extra;
  }
  return nullptr;
 80a4106:	bfb4      	ite	lt
 80a4108:	4603      	movlt	r3, r0
HAL_InterruptExtraConfiguration* configure_interrupt(HAL_InterruptExtraConfiguration& extra, int8_t priority, uint8_t subpriority)
{
  extra.version = HAL_INTERRUPT_EXTRA_CONFIGURATION_VERSION_1;
  if (priority >= 0) {
    extra.IRQChannelPreemptionPriority = (uint8_t)priority;
    extra.IRQChannelSubPriority = subpriority;
 80a410a:	f89d 3028 	ldrbge.w	r3, [sp, #40]	; 0x28
   * which is shared with BATT_INT_PC13 for power management */
  if (pin == D7) return false;
#endif
    HAL_Interrupts_Detach(pin);
    HAL_InterruptExtraConfiguration extra = {0};
    HAL_Interrupts_Attach(pin, call_raw_interrupt_handler, (void*)handler, mode, configure_interrupt(extra, priority, subpriority));
 80a410e:	4628      	mov	r0, r5
HAL_InterruptExtraConfiguration* configure_interrupt(HAL_InterruptExtraConfiguration& extra, int8_t priority, uint8_t subpriority)
{
  extra.version = HAL_INTERRUPT_EXTRA_CONFIGURATION_VERSION_1;
  if (priority >= 0) {
    extra.IRQChannelPreemptionPriority = (uint8_t)priority;
    extra.IRQChannelSubPriority = subpriority;
 80a4110:	bfa4      	itt	ge
 80a4112:	f88d 300e 	strbge.w	r3, [sp, #14]
    return &extra;
 80a4116:	ab03      	addge	r3, sp, #12
   * which is shared with BATT_INT_PC13 for power management */
  if (pin == D7) return false;
#endif
    HAL_Interrupts_Detach(pin);
    HAL_InterruptExtraConfiguration extra = {0};
    HAL_Interrupts_Attach(pin, call_raw_interrupt_handler, (void*)handler, mode, configure_interrupt(extra, priority, subpriority));
 80a4118:	9300      	str	r3, [sp, #0]
 80a411a:	4632      	mov	r2, r6
 80a411c:	463b      	mov	r3, r7
 80a411e:	4904      	ldr	r1, [pc, #16]	; (80a4130 <_Z15attachInterrupttPFvvE13InterruptModeah+0x48>)

HAL_InterruptExtraConfiguration* configure_interrupt(HAL_InterruptExtraConfiguration& extra, int8_t priority, uint8_t subpriority)
{
  extra.version = HAL_INTERRUPT_EXTRA_CONFIGURATION_VERSION_1;
  if (priority >= 0) {
    extra.IRQChannelPreemptionPriority = (uint8_t)priority;
 80a4120:	bfa8      	it	ge
 80a4122:	f88d 400d 	strbge.w	r4, [sp, #13]
   * which is shared with BATT_INT_PC13 for power management */
  if (pin == D7) return false;
#endif
    HAL_Interrupts_Detach(pin);
    HAL_InterruptExtraConfiguration extra = {0};
    HAL_Interrupts_Attach(pin, call_raw_interrupt_handler, (void*)handler, mode, configure_interrupt(extra, priority, subpriority));
 80a4126:	f7fe fff7 	bl	80a3118 <HAL_Interrupts_Attach>
    return true;
}
 80a412a:	2001      	movs	r0, #1
 80a412c:	b005      	add	sp, #20
 80a412e:	bdf0      	pop	{r4, r5, r6, r7, pc}
 80a4130:	080a40e5 	.word	0x080a40e5

080a4134 <_ZN11USARTSerialD1Ev>:
private:
  HAL_USART_Serial _serial;
  bool _blocking;
public:
  USARTSerial(HAL_USART_Serial serial, Ring_Buffer *rx_buffer, Ring_Buffer *tx_buffer);
  virtual ~USARTSerial() {};
 80a4134:	4770      	bx	lr

080a4136 <_ZN11USARTSerial14blockOnOverrunEb>:
    HAL_USART_Half_Duplex(_serial, Enable);
}

void USARTSerial::blockOnOverrun(bool block)
{
  _blocking = block;
 80a4136:	7441      	strb	r1, [r0, #17]
 80a4138:	4770      	bx	lr

080a413a <_ZN11USARTSerial17availableForWriteEv>:
}


int USARTSerial::availableForWrite(void)
{
  return HAL_USART_Available_Data_For_Write(_serial);
 80a413a:	7c00      	ldrb	r0, [r0, #16]
 80a413c:	f7ff b85c 	b.w	80a31f8 <HAL_USART_Available_Data_For_Write>

080a4140 <_ZN11USARTSerial9availableEv>:
}

int USARTSerial::available(void)
{
  return HAL_USART_Available_Data(_serial);
 80a4140:	7c00      	ldrb	r0, [r0, #16]
 80a4142:	f7ff b831 	b.w	80a31a8 <HAL_USART_Available_Data>

080a4146 <_ZN11USARTSerial4peekEv>:
}

int USARTSerial::peek(void)
{
  return HAL_USART_Peek_Data(_serial);
 80a4146:	7c00      	ldrb	r0, [r0, #16]
 80a4148:	f7ff b83e 	b.w	80a31c8 <HAL_USART_Peek_Data>

080a414c <_ZN11USARTSerial4readEv>:
}

int USARTSerial::read(void)
{
  return HAL_USART_Read_Data(_serial);
 80a414c:	7c00      	ldrb	r0, [r0, #16]
 80a414e:	f7ff b833 	b.w	80a31b8 <HAL_USART_Read_Data>

080a4152 <_ZN11USARTSerial5flushEv>:
}

void USARTSerial::flush()
{
  HAL_USART_Flush_Data(_serial);
 80a4152:	7c00      	ldrb	r0, [r0, #16]
 80a4154:	f7ff b840 	b.w	80a31d8 <HAL_USART_Flush_Data>

080a4158 <_ZN11USARTSerialD0Ev>:
 80a4158:	b510      	push	{r4, lr}
 80a415a:	4604      	mov	r4, r0
 80a415c:	f7fb ff9f 	bl	80a009e <_ZdlPv>
 80a4160:	4620      	mov	r0, r4
 80a4162:	bd10      	pop	{r4, pc}

080a4164 <_ZN11USARTSerial5writeEh>:
}

size_t USARTSerial::write(uint8_t c)
{
 80a4164:	b570      	push	{r4, r5, r6, lr}
  // attempt a write if blocking, or for non-blocking if there is room.
  if (_blocking || HAL_USART_Available_Data_For_Write(_serial) > 0) {
 80a4166:	7c45      	ldrb	r5, [r0, #17]
{
  HAL_USART_Flush_Data(_serial);
}

size_t USARTSerial::write(uint8_t c)
{
 80a4168:	4604      	mov	r4, r0
 80a416a:	460e      	mov	r6, r1
  // attempt a write if blocking, or for non-blocking if there is room.
  if (_blocking || HAL_USART_Available_Data_For_Write(_serial) > 0) {
 80a416c:	b925      	cbnz	r5, 80a4178 <_ZN11USARTSerial5writeEh+0x14>
 80a416e:	7c00      	ldrb	r0, [r0, #16]
 80a4170:	f7ff f842 	bl	80a31f8 <HAL_USART_Available_Data_For_Write>
 80a4174:	2800      	cmp	r0, #0
 80a4176:	dd05      	ble.n	80a4184 <_ZN11USARTSerial5writeEh+0x20>
    // the HAL always blocks.
	  return HAL_USART_Write_Data(_serial, c);
 80a4178:	4631      	mov	r1, r6
 80a417a:	7c20      	ldrb	r0, [r4, #16]
  }
  return 0;
}
 80a417c:	e8bd 4070 	ldmia.w	sp!, {r4, r5, r6, lr}
size_t USARTSerial::write(uint8_t c)
{
  // attempt a write if blocking, or for non-blocking if there is room.
  if (_blocking || HAL_USART_Available_Data_For_Write(_serial) > 0) {
    // the HAL always blocks.
	  return HAL_USART_Write_Data(_serial, c);
 80a4180:	f7ff b80a 	b.w	80a3198 <HAL_USART_Write_Data>
  }
  return 0;
}
 80a4184:	4628      	mov	r0, r5
 80a4186:	bd70      	pop	{r4, r5, r6, pc}

080a4188 <_ZN11USARTSerialC1E16HAL_USART_SerialP11Ring_BufferS2_>:
#include "spark_wiring_usartserial.h"
#include "spark_wiring_constants.h"

// Constructors ////////////////////////////////////////////////////////////////

USARTSerial::USARTSerial(HAL_USART_Serial serial, Ring_Buffer *rx_buffer, Ring_Buffer *tx_buffer)
 80a4188:	b510      	push	{r4, lr}
 80a418a:	4604      	mov	r4, r0
 80a418c:	4608      	mov	r0, r1
 80a418e:	4611      	mov	r1, r2
 80a4190:	2200      	movs	r2, #0
 80a4192:	6062      	str	r2, [r4, #4]
 80a4194:	f44f 727a 	mov.w	r2, #1000	; 0x3e8
 80a4198:	60a2      	str	r2, [r4, #8]
 80a419a:	4a05      	ldr	r2, [pc, #20]	; (80a41b0 <_ZN11USARTSerialC1E16HAL_USART_SerialP11Ring_BufferS2_+0x28>)
{
  _serial = serial;
 80a419c:	7420      	strb	r0, [r4, #16]
#include "spark_wiring_usartserial.h"
#include "spark_wiring_constants.h"

// Constructors ////////////////////////////////////////////////////////////////

USARTSerial::USARTSerial(HAL_USART_Serial serial, Ring_Buffer *rx_buffer, Ring_Buffer *tx_buffer)
 80a419e:	6022      	str	r2, [r4, #0]
{
  _serial = serial;
  // Default is blocking mode
  _blocking = true;
 80a41a0:	2201      	movs	r2, #1
 80a41a2:	7462      	strb	r2, [r4, #17]
  HAL_USART_Init(serial, rx_buffer, tx_buffer);
 80a41a4:	461a      	mov	r2, r3
 80a41a6:	f7fe ffef 	bl	80a3188 <HAL_USART_Init>
}
 80a41aa:	4620      	mov	r0, r4
 80a41ac:	bd10      	pop	{r4, pc}
 80a41ae:	bf00      	nop
 80a41b0:	080a5a28 	.word	0x080a5a28

080a41b4 <_ZN11USARTSerial9isEnabledEv>:
USARTSerial::operator bool() {
  return true;
}

bool USARTSerial::isEnabled() {
  return HAL_USART_Is_Enabled(_serial);
 80a41b4:	7c00      	ldrb	r0, [r0, #16]
 80a41b6:	f7ff b817 	b.w	80a31e8 <HAL_USART_Is_Enabled>
	...

080a41bc <_Z22__fetch_global_Serial1v>:
// Preinstantiate Objects //////////////////////////////////////////////////////
static Ring_Buffer serial1_rx_buffer;
static Ring_Buffer serial1_tx_buffer;

USARTSerial& __fetch_global_Serial1()
{
 80a41bc:	b538      	push	{r3, r4, r5, lr}
	static USARTSerial serial1(HAL_USART_SERIAL1, &serial1_rx_buffer, &serial1_tx_buffer);
 80a41be:	4d0c      	ldr	r5, [pc, #48]	; (80a41f0 <_Z22__fetch_global_Serial1v+0x34>)
 80a41c0:	6829      	ldr	r1, [r5, #0]
 80a41c2:	f011 0401 	ands.w	r4, r1, #1
 80a41c6:	d111      	bne.n	80a41ec <_Z22__fetch_global_Serial1v+0x30>
 80a41c8:	4628      	mov	r0, r5
 80a41ca:	f7fb ff6a 	bl	80a00a2 <__cxa_guard_acquire>
 80a41ce:	b168      	cbz	r0, 80a41ec <_Z22__fetch_global_Serial1v+0x30>
 80a41d0:	4a08      	ldr	r2, [pc, #32]	; (80a41f4 <_Z22__fetch_global_Serial1v+0x38>)
 80a41d2:	4621      	mov	r1, r4
 80a41d4:	4b08      	ldr	r3, [pc, #32]	; (80a41f8 <_Z22__fetch_global_Serial1v+0x3c>)
 80a41d6:	4809      	ldr	r0, [pc, #36]	; (80a41fc <_Z22__fetch_global_Serial1v+0x40>)
 80a41d8:	f7ff ffd6 	bl	80a4188 <_ZN11USARTSerialC1E16HAL_USART_SerialP11Ring_BufferS2_>
 80a41dc:	4628      	mov	r0, r5
 80a41de:	f7fb ff65 	bl	80a00ac <__cxa_guard_release>
 80a41e2:	4a07      	ldr	r2, [pc, #28]	; (80a4200 <_Z22__fetch_global_Serial1v+0x44>)
 80a41e4:	4907      	ldr	r1, [pc, #28]	; (80a4204 <_Z22__fetch_global_Serial1v+0x48>)
 80a41e6:	4805      	ldr	r0, [pc, #20]	; (80a41fc <_Z22__fetch_global_Serial1v+0x40>)
 80a41e8:	f000 f95a 	bl	80a44a0 <__aeabi_atexit>
	return serial1;
}
 80a41ec:	4803      	ldr	r0, [pc, #12]	; (80a41fc <_Z22__fetch_global_Serial1v+0x40>)
 80a41ee:	bd38      	pop	{r3, r4, r5, pc}
 80a41f0:	20000800 	.word	0x20000800
 80a41f4:	20000804 	.word	0x20000804
 80a41f8:	2000077c 	.word	0x2000077c
 80a41fc:	20000768 	.word	0x20000768
 80a4200:	20000364 	.word	0x20000364
 80a4204:	080a4135 	.word	0x080a4135

080a4208 <_ZN5spark6detail21futureCallbackWrapperEPv>:
 * License along with this library; if not, see <http://www.gnu.org/licenses/>.
 */

#include "spark_wiring_async.h"

void spark::detail::futureCallbackWrapper(void* data) {
 80a4208:	b510      	push	{r4, lr}
  template<typename _Res, typename... _ArgTypes>
    _Res
    function<_Res(_ArgTypes...)>::
    operator()(_ArgTypes... __args) const
    {
      if (_M_empty())
 80a420a:	6883      	ldr	r3, [r0, #8]
 80a420c:	4604      	mov	r4, r0
 80a420e:	b90b      	cbnz	r3, 80a4214 <_ZN5spark6detail21futureCallbackWrapperEPv+0xc>
	__throw_bad_function_call();
 80a4210:	f000 f94b 	bl	80a44aa <_ZSt25__throw_bad_function_callv>
      return _M_invoker(_M_functor, std::forward<_ArgTypes>(__args)...);
 80a4214:	68c3      	ldr	r3, [r0, #12]
 80a4216:	4798      	blx	r3

    _Function_base() : _M_manager(nullptr) { }

    ~_Function_base()
    {
      if (_M_manager)
 80a4218:	68a3      	ldr	r3, [r4, #8]
 80a421a:	b11b      	cbz	r3, 80a4224 <_ZN5spark6detail21futureCallbackWrapperEPv+0x1c>
	_M_manager(_M_functor, _M_functor, __destroy_functor);
 80a421c:	2203      	movs	r2, #3
 80a421e:	4621      	mov	r1, r4
 80a4220:	4620      	mov	r0, r4
 80a4222:	4798      	blx	r3
    auto callbackPtr = static_cast<const std::function<void()>*>(data);
    (*callbackPtr)();
    delete callbackPtr;
 80a4224:	4620      	mov	r0, r4
}
 80a4226:	e8bd 4010 	ldmia.w	sp!, {r4, lr}
#include "spark_wiring_async.h"

void spark::detail::futureCallbackWrapper(void* data) {
    auto callbackPtr = static_cast<const std::function<void()>*>(data);
    (*callbackPtr)();
    delete callbackPtr;
 80a422a:	f7fb bf38 	b.w	80a009e <_ZdlPv>

080a422e <_ZN7TwoWireD1Ev>:
private:
  HAL_I2C_Interface _i2c;

public:
  TwoWire(HAL_I2C_Interface i2c);
  virtual ~TwoWire() {};
 80a422e:	4770      	bx	lr

080a4230 <_ZN7TwoWire5writeEPKhj>:

// must be called in:
// slave tx event callback
// or after beginTransmission(address)
size_t TwoWire::write(const uint8_t *data, size_t quantity)
{
 80a4230:	b5f8      	push	{r3, r4, r5, r6, r7, lr}
 80a4232:	4606      	mov	r6, r0
 80a4234:	4615      	mov	r5, r2
 80a4236:	460c      	mov	r4, r1
 80a4238:	188f      	adds	r7, r1, r2
  // in master/slave transmitter mode
  for(size_t i = 0; i < quantity; ++i)
 80a423a:	42bc      	cmp	r4, r7
 80a423c:	d006      	beq.n	80a424c <_ZN7TwoWire5writeEPKhj+0x1c>
  {
    write(data[i]);
 80a423e:	6833      	ldr	r3, [r6, #0]
 80a4240:	f814 1b01 	ldrb.w	r1, [r4], #1
 80a4244:	689b      	ldr	r3, [r3, #8]
 80a4246:	4630      	mov	r0, r6
 80a4248:	4798      	blx	r3
// slave tx event callback
// or after beginTransmission(address)
size_t TwoWire::write(const uint8_t *data, size_t quantity)
{
  // in master/slave transmitter mode
  for(size_t i = 0; i < quantity; ++i)
 80a424a:	e7f6      	b.n	80a423a <_ZN7TwoWire5writeEPKhj+0xa>
  {
    write(data[i]);
  }

  return quantity;
}
 80a424c:	4628      	mov	r0, r5
 80a424e:	bdf8      	pop	{r3, r4, r5, r6, r7, pc}

080a4250 <_ZN7TwoWire5writeEh>:
// must be called in:
// slave tx event callback
// or after beginTransmission(address)
size_t TwoWire::write(uint8_t data)
{
  return HAL_I2C_Write_Data(_i2c, data, NULL);
 80a4250:	2200      	movs	r2, #0
 80a4252:	7c00      	ldrb	r0, [r0, #16]
 80a4254:	f7ff b800 	b.w	80a3258 <HAL_I2C_Write_Data>

080a4258 <_ZN7TwoWire9availableEv>:
// must be called in:
// slave rx event callback
// or after requestFrom(address, numBytes)
int TwoWire::available(void)
{
  return HAL_I2C_Available_Data(_i2c, NULL);
 80a4258:	2100      	movs	r1, #0
 80a425a:	7c00      	ldrb	r0, [r0, #16]
 80a425c:	f7ff b804 	b.w	80a3268 <HAL_I2C_Available_Data>

080a4260 <_ZN7TwoWire4readEv>:
// must be called in:
// slave rx event callback
// or after requestFrom(address, numBytes)
int TwoWire::read(void)
{
  return HAL_I2C_Read_Data(_i2c, NULL);
 80a4260:	2100      	movs	r1, #0
 80a4262:	7c00      	ldrb	r0, [r0, #16]
 80a4264:	f7ff b808 	b.w	80a3278 <HAL_I2C_Read_Data>

080a4268 <_ZN7TwoWire4peekEv>:
// must be called in:
// slave rx event callback
// or after requestFrom(address, numBytes)
int TwoWire::peek(void)
{
  return HAL_I2C_Peek_Data(_i2c, NULL);
 80a4268:	2100      	movs	r1, #0
 80a426a:	7c00      	ldrb	r0, [r0, #16]
 80a426c:	f7ff b80c 	b.w	80a3288 <HAL_I2C_Peek_Data>

080a4270 <_ZN7TwoWire5flushEv>:
}

void TwoWire::flush(void)
{
  HAL_I2C_Flush_Data(_i2c, NULL);
 80a4270:	2100      	movs	r1, #0
 80a4272:	7c00      	ldrb	r0, [r0, #16]
 80a4274:	f7ff b810 	b.w	80a3298 <HAL_I2C_Flush_Data>

080a4278 <_ZN7TwoWireD0Ev>:
 80a4278:	b510      	push	{r4, lr}
 80a427a:	4604      	mov	r4, r0
 80a427c:	f7fb ff0f 	bl	80a009e <_ZdlPv>
 80a4280:	4620      	mov	r0, r4
 80a4282:	bd10      	pop	{r4, pc}

080a4284 <_ZN7TwoWireC1E17HAL_I2C_Interface>:
#include "i2c_hal.h"
#include "spark_wiring_thread.h"

// Constructors ////////////////////////////////////////////////////////////////

TwoWire::TwoWire(HAL_I2C_Interface i2c)
 80a4284:	b510      	push	{r4, lr}
 80a4286:	4604      	mov	r4, r0
 80a4288:	4608      	mov	r0, r1
 80a428a:	f44f 737a 	mov.w	r3, #1000	; 0x3e8
 80a428e:	60a3      	str	r3, [r4, #8]
 80a4290:	4b04      	ldr	r3, [pc, #16]	; (80a42a4 <_ZN7TwoWireC1E17HAL_I2C_Interface+0x20>)
 80a4292:	2100      	movs	r1, #0
{
  _i2c = i2c;
 80a4294:	7420      	strb	r0, [r4, #16]
 80a4296:	6061      	str	r1, [r4, #4]
#include "i2c_hal.h"
#include "spark_wiring_thread.h"

// Constructors ////////////////////////////////////////////////////////////////

TwoWire::TwoWire(HAL_I2C_Interface i2c)
 80a4298:	6023      	str	r3, [r4, #0]
{
  _i2c = i2c;
  HAL_I2C_Init(_i2c, NULL);
 80a429a:	f7ff f80d 	bl	80a32b8 <HAL_I2C_Init>

}
 80a429e:	4620      	mov	r0, r4
 80a42a0:	bd10      	pop	{r4, pc}
 80a42a2:	bf00      	nop
 80a42a4:	080a5a58 	.word	0x080a5a58

080a42a8 <_ZN7TwoWire8setSpeedEm>:
// Public Methods //////////////////////////////////////////////////////////////

//setSpeed() should be called before begin() else default to 100KHz
void TwoWire::setSpeed(uint32_t clockSpeed)
{
  HAL_I2C_Set_Speed(_i2c, clockSpeed, NULL);
 80a42a8:	2200      	movs	r2, #0
 80a42aa:	7c00      	ldrb	r0, [r0, #16]
 80a42ac:	f7fe bfac 	b.w	80a3208 <HAL_I2C_Set_Speed>

080a42b0 <_ZN7TwoWire5beginEv>:
  HAL_I2C_Stretch_Clock(_i2c, stretch, NULL);
}

void TwoWire::begin(void)
{
	HAL_I2C_Begin(_i2c, I2C_MODE_MASTER, 0x00, NULL);
 80a42b0:	2300      	movs	r3, #0
 80a42b2:	461a      	mov	r2, r3
 80a42b4:	4619      	mov	r1, r3
 80a42b6:	7c00      	ldrb	r0, [r0, #16]
 80a42b8:	f7fe bfae 	b.w	80a3218 <HAL_I2C_Begin>

080a42bc <_ZN7TwoWire11requestFromEhhh>:
{
	HAL_I2C_End(_i2c, NULL);
}

uint8_t TwoWire::requestFrom(uint8_t address, uint8_t quantity, uint8_t sendStop)
{
 80a42bc:	b513      	push	{r0, r1, r4, lr}
  uint8_t result = HAL_I2C_Request_Data(_i2c, address, quantity, sendStop, NULL);
 80a42be:	2400      	movs	r4, #0
 80a42c0:	7c00      	ldrb	r0, [r0, #16]
 80a42c2:	9400      	str	r4, [sp, #0]
 80a42c4:	f7fe ffb0 	bl	80a3228 <HAL_I2C_Request_Data>
  return result;
}
 80a42c8:	b2c0      	uxtb	r0, r0
 80a42ca:	b002      	add	sp, #8
 80a42cc:	bd10      	pop	{r4, pc}

080a42ce <_ZN7TwoWire11requestFromEhh>:

uint8_t TwoWire::requestFrom(uint8_t address, uint8_t quantity)
{
  return requestFrom((uint8_t)address, (uint8_t)quantity, (uint8_t)true);
 80a42ce:	2301      	movs	r3, #1
 80a42d0:	f7ff bff4 	b.w	80a42bc <_ZN7TwoWire11requestFromEhhh>

080a42d4 <_ZN7TwoWire11requestFromEii>:
}

uint8_t TwoWire::requestFrom(int address, int quantity)
{
  return requestFrom((uint8_t)address, (uint8_t)quantity, (uint8_t)true);
 80a42d4:	2301      	movs	r3, #1
 80a42d6:	b2d2      	uxtb	r2, r2
 80a42d8:	b2c9      	uxtb	r1, r1
 80a42da:	f7ff bfef 	b.w	80a42bc <_ZN7TwoWire11requestFromEhhh>

080a42de <_ZN7TwoWire17beginTransmissionEh>:
  return requestFrom((uint8_t)address, (uint8_t)quantity, (uint8_t)sendStop);
}

void TwoWire::beginTransmission(uint8_t address)
{
	HAL_I2C_Begin_Transmission(_i2c, address, NULL);
 80a42de:	2200      	movs	r2, #0
 80a42e0:	7c00      	ldrb	r0, [r0, #16]
 80a42e2:	f7fe bfa9 	b.w	80a3238 <HAL_I2C_Begin_Transmission>

080a42e6 <_ZN7TwoWire15endTransmissionEh>:
//	no call to endTransmission(true) is made. Some I2C
//	devices will behave oddly if they do not see a STOP.
//
uint8_t TwoWire::endTransmission(uint8_t sendStop)
{
	return HAL_I2C_End_Transmission(_i2c, sendStop, NULL);
 80a42e6:	2200      	movs	r2, #0
 80a42e8:	7c00      	ldrb	r0, [r0, #16]
 80a42ea:	f7fe bfad 	b.w	80a3248 <HAL_I2C_End_Transmission>

080a42ee <_ZN7TwoWire15endTransmissionEv>:
//	This provides backwards compatibility with the original
//	definition, and expected behaviour, of endTransmission
//
uint8_t TwoWire::endTransmission(void)
{
  return endTransmission(true);
 80a42ee:	2101      	movs	r1, #1
 80a42f0:	f7ff bff9 	b.w	80a42e6 <_ZN7TwoWire15endTransmissionEh>

080a42f4 <_ZN7TwoWire9isEnabledEv>:
  HAL_I2C_Set_Callback_On_Request(_i2c, function, NULL);
}

bool TwoWire::isEnabled()
{
  return HAL_I2C_Is_Enabled(_i2c, NULL);
 80a42f4:	2100      	movs	r1, #0
 80a42f6:	7c00      	ldrb	r0, [r0, #16]
 80a42f8:	f7fe bfd6 	b.w	80a32a8 <HAL_I2C_Is_Enabled>

080a42fc <_ZN5spark9WiFiClassD1Ev>:
        wlan_set_ipaddress_source(source, true, NULL);
    }

public:
    WiFiClass() {}
    ~WiFiClass() {}
 80a42fc:	4770      	bx	lr

080a42fe <_ZN5spark9WiFiClass5readyEv>:
    bool connecting(void) {
        return network_connecting(*this, 0, NULL);
    }

    bool ready(void) {
        return network_ready(*this, 0, NULL);
 80a42fe:	2200      	movs	r2, #0
 80a4300:	4611      	mov	r1, r2
 80a4302:	4610      	mov	r0, r2
 80a4304:	f7ff b86a 	b.w	80a33dc <network_ready>

080a4308 <_GLOBAL__sub_I__ZN5spark9WiFiClass4scanEP15WiFiAccessPointj>:
    void setIPAddressSource(IPAddressSource source) {
        wlan_set_ipaddress_source(source, true, NULL);
    }

public:
    WiFiClass() {}
 80a4308:	4803      	ldr	r0, [pc, #12]	; (80a4318 <_GLOBAL__sub_I__ZN5spark9WiFiClass4scanEP15WiFiAccessPointj+0x10>)
 80a430a:	4b04      	ldr	r3, [pc, #16]	; (80a431c <_GLOBAL__sub_I__ZN5spark9WiFiClass4scanEP15WiFiAccessPointj+0x14>)
one second timeout is reached). If the aforementioned "bug" is ever fixed by
TI, no changes need to be made to this function, as it would be implemented
the same way.
*****************************************************************************/

    WiFiClass WiFi;
 80a430c:	4a04      	ldr	r2, [pc, #16]	; (80a4320 <_GLOBAL__sub_I__ZN5spark9WiFiClass4scanEP15WiFiAccessPointj+0x18>)
 80a430e:	4905      	ldr	r1, [pc, #20]	; (80a4324 <_GLOBAL__sub_I__ZN5spark9WiFiClass4scanEP15WiFiAccessPointj+0x1c>)
 80a4310:	6003      	str	r3, [r0, #0]
 80a4312:	f000 b8c5 	b.w	80a44a0 <__aeabi_atexit>
 80a4316:	bf00      	nop
 80a4318:	20000888 	.word	0x20000888
 80a431c:	080a5a80 	.word	0x080a5a80
 80a4320:	20000364 	.word	0x20000364
 80a4324:	080a42fd 	.word	0x080a42fd

080a4328 <pinAvailable>:

/*
 * @brief Perform safety check on desired pin to see if it's already
 * being used.  Return 0 if used, otherwise return 1 if available.
 */
bool pinAvailable(uint16_t pin) {
 80a4328:	b510      	push	{r4, lr}
 80a432a:	4604      	mov	r4, r0

  // SPI safety check
#ifndef SPARK_WIRING_NO_SPI
  if(SPI.isEnabled() == true && (pin == SCK || pin == MOSI || pin == MISO))
 80a432c:	480f      	ldr	r0, [pc, #60]	; (80a436c <pinAvailable+0x44>)
 80a432e:	f7ff f8a9 	bl	80a3484 <_ZN8SPIClass9isEnabledEv>
 80a4332:	b128      	cbz	r0, 80a4340 <pinAvailable+0x18>
 80a4334:	f1a4 030d 	sub.w	r3, r4, #13
 80a4338:	2b02      	cmp	r3, #2
 80a433a:	d801      	bhi.n	80a4340 <pinAvailable+0x18>
  {
    return 0; // 'pin' is used
 80a433c:	2000      	movs	r0, #0
 80a433e:	bd10      	pop	{r4, pc}
  }
#endif
  // I2C safety check
#ifndef SPARK_WIRING_NO_I2C
  if(Wire.isEnabled() == true && (pin == SCL || pin == SDA))
 80a4340:	f000 f88e 	bl	80a4460 <_Z19__fetch_global_Wirev>
 80a4344:	f7ff ffd6 	bl	80a42f4 <_ZN7TwoWire9isEnabledEv>
 80a4348:	b108      	cbz	r0, 80a434e <pinAvailable+0x26>
 80a434a:	2c01      	cmp	r4, #1
 80a434c:	d9f6      	bls.n	80a433c <pinAvailable+0x14>
    return 0; // 'pin' is used
  }
#endif
#ifndef SPARK_WIRING_NO_USART_SERIAL
  // Serial1 safety check
  if(Serial1.isEnabled() == true && (pin == RX || pin == TX))
 80a434e:	f7ff ff35 	bl	80a41bc <_Z22__fetch_global_Serial1v>
 80a4352:	f7ff ff2f 	bl	80a41b4 <_ZN11USARTSerial9isEnabledEv>
 80a4356:	b118      	cbz	r0, 80a4360 <pinAvailable+0x38>
 80a4358:	f1a4 0312 	sub.w	r3, r4, #18
 80a435c:	2b01      	cmp	r3, #1
 80a435e:	d9ed      	bls.n	80a433c <pinAvailable+0x14>
  {
    return 0; // 'pin' is used
  }
#endif

  if (pin >= TOTAL_PINS)
 80a4360:	2c17      	cmp	r4, #23
 80a4362:	bf8c      	ite	hi
 80a4364:	2000      	movhi	r0, #0
 80a4366:	2001      	movls	r0, #1
    return 0;
  else
    return 1; // 'pin' is available
}
 80a4368:	bd10      	pop	{r4, pc}
 80a436a:	bf00      	nop
 80a436c:	2000088c 	.word	0x2000088c

080a4370 <pinMode>:
 * or INPUT_PULLDOWN
 */
void pinMode(uint16_t pin, PinMode setMode)
{

  if(pin >= TOTAL_PINS || setMode == PIN_MODE_NONE )
 80a4370:	2817      	cmp	r0, #23
/*
 * @brief Set the mode of the pin to OUTPUT, INPUT, INPUT_PULLUP,
 * or INPUT_PULLDOWN
 */
void pinMode(uint16_t pin, PinMode setMode)
{
 80a4372:	b538      	push	{r3, r4, r5, lr}
 80a4374:	4604      	mov	r4, r0
 80a4376:	460d      	mov	r5, r1

  if(pin >= TOTAL_PINS || setMode == PIN_MODE_NONE )
 80a4378:	d80a      	bhi.n	80a4390 <pinMode+0x20>
 80a437a:	29ff      	cmp	r1, #255	; 0xff
 80a437c:	d008      	beq.n	80a4390 <pinMode+0x20>
  {
    return;
  }

  // Safety check
  if( !pinAvailable(pin) ) {
 80a437e:	f7ff ffd3 	bl	80a4328 <pinAvailable>
 80a4382:	b128      	cbz	r0, 80a4390 <pinMode+0x20>
    return;
  }

  HAL_Pin_Mode(pin, setMode);
 80a4384:	4629      	mov	r1, r5
 80a4386:	4620      	mov	r0, r4
}
 80a4388:	e8bd 4038 	ldmia.w	sp!, {r3, r4, r5, lr}
  // Safety check
  if( !pinAvailable(pin) ) {
    return;
  }

  HAL_Pin_Mode(pin, setMode);
 80a438c:	f7fe bea4 	b.w	80a30d8 <HAL_Pin_Mode>
 80a4390:	bd38      	pop	{r3, r4, r5, pc}

080a4392 <digitalWrite>:

/*
 * @brief Sets a GPIO pin to HIGH or LOW.
 */
void digitalWrite(pin_t pin, uint8_t value)
{
 80a4392:	b538      	push	{r3, r4, r5, lr}
 80a4394:	4604      	mov	r4, r0
 80a4396:	460d      	mov	r5, r1
    PinMode mode = HAL_Get_Pin_Mode(pin);
 80a4398:	f7fe fea6 	bl	80a30e8 <HAL_Get_Pin_Mode>
    if (mode==PIN_MODE_NONE || is_input_mode(mode))
 80a439c:	28ff      	cmp	r0, #255	; 0xff
 80a439e:	d010      	beq.n	80a43c2 <digitalWrite+0x30>
}

inline bool is_input_mode(PinMode mode) {
    return  mode == INPUT ||
            mode == INPUT_PULLUP ||
            mode == INPUT_PULLDOWN ||
 80a43a0:	2806      	cmp	r0, #6
 80a43a2:	d804      	bhi.n	80a43ae <digitalWrite+0x1c>
 80a43a4:	234d      	movs	r3, #77	; 0x4d
 80a43a6:	fa23 f000 	lsr.w	r0, r3, r0
 80a43aa:	07c3      	lsls	r3, r0, #31
 80a43ac:	d409      	bmi.n	80a43c2 <digitalWrite+0x30>
{
    PinMode mode = HAL_Get_Pin_Mode(pin);
    if (mode==PIN_MODE_NONE || is_input_mode(mode))
        return;
  // Safety check
  if( !pinAvailable(pin) ) {
 80a43ae:	4620      	mov	r0, r4
 80a43b0:	f7ff ffba 	bl	80a4328 <pinAvailable>
 80a43b4:	b128      	cbz	r0, 80a43c2 <digitalWrite+0x30>
    return;
  }

  HAL_GPIO_Write(pin, value);
 80a43b6:	4629      	mov	r1, r5
 80a43b8:	4620      	mov	r0, r4
}
 80a43ba:	e8bd 4038 	ldmia.w	sp!, {r3, r4, r5, lr}
  // Safety check
  if( !pinAvailable(pin) ) {
    return;
  }

  HAL_GPIO_Write(pin, value);
 80a43be:	f7fe be9b 	b.w	80a30f8 <HAL_GPIO_Write>
 80a43c2:	bd38      	pop	{r3, r4, r5, pc}

080a43c4 <digitalRead>:

/*
 * @brief Reads the value of a GPIO pin. Should return either 1 (HIGH) or 0 (LOW).
 */
int32_t digitalRead(pin_t pin)
{
 80a43c4:	b510      	push	{r4, lr}
 80a43c6:	4604      	mov	r4, r0
    PinMode mode = HAL_Get_Pin_Mode(pin);
 80a43c8:	f7fe fe8e 	bl	80a30e8 <HAL_Get_Pin_Mode>
    if (is_af_output_mode(mode))
 80a43cc:	3804      	subs	r0, #4
 80a43ce:	b2c0      	uxtb	r0, r0
 80a43d0:	2801      	cmp	r0, #1
 80a43d2:	d908      	bls.n	80a43e6 <digitalRead+0x22>
        return LOW;

    // Safety check
    if( !pinAvailable(pin) ) {
 80a43d4:	4620      	mov	r0, r4
 80a43d6:	f7ff ffa7 	bl	80a4328 <pinAvailable>
 80a43da:	b120      	cbz	r0, 80a43e6 <digitalRead+0x22>
      return LOW;
    }

    return HAL_GPIO_Read(pin);
 80a43dc:	4620      	mov	r0, r4
}
 80a43de:	e8bd 4010 	ldmia.w	sp!, {r4, lr}
    // Safety check
    if( !pinAvailable(pin) ) {
      return LOW;
    }

    return HAL_GPIO_Read(pin);
 80a43e2:	f7fe be91 	b.w	80a3108 <HAL_GPIO_Read>
}
 80a43e6:	2000      	movs	r0, #0
 80a43e8:	bd10      	pop	{r4, pc}
	...

080a43ec <_GLOBAL__sub_I_SPI>:
#ifndef SPARK_WIRING_NO_SPI

SPIClass SPI(HAL_SPI_INTERFACE1);

#if Wiring_SPI1
SPIClass SPI1(HAL_SPI_INTERFACE2);
 80a43ec:	b570      	push	{r4, r5, r6, lr}
#include "core_hal.h"
#include "spark_macros.h"

#ifndef SPARK_WIRING_NO_SPI

SPIClass SPI(HAL_SPI_INTERFACE1);
 80a43ee:	4c0c      	ldr	r4, [pc, #48]	; (80a4420 <_GLOBAL__sub_I_SPI+0x34>)
 80a43f0:	4e0c      	ldr	r6, [pc, #48]	; (80a4424 <_GLOBAL__sub_I_SPI+0x38>)
 80a43f2:	4d0d      	ldr	r5, [pc, #52]	; (80a4428 <_GLOBAL__sub_I_SPI+0x3c>)
 80a43f4:	2100      	movs	r1, #0
 80a43f6:	4620      	mov	r0, r4
 80a43f8:	f7ff f830 	bl	80a345c <_ZN8SPIClassC1E17HAL_SPI_Interface>
 80a43fc:	4620      	mov	r0, r4

#if Wiring_SPI1
SPIClass SPI1(HAL_SPI_INTERFACE2);
 80a43fe:	4c0b      	ldr	r4, [pc, #44]	; (80a442c <_GLOBAL__sub_I_SPI+0x40>)
#include "core_hal.h"
#include "spark_macros.h"

#ifndef SPARK_WIRING_NO_SPI

SPIClass SPI(HAL_SPI_INTERFACE1);
 80a4400:	4632      	mov	r2, r6
 80a4402:	4629      	mov	r1, r5
 80a4404:	f000 f84c 	bl	80a44a0 <__aeabi_atexit>

#if Wiring_SPI1
SPIClass SPI1(HAL_SPI_INTERFACE2);
 80a4408:	2101      	movs	r1, #1
 80a440a:	4620      	mov	r0, r4
 80a440c:	f7ff f826 	bl	80a345c <_ZN8SPIClassC1E17HAL_SPI_Interface>
 80a4410:	4632      	mov	r2, r6
 80a4412:	4629      	mov	r1, r5
 80a4414:	4620      	mov	r0, r4
 80a4416:	e8bd 4070 	ldmia.w	sp!, {r4, r5, r6, lr}
 80a441a:	f000 b841 	b.w	80a44a0 <__aeabi_atexit>
 80a441e:	bf00      	nop
 80a4420:	2000088c 	.word	0x2000088c
 80a4424:	20000364 	.word	0x20000364
 80a4428:	080a344d 	.word	0x080a344d
 80a442c:	2000089c 	.word	0x2000089c

080a4430 <_GLOBAL__sub_I_INADDR_NONE>:
#include "spark_wiring_ipaddress.h"

const IPAddress INADDR_NONE(0, 0, 0, 0);
 80a4430:	b513      	push	{r0, r1, r4, lr}
 80a4432:	4c08      	ldr	r4, [pc, #32]	; (80a4454 <_GLOBAL__sub_I_INADDR_NONE+0x24>)
 80a4434:	2300      	movs	r3, #0
 80a4436:	461a      	mov	r2, r3
 80a4438:	4619      	mov	r1, r3
 80a443a:	9300      	str	r3, [sp, #0]
 80a443c:	4620      	mov	r0, r4
 80a443e:	f7ff fd8b 	bl	80a3f58 <_ZN9IPAddressC1Ehhhh>
 80a4442:	4620      	mov	r0, r4
 80a4444:	4a04      	ldr	r2, [pc, #16]	; (80a4458 <_GLOBAL__sub_I_INADDR_NONE+0x28>)
 80a4446:	4905      	ldr	r1, [pc, #20]	; (80a445c <_GLOBAL__sub_I_INADDR_NONE+0x2c>)
 80a4448:	b002      	add	sp, #8
 80a444a:	e8bd 4010 	ldmia.w	sp!, {r4, lr}
 80a444e:	f000 b827 	b.w	80a44a0 <__aeabi_atexit>
 80a4452:	bf00      	nop
 80a4454:	200008b0 	.word	0x200008b0
 80a4458:	20000364 	.word	0x20000364
 80a445c:	080a3eff 	.word	0x080a3eff

080a4460 <_Z19__fetch_global_Wirev>:
#include "i2c_hal.h"

#ifndef SPARK_WIRING_NO_I2C

TwoWire& __fetch_global_Wire()
{
 80a4460:	b538      	push	{r3, r4, r5, lr}
	static TwoWire wire(HAL_I2C_INTERFACE1);
 80a4462:	4d0b      	ldr	r5, [pc, #44]	; (80a4490 <_Z19__fetch_global_Wirev+0x30>)
 80a4464:	6829      	ldr	r1, [r5, #0]
 80a4466:	f011 0401 	ands.w	r4, r1, #1
 80a446a:	d10f      	bne.n	80a448c <_Z19__fetch_global_Wirev+0x2c>
 80a446c:	4628      	mov	r0, r5
 80a446e:	f7fb fe18 	bl	80a00a2 <__cxa_guard_acquire>
 80a4472:	b158      	cbz	r0, 80a448c <_Z19__fetch_global_Wirev+0x2c>
 80a4474:	4621      	mov	r1, r4
 80a4476:	4807      	ldr	r0, [pc, #28]	; (80a4494 <_Z19__fetch_global_Wirev+0x34>)
 80a4478:	f7ff ff04 	bl	80a4284 <_ZN7TwoWireC1E17HAL_I2C_Interface>
 80a447c:	4628      	mov	r0, r5
 80a447e:	f7fb fe15 	bl	80a00ac <__cxa_guard_release>
 80a4482:	4a05      	ldr	r2, [pc, #20]	; (80a4498 <_Z19__fetch_global_Wirev+0x38>)
 80a4484:	4905      	ldr	r1, [pc, #20]	; (80a449c <_Z19__fetch_global_Wirev+0x3c>)
 80a4486:	4803      	ldr	r0, [pc, #12]	; (80a4494 <_Z19__fetch_global_Wirev+0x34>)
 80a4488:	f000 f80a 	bl	80a44a0 <__aeabi_atexit>
	return wire;
}
 80a448c:	4801      	ldr	r0, [pc, #4]	; (80a4494 <_Z19__fetch_global_Wirev+0x34>)
 80a448e:	bd38      	pop	{r3, r4, r5, pc}
 80a4490:	200008c8 	.word	0x200008c8
 80a4494:	200008cc 	.word	0x200008cc
 80a4498:	20000364 	.word	0x20000364
 80a449c:	080a422f 	.word	0x080a422f

080a44a0 <__aeabi_atexit>:
 80a44a0:	460b      	mov	r3, r1
 80a44a2:	4601      	mov	r1, r0
 80a44a4:	4618      	mov	r0, r3
 80a44a6:	f001 b93f 	b.w	80a5728 <__cxa_atexit>

080a44aa <_ZSt25__throw_bad_function_callv>:
 80a44aa:	b508      	push	{r3, lr}
 80a44ac:	f7fe ffc6 	bl	80a343c <abort>

080a44b0 <_GLOBAL__sub_I__ZNSt12ctype_bynameIcEC2ERKNSt7__cxx1112basic_stringIcSt11char_traitsIcESaIcEEEj>:
 80a44b0:	4b18      	ldr	r3, [pc, #96]	; (80a4514 <_GLOBAL__sub_I__ZNSt12ctype_bynameIcEC2ERKNSt7__cxx1112basic_stringIcSt11char_traitsIcESaIcEEEj+0x64>)
 80a44b2:	681a      	ldr	r2, [r3, #0]
 80a44b4:	07d1      	lsls	r1, r2, #31
 80a44b6:	bf5c      	itt	pl
 80a44b8:	2201      	movpl	r2, #1
 80a44ba:	601a      	strpl	r2, [r3, #0]
 80a44bc:	4b16      	ldr	r3, [pc, #88]	; (80a4518 <_GLOBAL__sub_I__ZNSt12ctype_bynameIcEC2ERKNSt7__cxx1112basic_stringIcSt11char_traitsIcESaIcEEEj+0x68>)
 80a44be:	681a      	ldr	r2, [r3, #0]
 80a44c0:	07d2      	lsls	r2, r2, #31
 80a44c2:	bf5c      	itt	pl
 80a44c4:	2201      	movpl	r2, #1
 80a44c6:	601a      	strpl	r2, [r3, #0]
 80a44c8:	4b14      	ldr	r3, [pc, #80]	; (80a451c <_GLOBAL__sub_I__ZNSt12ctype_bynameIcEC2ERKNSt7__cxx1112basic_stringIcSt11char_traitsIcESaIcEEEj+0x6c>)
 80a44ca:	681a      	ldr	r2, [r3, #0]
 80a44cc:	07d0      	lsls	r0, r2, #31
 80a44ce:	bf5c      	itt	pl
 80a44d0:	2201      	movpl	r2, #1
 80a44d2:	601a      	strpl	r2, [r3, #0]
 80a44d4:	4b12      	ldr	r3, [pc, #72]	; (80a4520 <_GLOBAL__sub_I__ZNSt12ctype_bynameIcEC2ERKNSt7__cxx1112basic_stringIcSt11char_traitsIcESaIcEEEj+0x70>)
 80a44d6:	681a      	ldr	r2, [r3, #0]
 80a44d8:	07d1      	lsls	r1, r2, #31
 80a44da:	bf5c      	itt	pl
 80a44dc:	2201      	movpl	r2, #1
 80a44de:	601a      	strpl	r2, [r3, #0]
 80a44e0:	4b10      	ldr	r3, [pc, #64]	; (80a4524 <_GLOBAL__sub_I__ZNSt12ctype_bynameIcEC2ERKNSt7__cxx1112basic_stringIcSt11char_traitsIcESaIcEEEj+0x74>)
 80a44e2:	681a      	ldr	r2, [r3, #0]
 80a44e4:	07d2      	lsls	r2, r2, #31
 80a44e6:	bf5c      	itt	pl
 80a44e8:	2201      	movpl	r2, #1
 80a44ea:	601a      	strpl	r2, [r3, #0]
 80a44ec:	4b0e      	ldr	r3, [pc, #56]	; (80a4528 <_GLOBAL__sub_I__ZNSt12ctype_bynameIcEC2ERKNSt7__cxx1112basic_stringIcSt11char_traitsIcESaIcEEEj+0x78>)
 80a44ee:	681a      	ldr	r2, [r3, #0]
 80a44f0:	07d0      	lsls	r0, r2, #31
 80a44f2:	bf5c      	itt	pl
 80a44f4:	2201      	movpl	r2, #1
 80a44f6:	601a      	strpl	r2, [r3, #0]
 80a44f8:	4b0c      	ldr	r3, [pc, #48]	; (80a452c <_GLOBAL__sub_I__ZNSt12ctype_bynameIcEC2ERKNSt7__cxx1112basic_stringIcSt11char_traitsIcESaIcEEEj+0x7c>)
 80a44fa:	681a      	ldr	r2, [r3, #0]
 80a44fc:	07d1      	lsls	r1, r2, #31
 80a44fe:	bf5c      	itt	pl
 80a4500:	2201      	movpl	r2, #1
 80a4502:	601a      	strpl	r2, [r3, #0]
 80a4504:	4b0a      	ldr	r3, [pc, #40]	; (80a4530 <_GLOBAL__sub_I__ZNSt12ctype_bynameIcEC2ERKNSt7__cxx1112basic_stringIcSt11char_traitsIcESaIcEEEj+0x80>)
 80a4506:	681a      	ldr	r2, [r3, #0]
 80a4508:	07d2      	lsls	r2, r2, #31
 80a450a:	bf5c      	itt	pl
 80a450c:	2201      	movpl	r2, #1
 80a450e:	601a      	strpl	r2, [r3, #0]
 80a4510:	4770      	bx	lr
 80a4512:	bf00      	nop
 80a4514:	200008fc 	.word	0x200008fc
 80a4518:	200008f8 	.word	0x200008f8
 80a451c:	200008f4 	.word	0x200008f4
 80a4520:	200008f0 	.word	0x200008f0
 80a4524:	200008ec 	.word	0x200008ec
 80a4528:	200008e8 	.word	0x200008e8
 80a452c:	200008e4 	.word	0x200008e4
 80a4530:	200008e0 	.word	0x200008e0

080a4534 <_GLOBAL__sub_I__ZNSt12ctype_bynameIwEC2ERKSsj>:
 80a4534:	4b24      	ldr	r3, [pc, #144]	; (80a45c8 <_GLOBAL__sub_I__ZNSt12ctype_bynameIwEC2ERKSsj+0x94>)
 80a4536:	681a      	ldr	r2, [r3, #0]
 80a4538:	07d0      	lsls	r0, r2, #31
 80a453a:	bf5c      	itt	pl
 80a453c:	2201      	movpl	r2, #1
 80a453e:	601a      	strpl	r2, [r3, #0]
 80a4540:	4b22      	ldr	r3, [pc, #136]	; (80a45cc <_GLOBAL__sub_I__ZNSt12ctype_bynameIwEC2ERKSsj+0x98>)
 80a4542:	681a      	ldr	r2, [r3, #0]
 80a4544:	07d1      	lsls	r1, r2, #31
 80a4546:	bf5c      	itt	pl
 80a4548:	2201      	movpl	r2, #1
 80a454a:	601a      	strpl	r2, [r3, #0]
 80a454c:	4b20      	ldr	r3, [pc, #128]	; (80a45d0 <_GLOBAL__sub_I__ZNSt12ctype_bynameIwEC2ERKSsj+0x9c>)
 80a454e:	681a      	ldr	r2, [r3, #0]
 80a4550:	07d2      	lsls	r2, r2, #31
 80a4552:	bf5c      	itt	pl
 80a4554:	2201      	movpl	r2, #1
 80a4556:	601a      	strpl	r2, [r3, #0]
 80a4558:	4b1e      	ldr	r3, [pc, #120]	; (80a45d4 <_GLOBAL__sub_I__ZNSt12ctype_bynameIwEC2ERKSsj+0xa0>)
 80a455a:	681a      	ldr	r2, [r3, #0]
 80a455c:	07d0      	lsls	r0, r2, #31
 80a455e:	bf5c      	itt	pl
 80a4560:	2201      	movpl	r2, #1
 80a4562:	601a      	strpl	r2, [r3, #0]
 80a4564:	4b1c      	ldr	r3, [pc, #112]	; (80a45d8 <_GLOBAL__sub_I__ZNSt12ctype_bynameIwEC2ERKSsj+0xa4>)
 80a4566:	681a      	ldr	r2, [r3, #0]
 80a4568:	07d1      	lsls	r1, r2, #31
 80a456a:	bf5c      	itt	pl
 80a456c:	2201      	movpl	r2, #1
 80a456e:	601a      	strpl	r2, [r3, #0]
 80a4570:	4b1a      	ldr	r3, [pc, #104]	; (80a45dc <_GLOBAL__sub_I__ZNSt12ctype_bynameIwEC2ERKSsj+0xa8>)
 80a4572:	681a      	ldr	r2, [r3, #0]
 80a4574:	07d2      	lsls	r2, r2, #31
 80a4576:	bf5c      	itt	pl
 80a4578:	2201      	movpl	r2, #1
 80a457a:	601a      	strpl	r2, [r3, #0]
 80a457c:	4b18      	ldr	r3, [pc, #96]	; (80a45e0 <_GLOBAL__sub_I__ZNSt12ctype_bynameIwEC2ERKSsj+0xac>)
 80a457e:	681a      	ldr	r2, [r3, #0]
 80a4580:	07d0      	lsls	r0, r2, #31
 80a4582:	bf5c      	itt	pl
 80a4584:	2201      	movpl	r2, #1
 80a4586:	601a      	strpl	r2, [r3, #0]
 80a4588:	4b16      	ldr	r3, [pc, #88]	; (80a45e4 <_GLOBAL__sub_I__ZNSt12ctype_bynameIwEC2ERKSsj+0xb0>)
 80a458a:	681a      	ldr	r2, [r3, #0]
 80a458c:	07d1      	lsls	r1, r2, #31
 80a458e:	bf5c      	itt	pl
 80a4590:	2201      	movpl	r2, #1
 80a4592:	601a      	strpl	r2, [r3, #0]
 80a4594:	4b14      	ldr	r3, [pc, #80]	; (80a45e8 <_GLOBAL__sub_I__ZNSt12ctype_bynameIwEC2ERKSsj+0xb4>)
 80a4596:	681a      	ldr	r2, [r3, #0]
 80a4598:	07d2      	lsls	r2, r2, #31
 80a459a:	bf5c      	itt	pl
 80a459c:	2201      	movpl	r2, #1
 80a459e:	601a      	strpl	r2, [r3, #0]
 80a45a0:	4b12      	ldr	r3, [pc, #72]	; (80a45ec <_GLOBAL__sub_I__ZNSt12ctype_bynameIwEC2ERKSsj+0xb8>)
 80a45a2:	681a      	ldr	r2, [r3, #0]
 80a45a4:	07d0      	lsls	r0, r2, #31
 80a45a6:	bf5c      	itt	pl
 80a45a8:	2201      	movpl	r2, #1
 80a45aa:	601a      	strpl	r2, [r3, #0]
 80a45ac:	4b10      	ldr	r3, [pc, #64]	; (80a45f0 <_GLOBAL__sub_I__ZNSt12ctype_bynameIwEC2ERKSsj+0xbc>)
 80a45ae:	681a      	ldr	r2, [r3, #0]
 80a45b0:	07d1      	lsls	r1, r2, #31
 80a45b2:	bf5c      	itt	pl
 80a45b4:	2201      	movpl	r2, #1
 80a45b6:	601a      	strpl	r2, [r3, #0]
 80a45b8:	4b0e      	ldr	r3, [pc, #56]	; (80a45f4 <_GLOBAL__sub_I__ZNSt12ctype_bynameIwEC2ERKSsj+0xc0>)
 80a45ba:	681a      	ldr	r2, [r3, #0]
 80a45bc:	07d2      	lsls	r2, r2, #31
 80a45be:	bf5c      	itt	pl
 80a45c0:	2201      	movpl	r2, #1
 80a45c2:	601a      	strpl	r2, [r3, #0]
 80a45c4:	4770      	bx	lr
 80a45c6:	bf00      	nop
 80a45c8:	2000092c 	.word	0x2000092c
 80a45cc:	20000928 	.word	0x20000928
 80a45d0:	20000924 	.word	0x20000924
 80a45d4:	20000920 	.word	0x20000920
 80a45d8:	2000091c 	.word	0x2000091c
 80a45dc:	20000918 	.word	0x20000918
 80a45e0:	20000914 	.word	0x20000914
 80a45e4:	20000910 	.word	0x20000910
 80a45e8:	2000090c 	.word	0x2000090c
 80a45ec:	20000908 	.word	0x20000908
 80a45f0:	20000904 	.word	0x20000904
 80a45f4:	20000900 	.word	0x20000900

080a45f8 <_GLOBAL__sub_I__ZNSt12ctype_bynameIcEC2ERKSsj>:
 80a45f8:	4b24      	ldr	r3, [pc, #144]	; (80a468c <_GLOBAL__sub_I__ZNSt12ctype_bynameIcEC2ERKSsj+0x94>)
 80a45fa:	681a      	ldr	r2, [r3, #0]
 80a45fc:	07d0      	lsls	r0, r2, #31
 80a45fe:	bf5c      	itt	pl
 80a4600:	2201      	movpl	r2, #1
 80a4602:	601a      	strpl	r2, [r3, #0]
 80a4604:	4b22      	ldr	r3, [pc, #136]	; (80a4690 <_GLOBAL__sub_I__ZNSt12ctype_bynameIcEC2ERKSsj+0x98>)
 80a4606:	681a      	ldr	r2, [r3, #0]
 80a4608:	07d1      	lsls	r1, r2, #31
 80a460a:	bf5c      	itt	pl
 80a460c:	2201      	movpl	r2, #1
 80a460e:	601a      	strpl	r2, [r3, #0]
 80a4610:	4b20      	ldr	r3, [pc, #128]	; (80a4694 <_GLOBAL__sub_I__ZNSt12ctype_bynameIcEC2ERKSsj+0x9c>)
 80a4612:	681a      	ldr	r2, [r3, #0]
 80a4614:	07d2      	lsls	r2, r2, #31
 80a4616:	bf5c      	itt	pl
 80a4618:	2201      	movpl	r2, #1
 80a461a:	601a      	strpl	r2, [r3, #0]
 80a461c:	4b1e      	ldr	r3, [pc, #120]	; (80a4698 <_GLOBAL__sub_I__ZNSt12ctype_bynameIcEC2ERKSsj+0xa0>)
 80a461e:	681a      	ldr	r2, [r3, #0]
 80a4620:	07d0      	lsls	r0, r2, #31
 80a4622:	bf5c      	itt	pl
 80a4624:	2201      	movpl	r2, #1
 80a4626:	601a      	strpl	r2, [r3, #0]
 80a4628:	4b1c      	ldr	r3, [pc, #112]	; (80a469c <_GLOBAL__sub_I__ZNSt12ctype_bynameIcEC2ERKSsj+0xa4>)
 80a462a:	681a      	ldr	r2, [r3, #0]
 80a462c:	07d1      	lsls	r1, r2, #31
 80a462e:	bf5c      	itt	pl
 80a4630:	2201      	movpl	r2, #1
 80a4632:	601a      	strpl	r2, [r3, #0]
 80a4634:	4b1a      	ldr	r3, [pc, #104]	; (80a46a0 <_GLOBAL__sub_I__ZNSt12ctype_bynameIcEC2ERKSsj+0xa8>)
 80a4636:	681a      	ldr	r2, [r3, #0]
 80a4638:	07d2      	lsls	r2, r2, #31
 80a463a:	bf5c      	itt	pl
 80a463c:	2201      	movpl	r2, #1
 80a463e:	601a      	strpl	r2, [r3, #0]
 80a4640:	4b18      	ldr	r3, [pc, #96]	; (80a46a4 <_GLOBAL__sub_I__ZNSt12ctype_bynameIcEC2ERKSsj+0xac>)
 80a4642:	681a      	ldr	r2, [r3, #0]
 80a4644:	07d0      	lsls	r0, r2, #31
 80a4646:	bf5c      	itt	pl
 80a4648:	2201      	movpl	r2, #1
 80a464a:	601a      	strpl	r2, [r3, #0]
 80a464c:	4b16      	ldr	r3, [pc, #88]	; (80a46a8 <_GLOBAL__sub_I__ZNSt12ctype_bynameIcEC2ERKSsj+0xb0>)
 80a464e:	681a      	ldr	r2, [r3, #0]
 80a4650:	07d1      	lsls	r1, r2, #31
 80a4652:	bf5c      	itt	pl
 80a4654:	2201      	movpl	r2, #1
 80a4656:	601a      	strpl	r2, [r3, #0]
 80a4658:	4b14      	ldr	r3, [pc, #80]	; (80a46ac <_GLOBAL__sub_I__ZNSt12ctype_bynameIcEC2ERKSsj+0xb4>)
 80a465a:	681a      	ldr	r2, [r3, #0]
 80a465c:	07d2      	lsls	r2, r2, #31
 80a465e:	bf5c      	itt	pl
 80a4660:	2201      	movpl	r2, #1
 80a4662:	601a      	strpl	r2, [r3, #0]
 80a4664:	4b12      	ldr	r3, [pc, #72]	; (80a46b0 <_GLOBAL__sub_I__ZNSt12ctype_bynameIcEC2ERKSsj+0xb8>)
 80a4666:	681a      	ldr	r2, [r3, #0]
 80a4668:	07d0      	lsls	r0, r2, #31
 80a466a:	bf5c      	itt	pl
 80a466c:	2201      	movpl	r2, #1
 80a466e:	601a      	strpl	r2, [r3, #0]
 80a4670:	4b10      	ldr	r3, [pc, #64]	; (80a46b4 <_GLOBAL__sub_I__ZNSt12ctype_bynameIcEC2ERKSsj+0xbc>)
 80a4672:	681a      	ldr	r2, [r3, #0]
 80a4674:	07d1      	lsls	r1, r2, #31
 80a4676:	bf5c      	itt	pl
 80a4678:	2201      	movpl	r2, #1
 80a467a:	601a      	strpl	r2, [r3, #0]
 80a467c:	4b0e      	ldr	r3, [pc, #56]	; (80a46b8 <_GLOBAL__sub_I__ZNSt12ctype_bynameIcEC2ERKSsj+0xc0>)
 80a467e:	681a      	ldr	r2, [r3, #0]
 80a4680:	07d2      	lsls	r2, r2, #31
 80a4682:	bf5c      	itt	pl
 80a4684:	2201      	movpl	r2, #1
 80a4686:	601a      	strpl	r2, [r3, #0]
 80a4688:	4770      	bx	lr
 80a468a:	bf00      	nop
 80a468c:	2000095c 	.word	0x2000095c
 80a4690:	20000958 	.word	0x20000958
 80a4694:	20000954 	.word	0x20000954
 80a4698:	20000950 	.word	0x20000950
 80a469c:	2000094c 	.word	0x2000094c
 80a46a0:	20000948 	.word	0x20000948
 80a46a4:	20000944 	.word	0x20000944
 80a46a8:	20000940 	.word	0x20000940
 80a46ac:	2000093c 	.word	0x2000093c
 80a46b0:	20000938 	.word	0x20000938
 80a46b4:	20000934 	.word	0x20000934
 80a46b8:	20000930 	.word	0x20000930

080a46bc <_GLOBAL__sub_I__ZNSt12ctype_bynameIwEC2ERKNSt7__cxx1112basic_stringIcSt11char_traitsIcESaIcEEEj>:
 80a46bc:	4b18      	ldr	r3, [pc, #96]	; (80a4720 <_GLOBAL__sub_I__ZNSt12ctype_bynameIwEC2ERKNSt7__cxx1112basic_stringIcSt11char_traitsIcESaIcEEEj+0x64>)
 80a46be:	681a      	ldr	r2, [r3, #0]
 80a46c0:	07d1      	lsls	r1, r2, #31
 80a46c2:	bf5c      	itt	pl
 80a46c4:	2201      	movpl	r2, #1
 80a46c6:	601a      	strpl	r2, [r3, #0]
 80a46c8:	4b16      	ldr	r3, [pc, #88]	; (80a4724 <_GLOBAL__sub_I__ZNSt12ctype_bynameIwEC2ERKNSt7__cxx1112basic_stringIcSt11char_traitsIcESaIcEEEj+0x68>)
 80a46ca:	681a      	ldr	r2, [r3, #0]
 80a46cc:	07d2      	lsls	r2, r2, #31
 80a46ce:	bf5c      	itt	pl
 80a46d0:	2201      	movpl	r2, #1
 80a46d2:	601a      	strpl	r2, [r3, #0]
 80a46d4:	4b14      	ldr	r3, [pc, #80]	; (80a4728 <_GLOBAL__sub_I__ZNSt12ctype_bynameIwEC2ERKNSt7__cxx1112basic_stringIcSt11char_traitsIcESaIcEEEj+0x6c>)
 80a46d6:	681a      	ldr	r2, [r3, #0]
 80a46d8:	07d0      	lsls	r0, r2, #31
 80a46da:	bf5c      	itt	pl
 80a46dc:	2201      	movpl	r2, #1
 80a46de:	601a      	strpl	r2, [r3, #0]
 80a46e0:	4b12      	ldr	r3, [pc, #72]	; (80a472c <_GLOBAL__sub_I__ZNSt12ctype_bynameIwEC2ERKNSt7__cxx1112basic_stringIcSt11char_traitsIcESaIcEEEj+0x70>)
 80a46e2:	681a      	ldr	r2, [r3, #0]
 80a46e4:	07d1      	lsls	r1, r2, #31
 80a46e6:	bf5c      	itt	pl
 80a46e8:	2201      	movpl	r2, #1
 80a46ea:	601a      	strpl	r2, [r3, #0]
 80a46ec:	4b10      	ldr	r3, [pc, #64]	; (80a4730 <_GLOBAL__sub_I__ZNSt12ctype_bynameIwEC2ERKNSt7__cxx1112basic_stringIcSt11char_traitsIcESaIcEEEj+0x74>)
 80a46ee:	681a      	ldr	r2, [r3, #0]
 80a46f0:	07d2      	lsls	r2, r2, #31
 80a46f2:	bf5c      	itt	pl
 80a46f4:	2201      	movpl	r2, #1
 80a46f6:	601a      	strpl	r2, [r3, #0]
 80a46f8:	4b0e      	ldr	r3, [pc, #56]	; (80a4734 <_GLOBAL__sub_I__ZNSt12ctype_bynameIwEC2ERKNSt7__cxx1112basic_stringIcSt11char_traitsIcESaIcEEEj+0x78>)
 80a46fa:	681a      	ldr	r2, [r3, #0]
 80a46fc:	07d0      	lsls	r0, r2, #31
 80a46fe:	bf5c      	itt	pl
 80a4700:	2201      	movpl	r2, #1
 80a4702:	601a      	strpl	r2, [r3, #0]
 80a4704:	4b0c      	ldr	r3, [pc, #48]	; (80a4738 <_GLOBAL__sub_I__ZNSt12ctype_bynameIwEC2ERKNSt7__cxx1112basic_stringIcSt11char_traitsIcESaIcEEEj+0x7c>)
 80a4706:	681a      	ldr	r2, [r3, #0]
 80a4708:	07d1      	lsls	r1, r2, #31
 80a470a:	bf5c      	itt	pl
 80a470c:	2201      	movpl	r2, #1
 80a470e:	601a      	strpl	r2, [r3, #0]
 80a4710:	4b0a      	ldr	r3, [pc, #40]	; (80a473c <_GLOBAL__sub_I__ZNSt12ctype_bynameIwEC2ERKNSt7__cxx1112basic_stringIcSt11char_traitsIcESaIcEEEj+0x80>)
 80a4712:	681a      	ldr	r2, [r3, #0]
 80a4714:	07d2      	lsls	r2, r2, #31
 80a4716:	bf5c      	itt	pl
 80a4718:	2201      	movpl	r2, #1
 80a471a:	601a      	strpl	r2, [r3, #0]
 80a471c:	4770      	bx	lr
 80a471e:	bf00      	nop
 80a4720:	2000097c 	.word	0x2000097c
 80a4724:	20000978 	.word	0x20000978
 80a4728:	20000974 	.word	0x20000974
 80a472c:	20000970 	.word	0x20000970
 80a4730:	2000096c 	.word	0x2000096c
 80a4734:	20000968 	.word	0x20000968
 80a4738:	20000964 	.word	0x20000964
 80a473c:	20000960 	.word	0x20000960

080a4740 <__aeabi_drsub>:
 80a4740:	f081 4100 	eor.w	r1, r1, #2147483648	; 0x80000000
 80a4744:	e002      	b.n	80a474c <__adddf3>
 80a4746:	bf00      	nop

080a4748 <__aeabi_dsub>:
 80a4748:	f083 4300 	eor.w	r3, r3, #2147483648	; 0x80000000

080a474c <__adddf3>:
 80a474c:	b530      	push	{r4, r5, lr}
 80a474e:	ea4f 0441 	mov.w	r4, r1, lsl #1
 80a4752:	ea4f 0543 	mov.w	r5, r3, lsl #1
 80a4756:	ea94 0f05 	teq	r4, r5
 80a475a:	bf08      	it	eq
 80a475c:	ea90 0f02 	teqeq	r0, r2
 80a4760:	bf1f      	itttt	ne
 80a4762:	ea54 0c00 	orrsne.w	ip, r4, r0
 80a4766:	ea55 0c02 	orrsne.w	ip, r5, r2
 80a476a:	ea7f 5c64 	mvnsne.w	ip, r4, asr #21
 80a476e:	ea7f 5c65 	mvnsne.w	ip, r5, asr #21
 80a4772:	f000 80e2 	beq.w	80a493a <__adddf3+0x1ee>
 80a4776:	ea4f 5454 	mov.w	r4, r4, lsr #21
 80a477a:	ebd4 5555 	rsbs	r5, r4, r5, lsr #21
 80a477e:	bfb8      	it	lt
 80a4780:	426d      	neglt	r5, r5
 80a4782:	dd0c      	ble.n	80a479e <__adddf3+0x52>
 80a4784:	442c      	add	r4, r5
 80a4786:	ea80 0202 	eor.w	r2, r0, r2
 80a478a:	ea81 0303 	eor.w	r3, r1, r3
 80a478e:	ea82 0000 	eor.w	r0, r2, r0
 80a4792:	ea83 0101 	eor.w	r1, r3, r1
 80a4796:	ea80 0202 	eor.w	r2, r0, r2
 80a479a:	ea81 0303 	eor.w	r3, r1, r3
 80a479e:	2d36      	cmp	r5, #54	; 0x36
 80a47a0:	bf88      	it	hi
 80a47a2:	bd30      	pophi	{r4, r5, pc}
 80a47a4:	f011 4f00 	tst.w	r1, #2147483648	; 0x80000000
 80a47a8:	ea4f 3101 	mov.w	r1, r1, lsl #12
 80a47ac:	f44f 1c80 	mov.w	ip, #1048576	; 0x100000
 80a47b0:	ea4c 3111 	orr.w	r1, ip, r1, lsr #12
 80a47b4:	d002      	beq.n	80a47bc <__adddf3+0x70>
 80a47b6:	4240      	negs	r0, r0
 80a47b8:	eb61 0141 	sbc.w	r1, r1, r1, lsl #1
 80a47bc:	f013 4f00 	tst.w	r3, #2147483648	; 0x80000000
 80a47c0:	ea4f 3303 	mov.w	r3, r3, lsl #12
 80a47c4:	ea4c 3313 	orr.w	r3, ip, r3, lsr #12
 80a47c8:	d002      	beq.n	80a47d0 <__adddf3+0x84>
 80a47ca:	4252      	negs	r2, r2
 80a47cc:	eb63 0343 	sbc.w	r3, r3, r3, lsl #1
 80a47d0:	ea94 0f05 	teq	r4, r5
 80a47d4:	f000 80a7 	beq.w	80a4926 <__adddf3+0x1da>
 80a47d8:	f1a4 0401 	sub.w	r4, r4, #1
 80a47dc:	f1d5 0e20 	rsbs	lr, r5, #32
 80a47e0:	db0d      	blt.n	80a47fe <__adddf3+0xb2>
 80a47e2:	fa02 fc0e 	lsl.w	ip, r2, lr
 80a47e6:	fa22 f205 	lsr.w	r2, r2, r5
 80a47ea:	1880      	adds	r0, r0, r2
 80a47ec:	f141 0100 	adc.w	r1, r1, #0
 80a47f0:	fa03 f20e 	lsl.w	r2, r3, lr
 80a47f4:	1880      	adds	r0, r0, r2
 80a47f6:	fa43 f305 	asr.w	r3, r3, r5
 80a47fa:	4159      	adcs	r1, r3
 80a47fc:	e00e      	b.n	80a481c <__adddf3+0xd0>
 80a47fe:	f1a5 0520 	sub.w	r5, r5, #32
 80a4802:	f10e 0e20 	add.w	lr, lr, #32
 80a4806:	2a01      	cmp	r2, #1
 80a4808:	fa03 fc0e 	lsl.w	ip, r3, lr
 80a480c:	bf28      	it	cs
 80a480e:	f04c 0c02 	orrcs.w	ip, ip, #2
 80a4812:	fa43 f305 	asr.w	r3, r3, r5
 80a4816:	18c0      	adds	r0, r0, r3
 80a4818:	eb51 71e3 	adcs.w	r1, r1, r3, asr #31
 80a481c:	f001 4500 	and.w	r5, r1, #2147483648	; 0x80000000
 80a4820:	d507      	bpl.n	80a4832 <__adddf3+0xe6>
 80a4822:	f04f 0e00 	mov.w	lr, #0
 80a4826:	f1dc 0c00 	rsbs	ip, ip, #0
 80a482a:	eb7e 0000 	sbcs.w	r0, lr, r0
 80a482e:	eb6e 0101 	sbc.w	r1, lr, r1
 80a4832:	f5b1 1f80 	cmp.w	r1, #1048576	; 0x100000
 80a4836:	d31b      	bcc.n	80a4870 <__adddf3+0x124>
 80a4838:	f5b1 1f00 	cmp.w	r1, #2097152	; 0x200000
 80a483c:	d30c      	bcc.n	80a4858 <__adddf3+0x10c>
 80a483e:	0849      	lsrs	r1, r1, #1
 80a4840:	ea5f 0030 	movs.w	r0, r0, rrx
 80a4844:	ea4f 0c3c 	mov.w	ip, ip, rrx
 80a4848:	f104 0401 	add.w	r4, r4, #1
 80a484c:	ea4f 5244 	mov.w	r2, r4, lsl #21
 80a4850:	f512 0f80 	cmn.w	r2, #4194304	; 0x400000
 80a4854:	f080 809a 	bcs.w	80a498c <__adddf3+0x240>
 80a4858:	f1bc 4f00 	cmp.w	ip, #2147483648	; 0x80000000
 80a485c:	bf08      	it	eq
 80a485e:	ea5f 0c50 	movseq.w	ip, r0, lsr #1
 80a4862:	f150 0000 	adcs.w	r0, r0, #0
 80a4866:	eb41 5104 	adc.w	r1, r1, r4, lsl #20
 80a486a:	ea41 0105 	orr.w	r1, r1, r5
 80a486e:	bd30      	pop	{r4, r5, pc}
 80a4870:	ea5f 0c4c 	movs.w	ip, ip, lsl #1
 80a4874:	4140      	adcs	r0, r0
 80a4876:	eb41 0101 	adc.w	r1, r1, r1
 80a487a:	f411 1f80 	tst.w	r1, #1048576	; 0x100000
 80a487e:	f1a4 0401 	sub.w	r4, r4, #1
 80a4882:	d1e9      	bne.n	80a4858 <__adddf3+0x10c>
 80a4884:	f091 0f00 	teq	r1, #0
 80a4888:	bf04      	itt	eq
 80a488a:	4601      	moveq	r1, r0
 80a488c:	2000      	moveq	r0, #0
 80a488e:	fab1 f381 	clz	r3, r1
 80a4892:	bf08      	it	eq
 80a4894:	3320      	addeq	r3, #32
 80a4896:	f1a3 030b 	sub.w	r3, r3, #11
 80a489a:	f1b3 0220 	subs.w	r2, r3, #32
 80a489e:	da0c      	bge.n	80a48ba <__adddf3+0x16e>
 80a48a0:	320c      	adds	r2, #12
 80a48a2:	dd08      	ble.n	80a48b6 <__adddf3+0x16a>
 80a48a4:	f102 0c14 	add.w	ip, r2, #20
 80a48a8:	f1c2 020c 	rsb	r2, r2, #12
 80a48ac:	fa01 f00c 	lsl.w	r0, r1, ip
 80a48b0:	fa21 f102 	lsr.w	r1, r1, r2
 80a48b4:	e00c      	b.n	80a48d0 <__adddf3+0x184>
 80a48b6:	f102 0214 	add.w	r2, r2, #20
 80a48ba:	bfd8      	it	le
 80a48bc:	f1c2 0c20 	rsble	ip, r2, #32
 80a48c0:	fa01 f102 	lsl.w	r1, r1, r2
 80a48c4:	fa20 fc0c 	lsr.w	ip, r0, ip
 80a48c8:	bfdc      	itt	le
 80a48ca:	ea41 010c 	orrle.w	r1, r1, ip
 80a48ce:	4090      	lslle	r0, r2
 80a48d0:	1ae4      	subs	r4, r4, r3
 80a48d2:	bfa2      	ittt	ge
 80a48d4:	eb01 5104 	addge.w	r1, r1, r4, lsl #20
 80a48d8:	4329      	orrge	r1, r5
 80a48da:	bd30      	popge	{r4, r5, pc}
 80a48dc:	ea6f 0404 	mvn.w	r4, r4
 80a48e0:	3c1f      	subs	r4, #31
 80a48e2:	da1c      	bge.n	80a491e <__adddf3+0x1d2>
 80a48e4:	340c      	adds	r4, #12
 80a48e6:	dc0e      	bgt.n	80a4906 <__adddf3+0x1ba>
 80a48e8:	f104 0414 	add.w	r4, r4, #20
 80a48ec:	f1c4 0220 	rsb	r2, r4, #32
 80a48f0:	fa20 f004 	lsr.w	r0, r0, r4
 80a48f4:	fa01 f302 	lsl.w	r3, r1, r2
 80a48f8:	ea40 0003 	orr.w	r0, r0, r3
 80a48fc:	fa21 f304 	lsr.w	r3, r1, r4
 80a4900:	ea45 0103 	orr.w	r1, r5, r3
 80a4904:	bd30      	pop	{r4, r5, pc}
 80a4906:	f1c4 040c 	rsb	r4, r4, #12
 80a490a:	f1c4 0220 	rsb	r2, r4, #32
 80a490e:	fa20 f002 	lsr.w	r0, r0, r2
 80a4912:	fa01 f304 	lsl.w	r3, r1, r4
 80a4916:	ea40 0003 	orr.w	r0, r0, r3
 80a491a:	4629      	mov	r1, r5
 80a491c:	bd30      	pop	{r4, r5, pc}
 80a491e:	fa21 f004 	lsr.w	r0, r1, r4
 80a4922:	4629      	mov	r1, r5
 80a4924:	bd30      	pop	{r4, r5, pc}
 80a4926:	f094 0f00 	teq	r4, #0
 80a492a:	f483 1380 	eor.w	r3, r3, #1048576	; 0x100000
 80a492e:	bf06      	itte	eq
 80a4930:	f481 1180 	eoreq.w	r1, r1, #1048576	; 0x100000
 80a4934:	3401      	addeq	r4, #1
 80a4936:	3d01      	subne	r5, #1
 80a4938:	e74e      	b.n	80a47d8 <__adddf3+0x8c>
 80a493a:	ea7f 5c64 	mvns.w	ip, r4, asr #21
 80a493e:	bf18      	it	ne
 80a4940:	ea7f 5c65 	mvnsne.w	ip, r5, asr #21
 80a4944:	d029      	beq.n	80a499a <__adddf3+0x24e>
 80a4946:	ea94 0f05 	teq	r4, r5
 80a494a:	bf08      	it	eq
 80a494c:	ea90 0f02 	teqeq	r0, r2
 80a4950:	d005      	beq.n	80a495e <__adddf3+0x212>
 80a4952:	ea54 0c00 	orrs.w	ip, r4, r0
 80a4956:	bf04      	itt	eq
 80a4958:	4619      	moveq	r1, r3
 80a495a:	4610      	moveq	r0, r2
 80a495c:	bd30      	pop	{r4, r5, pc}
 80a495e:	ea91 0f03 	teq	r1, r3
 80a4962:	bf1e      	ittt	ne
 80a4964:	2100      	movne	r1, #0
 80a4966:	2000      	movne	r0, #0
 80a4968:	bd30      	popne	{r4, r5, pc}
 80a496a:	ea5f 5c54 	movs.w	ip, r4, lsr #21
 80a496e:	d105      	bne.n	80a497c <__adddf3+0x230>
 80a4970:	0040      	lsls	r0, r0, #1
 80a4972:	4149      	adcs	r1, r1
 80a4974:	bf28      	it	cs
 80a4976:	f041 4100 	orrcs.w	r1, r1, #2147483648	; 0x80000000
 80a497a:	bd30      	pop	{r4, r5, pc}
 80a497c:	f514 0480 	adds.w	r4, r4, #4194304	; 0x400000
 80a4980:	bf3c      	itt	cc
 80a4982:	f501 1180 	addcc.w	r1, r1, #1048576	; 0x100000
 80a4986:	bd30      	popcc	{r4, r5, pc}
 80a4988:	f001 4500 	and.w	r5, r1, #2147483648	; 0x80000000
 80a498c:	f045 41fe 	orr.w	r1, r5, #2130706432	; 0x7f000000
 80a4990:	f441 0170 	orr.w	r1, r1, #15728640	; 0xf00000
 80a4994:	f04f 0000 	mov.w	r0, #0
 80a4998:	bd30      	pop	{r4, r5, pc}
 80a499a:	ea7f 5c64 	mvns.w	ip, r4, asr #21
 80a499e:	bf1a      	itte	ne
 80a49a0:	4619      	movne	r1, r3
 80a49a2:	4610      	movne	r0, r2
 80a49a4:	ea7f 5c65 	mvnseq.w	ip, r5, asr #21
 80a49a8:	bf1c      	itt	ne
 80a49aa:	460b      	movne	r3, r1
 80a49ac:	4602      	movne	r2, r0
 80a49ae:	ea50 3401 	orrs.w	r4, r0, r1, lsl #12
 80a49b2:	bf06      	itte	eq
 80a49b4:	ea52 3503 	orrseq.w	r5, r2, r3, lsl #12
 80a49b8:	ea91 0f03 	teqeq	r1, r3
 80a49bc:	f441 2100 	orrne.w	r1, r1, #524288	; 0x80000
 80a49c0:	bd30      	pop	{r4, r5, pc}
 80a49c2:	bf00      	nop

080a49c4 <__aeabi_ui2d>:
 80a49c4:	f090 0f00 	teq	r0, #0
 80a49c8:	bf04      	itt	eq
 80a49ca:	2100      	moveq	r1, #0
 80a49cc:	4770      	bxeq	lr
 80a49ce:	b530      	push	{r4, r5, lr}
 80a49d0:	f44f 6480 	mov.w	r4, #1024	; 0x400
 80a49d4:	f104 0432 	add.w	r4, r4, #50	; 0x32
 80a49d8:	f04f 0500 	mov.w	r5, #0
 80a49dc:	f04f 0100 	mov.w	r1, #0
 80a49e0:	e750      	b.n	80a4884 <__adddf3+0x138>
 80a49e2:	bf00      	nop

080a49e4 <__aeabi_i2d>:
 80a49e4:	f090 0f00 	teq	r0, #0
 80a49e8:	bf04      	itt	eq
 80a49ea:	2100      	moveq	r1, #0
 80a49ec:	4770      	bxeq	lr
 80a49ee:	b530      	push	{r4, r5, lr}
 80a49f0:	f44f 6480 	mov.w	r4, #1024	; 0x400
 80a49f4:	f104 0432 	add.w	r4, r4, #50	; 0x32
 80a49f8:	f010 4500 	ands.w	r5, r0, #2147483648	; 0x80000000
 80a49fc:	bf48      	it	mi
 80a49fe:	4240      	negmi	r0, r0
 80a4a00:	f04f 0100 	mov.w	r1, #0
 80a4a04:	e73e      	b.n	80a4884 <__adddf3+0x138>
 80a4a06:	bf00      	nop

080a4a08 <__aeabi_f2d>:
 80a4a08:	0042      	lsls	r2, r0, #1
 80a4a0a:	ea4f 01e2 	mov.w	r1, r2, asr #3
 80a4a0e:	ea4f 0131 	mov.w	r1, r1, rrx
 80a4a12:	ea4f 7002 	mov.w	r0, r2, lsl #28
 80a4a16:	bf1f      	itttt	ne
 80a4a18:	f012 437f 	andsne.w	r3, r2, #4278190080	; 0xff000000
 80a4a1c:	f093 4f7f 	teqne	r3, #4278190080	; 0xff000000
 80a4a20:	f081 5160 	eorne.w	r1, r1, #939524096	; 0x38000000
 80a4a24:	4770      	bxne	lr
 80a4a26:	f092 0f00 	teq	r2, #0
 80a4a2a:	bf14      	ite	ne
 80a4a2c:	f093 4f7f 	teqne	r3, #4278190080	; 0xff000000
 80a4a30:	4770      	bxeq	lr
 80a4a32:	b530      	push	{r4, r5, lr}
 80a4a34:	f44f 7460 	mov.w	r4, #896	; 0x380
 80a4a38:	f001 4500 	and.w	r5, r1, #2147483648	; 0x80000000
 80a4a3c:	f021 4100 	bic.w	r1, r1, #2147483648	; 0x80000000
 80a4a40:	e720      	b.n	80a4884 <__adddf3+0x138>
 80a4a42:	bf00      	nop

080a4a44 <__aeabi_ul2d>:
 80a4a44:	ea50 0201 	orrs.w	r2, r0, r1
 80a4a48:	bf08      	it	eq
 80a4a4a:	4770      	bxeq	lr
 80a4a4c:	b530      	push	{r4, r5, lr}
 80a4a4e:	f04f 0500 	mov.w	r5, #0
 80a4a52:	e00a      	b.n	80a4a6a <__aeabi_l2d+0x16>

080a4a54 <__aeabi_l2d>:
 80a4a54:	ea50 0201 	orrs.w	r2, r0, r1
 80a4a58:	bf08      	it	eq
 80a4a5a:	4770      	bxeq	lr
 80a4a5c:	b530      	push	{r4, r5, lr}
 80a4a5e:	f011 4500 	ands.w	r5, r1, #2147483648	; 0x80000000
 80a4a62:	d502      	bpl.n	80a4a6a <__aeabi_l2d+0x16>
 80a4a64:	4240      	negs	r0, r0
 80a4a66:	eb61 0141 	sbc.w	r1, r1, r1, lsl #1
 80a4a6a:	f44f 6480 	mov.w	r4, #1024	; 0x400
 80a4a6e:	f104 0432 	add.w	r4, r4, #50	; 0x32
 80a4a72:	ea5f 5c91 	movs.w	ip, r1, lsr #22
 80a4a76:	f43f aedc 	beq.w	80a4832 <__adddf3+0xe6>
 80a4a7a:	f04f 0203 	mov.w	r2, #3
 80a4a7e:	ea5f 0cdc 	movs.w	ip, ip, lsr #3
 80a4a82:	bf18      	it	ne
 80a4a84:	3203      	addne	r2, #3
 80a4a86:	ea5f 0cdc 	movs.w	ip, ip, lsr #3
 80a4a8a:	bf18      	it	ne
 80a4a8c:	3203      	addne	r2, #3
 80a4a8e:	eb02 02dc 	add.w	r2, r2, ip, lsr #3
 80a4a92:	f1c2 0320 	rsb	r3, r2, #32
 80a4a96:	fa00 fc03 	lsl.w	ip, r0, r3
 80a4a9a:	fa20 f002 	lsr.w	r0, r0, r2
 80a4a9e:	fa01 fe03 	lsl.w	lr, r1, r3
 80a4aa2:	ea40 000e 	orr.w	r0, r0, lr
 80a4aa6:	fa21 f102 	lsr.w	r1, r1, r2
 80a4aaa:	4414      	add	r4, r2
 80a4aac:	e6c1      	b.n	80a4832 <__adddf3+0xe6>
 80a4aae:	bf00      	nop

080a4ab0 <__aeabi_dmul>:
 80a4ab0:	b570      	push	{r4, r5, r6, lr}
 80a4ab2:	f04f 0cff 	mov.w	ip, #255	; 0xff
 80a4ab6:	f44c 6ce0 	orr.w	ip, ip, #1792	; 0x700
 80a4aba:	ea1c 5411 	ands.w	r4, ip, r1, lsr #20
 80a4abe:	bf1d      	ittte	ne
 80a4ac0:	ea1c 5513 	andsne.w	r5, ip, r3, lsr #20
 80a4ac4:	ea94 0f0c 	teqne	r4, ip
 80a4ac8:	ea95 0f0c 	teqne	r5, ip
 80a4acc:	f000 f8de 	bleq	80a4c8c <__aeabi_dmul+0x1dc>
 80a4ad0:	442c      	add	r4, r5
 80a4ad2:	ea81 0603 	eor.w	r6, r1, r3
 80a4ad6:	ea21 514c 	bic.w	r1, r1, ip, lsl #21
 80a4ada:	ea23 534c 	bic.w	r3, r3, ip, lsl #21
 80a4ade:	ea50 3501 	orrs.w	r5, r0, r1, lsl #12
 80a4ae2:	bf18      	it	ne
 80a4ae4:	ea52 3503 	orrsne.w	r5, r2, r3, lsl #12
 80a4ae8:	f441 1180 	orr.w	r1, r1, #1048576	; 0x100000
 80a4aec:	f443 1380 	orr.w	r3, r3, #1048576	; 0x100000
 80a4af0:	d038      	beq.n	80a4b64 <__aeabi_dmul+0xb4>
 80a4af2:	fba0 ce02 	umull	ip, lr, r0, r2
 80a4af6:	f04f 0500 	mov.w	r5, #0
 80a4afa:	fbe1 e502 	umlal	lr, r5, r1, r2
 80a4afe:	f006 4200 	and.w	r2, r6, #2147483648	; 0x80000000
 80a4b02:	fbe0 e503 	umlal	lr, r5, r0, r3
 80a4b06:	f04f 0600 	mov.w	r6, #0
 80a4b0a:	fbe1 5603 	umlal	r5, r6, r1, r3
 80a4b0e:	f09c 0f00 	teq	ip, #0
 80a4b12:	bf18      	it	ne
 80a4b14:	f04e 0e01 	orrne.w	lr, lr, #1
 80a4b18:	f1a4 04ff 	sub.w	r4, r4, #255	; 0xff
 80a4b1c:	f5b6 7f00 	cmp.w	r6, #512	; 0x200
 80a4b20:	f564 7440 	sbc.w	r4, r4, #768	; 0x300
 80a4b24:	d204      	bcs.n	80a4b30 <__aeabi_dmul+0x80>
 80a4b26:	ea5f 0e4e 	movs.w	lr, lr, lsl #1
 80a4b2a:	416d      	adcs	r5, r5
 80a4b2c:	eb46 0606 	adc.w	r6, r6, r6
 80a4b30:	ea42 21c6 	orr.w	r1, r2, r6, lsl #11
 80a4b34:	ea41 5155 	orr.w	r1, r1, r5, lsr #21
 80a4b38:	ea4f 20c5 	mov.w	r0, r5, lsl #11
 80a4b3c:	ea40 505e 	orr.w	r0, r0, lr, lsr #21
 80a4b40:	ea4f 2ece 	mov.w	lr, lr, lsl #11
 80a4b44:	f1b4 0cfd 	subs.w	ip, r4, #253	; 0xfd
 80a4b48:	bf88      	it	hi
 80a4b4a:	f5bc 6fe0 	cmphi.w	ip, #1792	; 0x700
 80a4b4e:	d81e      	bhi.n	80a4b8e <__aeabi_dmul+0xde>
 80a4b50:	f1be 4f00 	cmp.w	lr, #2147483648	; 0x80000000
 80a4b54:	bf08      	it	eq
 80a4b56:	ea5f 0e50 	movseq.w	lr, r0, lsr #1
 80a4b5a:	f150 0000 	adcs.w	r0, r0, #0
 80a4b5e:	eb41 5104 	adc.w	r1, r1, r4, lsl #20
 80a4b62:	bd70      	pop	{r4, r5, r6, pc}
 80a4b64:	f006 4600 	and.w	r6, r6, #2147483648	; 0x80000000
 80a4b68:	ea46 0101 	orr.w	r1, r6, r1
 80a4b6c:	ea40 0002 	orr.w	r0, r0, r2
 80a4b70:	ea81 0103 	eor.w	r1, r1, r3
 80a4b74:	ebb4 045c 	subs.w	r4, r4, ip, lsr #1
 80a4b78:	bfc2      	ittt	gt
 80a4b7a:	ebd4 050c 	rsbsgt	r5, r4, ip
 80a4b7e:	ea41 5104 	orrgt.w	r1, r1, r4, lsl #20
 80a4b82:	bd70      	popgt	{r4, r5, r6, pc}
 80a4b84:	f441 1180 	orr.w	r1, r1, #1048576	; 0x100000
 80a4b88:	f04f 0e00 	mov.w	lr, #0
 80a4b8c:	3c01      	subs	r4, #1
 80a4b8e:	f300 80ab 	bgt.w	80a4ce8 <__aeabi_dmul+0x238>
 80a4b92:	f114 0f36 	cmn.w	r4, #54	; 0x36
 80a4b96:	bfde      	ittt	le
 80a4b98:	2000      	movle	r0, #0
 80a4b9a:	f001 4100 	andle.w	r1, r1, #2147483648	; 0x80000000
 80a4b9e:	bd70      	pople	{r4, r5, r6, pc}
 80a4ba0:	f1c4 0400 	rsb	r4, r4, #0
 80a4ba4:	3c20      	subs	r4, #32
 80a4ba6:	da35      	bge.n	80a4c14 <__aeabi_dmul+0x164>
 80a4ba8:	340c      	adds	r4, #12
 80a4baa:	dc1b      	bgt.n	80a4be4 <__aeabi_dmul+0x134>
 80a4bac:	f104 0414 	add.w	r4, r4, #20
 80a4bb0:	f1c4 0520 	rsb	r5, r4, #32
 80a4bb4:	fa00 f305 	lsl.w	r3, r0, r5
 80a4bb8:	fa20 f004 	lsr.w	r0, r0, r4
 80a4bbc:	fa01 f205 	lsl.w	r2, r1, r5
 80a4bc0:	ea40 0002 	orr.w	r0, r0, r2
 80a4bc4:	f001 4200 	and.w	r2, r1, #2147483648	; 0x80000000
 80a4bc8:	f021 4100 	bic.w	r1, r1, #2147483648	; 0x80000000
 80a4bcc:	eb10 70d3 	adds.w	r0, r0, r3, lsr #31
 80a4bd0:	fa21 f604 	lsr.w	r6, r1, r4
 80a4bd4:	eb42 0106 	adc.w	r1, r2, r6
 80a4bd8:	ea5e 0e43 	orrs.w	lr, lr, r3, lsl #1
 80a4bdc:	bf08      	it	eq
 80a4bde:	ea20 70d3 	biceq.w	r0, r0, r3, lsr #31
 80a4be2:	bd70      	pop	{r4, r5, r6, pc}
 80a4be4:	f1c4 040c 	rsb	r4, r4, #12
 80a4be8:	f1c4 0520 	rsb	r5, r4, #32
 80a4bec:	fa00 f304 	lsl.w	r3, r0, r4
 80a4bf0:	fa20 f005 	lsr.w	r0, r0, r5
 80a4bf4:	fa01 f204 	lsl.w	r2, r1, r4
 80a4bf8:	ea40 0002 	orr.w	r0, r0, r2
 80a4bfc:	f001 4100 	and.w	r1, r1, #2147483648	; 0x80000000
 80a4c00:	eb10 70d3 	adds.w	r0, r0, r3, lsr #31
 80a4c04:	f141 0100 	adc.w	r1, r1, #0
 80a4c08:	ea5e 0e43 	orrs.w	lr, lr, r3, lsl #1
 80a4c0c:	bf08      	it	eq
 80a4c0e:	ea20 70d3 	biceq.w	r0, r0, r3, lsr #31
 80a4c12:	bd70      	pop	{r4, r5, r6, pc}
 80a4c14:	f1c4 0520 	rsb	r5, r4, #32
 80a4c18:	fa00 f205 	lsl.w	r2, r0, r5
 80a4c1c:	ea4e 0e02 	orr.w	lr, lr, r2
 80a4c20:	fa20 f304 	lsr.w	r3, r0, r4
 80a4c24:	fa01 f205 	lsl.w	r2, r1, r5
 80a4c28:	ea43 0302 	orr.w	r3, r3, r2
 80a4c2c:	fa21 f004 	lsr.w	r0, r1, r4
 80a4c30:	f001 4100 	and.w	r1, r1, #2147483648	; 0x80000000
 80a4c34:	fa21 f204 	lsr.w	r2, r1, r4
 80a4c38:	ea20 0002 	bic.w	r0, r0, r2
 80a4c3c:	eb00 70d3 	add.w	r0, r0, r3, lsr #31
 80a4c40:	ea5e 0e43 	orrs.w	lr, lr, r3, lsl #1
 80a4c44:	bf08      	it	eq
 80a4c46:	ea20 70d3 	biceq.w	r0, r0, r3, lsr #31
 80a4c4a:	bd70      	pop	{r4, r5, r6, pc}
 80a4c4c:	f094 0f00 	teq	r4, #0
 80a4c50:	d10f      	bne.n	80a4c72 <__aeabi_dmul+0x1c2>
 80a4c52:	f001 4600 	and.w	r6, r1, #2147483648	; 0x80000000
 80a4c56:	0040      	lsls	r0, r0, #1
 80a4c58:	eb41 0101 	adc.w	r1, r1, r1
 80a4c5c:	f411 1f80 	tst.w	r1, #1048576	; 0x100000
 80a4c60:	bf08      	it	eq
 80a4c62:	3c01      	subeq	r4, #1
 80a4c64:	d0f7      	beq.n	80a4c56 <__aeabi_dmul+0x1a6>
 80a4c66:	ea41 0106 	orr.w	r1, r1, r6
 80a4c6a:	f095 0f00 	teq	r5, #0
 80a4c6e:	bf18      	it	ne
 80a4c70:	4770      	bxne	lr
 80a4c72:	f003 4600 	and.w	r6, r3, #2147483648	; 0x80000000
 80a4c76:	0052      	lsls	r2, r2, #1
 80a4c78:	eb43 0303 	adc.w	r3, r3, r3
 80a4c7c:	f413 1f80 	tst.w	r3, #1048576	; 0x100000
 80a4c80:	bf08      	it	eq
 80a4c82:	3d01      	subeq	r5, #1
 80a4c84:	d0f7      	beq.n	80a4c76 <__aeabi_dmul+0x1c6>
 80a4c86:	ea43 0306 	orr.w	r3, r3, r6
 80a4c8a:	4770      	bx	lr
 80a4c8c:	ea94 0f0c 	teq	r4, ip
 80a4c90:	ea0c 5513 	and.w	r5, ip, r3, lsr #20
 80a4c94:	bf18      	it	ne
 80a4c96:	ea95 0f0c 	teqne	r5, ip
 80a4c9a:	d00c      	beq.n	80a4cb6 <__aeabi_dmul+0x206>
 80a4c9c:	ea50 0641 	orrs.w	r6, r0, r1, lsl #1
 80a4ca0:	bf18      	it	ne
 80a4ca2:	ea52 0643 	orrsne.w	r6, r2, r3, lsl #1
 80a4ca6:	d1d1      	bne.n	80a4c4c <__aeabi_dmul+0x19c>
 80a4ca8:	ea81 0103 	eor.w	r1, r1, r3
 80a4cac:	f001 4100 	and.w	r1, r1, #2147483648	; 0x80000000
 80a4cb0:	f04f 0000 	mov.w	r0, #0
 80a4cb4:	bd70      	pop	{r4, r5, r6, pc}
 80a4cb6:	ea50 0641 	orrs.w	r6, r0, r1, lsl #1
 80a4cba:	bf06      	itte	eq
 80a4cbc:	4610      	moveq	r0, r2
 80a4cbe:	4619      	moveq	r1, r3
 80a4cc0:	ea52 0643 	orrsne.w	r6, r2, r3, lsl #1
 80a4cc4:	d019      	beq.n	80a4cfa <__aeabi_dmul+0x24a>
 80a4cc6:	ea94 0f0c 	teq	r4, ip
 80a4cca:	d102      	bne.n	80a4cd2 <__aeabi_dmul+0x222>
 80a4ccc:	ea50 3601 	orrs.w	r6, r0, r1, lsl #12
 80a4cd0:	d113      	bne.n	80a4cfa <__aeabi_dmul+0x24a>
 80a4cd2:	ea95 0f0c 	teq	r5, ip
 80a4cd6:	d105      	bne.n	80a4ce4 <__aeabi_dmul+0x234>
 80a4cd8:	ea52 3603 	orrs.w	r6, r2, r3, lsl #12
 80a4cdc:	bf1c      	itt	ne
 80a4cde:	4610      	movne	r0, r2
 80a4ce0:	4619      	movne	r1, r3
 80a4ce2:	d10a      	bne.n	80a4cfa <__aeabi_dmul+0x24a>
 80a4ce4:	ea81 0103 	eor.w	r1, r1, r3
 80a4ce8:	f001 4100 	and.w	r1, r1, #2147483648	; 0x80000000
 80a4cec:	f041 41fe 	orr.w	r1, r1, #2130706432	; 0x7f000000
 80a4cf0:	f441 0170 	orr.w	r1, r1, #15728640	; 0xf00000
 80a4cf4:	f04f 0000 	mov.w	r0, #0
 80a4cf8:	bd70      	pop	{r4, r5, r6, pc}
 80a4cfa:	f041 41fe 	orr.w	r1, r1, #2130706432	; 0x7f000000
 80a4cfe:	f441 0178 	orr.w	r1, r1, #16252928	; 0xf80000
 80a4d02:	bd70      	pop	{r4, r5, r6, pc}

080a4d04 <__aeabi_ddiv>:
 80a4d04:	b570      	push	{r4, r5, r6, lr}
 80a4d06:	f04f 0cff 	mov.w	ip, #255	; 0xff
 80a4d0a:	f44c 6ce0 	orr.w	ip, ip, #1792	; 0x700
 80a4d0e:	ea1c 5411 	ands.w	r4, ip, r1, lsr #20
 80a4d12:	bf1d      	ittte	ne
 80a4d14:	ea1c 5513 	andsne.w	r5, ip, r3, lsr #20
 80a4d18:	ea94 0f0c 	teqne	r4, ip
 80a4d1c:	ea95 0f0c 	teqne	r5, ip
 80a4d20:	f000 f8a7 	bleq	80a4e72 <__aeabi_ddiv+0x16e>
 80a4d24:	eba4 0405 	sub.w	r4, r4, r5
 80a4d28:	ea81 0e03 	eor.w	lr, r1, r3
 80a4d2c:	ea52 3503 	orrs.w	r5, r2, r3, lsl #12
 80a4d30:	ea4f 3101 	mov.w	r1, r1, lsl #12
 80a4d34:	f000 8088 	beq.w	80a4e48 <__aeabi_ddiv+0x144>
 80a4d38:	ea4f 3303 	mov.w	r3, r3, lsl #12
 80a4d3c:	f04f 5580 	mov.w	r5, #268435456	; 0x10000000
 80a4d40:	ea45 1313 	orr.w	r3, r5, r3, lsr #4
 80a4d44:	ea43 6312 	orr.w	r3, r3, r2, lsr #24
 80a4d48:	ea4f 2202 	mov.w	r2, r2, lsl #8
 80a4d4c:	ea45 1511 	orr.w	r5, r5, r1, lsr #4
 80a4d50:	ea45 6510 	orr.w	r5, r5, r0, lsr #24
 80a4d54:	ea4f 2600 	mov.w	r6, r0, lsl #8
 80a4d58:	f00e 4100 	and.w	r1, lr, #2147483648	; 0x80000000
 80a4d5c:	429d      	cmp	r5, r3
 80a4d5e:	bf08      	it	eq
 80a4d60:	4296      	cmpeq	r6, r2
 80a4d62:	f144 04fd 	adc.w	r4, r4, #253	; 0xfd
 80a4d66:	f504 7440 	add.w	r4, r4, #768	; 0x300
 80a4d6a:	d202      	bcs.n	80a4d72 <__aeabi_ddiv+0x6e>
 80a4d6c:	085b      	lsrs	r3, r3, #1
 80a4d6e:	ea4f 0232 	mov.w	r2, r2, rrx
 80a4d72:	1ab6      	subs	r6, r6, r2
 80a4d74:	eb65 0503 	sbc.w	r5, r5, r3
 80a4d78:	085b      	lsrs	r3, r3, #1
 80a4d7a:	ea4f 0232 	mov.w	r2, r2, rrx
 80a4d7e:	f44f 1080 	mov.w	r0, #1048576	; 0x100000
 80a4d82:	f44f 2c00 	mov.w	ip, #524288	; 0x80000
 80a4d86:	ebb6 0e02 	subs.w	lr, r6, r2
 80a4d8a:	eb75 0e03 	sbcs.w	lr, r5, r3
 80a4d8e:	bf22      	ittt	cs
 80a4d90:	1ab6      	subcs	r6, r6, r2
 80a4d92:	4675      	movcs	r5, lr
 80a4d94:	ea40 000c 	orrcs.w	r0, r0, ip
 80a4d98:	085b      	lsrs	r3, r3, #1
 80a4d9a:	ea4f 0232 	mov.w	r2, r2, rrx
 80a4d9e:	ebb6 0e02 	subs.w	lr, r6, r2
 80a4da2:	eb75 0e03 	sbcs.w	lr, r5, r3
 80a4da6:	bf22      	ittt	cs
 80a4da8:	1ab6      	subcs	r6, r6, r2
 80a4daa:	4675      	movcs	r5, lr
 80a4dac:	ea40 005c 	orrcs.w	r0, r0, ip, lsr #1
 80a4db0:	085b      	lsrs	r3, r3, #1
 80a4db2:	ea4f 0232 	mov.w	r2, r2, rrx
 80a4db6:	ebb6 0e02 	subs.w	lr, r6, r2
 80a4dba:	eb75 0e03 	sbcs.w	lr, r5, r3
 80a4dbe:	bf22      	ittt	cs
 80a4dc0:	1ab6      	subcs	r6, r6, r2
 80a4dc2:	4675      	movcs	r5, lr
 80a4dc4:	ea40 009c 	orrcs.w	r0, r0, ip, lsr #2
 80a4dc8:	085b      	lsrs	r3, r3, #1
 80a4dca:	ea4f 0232 	mov.w	r2, r2, rrx
 80a4dce:	ebb6 0e02 	subs.w	lr, r6, r2
 80a4dd2:	eb75 0e03 	sbcs.w	lr, r5, r3
 80a4dd6:	bf22      	ittt	cs
 80a4dd8:	1ab6      	subcs	r6, r6, r2
 80a4dda:	4675      	movcs	r5, lr
 80a4ddc:	ea40 00dc 	orrcs.w	r0, r0, ip, lsr #3
 80a4de0:	ea55 0e06 	orrs.w	lr, r5, r6
 80a4de4:	d018      	beq.n	80a4e18 <__aeabi_ddiv+0x114>
 80a4de6:	ea4f 1505 	mov.w	r5, r5, lsl #4
 80a4dea:	ea45 7516 	orr.w	r5, r5, r6, lsr #28
 80a4dee:	ea4f 1606 	mov.w	r6, r6, lsl #4
 80a4df2:	ea4f 03c3 	mov.w	r3, r3, lsl #3
 80a4df6:	ea43 7352 	orr.w	r3, r3, r2, lsr #29
 80a4dfa:	ea4f 02c2 	mov.w	r2, r2, lsl #3
 80a4dfe:	ea5f 1c1c 	movs.w	ip, ip, lsr #4
 80a4e02:	d1c0      	bne.n	80a4d86 <__aeabi_ddiv+0x82>
 80a4e04:	f411 1f80 	tst.w	r1, #1048576	; 0x100000
 80a4e08:	d10b      	bne.n	80a4e22 <__aeabi_ddiv+0x11e>
 80a4e0a:	ea41 0100 	orr.w	r1, r1, r0
 80a4e0e:	f04f 0000 	mov.w	r0, #0
 80a4e12:	f04f 4c00 	mov.w	ip, #2147483648	; 0x80000000
 80a4e16:	e7b6      	b.n	80a4d86 <__aeabi_ddiv+0x82>
 80a4e18:	f411 1f80 	tst.w	r1, #1048576	; 0x100000
 80a4e1c:	bf04      	itt	eq
 80a4e1e:	4301      	orreq	r1, r0
 80a4e20:	2000      	moveq	r0, #0
 80a4e22:	f1b4 0cfd 	subs.w	ip, r4, #253	; 0xfd
 80a4e26:	bf88      	it	hi
 80a4e28:	f5bc 6fe0 	cmphi.w	ip, #1792	; 0x700
 80a4e2c:	f63f aeaf 	bhi.w	80a4b8e <__aeabi_dmul+0xde>
 80a4e30:	ebb5 0c03 	subs.w	ip, r5, r3
 80a4e34:	bf04      	itt	eq
 80a4e36:	ebb6 0c02 	subseq.w	ip, r6, r2
 80a4e3a:	ea5f 0c50 	movseq.w	ip, r0, lsr #1
 80a4e3e:	f150 0000 	adcs.w	r0, r0, #0
 80a4e42:	eb41 5104 	adc.w	r1, r1, r4, lsl #20
 80a4e46:	bd70      	pop	{r4, r5, r6, pc}
 80a4e48:	f00e 4e00 	and.w	lr, lr, #2147483648	; 0x80000000
 80a4e4c:	ea4e 3111 	orr.w	r1, lr, r1, lsr #12
 80a4e50:	eb14 045c 	adds.w	r4, r4, ip, lsr #1
 80a4e54:	bfc2      	ittt	gt
 80a4e56:	ebd4 050c 	rsbsgt	r5, r4, ip
 80a4e5a:	ea41 5104 	orrgt.w	r1, r1, r4, lsl #20
 80a4e5e:	bd70      	popgt	{r4, r5, r6, pc}
 80a4e60:	f441 1180 	orr.w	r1, r1, #1048576	; 0x100000
 80a4e64:	f04f 0e00 	mov.w	lr, #0
 80a4e68:	3c01      	subs	r4, #1
 80a4e6a:	e690      	b.n	80a4b8e <__aeabi_dmul+0xde>
 80a4e6c:	ea45 0e06 	orr.w	lr, r5, r6
 80a4e70:	e68d      	b.n	80a4b8e <__aeabi_dmul+0xde>
 80a4e72:	ea0c 5513 	and.w	r5, ip, r3, lsr #20
 80a4e76:	ea94 0f0c 	teq	r4, ip
 80a4e7a:	bf08      	it	eq
 80a4e7c:	ea95 0f0c 	teqeq	r5, ip
 80a4e80:	f43f af3b 	beq.w	80a4cfa <__aeabi_dmul+0x24a>
 80a4e84:	ea94 0f0c 	teq	r4, ip
 80a4e88:	d10a      	bne.n	80a4ea0 <__aeabi_ddiv+0x19c>
 80a4e8a:	ea50 3401 	orrs.w	r4, r0, r1, lsl #12
 80a4e8e:	f47f af34 	bne.w	80a4cfa <__aeabi_dmul+0x24a>
 80a4e92:	ea95 0f0c 	teq	r5, ip
 80a4e96:	f47f af25 	bne.w	80a4ce4 <__aeabi_dmul+0x234>
 80a4e9a:	4610      	mov	r0, r2
 80a4e9c:	4619      	mov	r1, r3
 80a4e9e:	e72c      	b.n	80a4cfa <__aeabi_dmul+0x24a>
 80a4ea0:	ea95 0f0c 	teq	r5, ip
 80a4ea4:	d106      	bne.n	80a4eb4 <__aeabi_ddiv+0x1b0>
 80a4ea6:	ea52 3503 	orrs.w	r5, r2, r3, lsl #12
 80a4eaa:	f43f aefd 	beq.w	80a4ca8 <__aeabi_dmul+0x1f8>
 80a4eae:	4610      	mov	r0, r2
 80a4eb0:	4619      	mov	r1, r3
 80a4eb2:	e722      	b.n	80a4cfa <__aeabi_dmul+0x24a>
 80a4eb4:	ea50 0641 	orrs.w	r6, r0, r1, lsl #1
 80a4eb8:	bf18      	it	ne
 80a4eba:	ea52 0643 	orrsne.w	r6, r2, r3, lsl #1
 80a4ebe:	f47f aec5 	bne.w	80a4c4c <__aeabi_dmul+0x19c>
 80a4ec2:	ea50 0441 	orrs.w	r4, r0, r1, lsl #1
 80a4ec6:	f47f af0d 	bne.w	80a4ce4 <__aeabi_dmul+0x234>
 80a4eca:	ea52 0543 	orrs.w	r5, r2, r3, lsl #1
 80a4ece:	f47f aeeb 	bne.w	80a4ca8 <__aeabi_dmul+0x1f8>
 80a4ed2:	e712      	b.n	80a4cfa <__aeabi_dmul+0x24a>

080a4ed4 <__gedf2>:
 80a4ed4:	f04f 3cff 	mov.w	ip, #4294967295
 80a4ed8:	e006      	b.n	80a4ee8 <__cmpdf2+0x4>
 80a4eda:	bf00      	nop

080a4edc <__ledf2>:
 80a4edc:	f04f 0c01 	mov.w	ip, #1
 80a4ee0:	e002      	b.n	80a4ee8 <__cmpdf2+0x4>
 80a4ee2:	bf00      	nop

080a4ee4 <__cmpdf2>:
 80a4ee4:	f04f 0c01 	mov.w	ip, #1
 80a4ee8:	f84d cd04 	str.w	ip, [sp, #-4]!
 80a4eec:	ea4f 0c41 	mov.w	ip, r1, lsl #1
 80a4ef0:	ea7f 5c6c 	mvns.w	ip, ip, asr #21
 80a4ef4:	ea4f 0c43 	mov.w	ip, r3, lsl #1
 80a4ef8:	bf18      	it	ne
 80a4efa:	ea7f 5c6c 	mvnsne.w	ip, ip, asr #21
 80a4efe:	d01b      	beq.n	80a4f38 <__cmpdf2+0x54>
 80a4f00:	b001      	add	sp, #4
 80a4f02:	ea50 0c41 	orrs.w	ip, r0, r1, lsl #1
 80a4f06:	bf0c      	ite	eq
 80a4f08:	ea52 0c43 	orrseq.w	ip, r2, r3, lsl #1
 80a4f0c:	ea91 0f03 	teqne	r1, r3
 80a4f10:	bf02      	ittt	eq
 80a4f12:	ea90 0f02 	teqeq	r0, r2
 80a4f16:	2000      	moveq	r0, #0
 80a4f18:	4770      	bxeq	lr
 80a4f1a:	f110 0f00 	cmn.w	r0, #0
 80a4f1e:	ea91 0f03 	teq	r1, r3
 80a4f22:	bf58      	it	pl
 80a4f24:	4299      	cmppl	r1, r3
 80a4f26:	bf08      	it	eq
 80a4f28:	4290      	cmpeq	r0, r2
 80a4f2a:	bf2c      	ite	cs
 80a4f2c:	17d8      	asrcs	r0, r3, #31
 80a4f2e:	ea6f 70e3 	mvncc.w	r0, r3, asr #31
 80a4f32:	f040 0001 	orr.w	r0, r0, #1
 80a4f36:	4770      	bx	lr
 80a4f38:	ea4f 0c41 	mov.w	ip, r1, lsl #1
 80a4f3c:	ea7f 5c6c 	mvns.w	ip, ip, asr #21
 80a4f40:	d102      	bne.n	80a4f48 <__cmpdf2+0x64>
 80a4f42:	ea50 3c01 	orrs.w	ip, r0, r1, lsl #12
 80a4f46:	d107      	bne.n	80a4f58 <__cmpdf2+0x74>
 80a4f48:	ea4f 0c43 	mov.w	ip, r3, lsl #1
 80a4f4c:	ea7f 5c6c 	mvns.w	ip, ip, asr #21
 80a4f50:	d1d6      	bne.n	80a4f00 <__cmpdf2+0x1c>
 80a4f52:	ea52 3c03 	orrs.w	ip, r2, r3, lsl #12
 80a4f56:	d0d3      	beq.n	80a4f00 <__cmpdf2+0x1c>
 80a4f58:	f85d 0b04 	ldr.w	r0, [sp], #4
 80a4f5c:	4770      	bx	lr
 80a4f5e:	bf00      	nop

080a4f60 <__aeabi_cdrcmple>:
 80a4f60:	4684      	mov	ip, r0
 80a4f62:	4610      	mov	r0, r2
 80a4f64:	4662      	mov	r2, ip
 80a4f66:	468c      	mov	ip, r1
 80a4f68:	4619      	mov	r1, r3
 80a4f6a:	4663      	mov	r3, ip
 80a4f6c:	e000      	b.n	80a4f70 <__aeabi_cdcmpeq>
 80a4f6e:	bf00      	nop

080a4f70 <__aeabi_cdcmpeq>:
 80a4f70:	b501      	push	{r0, lr}
 80a4f72:	f7ff ffb7 	bl	80a4ee4 <__cmpdf2>
 80a4f76:	2800      	cmp	r0, #0
 80a4f78:	bf48      	it	mi
 80a4f7a:	f110 0f00 	cmnmi.w	r0, #0
 80a4f7e:	bd01      	pop	{r0, pc}

080a4f80 <__aeabi_dcmpeq>:
 80a4f80:	f84d ed08 	str.w	lr, [sp, #-8]!
 80a4f84:	f7ff fff4 	bl	80a4f70 <__aeabi_cdcmpeq>
 80a4f88:	bf0c      	ite	eq
 80a4f8a:	2001      	moveq	r0, #1
 80a4f8c:	2000      	movne	r0, #0
 80a4f8e:	f85d fb08 	ldr.w	pc, [sp], #8
 80a4f92:	bf00      	nop

080a4f94 <__aeabi_dcmplt>:
 80a4f94:	f84d ed08 	str.w	lr, [sp, #-8]!
 80a4f98:	f7ff ffea 	bl	80a4f70 <__aeabi_cdcmpeq>
 80a4f9c:	bf34      	ite	cc
 80a4f9e:	2001      	movcc	r0, #1
 80a4fa0:	2000      	movcs	r0, #0
 80a4fa2:	f85d fb08 	ldr.w	pc, [sp], #8
 80a4fa6:	bf00      	nop

080a4fa8 <__aeabi_dcmple>:
 80a4fa8:	f84d ed08 	str.w	lr, [sp, #-8]!
 80a4fac:	f7ff ffe0 	bl	80a4f70 <__aeabi_cdcmpeq>
 80a4fb0:	bf94      	ite	ls
 80a4fb2:	2001      	movls	r0, #1
 80a4fb4:	2000      	movhi	r0, #0
 80a4fb6:	f85d fb08 	ldr.w	pc, [sp], #8
 80a4fba:	bf00      	nop

080a4fbc <__aeabi_dcmpge>:
 80a4fbc:	f84d ed08 	str.w	lr, [sp, #-8]!
 80a4fc0:	f7ff ffce 	bl	80a4f60 <__aeabi_cdrcmple>
 80a4fc4:	bf94      	ite	ls
 80a4fc6:	2001      	movls	r0, #1
 80a4fc8:	2000      	movhi	r0, #0
 80a4fca:	f85d fb08 	ldr.w	pc, [sp], #8
 80a4fce:	bf00      	nop

080a4fd0 <__aeabi_dcmpgt>:
 80a4fd0:	f84d ed08 	str.w	lr, [sp, #-8]!
 80a4fd4:	f7ff ffc4 	bl	80a4f60 <__aeabi_cdrcmple>
 80a4fd8:	bf34      	ite	cc
 80a4fda:	2001      	movcc	r0, #1
 80a4fdc:	2000      	movcs	r0, #0
 80a4fde:	f85d fb08 	ldr.w	pc, [sp], #8
 80a4fe2:	bf00      	nop

080a4fe4 <__aeabi_dcmpun>:
 80a4fe4:	ea4f 0c41 	mov.w	ip, r1, lsl #1
 80a4fe8:	ea7f 5c6c 	mvns.w	ip, ip, asr #21
 80a4fec:	d102      	bne.n	80a4ff4 <__aeabi_dcmpun+0x10>
 80a4fee:	ea50 3c01 	orrs.w	ip, r0, r1, lsl #12
 80a4ff2:	d10a      	bne.n	80a500a <__aeabi_dcmpun+0x26>
 80a4ff4:	ea4f 0c43 	mov.w	ip, r3, lsl #1
 80a4ff8:	ea7f 5c6c 	mvns.w	ip, ip, asr #21
 80a4ffc:	d102      	bne.n	80a5004 <__aeabi_dcmpun+0x20>
 80a4ffe:	ea52 3c03 	orrs.w	ip, r2, r3, lsl #12
 80a5002:	d102      	bne.n	80a500a <__aeabi_dcmpun+0x26>
 80a5004:	f04f 0000 	mov.w	r0, #0
 80a5008:	4770      	bx	lr
 80a500a:	f04f 0001 	mov.w	r0, #1
 80a500e:	4770      	bx	lr

080a5010 <__aeabi_d2iz>:
 80a5010:	ea4f 0241 	mov.w	r2, r1, lsl #1
 80a5014:	f512 1200 	adds.w	r2, r2, #2097152	; 0x200000
 80a5018:	d215      	bcs.n	80a5046 <__aeabi_d2iz+0x36>
 80a501a:	d511      	bpl.n	80a5040 <__aeabi_d2iz+0x30>
 80a501c:	f46f 7378 	mvn.w	r3, #992	; 0x3e0
 80a5020:	ebb3 5262 	subs.w	r2, r3, r2, asr #21
 80a5024:	d912      	bls.n	80a504c <__aeabi_d2iz+0x3c>
 80a5026:	ea4f 23c1 	mov.w	r3, r1, lsl #11
 80a502a:	f043 4300 	orr.w	r3, r3, #2147483648	; 0x80000000
 80a502e:	ea43 5350 	orr.w	r3, r3, r0, lsr #21
 80a5032:	f011 4f00 	tst.w	r1, #2147483648	; 0x80000000
 80a5036:	fa23 f002 	lsr.w	r0, r3, r2
 80a503a:	bf18      	it	ne
 80a503c:	4240      	negne	r0, r0
 80a503e:	4770      	bx	lr
 80a5040:	f04f 0000 	mov.w	r0, #0
 80a5044:	4770      	bx	lr
 80a5046:	ea50 3001 	orrs.w	r0, r0, r1, lsl #12
 80a504a:	d105      	bne.n	80a5058 <__aeabi_d2iz+0x48>
 80a504c:	f011 4000 	ands.w	r0, r1, #2147483648	; 0x80000000
 80a5050:	bf08      	it	eq
 80a5052:	f06f 4000 	mvneq.w	r0, #2147483648	; 0x80000000
 80a5056:	4770      	bx	lr
 80a5058:	f04f 0000 	mov.w	r0, #0
 80a505c:	4770      	bx	lr
 80a505e:	bf00      	nop

080a5060 <__aeabi_d2uiz>:
 80a5060:	004a      	lsls	r2, r1, #1
 80a5062:	d211      	bcs.n	80a5088 <__aeabi_d2uiz+0x28>
 80a5064:	f512 1200 	adds.w	r2, r2, #2097152	; 0x200000
 80a5068:	d211      	bcs.n	80a508e <__aeabi_d2uiz+0x2e>
 80a506a:	d50d      	bpl.n	80a5088 <__aeabi_d2uiz+0x28>
 80a506c:	f46f 7378 	mvn.w	r3, #992	; 0x3e0
 80a5070:	ebb3 5262 	subs.w	r2, r3, r2, asr #21
 80a5074:	d40e      	bmi.n	80a5094 <__aeabi_d2uiz+0x34>
 80a5076:	ea4f 23c1 	mov.w	r3, r1, lsl #11
 80a507a:	f043 4300 	orr.w	r3, r3, #2147483648	; 0x80000000
 80a507e:	ea43 5350 	orr.w	r3, r3, r0, lsr #21
 80a5082:	fa23 f002 	lsr.w	r0, r3, r2
 80a5086:	4770      	bx	lr
 80a5088:	f04f 0000 	mov.w	r0, #0
 80a508c:	4770      	bx	lr
 80a508e:	ea50 3001 	orrs.w	r0, r0, r1, lsl #12
 80a5092:	d102      	bne.n	80a509a <__aeabi_d2uiz+0x3a>
 80a5094:	f04f 30ff 	mov.w	r0, #4294967295
 80a5098:	4770      	bx	lr
 80a509a:	f04f 0000 	mov.w	r0, #0
 80a509e:	4770      	bx	lr

080a50a0 <__aeabi_d2f>:
 80a50a0:	ea4f 0241 	mov.w	r2, r1, lsl #1
 80a50a4:	f1b2 43e0 	subs.w	r3, r2, #1879048192	; 0x70000000
 80a50a8:	bf24      	itt	cs
 80a50aa:	f5b3 1c00 	subscs.w	ip, r3, #2097152	; 0x200000
 80a50ae:	f1dc 5cfe 	rsbscs	ip, ip, #532676608	; 0x1fc00000
 80a50b2:	d90d      	bls.n	80a50d0 <__aeabi_d2f+0x30>
 80a50b4:	f001 4c00 	and.w	ip, r1, #2147483648	; 0x80000000
 80a50b8:	ea4f 02c0 	mov.w	r2, r0, lsl #3
 80a50bc:	ea4c 7050 	orr.w	r0, ip, r0, lsr #29
 80a50c0:	f1b2 4f00 	cmp.w	r2, #2147483648	; 0x80000000
 80a50c4:	eb40 0083 	adc.w	r0, r0, r3, lsl #2
 80a50c8:	bf08      	it	eq
 80a50ca:	f020 0001 	biceq.w	r0, r0, #1
 80a50ce:	4770      	bx	lr
 80a50d0:	f011 4f80 	tst.w	r1, #1073741824	; 0x40000000
 80a50d4:	d121      	bne.n	80a511a <__aeabi_d2f+0x7a>
 80a50d6:	f113 7238 	adds.w	r2, r3, #48234496	; 0x2e00000
 80a50da:	bfbc      	itt	lt
 80a50dc:	f001 4000 	andlt.w	r0, r1, #2147483648	; 0x80000000
 80a50e0:	4770      	bxlt	lr
 80a50e2:	f441 1180 	orr.w	r1, r1, #1048576	; 0x100000
 80a50e6:	ea4f 5252 	mov.w	r2, r2, lsr #21
 80a50ea:	f1c2 0218 	rsb	r2, r2, #24
 80a50ee:	f1c2 0c20 	rsb	ip, r2, #32
 80a50f2:	fa10 f30c 	lsls.w	r3, r0, ip
 80a50f6:	fa20 f002 	lsr.w	r0, r0, r2
 80a50fa:	bf18      	it	ne
 80a50fc:	f040 0001 	orrne.w	r0, r0, #1
 80a5100:	ea4f 23c1 	mov.w	r3, r1, lsl #11
 80a5104:	ea4f 23d3 	mov.w	r3, r3, lsr #11
 80a5108:	fa03 fc0c 	lsl.w	ip, r3, ip
 80a510c:	ea40 000c 	orr.w	r0, r0, ip
 80a5110:	fa23 f302 	lsr.w	r3, r3, r2
 80a5114:	ea4f 0343 	mov.w	r3, r3, lsl #1
 80a5118:	e7cc      	b.n	80a50b4 <__aeabi_d2f+0x14>
 80a511a:	ea7f 5362 	mvns.w	r3, r2, asr #21
 80a511e:	d107      	bne.n	80a5130 <__aeabi_d2f+0x90>
 80a5120:	ea50 3301 	orrs.w	r3, r0, r1, lsl #12
 80a5124:	bf1e      	ittt	ne
 80a5126:	f04f 40fe 	movne.w	r0, #2130706432	; 0x7f000000
 80a512a:	f440 0040 	orrne.w	r0, r0, #12582912	; 0xc00000
 80a512e:	4770      	bxne	lr
 80a5130:	f001 4000 	and.w	r0, r1, #2147483648	; 0x80000000
 80a5134:	f040 40fe 	orr.w	r0, r0, #2130706432	; 0x7f000000
 80a5138:	f440 0000 	orr.w	r0, r0, #8388608	; 0x800000
 80a513c:	4770      	bx	lr
 80a513e:	bf00      	nop

080a5140 <__aeabi_frsub>:
 80a5140:	f080 4000 	eor.w	r0, r0, #2147483648	; 0x80000000
 80a5144:	e002      	b.n	80a514c <__addsf3>
 80a5146:	bf00      	nop

080a5148 <__aeabi_fsub>:
 80a5148:	f081 4100 	eor.w	r1, r1, #2147483648	; 0x80000000

080a514c <__addsf3>:
 80a514c:	0042      	lsls	r2, r0, #1
 80a514e:	bf1f      	itttt	ne
 80a5150:	ea5f 0341 	movsne.w	r3, r1, lsl #1
 80a5154:	ea92 0f03 	teqne	r2, r3
 80a5158:	ea7f 6c22 	mvnsne.w	ip, r2, asr #24
 80a515c:	ea7f 6c23 	mvnsne.w	ip, r3, asr #24
 80a5160:	d06a      	beq.n	80a5238 <__addsf3+0xec>
 80a5162:	ea4f 6212 	mov.w	r2, r2, lsr #24
 80a5166:	ebd2 6313 	rsbs	r3, r2, r3, lsr #24
 80a516a:	bfc1      	itttt	gt
 80a516c:	18d2      	addgt	r2, r2, r3
 80a516e:	4041      	eorgt	r1, r0
 80a5170:	4048      	eorgt	r0, r1
 80a5172:	4041      	eorgt	r1, r0
 80a5174:	bfb8      	it	lt
 80a5176:	425b      	neglt	r3, r3
 80a5178:	2b19      	cmp	r3, #25
 80a517a:	bf88      	it	hi
 80a517c:	4770      	bxhi	lr
 80a517e:	f010 4f00 	tst.w	r0, #2147483648	; 0x80000000
 80a5182:	f440 0000 	orr.w	r0, r0, #8388608	; 0x800000
 80a5186:	f020 407f 	bic.w	r0, r0, #4278190080	; 0xff000000
 80a518a:	bf18      	it	ne
 80a518c:	4240      	negne	r0, r0
 80a518e:	f011 4f00 	tst.w	r1, #2147483648	; 0x80000000
 80a5192:	f441 0100 	orr.w	r1, r1, #8388608	; 0x800000
 80a5196:	f021 417f 	bic.w	r1, r1, #4278190080	; 0xff000000
 80a519a:	bf18      	it	ne
 80a519c:	4249      	negne	r1, r1
 80a519e:	ea92 0f03 	teq	r2, r3
 80a51a2:	d03f      	beq.n	80a5224 <__addsf3+0xd8>
 80a51a4:	f1a2 0201 	sub.w	r2, r2, #1
 80a51a8:	fa41 fc03 	asr.w	ip, r1, r3
 80a51ac:	eb10 000c 	adds.w	r0, r0, ip
 80a51b0:	f1c3 0320 	rsb	r3, r3, #32
 80a51b4:	fa01 f103 	lsl.w	r1, r1, r3
 80a51b8:	f000 4300 	and.w	r3, r0, #2147483648	; 0x80000000
 80a51bc:	d502      	bpl.n	80a51c4 <__addsf3+0x78>
 80a51be:	4249      	negs	r1, r1
 80a51c0:	eb60 0040 	sbc.w	r0, r0, r0, lsl #1
 80a51c4:	f5b0 0f00 	cmp.w	r0, #8388608	; 0x800000
 80a51c8:	d313      	bcc.n	80a51f2 <__addsf3+0xa6>
 80a51ca:	f1b0 7f80 	cmp.w	r0, #16777216	; 0x1000000
 80a51ce:	d306      	bcc.n	80a51de <__addsf3+0x92>
 80a51d0:	0840      	lsrs	r0, r0, #1
 80a51d2:	ea4f 0131 	mov.w	r1, r1, rrx
 80a51d6:	f102 0201 	add.w	r2, r2, #1
 80a51da:	2afe      	cmp	r2, #254	; 0xfe
 80a51dc:	d251      	bcs.n	80a5282 <__addsf3+0x136>
 80a51de:	f1b1 4f00 	cmp.w	r1, #2147483648	; 0x80000000
 80a51e2:	eb40 50c2 	adc.w	r0, r0, r2, lsl #23
 80a51e6:	bf08      	it	eq
 80a51e8:	f020 0001 	biceq.w	r0, r0, #1
 80a51ec:	ea40 0003 	orr.w	r0, r0, r3
 80a51f0:	4770      	bx	lr
 80a51f2:	0049      	lsls	r1, r1, #1
 80a51f4:	eb40 0000 	adc.w	r0, r0, r0
 80a51f8:	f410 0f00 	tst.w	r0, #8388608	; 0x800000
 80a51fc:	f1a2 0201 	sub.w	r2, r2, #1
 80a5200:	d1ed      	bne.n	80a51de <__addsf3+0x92>
 80a5202:	fab0 fc80 	clz	ip, r0
 80a5206:	f1ac 0c08 	sub.w	ip, ip, #8
 80a520a:	ebb2 020c 	subs.w	r2, r2, ip
 80a520e:	fa00 f00c 	lsl.w	r0, r0, ip
 80a5212:	bfaa      	itet	ge
 80a5214:	eb00 50c2 	addge.w	r0, r0, r2, lsl #23
 80a5218:	4252      	neglt	r2, r2
 80a521a:	4318      	orrge	r0, r3
 80a521c:	bfbc      	itt	lt
 80a521e:	40d0      	lsrlt	r0, r2
 80a5220:	4318      	orrlt	r0, r3
 80a5222:	4770      	bx	lr
 80a5224:	f092 0f00 	teq	r2, #0
 80a5228:	f481 0100 	eor.w	r1, r1, #8388608	; 0x800000
 80a522c:	bf06      	itte	eq
 80a522e:	f480 0000 	eoreq.w	r0, r0, #8388608	; 0x800000
 80a5232:	3201      	addeq	r2, #1
 80a5234:	3b01      	subne	r3, #1
 80a5236:	e7b5      	b.n	80a51a4 <__addsf3+0x58>
 80a5238:	ea4f 0341 	mov.w	r3, r1, lsl #1
 80a523c:	ea7f 6c22 	mvns.w	ip, r2, asr #24
 80a5240:	bf18      	it	ne
 80a5242:	ea7f 6c23 	mvnsne.w	ip, r3, asr #24
 80a5246:	d021      	beq.n	80a528c <__addsf3+0x140>
 80a5248:	ea92 0f03 	teq	r2, r3
 80a524c:	d004      	beq.n	80a5258 <__addsf3+0x10c>
 80a524e:	f092 0f00 	teq	r2, #0
 80a5252:	bf08      	it	eq
 80a5254:	4608      	moveq	r0, r1
 80a5256:	4770      	bx	lr
 80a5258:	ea90 0f01 	teq	r0, r1
 80a525c:	bf1c      	itt	ne
 80a525e:	2000      	movne	r0, #0
 80a5260:	4770      	bxne	lr
 80a5262:	f012 4f7f 	tst.w	r2, #4278190080	; 0xff000000
 80a5266:	d104      	bne.n	80a5272 <__addsf3+0x126>
 80a5268:	0040      	lsls	r0, r0, #1
 80a526a:	bf28      	it	cs
 80a526c:	f040 4000 	orrcs.w	r0, r0, #2147483648	; 0x80000000
 80a5270:	4770      	bx	lr
 80a5272:	f112 7200 	adds.w	r2, r2, #33554432	; 0x2000000
 80a5276:	bf3c      	itt	cc
 80a5278:	f500 0000 	addcc.w	r0, r0, #8388608	; 0x800000
 80a527c:	4770      	bxcc	lr
 80a527e:	f000 4300 	and.w	r3, r0, #2147483648	; 0x80000000
 80a5282:	f043 40fe 	orr.w	r0, r3, #2130706432	; 0x7f000000
 80a5286:	f440 0000 	orr.w	r0, r0, #8388608	; 0x800000
 80a528a:	4770      	bx	lr
 80a528c:	ea7f 6222 	mvns.w	r2, r2, asr #24
 80a5290:	bf16      	itet	ne
 80a5292:	4608      	movne	r0, r1
 80a5294:	ea7f 6323 	mvnseq.w	r3, r3, asr #24
 80a5298:	4601      	movne	r1, r0
 80a529a:	0242      	lsls	r2, r0, #9
 80a529c:	bf06      	itte	eq
 80a529e:	ea5f 2341 	movseq.w	r3, r1, lsl #9
 80a52a2:	ea90 0f01 	teqeq	r0, r1
 80a52a6:	f440 0080 	orrne.w	r0, r0, #4194304	; 0x400000
 80a52aa:	4770      	bx	lr

080a52ac <__aeabi_ui2f>:
 80a52ac:	f04f 0300 	mov.w	r3, #0
 80a52b0:	e004      	b.n	80a52bc <__aeabi_i2f+0x8>
 80a52b2:	bf00      	nop

080a52b4 <__aeabi_i2f>:
 80a52b4:	f010 4300 	ands.w	r3, r0, #2147483648	; 0x80000000
 80a52b8:	bf48      	it	mi
 80a52ba:	4240      	negmi	r0, r0
 80a52bc:	ea5f 0c00 	movs.w	ip, r0
 80a52c0:	bf08      	it	eq
 80a52c2:	4770      	bxeq	lr
 80a52c4:	f043 4396 	orr.w	r3, r3, #1258291200	; 0x4b000000
 80a52c8:	4601      	mov	r1, r0
 80a52ca:	f04f 0000 	mov.w	r0, #0
 80a52ce:	e01c      	b.n	80a530a <__aeabi_l2f+0x2a>

080a52d0 <__aeabi_ul2f>:
 80a52d0:	ea50 0201 	orrs.w	r2, r0, r1
 80a52d4:	bf08      	it	eq
 80a52d6:	4770      	bxeq	lr
 80a52d8:	f04f 0300 	mov.w	r3, #0
 80a52dc:	e00a      	b.n	80a52f4 <__aeabi_l2f+0x14>
 80a52de:	bf00      	nop

080a52e0 <__aeabi_l2f>:
 80a52e0:	ea50 0201 	orrs.w	r2, r0, r1
 80a52e4:	bf08      	it	eq
 80a52e6:	4770      	bxeq	lr
 80a52e8:	f011 4300 	ands.w	r3, r1, #2147483648	; 0x80000000
 80a52ec:	d502      	bpl.n	80a52f4 <__aeabi_l2f+0x14>
 80a52ee:	4240      	negs	r0, r0
 80a52f0:	eb61 0141 	sbc.w	r1, r1, r1, lsl #1
 80a52f4:	ea5f 0c01 	movs.w	ip, r1
 80a52f8:	bf02      	ittt	eq
 80a52fa:	4684      	moveq	ip, r0
 80a52fc:	4601      	moveq	r1, r0
 80a52fe:	2000      	moveq	r0, #0
 80a5300:	f043 43b6 	orr.w	r3, r3, #1526726656	; 0x5b000000
 80a5304:	bf08      	it	eq
 80a5306:	f1a3 5380 	subeq.w	r3, r3, #268435456	; 0x10000000
 80a530a:	f5a3 0300 	sub.w	r3, r3, #8388608	; 0x800000
 80a530e:	fabc f28c 	clz	r2, ip
 80a5312:	3a08      	subs	r2, #8
 80a5314:	eba3 53c2 	sub.w	r3, r3, r2, lsl #23
 80a5318:	db10      	blt.n	80a533c <__aeabi_l2f+0x5c>
 80a531a:	fa01 fc02 	lsl.w	ip, r1, r2
 80a531e:	4463      	add	r3, ip
 80a5320:	fa00 fc02 	lsl.w	ip, r0, r2
 80a5324:	f1c2 0220 	rsb	r2, r2, #32
 80a5328:	f1bc 4f00 	cmp.w	ip, #2147483648	; 0x80000000
 80a532c:	fa20 f202 	lsr.w	r2, r0, r2
 80a5330:	eb43 0002 	adc.w	r0, r3, r2
 80a5334:	bf08      	it	eq
 80a5336:	f020 0001 	biceq.w	r0, r0, #1
 80a533a:	4770      	bx	lr
 80a533c:	f102 0220 	add.w	r2, r2, #32
 80a5340:	fa01 fc02 	lsl.w	ip, r1, r2
 80a5344:	f1c2 0220 	rsb	r2, r2, #32
 80a5348:	ea50 004c 	orrs.w	r0, r0, ip, lsl #1
 80a534c:	fa21 f202 	lsr.w	r2, r1, r2
 80a5350:	eb43 0002 	adc.w	r0, r3, r2
 80a5354:	bf08      	it	eq
 80a5356:	ea20 70dc 	biceq.w	r0, r0, ip, lsr #31
 80a535a:	4770      	bx	lr

080a535c <__aeabi_fmul>:
 80a535c:	f04f 0cff 	mov.w	ip, #255	; 0xff
 80a5360:	ea1c 52d0 	ands.w	r2, ip, r0, lsr #23
 80a5364:	bf1e      	ittt	ne
 80a5366:	ea1c 53d1 	andsne.w	r3, ip, r1, lsr #23
 80a536a:	ea92 0f0c 	teqne	r2, ip
 80a536e:	ea93 0f0c 	teqne	r3, ip
 80a5372:	d06f      	beq.n	80a5454 <__aeabi_fmul+0xf8>
 80a5374:	441a      	add	r2, r3
 80a5376:	ea80 0c01 	eor.w	ip, r0, r1
 80a537a:	0240      	lsls	r0, r0, #9
 80a537c:	bf18      	it	ne
 80a537e:	ea5f 2141 	movsne.w	r1, r1, lsl #9
 80a5382:	d01e      	beq.n	80a53c2 <__aeabi_fmul+0x66>
 80a5384:	f04f 6300 	mov.w	r3, #134217728	; 0x8000000
 80a5388:	ea43 1050 	orr.w	r0, r3, r0, lsr #5
 80a538c:	ea43 1151 	orr.w	r1, r3, r1, lsr #5
 80a5390:	fba0 3101 	umull	r3, r1, r0, r1
 80a5394:	f00c 4000 	and.w	r0, ip, #2147483648	; 0x80000000
 80a5398:	f5b1 0f00 	cmp.w	r1, #8388608	; 0x800000
 80a539c:	bf3e      	ittt	cc
 80a539e:	0049      	lslcc	r1, r1, #1
 80a53a0:	ea41 71d3 	orrcc.w	r1, r1, r3, lsr #31
 80a53a4:	005b      	lslcc	r3, r3, #1
 80a53a6:	ea40 0001 	orr.w	r0, r0, r1
 80a53aa:	f162 027f 	sbc.w	r2, r2, #127	; 0x7f
 80a53ae:	2afd      	cmp	r2, #253	; 0xfd
 80a53b0:	d81d      	bhi.n	80a53ee <__aeabi_fmul+0x92>
 80a53b2:	f1b3 4f00 	cmp.w	r3, #2147483648	; 0x80000000
 80a53b6:	eb40 50c2 	adc.w	r0, r0, r2, lsl #23
 80a53ba:	bf08      	it	eq
 80a53bc:	f020 0001 	biceq.w	r0, r0, #1
 80a53c0:	4770      	bx	lr
 80a53c2:	f090 0f00 	teq	r0, #0
 80a53c6:	f00c 4c00 	and.w	ip, ip, #2147483648	; 0x80000000
 80a53ca:	bf08      	it	eq
 80a53cc:	0249      	lsleq	r1, r1, #9
 80a53ce:	ea4c 2050 	orr.w	r0, ip, r0, lsr #9
 80a53d2:	ea40 2051 	orr.w	r0, r0, r1, lsr #9
 80a53d6:	3a7f      	subs	r2, #127	; 0x7f
 80a53d8:	bfc2      	ittt	gt
 80a53da:	f1d2 03ff 	rsbsgt	r3, r2, #255	; 0xff
 80a53de:	ea40 50c2 	orrgt.w	r0, r0, r2, lsl #23
 80a53e2:	4770      	bxgt	lr
 80a53e4:	f440 0000 	orr.w	r0, r0, #8388608	; 0x800000
 80a53e8:	f04f 0300 	mov.w	r3, #0
 80a53ec:	3a01      	subs	r2, #1
 80a53ee:	dc5d      	bgt.n	80a54ac <__aeabi_fmul+0x150>
 80a53f0:	f112 0f19 	cmn.w	r2, #25
 80a53f4:	bfdc      	itt	le
 80a53f6:	f000 4000 	andle.w	r0, r0, #2147483648	; 0x80000000
 80a53fa:	4770      	bxle	lr
 80a53fc:	f1c2 0200 	rsb	r2, r2, #0
 80a5400:	0041      	lsls	r1, r0, #1
 80a5402:	fa21 f102 	lsr.w	r1, r1, r2
 80a5406:	f1c2 0220 	rsb	r2, r2, #32
 80a540a:	fa00 fc02 	lsl.w	ip, r0, r2
 80a540e:	ea5f 0031 	movs.w	r0, r1, rrx
 80a5412:	f140 0000 	adc.w	r0, r0, #0
 80a5416:	ea53 034c 	orrs.w	r3, r3, ip, lsl #1
 80a541a:	bf08      	it	eq
 80a541c:	ea20 70dc 	biceq.w	r0, r0, ip, lsr #31
 80a5420:	4770      	bx	lr
 80a5422:	f092 0f00 	teq	r2, #0
 80a5426:	f000 4c00 	and.w	ip, r0, #2147483648	; 0x80000000
 80a542a:	bf02      	ittt	eq
 80a542c:	0040      	lsleq	r0, r0, #1
 80a542e:	f410 0f00 	tsteq.w	r0, #8388608	; 0x800000
 80a5432:	3a01      	subeq	r2, #1
 80a5434:	d0f9      	beq.n	80a542a <__aeabi_fmul+0xce>
 80a5436:	ea40 000c 	orr.w	r0, r0, ip
 80a543a:	f093 0f00 	teq	r3, #0
 80a543e:	f001 4c00 	and.w	ip, r1, #2147483648	; 0x80000000
 80a5442:	bf02      	ittt	eq
 80a5444:	0049      	lsleq	r1, r1, #1
 80a5446:	f411 0f00 	tsteq.w	r1, #8388608	; 0x800000
 80a544a:	3b01      	subeq	r3, #1
 80a544c:	d0f9      	beq.n	80a5442 <__aeabi_fmul+0xe6>
 80a544e:	ea41 010c 	orr.w	r1, r1, ip
 80a5452:	e78f      	b.n	80a5374 <__aeabi_fmul+0x18>
 80a5454:	ea0c 53d1 	and.w	r3, ip, r1, lsr #23
 80a5458:	ea92 0f0c 	teq	r2, ip
 80a545c:	bf18      	it	ne
 80a545e:	ea93 0f0c 	teqne	r3, ip
 80a5462:	d00a      	beq.n	80a547a <__aeabi_fmul+0x11e>
 80a5464:	f030 4c00 	bics.w	ip, r0, #2147483648	; 0x80000000
 80a5468:	bf18      	it	ne
 80a546a:	f031 4c00 	bicsne.w	ip, r1, #2147483648	; 0x80000000
 80a546e:	d1d8      	bne.n	80a5422 <__aeabi_fmul+0xc6>
 80a5470:	ea80 0001 	eor.w	r0, r0, r1
 80a5474:	f000 4000 	and.w	r0, r0, #2147483648	; 0x80000000
 80a5478:	4770      	bx	lr
 80a547a:	f090 0f00 	teq	r0, #0
 80a547e:	bf17      	itett	ne
 80a5480:	f090 4f00 	teqne	r0, #2147483648	; 0x80000000
 80a5484:	4608      	moveq	r0, r1
 80a5486:	f091 0f00 	teqne	r1, #0
 80a548a:	f091 4f00 	teqne	r1, #2147483648	; 0x80000000
 80a548e:	d014      	beq.n	80a54ba <__aeabi_fmul+0x15e>
 80a5490:	ea92 0f0c 	teq	r2, ip
 80a5494:	d101      	bne.n	80a549a <__aeabi_fmul+0x13e>
 80a5496:	0242      	lsls	r2, r0, #9
 80a5498:	d10f      	bne.n	80a54ba <__aeabi_fmul+0x15e>
 80a549a:	ea93 0f0c 	teq	r3, ip
 80a549e:	d103      	bne.n	80a54a8 <__aeabi_fmul+0x14c>
 80a54a0:	024b      	lsls	r3, r1, #9
 80a54a2:	bf18      	it	ne
 80a54a4:	4608      	movne	r0, r1
 80a54a6:	d108      	bne.n	80a54ba <__aeabi_fmul+0x15e>
 80a54a8:	ea80 0001 	eor.w	r0, r0, r1
 80a54ac:	f000 4000 	and.w	r0, r0, #2147483648	; 0x80000000
 80a54b0:	f040 40fe 	orr.w	r0, r0, #2130706432	; 0x7f000000
 80a54b4:	f440 0000 	orr.w	r0, r0, #8388608	; 0x800000
 80a54b8:	4770      	bx	lr
 80a54ba:	f040 40fe 	orr.w	r0, r0, #2130706432	; 0x7f000000
 80a54be:	f440 0040 	orr.w	r0, r0, #12582912	; 0xc00000
 80a54c2:	4770      	bx	lr

080a54c4 <__aeabi_fdiv>:
 80a54c4:	f04f 0cff 	mov.w	ip, #255	; 0xff
 80a54c8:	ea1c 52d0 	ands.w	r2, ip, r0, lsr #23
 80a54cc:	bf1e      	ittt	ne
 80a54ce:	ea1c 53d1 	andsne.w	r3, ip, r1, lsr #23
 80a54d2:	ea92 0f0c 	teqne	r2, ip
 80a54d6:	ea93 0f0c 	teqne	r3, ip
 80a54da:	d069      	beq.n	80a55b0 <__aeabi_fdiv+0xec>
 80a54dc:	eba2 0203 	sub.w	r2, r2, r3
 80a54e0:	ea80 0c01 	eor.w	ip, r0, r1
 80a54e4:	0249      	lsls	r1, r1, #9
 80a54e6:	ea4f 2040 	mov.w	r0, r0, lsl #9
 80a54ea:	d037      	beq.n	80a555c <__aeabi_fdiv+0x98>
 80a54ec:	f04f 5380 	mov.w	r3, #268435456	; 0x10000000
 80a54f0:	ea43 1111 	orr.w	r1, r3, r1, lsr #4
 80a54f4:	ea43 1310 	orr.w	r3, r3, r0, lsr #4
 80a54f8:	f00c 4000 	and.w	r0, ip, #2147483648	; 0x80000000
 80a54fc:	428b      	cmp	r3, r1
 80a54fe:	bf38      	it	cc
 80a5500:	005b      	lslcc	r3, r3, #1
 80a5502:	f142 027d 	adc.w	r2, r2, #125	; 0x7d
 80a5506:	f44f 0c00 	mov.w	ip, #8388608	; 0x800000
 80a550a:	428b      	cmp	r3, r1
 80a550c:	bf24      	itt	cs
 80a550e:	1a5b      	subcs	r3, r3, r1
 80a5510:	ea40 000c 	orrcs.w	r0, r0, ip
 80a5514:	ebb3 0f51 	cmp.w	r3, r1, lsr #1
 80a5518:	bf24      	itt	cs
 80a551a:	eba3 0351 	subcs.w	r3, r3, r1, lsr #1
 80a551e:	ea40 005c 	orrcs.w	r0, r0, ip, lsr #1
 80a5522:	ebb3 0f91 	cmp.w	r3, r1, lsr #2
 80a5526:	bf24      	itt	cs
 80a5528:	eba3 0391 	subcs.w	r3, r3, r1, lsr #2
 80a552c:	ea40 009c 	orrcs.w	r0, r0, ip, lsr #2
 80a5530:	ebb3 0fd1 	cmp.w	r3, r1, lsr #3
 80a5534:	bf24      	itt	cs
 80a5536:	eba3 03d1 	subcs.w	r3, r3, r1, lsr #3
 80a553a:	ea40 00dc 	orrcs.w	r0, r0, ip, lsr #3
 80a553e:	011b      	lsls	r3, r3, #4
 80a5540:	bf18      	it	ne
 80a5542:	ea5f 1c1c 	movsne.w	ip, ip, lsr #4
 80a5546:	d1e0      	bne.n	80a550a <__aeabi_fdiv+0x46>
 80a5548:	2afd      	cmp	r2, #253	; 0xfd
 80a554a:	f63f af50 	bhi.w	80a53ee <__aeabi_fmul+0x92>
 80a554e:	428b      	cmp	r3, r1
 80a5550:	eb40 50c2 	adc.w	r0, r0, r2, lsl #23
 80a5554:	bf08      	it	eq
 80a5556:	f020 0001 	biceq.w	r0, r0, #1
 80a555a:	4770      	bx	lr
 80a555c:	f00c 4c00 	and.w	ip, ip, #2147483648	; 0x80000000
 80a5560:	ea4c 2050 	orr.w	r0, ip, r0, lsr #9
 80a5564:	327f      	adds	r2, #127	; 0x7f
 80a5566:	bfc2      	ittt	gt
 80a5568:	f1d2 03ff 	rsbsgt	r3, r2, #255	; 0xff
 80a556c:	ea40 50c2 	orrgt.w	r0, r0, r2, lsl #23
 80a5570:	4770      	bxgt	lr
 80a5572:	f440 0000 	orr.w	r0, r0, #8388608	; 0x800000
 80a5576:	f04f 0300 	mov.w	r3, #0
 80a557a:	3a01      	subs	r2, #1
 80a557c:	e737      	b.n	80a53ee <__aeabi_fmul+0x92>
 80a557e:	f092 0f00 	teq	r2, #0
 80a5582:	f000 4c00 	and.w	ip, r0, #2147483648	; 0x80000000
 80a5586:	bf02      	ittt	eq
 80a5588:	0040      	lsleq	r0, r0, #1
 80a558a:	f410 0f00 	tsteq.w	r0, #8388608	; 0x800000
 80a558e:	3a01      	subeq	r2, #1
 80a5590:	d0f9      	beq.n	80a5586 <__aeabi_fdiv+0xc2>
 80a5592:	ea40 000c 	orr.w	r0, r0, ip
 80a5596:	f093 0f00 	teq	r3, #0
 80a559a:	f001 4c00 	and.w	ip, r1, #2147483648	; 0x80000000
 80a559e:	bf02      	ittt	eq
 80a55a0:	0049      	lsleq	r1, r1, #1
 80a55a2:	f411 0f00 	tsteq.w	r1, #8388608	; 0x800000
 80a55a6:	3b01      	subeq	r3, #1
 80a55a8:	d0f9      	beq.n	80a559e <__aeabi_fdiv+0xda>
 80a55aa:	ea41 010c 	orr.w	r1, r1, ip
 80a55ae:	e795      	b.n	80a54dc <__aeabi_fdiv+0x18>
 80a55b0:	ea0c 53d1 	and.w	r3, ip, r1, lsr #23
 80a55b4:	ea92 0f0c 	teq	r2, ip
 80a55b8:	d108      	bne.n	80a55cc <__aeabi_fdiv+0x108>
 80a55ba:	0242      	lsls	r2, r0, #9
 80a55bc:	f47f af7d 	bne.w	80a54ba <__aeabi_fmul+0x15e>
 80a55c0:	ea93 0f0c 	teq	r3, ip
 80a55c4:	f47f af70 	bne.w	80a54a8 <__aeabi_fmul+0x14c>
 80a55c8:	4608      	mov	r0, r1
 80a55ca:	e776      	b.n	80a54ba <__aeabi_fmul+0x15e>
 80a55cc:	ea93 0f0c 	teq	r3, ip
 80a55d0:	d104      	bne.n	80a55dc <__aeabi_fdiv+0x118>
 80a55d2:	024b      	lsls	r3, r1, #9
 80a55d4:	f43f af4c 	beq.w	80a5470 <__aeabi_fmul+0x114>
 80a55d8:	4608      	mov	r0, r1
 80a55da:	e76e      	b.n	80a54ba <__aeabi_fmul+0x15e>
 80a55dc:	f030 4c00 	bics.w	ip, r0, #2147483648	; 0x80000000
 80a55e0:	bf18      	it	ne
 80a55e2:	f031 4c00 	bicsne.w	ip, r1, #2147483648	; 0x80000000
 80a55e6:	d1ca      	bne.n	80a557e <__aeabi_fdiv+0xba>
 80a55e8:	f030 4200 	bics.w	r2, r0, #2147483648	; 0x80000000
 80a55ec:	f47f af5c 	bne.w	80a54a8 <__aeabi_fmul+0x14c>
 80a55f0:	f031 4300 	bics.w	r3, r1, #2147483648	; 0x80000000
 80a55f4:	f47f af3c 	bne.w	80a5470 <__aeabi_fmul+0x114>
 80a55f8:	e75f      	b.n	80a54ba <__aeabi_fmul+0x15e>
 80a55fa:	bf00      	nop

080a55fc <__gesf2>:
 80a55fc:	f04f 3cff 	mov.w	ip, #4294967295
 80a5600:	e006      	b.n	80a5610 <__cmpsf2+0x4>
 80a5602:	bf00      	nop

080a5604 <__lesf2>:
 80a5604:	f04f 0c01 	mov.w	ip, #1
 80a5608:	e002      	b.n	80a5610 <__cmpsf2+0x4>
 80a560a:	bf00      	nop

080a560c <__cmpsf2>:
 80a560c:	f04f 0c01 	mov.w	ip, #1
 80a5610:	f84d cd04 	str.w	ip, [sp, #-4]!
 80a5614:	ea4f 0240 	mov.w	r2, r0, lsl #1
 80a5618:	ea4f 0341 	mov.w	r3, r1, lsl #1
 80a561c:	ea7f 6c22 	mvns.w	ip, r2, asr #24
 80a5620:	bf18      	it	ne
 80a5622:	ea7f 6c23 	mvnsne.w	ip, r3, asr #24
 80a5626:	d011      	beq.n	80a564c <__cmpsf2+0x40>
 80a5628:	b001      	add	sp, #4
 80a562a:	ea52 0c53 	orrs.w	ip, r2, r3, lsr #1
 80a562e:	bf18      	it	ne
 80a5630:	ea90 0f01 	teqne	r0, r1
 80a5634:	bf58      	it	pl
 80a5636:	ebb2 0003 	subspl.w	r0, r2, r3
 80a563a:	bf88      	it	hi
 80a563c:	17c8      	asrhi	r0, r1, #31
 80a563e:	bf38      	it	cc
 80a5640:	ea6f 70e1 	mvncc.w	r0, r1, asr #31
 80a5644:	bf18      	it	ne
 80a5646:	f040 0001 	orrne.w	r0, r0, #1
 80a564a:	4770      	bx	lr
 80a564c:	ea7f 6c22 	mvns.w	ip, r2, asr #24
 80a5650:	d102      	bne.n	80a5658 <__cmpsf2+0x4c>
 80a5652:	ea5f 2c40 	movs.w	ip, r0, lsl #9
 80a5656:	d105      	bne.n	80a5664 <__cmpsf2+0x58>
 80a5658:	ea7f 6c23 	mvns.w	ip, r3, asr #24
 80a565c:	d1e4      	bne.n	80a5628 <__cmpsf2+0x1c>
 80a565e:	ea5f 2c41 	movs.w	ip, r1, lsl #9
 80a5662:	d0e1      	beq.n	80a5628 <__cmpsf2+0x1c>
 80a5664:	f85d 0b04 	ldr.w	r0, [sp], #4
 80a5668:	4770      	bx	lr
 80a566a:	bf00      	nop

080a566c <__aeabi_cfrcmple>:
 80a566c:	4684      	mov	ip, r0
 80a566e:	4608      	mov	r0, r1
 80a5670:	4661      	mov	r1, ip
 80a5672:	e7ff      	b.n	80a5674 <__aeabi_cfcmpeq>

080a5674 <__aeabi_cfcmpeq>:
 80a5674:	b50f      	push	{r0, r1, r2, r3, lr}
 80a5676:	f7ff ffc9 	bl	80a560c <__cmpsf2>
 80a567a:	2800      	cmp	r0, #0
 80a567c:	bf48      	it	mi
 80a567e:	f110 0f00 	cmnmi.w	r0, #0
 80a5682:	bd0f      	pop	{r0, r1, r2, r3, pc}

080a5684 <__aeabi_fcmpeq>:
 80a5684:	f84d ed08 	str.w	lr, [sp, #-8]!
 80a5688:	f7ff fff4 	bl	80a5674 <__aeabi_cfcmpeq>
 80a568c:	bf0c      	ite	eq
 80a568e:	2001      	moveq	r0, #1
 80a5690:	2000      	movne	r0, #0
 80a5692:	f85d fb08 	ldr.w	pc, [sp], #8
 80a5696:	bf00      	nop

080a5698 <__aeabi_fcmplt>:
 80a5698:	f84d ed08 	str.w	lr, [sp, #-8]!
 80a569c:	f7ff ffea 	bl	80a5674 <__aeabi_cfcmpeq>
 80a56a0:	bf34      	ite	cc
 80a56a2:	2001      	movcc	r0, #1
 80a56a4:	2000      	movcs	r0, #0
 80a56a6:	f85d fb08 	ldr.w	pc, [sp], #8
 80a56aa:	bf00      	nop

080a56ac <__aeabi_fcmple>:
 80a56ac:	f84d ed08 	str.w	lr, [sp, #-8]!
 80a56b0:	f7ff ffe0 	bl	80a5674 <__aeabi_cfcmpeq>
 80a56b4:	bf94      	ite	ls
 80a56b6:	2001      	movls	r0, #1
 80a56b8:	2000      	movhi	r0, #0
 80a56ba:	f85d fb08 	ldr.w	pc, [sp], #8
 80a56be:	bf00      	nop

080a56c0 <__aeabi_fcmpge>:
 80a56c0:	f84d ed08 	str.w	lr, [sp, #-8]!
 80a56c4:	f7ff ffd2 	bl	80a566c <__aeabi_cfrcmple>
 80a56c8:	bf94      	ite	ls
 80a56ca:	2001      	movls	r0, #1
 80a56cc:	2000      	movhi	r0, #0
 80a56ce:	f85d fb08 	ldr.w	pc, [sp], #8
 80a56d2:	bf00      	nop

080a56d4 <__aeabi_fcmpgt>:
 80a56d4:	f84d ed08 	str.w	lr, [sp, #-8]!
 80a56d8:	f7ff ffc8 	bl	80a566c <__aeabi_cfrcmple>
 80a56dc:	bf34      	ite	cc
 80a56de:	2001      	movcc	r0, #1
 80a56e0:	2000      	movcs	r0, #0
 80a56e2:	f85d fb08 	ldr.w	pc, [sp], #8
 80a56e6:	bf00      	nop

080a56e8 <__aeabi_f2uiz>:
 80a56e8:	0042      	lsls	r2, r0, #1
 80a56ea:	d20e      	bcs.n	80a570a <__aeabi_f2uiz+0x22>
 80a56ec:	f1b2 4ffe 	cmp.w	r2, #2130706432	; 0x7f000000
 80a56f0:	d30b      	bcc.n	80a570a <__aeabi_f2uiz+0x22>
 80a56f2:	f04f 039e 	mov.w	r3, #158	; 0x9e
 80a56f6:	ebb3 6212 	subs.w	r2, r3, r2, lsr #24
 80a56fa:	d409      	bmi.n	80a5710 <__aeabi_f2uiz+0x28>
 80a56fc:	ea4f 2300 	mov.w	r3, r0, lsl #8
 80a5700:	f043 4300 	orr.w	r3, r3, #2147483648	; 0x80000000
 80a5704:	fa23 f002 	lsr.w	r0, r3, r2
 80a5708:	4770      	bx	lr
 80a570a:	f04f 0000 	mov.w	r0, #0
 80a570e:	4770      	bx	lr
 80a5710:	f112 0f61 	cmn.w	r2, #97	; 0x61
 80a5714:	d101      	bne.n	80a571a <__aeabi_f2uiz+0x32>
 80a5716:	0242      	lsls	r2, r0, #9
 80a5718:	d102      	bne.n	80a5720 <__aeabi_f2uiz+0x38>
 80a571a:	f04f 30ff 	mov.w	r0, #4294967295
 80a571e:	4770      	bx	lr
 80a5720:	f04f 0000 	mov.w	r0, #0
 80a5724:	4770      	bx	lr
 80a5726:	bf00      	nop

080a5728 <__cxa_atexit>:
 80a5728:	b510      	push	{r4, lr}
 80a572a:	4c05      	ldr	r4, [pc, #20]	; (80a5740 <__cxa_atexit+0x18>)
 80a572c:	4613      	mov	r3, r2
 80a572e:	b12c      	cbz	r4, 80a573c <__cxa_atexit+0x14>
 80a5730:	460a      	mov	r2, r1
 80a5732:	4601      	mov	r1, r0
 80a5734:	2002      	movs	r0, #2
 80a5736:	f3af 8000 	nop.w
 80a573a:	bd10      	pop	{r4, pc}
 80a573c:	4620      	mov	r0, r4
 80a573e:	bd10      	pop	{r4, pc}
 80a5740:	00000000 	.word	0x00000000

080a5744 <memcpy>:
 80a5744:	b510      	push	{r4, lr}
 80a5746:	1e43      	subs	r3, r0, #1
 80a5748:	440a      	add	r2, r1
 80a574a:	4291      	cmp	r1, r2
 80a574c:	d004      	beq.n	80a5758 <memcpy+0x14>
 80a574e:	f811 4b01 	ldrb.w	r4, [r1], #1
 80a5752:	f803 4f01 	strb.w	r4, [r3, #1]!
 80a5756:	e7f8      	b.n	80a574a <memcpy+0x6>
 80a5758:	bd10      	pop	{r4, pc}

080a575a <memset>:
 80a575a:	4603      	mov	r3, r0
 80a575c:	4402      	add	r2, r0
 80a575e:	4293      	cmp	r3, r2
 80a5760:	d002      	beq.n	80a5768 <memset+0xe>
 80a5762:	f803 1b01 	strb.w	r1, [r3], #1
 80a5766:	e7fa      	b.n	80a575e <memset+0x4>
 80a5768:	4770      	bx	lr

080a576a <strlen>:
 80a576a:	4603      	mov	r3, r0
 80a576c:	f813 2b01 	ldrb.w	r2, [r3], #1
 80a5770:	2a00      	cmp	r2, #0
 80a5772:	d1fb      	bne.n	80a576c <strlen+0x2>
 80a5774:	1a18      	subs	r0, r3, r0
 80a5776:	3801      	subs	r0, #1
 80a5778:	4770      	bx	lr

080a577a <link_code_end>:
	...

080a577c <dynalib_user>:
 80a577c:	001d 080a 005d 080a 0089 080a 008d 080a     ....]...........
 80a578c:	0000 0000 6573 7574 5370 6375 6563 7373     ....setupSuccess
 80a579c:	253d 0064 6157 7469 6e69 2067 6f66 2072     =%d.Waiting for 
 80a57ac:	7453 7261 0074 7453 7261 6974 676e 6920     Start.Starting i
 80a57bc:	206e 2035 6573 6f63 646e 2e73 2e2e 4700     n 5 seconds....G
 80a57cc:	214f 4f00 5455 5550 3a54 0020 7c20 0020     O!.OUTPUT: . | .
 80a57dc:	6573 736e 726f 3020 003a 6573 736e 726f     sensor 0:.sensor
 80a57ec:	3120 003a 6573 736e 726f 3220 003a 6573      1:.sensor 2:.se
 80a57fc:	736e 726f 3320 003a 6f6e 7320 6d61 6c70     nsor 3:.no sampl
 80a580c:	0065 5320 4e45 4f53 2052 4954 454d 554f     e. SENSOR TIMEOU
 80a581c:	0054 0000                                   T...

080a5820 <_ZTV9LIS3DHI2C>:
	...
 80a5828:	2045 080a 2047 080a 209b 080a 2053 080a     E ..G ... ..S ..
 80a5838:	6564 6976 6563 6e20 746f 6620 756f 646e     device not found
 80a5848:	7200 7365 7465 6974 676e 6c20 7361 4d74     .resetting lastM
 80a5858:	766f 6d65 6e65 2074 6e69 3174 735f 6372     ovement int1_src
 80a5868:	303d 2578 0078 6572 6163 696c 7262 7461     =0x%x.recalibrat
 80a5878:	6e69 0067                                   ing.

080a587c <_ZTV8SPIClass>:
	...
 80a5884:	344d 080a 344f 080a 616e 006e 766f 0066     M4..O4..nan.ovf.
 80a5894:	6e69 0066 6e6c 6600 006e 6f63 6564 6400     inf.ln.fn.code.d
 80a58a4:	7465 6961 006c 0a0d 2500 3130 7530 0020     etail....%010u .
 80a58b4:	205d 2c00 0020 2928 203a 2000 005b 6f63     ] ., .(): . [.co
 80a58c4:	6564 3d20 0020 6925 6400 7465 6961 736c     de = .%i.details
 80a58d4:	3d20 0020 6162 6475 5300 7265 6169 006c      = .baud.Serial.
 80a58e4:	5355 5342 7265 6169 316c 7400 7079 0065     USBSerial1.type.
 80a58f4:	6170 6172 006d 6d63 0064 6469 6800 646e     param.cmd.id.hnd
 80a5904:	7300 7274 006d 6966 746c 6c00 6c76 6100     .strm.filt.lvl.a
 80a5914:	6464 6148 646e 656c 0072 6572 6f6d 6576     ddHandler.remove
 80a5924:	6148 646e 656c 0072 6e65 6d75 6148 646e     Handler.enumHand
 80a5934:	656c 7372 4a00 4f53 534e 7274 6165 4c6d     lers.JSONStreamL
 80a5944:	676f 6148 646e 656c 0072 7061 0070 6f6e     ogHandler.app.no
 80a5954:	656e 7400 6172 6563 6900 666e 006f 6177     ne.trace.info.wa
 80a5964:	6e72 6500 7272 726f 7000 6e61 6369 6100     rn.error.panic.a
 80a5974:	6c6c 5a00 2500 302b 6433 253a 3230 0075     ll.Z.%+03d:%02u.
 80a5984:	5925 252d 2d6d 6425 2554 3a48 4d25 253a     %Y-%m-%dT%H:%M:%
 80a5994:	2553 007a 7361 7463 6d69 0065               S%z.asctime.

080a59a0 <_ZTVN5spark6detail14FutureImplBaseIvNS0_13FutureContextEEE>:
	...
 80a59a8:	3a49 080a 3a79 080a                         I:..y:..

080a59b0 <_ZTVN5spark6detail10FutureImplIvNS0_13FutureContextEEE>:
	...
 80a59b8:	3a8d 080a 3aa1 080a                         .:...:..

080a59c0 <_ZTVSt15_Sp_counted_ptrIPN5spark6detail10FutureImplIvNS1_13FutureContextEEELN9__gnu_cxx12_Lock_policyE0EE>:
	...
 80a59c8:	3a0d 080a 3a1f 080a 3a0f 080a 3a2b 080a     .:...:...:..+:..
 80a59d8:	3a1b 080a                                   .:..

080a59dc <_ZTV9IPAddress>:
	...
 80a59e4:	3f0d 080a 3eff 080a 3f01 080a               .?...>...?..

080a59f0 <_ZTV9USBSerial>:
	...
 80a59f8:	3f75 080a 3fb9 080a 3f93 080a 354f 080a     u?...?...?..O5..
 80a5a08:	3f8d 080a 3f77 080a 3f7f 080a 3fb3 080a     .?..w?...?...?..
 80a5a18:	3f87 080a 3f71 080a                         .?..q?..

080a5a20 <_ZTV11USARTSerial>:
	...
 80a5a28:	4135 080a 4159 080a 4165 080a 354f 080a     5A..YA..eA..O5..
 80a5a38:	4141 080a 414d 080a 4147 080a 4153 080a     AA..MA..GA..SA..
 80a5a48:	4137 080a 413b 080a                         7A..;A..

080a5a50 <_ZTV7TwoWire>:
	...
 80a5a58:	422f 080a 4279 080a 4251 080a 4231 080a     /B..yB..QB..1B..
 80a5a68:	4259 080a 4261 080a 4269 080a 4271 080a     YB..aB..iB..qB..

080a5a78 <_ZTVN5spark9WiFiClassE>:
	...
 80a5a80:	42ff 080a                                   .B..

080a5a84 <link_const_variable_data_end>:
 80a5a84:	080a13c9 	.word	0x080a13c9
 80a5a88:	080a2041 	.word	0x080a2041
 80a5a8c:	080a2295 	.word	0x080a2295
 80a5a90:	080a3549 	.word	0x080a3549
 80a5a94:	080a38b1 	.word	0x080a38b1
 80a5a98:	080a38c1 	.word	0x080a38c1
 80a5a9c:	080a4309 	.word	0x080a4309
 80a5aa0:	080a43ed 	.word	0x080a43ed
 80a5aa4:	080a4431 	.word	0x080a4431
 80a5aa8:	080a44b1 	.word	0x080a44b1
 80a5aac:	080a4535 	.word	0x080a4535
 80a5ab0:	080a45f9 	.word	0x080a45f9
 80a5ab4:	080a46bd 	.word	0x080a46bd

080a5ab8 <link_constructors_end>:
	...
